
../../Example/out/eval/Oz/elf_ns/bubblesort.axf:     file format elf32-littlearm


Disassembly of section ER_ROM:

00200000 <__Vectors>:
  200000:	00 00 40 28 a9 04 20 00 a5 04 20 00 a7 04 20 00     ..@(.. ... ... .
  200010:	a5 04 20 00 a5 04 20 00 a5 04 20 00 a5 04 20 00     .. ... ... ... .
	...
  20002c:	a5 04 20 00 a5 04 20 00 00 00 00 00 a5 04 20 00     .. ... ....... .
  20003c:	a5 04 20 00 a5 04 20 00 a5 04 20 00 a5 04 20 00     .. ... ... ... .
  20004c:	a5 04 20 00 a5 04 20 00 a5 04 20 00 00 00 00 00     .. ... ... .....
	...
  200064:	a5 04 20 00 a5 04 20 00 a5 04 20 00 a5 04 20 00     .. ... ... ... .
	...
  2000c0:	a5 04 20 00 a5 04 20 00 a5 04 20 00 a5 04 20 00     .. ... ... ... .
  2000d0:	a5 04 20 00 a5 04 20 00 a5 04 20 00 a5 04 20 00     .. ... ... ... .
  2000e0:	a5 04 20 00 a5 04 20 00 a5 04 20 00 a5 04 20 00     .. ... ... ... .
  2000f0:	a5 04 20 00 a5 04 20 00 a5 04 20 00 a5 04 20 00     .. ... ... ... .
  200100:	a5 04 20 00 a5 04 20 00 a5 04 20 00 a5 04 20 00     .. ... ... ... .
  200110:	a5 04 20 00 a5 04 20 00 a5 04 20 00 a5 04 20 00     .. ... ... ... .
  200120:	a5 04 20 00 a5 04 20 00 a5 04 20 00 a5 04 20 00     .. ... ... ... .
  200130:	a5 04 20 00 a5 04 20 00 a5 04 20 00 a5 04 20 00     .. ... ... ... .
  200140:	a5 04 20 00 a5 04 20 00 a5 04 20 00 a5 04 20 00     .. ... ... ... .
  200150:	a5 04 20 00 a5 04 20 00 a5 04 20 00 a5 04 20 00     .. ... ... ... .
  200160:	a5 04 20 00 a5 04 20 00 a5 04 20 00 a5 04 20 00     .. ... ... ... .
  200170:	a5 04 20 00 a5 04 20 00 a5 04 20 00 a5 04 20 00     .. ... ... ... .
  200180:	a5 04 20 00 a5 04 20 00 a5 04 20 00 a5 04 20 00     .. ... ... ... .
  200190:	a5 04 20 00 a5 04 20 00 a5 04 20 00 a5 04 20 00     .. ... ... ... .
  2001a0:	a5 04 20 00 a5 04 20 00 a5 04 20 00 a5 04 20 00     .. ... ... ... .
  2001b0:	a5 04 20 00 a5 04 20 00 a5 04 20 00 a5 04 20 00     .. ... ... ... .
  2001c0:	a5 04 20 00 a5 04 20 00 a5 04 20 00 a5 04 20 00     .. ... ... ... .
  2001d0:	a5 04 20 00 a5 04 20 00 a5 04 20 00 a5 04 20 00     .. ... ... ... .
  2001e0:	a5 04 20 00 a5 04 20 00 a5 04 20 00 a5 04 20 00     .. ... ... ... .
  2001f0:	a5 04 20 00 a5 04 20 00 a5 04 20 00 a5 04 20 00     .. ... ... ... .
  200200:	a5 04 20 00 a5 04 20 00 a5 04 20 00 a5 04 20 00     .. ... ... ... .
  200210:	a5 04 20 00 a5 04 20 00 a5 04 20 00 a5 04 20 00     .. ... ... ... .
  200220:	a5 04 20 00 a5 04 20 00 a5 04 20 00 a5 04 20 00     .. ... ... ... .
	...

00200400 <__main>:
  200400:	f000 f802 	bl	200408 <__scatterload_rt2>
  200404:	f000 f82e 	bl	200464 <__rt_entry>

00200408 <__scatterload_rt2>:
  200408:	a00a      	add	r0, pc, #40	; (adr r0, 200434 <__scatterload_null+0x1e>)
  20040a:	e890 0c00 	ldmia.w	r0, {sl, fp}
  20040e:	4482      	add	sl, r0
  200410:	4483      	add	fp, r0
  200412:	f1aa 0701 	sub.w	r7, sl, #1

00200416 <__scatterload_null>:
  200416:	45da      	cmp	sl, fp
  200418:	d101      	bne.n	20041e <__scatterload_null+0x8>
  20041a:	f000 f823 	bl	200464 <__rt_entry>
  20041e:	f2af 0e09 	subw	lr, pc, #9
  200422:	e8ba 000f 	ldmia.w	sl!, {r0, r1, r2, r3}
  200426:	f013 0f01 	tst.w	r3, #1
  20042a:	bf18      	it	ne
  20042c:	1afb      	subne	r3, r7, r3
  20042e:	f043 0301 	orr.w	r3, r3, #1
  200432:	4718      	bx	r3
  200434:	00000184 	.word	0x00000184
  200438:	00000194 	.word	0x00000194

0020043c <__scatterload_zeroinit>:
  20043c:	2300      	movs	r3, #0
  20043e:	2400      	movs	r4, #0
  200440:	2500      	movs	r5, #0
  200442:	2600      	movs	r6, #0
  200444:	3a10      	subs	r2, #16
  200446:	bf28      	it	cs
  200448:	c178      	stmiacs	r1!, {r3, r4, r5, r6}
  20044a:	d8fb      	bhi.n	200444 <__scatterload_zeroinit+0x8>
  20044c:	0752      	lsls	r2, r2, #29
  20044e:	bf28      	it	cs
  200450:	c130      	stmiacs	r1!, {r4, r5}
  200452:	bf48      	it	mi
  200454:	600b      	strmi	r3, [r1, #0]
  200456:	4770      	bx	lr

00200458 <__rt_lib_init>:
  200458:	b51f      	push	{r0, r1, r2, r3, r4, lr}

0020045a <__rt_lib_init_fp_1>:
  20045a:	f000 f89f 	bl	20059c <_fp_init>

0020045e <__rt_lib_init_alloca_1>:
  20045e:	bd1f      	pop	{r0, r1, r2, r3, r4, pc}

00200460 <__rt_lib_shutdown>:
  200460:	b510      	push	{r4, lr}

00200462 <__rt_lib_shutdown_cpp_1>:
  200462:	bd10      	pop	{r4, pc}

00200464 <__rt_entry>:
  200464:	f8df d00c 	ldr.w	sp, [pc, #12]	; 200474 <__lit__00000000>

00200468 <__rt_entry_li>:
  200468:	f7ff fff6 	bl	200458 <__rt_lib_init>

0020046c <__rt_entry_main>:
  20046c:	f000 f838 	bl	2004e0 <main>
  200470:	f000 f808 	bl	200484 <exit>

00200474 <__lit__00000000>:
  200474:	0000 2840                                   ..@(

00200478 <__rt_exit>:
  200478:	b403      	push	{r0, r1}

0020047a <__rt_exit_ls>:
  20047a:	f7ff fff1 	bl	200460 <__rt_lib_shutdown>

0020047e <__rt_exit_exit>:
  20047e:	bc03      	pop	{r0, r1}
  200480:	f000 f80a 	bl	200498 <_sys_exit>

00200484 <exit>:
  200484:	b510      	push	{r4, lr}
  200486:	4604      	mov	r4, r0
  200488:	f3af 8000 	nop.w
  20048c:	4620      	mov	r0, r4
  20048e:	e8bd 4010 	ldmia.w	sp!, {r4, lr}
  200492:	f7ff bff1 	b.w	200478 <__rt_exit>

00200496 <__use_no_semihosting_swi>:
  200496:	4770      	bx	lr

00200498 <_sys_exit>:
  200498:	4901      	ldr	r1, [pc, #4]	; (2004a0 <_sys_exit+0x8>)
  20049a:	2018      	movs	r0, #24
  20049c:	beab      	bkpt	0x00ab
  20049e:	e7fe      	b.n	20049e <_sys_exit+0x6>
  2004a0:	00020026 	.word	0x00020026

002004a4 <Default_Handler>:
  2004a4:	e7fe      	b.n	2004a4 <Default_Handler>

002004a6 <HardFault_Handler>:
  2004a6:	e7fe      	b.n	2004a6 <HardFault_Handler>

002004a8 <Reset_Handler>:
  2004a8:	4809      	ldr	r0, [pc, #36]	; (2004d0 <__arm_cp.1_0>)
  2004aa:	f380 8809 	msr	PSP, r0
  2004ae:	490b      	ldr	r1, [pc, #44]	; (2004dc <__arm_cp.1_3>)
  2004b0:	4808      	ldr	r0, [pc, #32]	; (2004d4 <__arm_cp.1_1>)
  2004b2:	f380 880a 	msr	MSPLIM, r0
  2004b6:	f380 880b 	msr	PSPLIM, r0
  2004ba:	4807      	ldr	r0, [pc, #28]	; (2004d8 <__arm_cp.1_2>)
  2004bc:	6001      	str	r1, [r0, #0]
  2004be:	f8d0 1080 	ldr.w	r1, [r0, #128]	; 0x80
  2004c2:	f441 0170 	orr.w	r1, r1, #15728640	; 0xf00000
  2004c6:	f8c0 1080 	str.w	r1, [r0, #128]	; 0x80
  2004ca:	f7ff ff99 	bl	200400 <__main>
  2004ce:	bf00      	nop

002004d0 <__arm_cp.1_0>:
  2004d0:	28400000 	.word	0x28400000

002004d4 <__arm_cp.1_1>:
  2004d4:	283ffc00 	.word	0x283ffc00

002004d8 <__arm_cp.1_2>:
  2004d8:	e000ed08 	.word	0xe000ed08

002004dc <__arm_cp.1_3>:
  2004dc:	00200000 	.word	0x00200000

002004e0 <main>:
  2004e0:	b082      	sub	sp, #8
  2004e2:	f04f 0900 	mov.w	r9, #0
  2004e6:	f44f 3080 	mov.w	r0, #65536	; 0x10000
  2004ea:	f8cd 9004 	str.w	r9, [sp, #4]
  2004ee:	f000 f84b 	bl	200588 <__arm_cp.0_1+0x4>
  2004f2:	4823      	ldr	r0, [pc, #140]	; (200580 <__arm_cp.0_0>)
  2004f4:	f8df a08c 	ldr.w	sl, [pc, #140]	; 200584 <__arm_cp.0_1>
  2004f8:	f04f 0800 	mov.w	r8, #0
  2004fc:	4683      	mov	fp, r0
  2004fe:	f1b8 0f05 	cmp.w	r8, #5
  200502:	d03c      	beq.n	20057e <main+0x9e>
  200504:	f04f 0c00 	mov.w	ip, #0
  200508:	4658      	mov	r0, fp
  20050a:	f8cb c000 	str.w	ip, [fp]
  20050e:	f5bc 7f80 	cmp.w	ip, #256	; 0x100
  200512:	d02d      	beq.n	200570 <main+0x90>
  200514:	2100      	movs	r1, #0
  200516:	4652      	mov	r2, sl
  200518:	f111 0064 	adds.w	r0, r1, #100	; 0x64
  20051c:	d002      	beq.n	200524 <main+0x44>
  20051e:	c202      	stmia	r2!, {r1}
  200520:	3901      	subs	r1, #1
  200522:	e7f9      	b.n	200518 <main+0x38>
  200524:	9801      	ldr	r0, [sp, #4]
  200526:	2100      	movs	r1, #0
  200528:	2964      	cmp	r1, #100	; 0x64
  20052a:	d01b      	beq.n	200564 <main+0x84>
  20052c:	f1c1 0264 	rsb	r2, r1, #100	; 0x64
  200530:	2300      	movs	r3, #0
  200532:	2400      	movs	r4, #0
  200534:	eb0a 0084 	add.w	r0, sl, r4, lsl #2
  200538:	1e65      	subs	r5, r4, #1
  20053a:	1d07      	adds	r7, r0, #4
  20053c:	3501      	adds	r5, #1
  20053e:	2d63      	cmp	r5, #99	; 0x63
  200540:	bf98      	it	ls
  200542:	4295      	cmpls	r5, r2
  200544:	d20b      	bcs.n	20055e <main+0x7e>
  200546:	f857 0c04 	ldr.w	r0, [r7, #-4]
  20054a:	1d3c      	adds	r4, r7, #4
  20054c:	683e      	ldr	r6, [r7, #0]
  20054e:	4627      	mov	r7, r4
  200550:	42b0      	cmp	r0, r6
  200552:	ddf3      	ble.n	20053c <main+0x5c>
  200554:	e944 6002 	strd	r6, r0, [r4, #-8]
  200558:	1c6c      	adds	r4, r5, #1
  20055a:	2301      	movs	r3, #1
  20055c:	e7ea      	b.n	200534 <main+0x54>
  20055e:	3101      	adds	r1, #1
  200560:	07d8      	lsls	r0, r3, #31
  200562:	d1e1      	bne.n	200528 <main+0x48>
  200564:	f8cd 9004 	str.w	r9, [sp, #4]
  200568:	f10c 0c01 	add.w	ip, ip, #1
  20056c:	9801      	ldr	r0, [sp, #4]
  20056e:	e7ce      	b.n	20050e <main+0x2e>
  200570:	f8db 0000 	ldr.w	r0, [fp]
  200574:	f000 f80d 	bl	200592 <__arm_cp.0_1+0xe>
  200578:	f108 0801 	add.w	r8, r8, #1
  20057c:	e7bf      	b.n	2004fe <main+0x1e>
  20057e:	e7fe      	b.n	20057e <main+0x9e>

00200580 <__arm_cp.0_0>:
  200580:	e0001004 	.word	0xe0001004

00200584 <__arm_cp.0_1>:
  200584:	28200000 	.word	0x28200000
  200588:	f64f 6c11 	movw	ip, #65041	; 0xfe11
  20058c:	f2c1 0c1f 	movt	ip, #4127	; 0x101f
  200590:	4760      	bx	ip
  200592:	f64f 6c19 	movw	ip, #65049	; 0xfe19
  200596:	f2c1 0c1f 	movt	ip, #4127	; 0x101f
  20059a:	4760      	bx	ip

0020059c <_fp_init>:
  20059c:	eef1 0a10 	vmrs	r0, fpscr
  2005a0:	f64f 71ff 	movw	r1, #65535	; 0xffff
  2005a4:	f2c0 31c0 	movt	r1, #960	; 0x3c0
  2005a8:	ea20 0001 	bic.w	r0, r0, r1
  2005ac:	f040 7040 	orr.w	r0, r0, #50331648	; 0x3000000
  2005b0:	eee1 0a10 	vmsr	fpscr, r0

002005b4 <__fplib_config_fpu_vfp>:
  2005b4:	4770      	bx	lr
	...

002005b8 <Region$$Table$$Base>:
  2005b8:	002005c8 	.word	0x002005c8
  2005bc:	28200000 	.word	0x28200000
  2005c0:	00000194 	.word	0x00000194
  2005c4:	0020043c 	.word	0x0020043c
