
../../Example/out/eval/Oz/elf_ns/crc32.axf:     file format elf32-littlearm


Disassembly of section ER_ROM:

00200000 <__Vectors>:
  200000:	00 00 40 28 a9 04 20 00 a5 04 20 00 a7 04 20 00     ..@(.. ... ... .
  200010:	a5 04 20 00 a5 04 20 00 a5 04 20 00 a5 04 20 00     .. ... ... ... .
	...
  20002c:	a5 04 20 00 a5 04 20 00 00 00 00 00 a5 04 20 00     .. ... ....... .
  20003c:	a5 04 20 00 a5 04 20 00 a5 04 20 00 a5 04 20 00     .. ... ... ... .
  20004c:	a5 04 20 00 a5 04 20 00 a5 04 20 00 00 00 00 00     .. ... ... .....
	...
  200064:	a5 04 20 00 a5 04 20 00 a5 04 20 00 a5 04 20 00     .. ... ... ... .
	...
  2000c0:	a5 04 20 00 a5 04 20 00 a5 04 20 00 a5 04 20 00     .. ... ... ... .
  2000d0:	a5 04 20 00 a5 04 20 00 a5 04 20 00 a5 04 20 00     .. ... ... ... .
  2000e0:	a5 04 20 00 a5 04 20 00 a5 04 20 00 a5 04 20 00     .. ... ... ... .
  2000f0:	a5 04 20 00 a5 04 20 00 a5 04 20 00 a5 04 20 00     .. ... ... ... .
  200100:	a5 04 20 00 a5 04 20 00 a5 04 20 00 a5 04 20 00     .. ... ... ... .
  200110:	a5 04 20 00 a5 04 20 00 a5 04 20 00 a5 04 20 00     .. ... ... ... .
  200120:	a5 04 20 00 a5 04 20 00 a5 04 20 00 a5 04 20 00     .. ... ... ... .
  200130:	a5 04 20 00 a5 04 20 00 a5 04 20 00 a5 04 20 00     .. ... ... ... .
  200140:	a5 04 20 00 a5 04 20 00 a5 04 20 00 a5 04 20 00     .. ... ... ... .
  200150:	a5 04 20 00 a5 04 20 00 a5 04 20 00 a5 04 20 00     .. ... ... ... .
  200160:	a5 04 20 00 a5 04 20 00 a5 04 20 00 a5 04 20 00     .. ... ... ... .
  200170:	a5 04 20 00 a5 04 20 00 a5 04 20 00 a5 04 20 00     .. ... ... ... .
  200180:	a5 04 20 00 a5 04 20 00 a5 04 20 00 a5 04 20 00     .. ... ... ... .
  200190:	a5 04 20 00 a5 04 20 00 a5 04 20 00 a5 04 20 00     .. ... ... ... .
  2001a0:	a5 04 20 00 a5 04 20 00 a5 04 20 00 a5 04 20 00     .. ... ... ... .
  2001b0:	a5 04 20 00 a5 04 20 00 a5 04 20 00 a5 04 20 00     .. ... ... ... .
  2001c0:	a5 04 20 00 a5 04 20 00 a5 04 20 00 a5 04 20 00     .. ... ... ... .
  2001d0:	a5 04 20 00 a5 04 20 00 a5 04 20 00 a5 04 20 00     .. ... ... ... .
  2001e0:	a5 04 20 00 a5 04 20 00 a5 04 20 00 a5 04 20 00     .. ... ... ... .
  2001f0:	a5 04 20 00 a5 04 20 00 a5 04 20 00 a5 04 20 00     .. ... ... ... .
  200200:	a5 04 20 00 a5 04 20 00 a5 04 20 00 a5 04 20 00     .. ... ... ... .
  200210:	a5 04 20 00 a5 04 20 00 a5 04 20 00 a5 04 20 00     .. ... ... ... .
  200220:	a5 04 20 00 a5 04 20 00 a5 04 20 00 a5 04 20 00     .. ... ... ... .
	...

00200400 <__main>:
  200400:	f000 f802 	bl	200408 <__scatterload_rt2>
  200404:	f000 f82e 	bl	200464 <__rt_entry>

00200408 <__scatterload_rt2>:
  200408:	a00a      	add	r0, pc, #40	; (adr r0, 200434 <__scatterload_null+0x1e>)
  20040a:	e890 0c00 	ldmia.w	r0, {sl, fp}
  20040e:	4482      	add	sl, r0
  200410:	4483      	add	fp, r0
  200412:	f1aa 0701 	sub.w	r7, sl, #1

00200416 <__scatterload_null>:
  200416:	45da      	cmp	sl, fp
  200418:	d101      	bne.n	20041e <__scatterload_null+0x8>
  20041a:	f000 f823 	bl	200464 <__rt_entry>
  20041e:	f2af 0e09 	subw	lr, pc, #9
  200422:	e8ba 000f 	ldmia.w	sl!, {r0, r1, r2, r3}
  200426:	f013 0f01 	tst.w	r3, #1
  20042a:	bf18      	it	ne
  20042c:	1afb      	subne	r3, r7, r3
  20042e:	f043 0301 	orr.w	r3, r3, #1
  200432:	4718      	bx	r3
  200434:	0000056c 	.word	0x0000056c
  200438:	0000057c 	.word	0x0000057c

0020043c <__scatterload_zeroinit>:
  20043c:	2300      	movs	r3, #0
  20043e:	2400      	movs	r4, #0
  200440:	2500      	movs	r5, #0
  200442:	2600      	movs	r6, #0
  200444:	3a10      	subs	r2, #16
  200446:	bf28      	it	cs
  200448:	c178      	stmiacs	r1!, {r3, r4, r5, r6}
  20044a:	d8fb      	bhi.n	200444 <__scatterload_zeroinit+0x8>
  20044c:	0752      	lsls	r2, r2, #29
  20044e:	bf28      	it	cs
  200450:	c130      	stmiacs	r1!, {r4, r5}
  200452:	bf48      	it	mi
  200454:	600b      	strmi	r3, [r1, #0]
  200456:	4770      	bx	lr

00200458 <__rt_lib_init>:
  200458:	b51f      	push	{r0, r1, r2, r3, r4, lr}

0020045a <__rt_lib_init_fp_1>:
  20045a:	f000 f893 	bl	200584 <_fp_init>

0020045e <__rt_lib_init_alloca_1>:
  20045e:	bd1f      	pop	{r0, r1, r2, r3, r4, pc}

00200460 <__rt_lib_shutdown>:
  200460:	b510      	push	{r4, lr}

00200462 <__rt_lib_shutdown_cpp_1>:
  200462:	bd10      	pop	{r4, pc}

00200464 <__rt_entry>:
  200464:	f8df d00c 	ldr.w	sp, [pc, #12]	; 200474 <__lit__00000000>

00200468 <__rt_entry_li>:
  200468:	f7ff fff6 	bl	200458 <__rt_lib_init>

0020046c <__rt_entry_main>:
  20046c:	f000 f838 	bl	2004e0 <main>
  200470:	f000 f808 	bl	200484 <exit>

00200474 <__lit__00000000>:
  200474:	0000 2840                                   ..@(

00200478 <__rt_exit>:
  200478:	b403      	push	{r0, r1}

0020047a <__rt_exit_ls>:
  20047a:	f7ff fff1 	bl	200460 <__rt_lib_shutdown>

0020047e <__rt_exit_exit>:
  20047e:	bc03      	pop	{r0, r1}
  200480:	f000 f80a 	bl	200498 <_sys_exit>

00200484 <exit>:
  200484:	b510      	push	{r4, lr}
  200486:	4604      	mov	r4, r0
  200488:	f3af 8000 	nop.w
  20048c:	4620      	mov	r0, r4
  20048e:	e8bd 4010 	ldmia.w	sp!, {r4, lr}
  200492:	f7ff bff1 	b.w	200478 <__rt_exit>

00200496 <__use_no_semihosting_swi>:
  200496:	4770      	bx	lr

00200498 <_sys_exit>:
  200498:	4901      	ldr	r1, [pc, #4]	; (2004a0 <_sys_exit+0x8>)
  20049a:	2018      	movs	r0, #24
  20049c:	beab      	bkpt	0x00ab
  20049e:	e7fe      	b.n	20049e <_sys_exit+0x6>
  2004a0:	00020026 	.word	0x00020026

002004a4 <Default_Handler>:
  2004a4:	e7fe      	b.n	2004a4 <Default_Handler>

002004a6 <HardFault_Handler>:
  2004a6:	e7fe      	b.n	2004a6 <HardFault_Handler>

002004a8 <Reset_Handler>:
  2004a8:	4809      	ldr	r0, [pc, #36]	; (2004d0 <__arm_cp.1_0>)
  2004aa:	f380 8809 	msr	PSP, r0
  2004ae:	490b      	ldr	r1, [pc, #44]	; (2004dc <__arm_cp.1_3>)
  2004b0:	4808      	ldr	r0, [pc, #32]	; (2004d4 <__arm_cp.1_1>)
  2004b2:	f380 880a 	msr	MSPLIM, r0
  2004b6:	f380 880b 	msr	PSPLIM, r0
  2004ba:	4807      	ldr	r0, [pc, #28]	; (2004d8 <__arm_cp.1_2>)
  2004bc:	6001      	str	r1, [r0, #0]
  2004be:	f8d0 1080 	ldr.w	r1, [r0, #128]	; 0x80
  2004c2:	f441 0170 	orr.w	r1, r1, #15728640	; 0xf00000
  2004c6:	f8c0 1080 	str.w	r1, [r0, #128]	; 0x80
  2004ca:	f7ff ff99 	bl	200400 <__main>
  2004ce:	bf00      	nop

002004d0 <__arm_cp.1_0>:
  2004d0:	28400000 	.word	0x28400000

002004d4 <__arm_cp.1_1>:
  2004d4:	283ffc00 	.word	0x283ffc00

002004d8 <__arm_cp.1_2>:
  2004d8:	e000ed08 	.word	0xe000ed08

002004dc <__arm_cp.1_3>:
  2004dc:	00200000 	.word	0x00200000

002004e0 <main>:
  2004e0:	b082      	sub	sp, #8
  2004e2:	f04f 0800 	mov.w	r8, #0
  2004e6:	f44f 3080 	mov.w	r0, #65536	; 0x10000
  2004ea:	f8cd 8004 	str.w	r8, [sp, #4]
  2004ee:	f000 f83f 	bl	200570 <__arm_cp.0_3+0x4>
  2004f2:	481b      	ldr	r0, [pc, #108]	; (200560 <__arm_cp.0_0>)
  2004f4:	f8df 906c 	ldr.w	r9, [pc, #108]	; 200564 <__arm_cp.0_1>
  2004f8:	4c1c      	ldr	r4, [pc, #112]	; (20056c <__arm_cp.0_3>)
  2004fa:	f243 0739 	movw	r7, #12345	; 0x3039
  2004fe:	4d1a      	ldr	r5, [pc, #104]	; (200568 <__arm_cp.0_2>)
  200500:	4682      	mov	sl, r0
  200502:	f1b8 0f05 	cmp.w	r8, #5
  200506:	d029      	beq.n	20055c <main+0x7c>
  200508:	2000      	movs	r0, #0
  20050a:	4651      	mov	r1, sl
  20050c:	f8ca 0000 	str.w	r0, [sl]
  200510:	f5b0 7f80 	cmp.w	r0, #256	; 0x100
  200514:	d01b      	beq.n	20054e <main+0x6e>
  200516:	9901      	ldr	r1, [sp, #4]
  200518:	f44f 6280 	mov.w	r2, #1024	; 0x400
  20051c:	f8d9 3000 	ldr.w	r3, [r9]
  200520:	f04f 31ff 	mov.w	r1, #4294967295
  200524:	b162      	cbz	r2, 200540 <main+0x60>
  200526:	fb03 7305 	mla	r3, r3, r5, r7
  20052a:	3a01      	subs	r2, #1
  20052c:	ea81 4613 	eor.w	r6, r1, r3, lsr #16
  200530:	f023 4300 	bic.w	r3, r3, #2147483648	; 0x80000000
  200534:	b2f6      	uxtb	r6, r6
  200536:	f854 6026 	ldr.w	r6, [r4, r6, lsl #2]
  20053a:	ea86 2111 	eor.w	r1, r6, r1, lsr #8
  20053e:	e7f1      	b.n	200524 <main+0x44>
  200540:	43c9      	mvns	r1, r1
  200542:	f8c9 3000 	str.w	r3, [r9]
  200546:	3001      	adds	r0, #1
  200548:	9101      	str	r1, [sp, #4]
  20054a:	9901      	ldr	r1, [sp, #4]
  20054c:	e7e0      	b.n	200510 <main+0x30>
  20054e:	f8da 0000 	ldr.w	r0, [sl]
  200552:	f000 f812 	bl	20057a <__arm_cp.0_3+0xe>
  200556:	f108 0801 	add.w	r8, r8, #1
  20055a:	e7d2      	b.n	200502 <main+0x22>
  20055c:	e7fe      	b.n	20055c <main+0x7c>
  20055e:	bf00      	nop

00200560 <__arm_cp.0_0>:
  200560:	e0001004 	.word	0xe0001004

00200564 <__arm_cp.0_1>:
  200564:	28200000 	.word	0x28200000

00200568 <__arm_cp.0_2>:
  200568:	41c64e6d 	.word	0x41c64e6d

0020056c <__arm_cp.0_3>:
  20056c:	002005a0 	.word	0x002005a0
  200570:	f64f 6c11 	movw	ip, #65041	; 0xfe11
  200574:	f2c1 0c1f 	movt	ip, #4127	; 0x101f
  200578:	4760      	bx	ip
  20057a:	f64f 6c19 	movw	ip, #65049	; 0xfe19
  20057e:	f2c1 0c1f 	movt	ip, #4127	; 0x101f
  200582:	4760      	bx	ip

00200584 <_fp_init>:
  200584:	eef1 0a10 	vmrs	r0, fpscr
  200588:	f64f 71ff 	movw	r1, #65535	; 0xffff
  20058c:	f2c0 31c0 	movt	r1, #960	; 0x3c0
  200590:	ea20 0001 	bic.w	r0, r0, r1
  200594:	f040 7040 	orr.w	r0, r0, #50331648	; 0x3000000
  200598:	eee1 0a10 	vmsr	fpscr, r0

0020059c <__fplib_config_fpu_vfp>:
  20059c:	4770      	bx	lr
	...

002005a0 <crc_32_tab>:
  2005a0:	0000 0000 3096 7707 612c ee0e 51ba 9909     .....0.w,a...Q..
  2005b0:	c419 076d f48f 706a a535 e963 95a3 9e64     ..m...jp5.c...d.
  2005c0:	8832 0edb b8a4 79dc e91e e0d5 d988 97d2     2......y........
  2005d0:	4c2b 09b6 7cbd 7eb1 2d07 e7b8 1d91 90bf     +L...|.~.-......
  2005e0:	1064 1db7 20f2 6ab0 7148 f3b9 41de 84be     d.... .jHq...A..
  2005f0:	d47d 1ada e4eb 6ddd b551 f4d4 85c7 83d3     }......mQ.......
  200600:	9856 136c a8c0 646b f97a fd62 c9ec 8a65     V.l...kdz.b...e.
  200610:	5c4f 1401 6cd9 6306 3d63 fa0f 0df5 8d08     O\...l.cc=......
  200620:	20c8 3b6e 105e 4c69 41e4 d560 7172 a267     . n;^.iL.A`.rqg.
  200630:	e4d1 3c03 d447 4b04 85fd d20d b56b a50a     ...<G..K....k...
  200640:	a8fa 35b5 986c 42b2 c9d6 dbbb f940 acbc     ...5l..B....@...
  200650:	6ce3 32d8 5c75 45df 0dcf dcd6 3d59 abd1     .l.2u\.E....Y=..
  200660:	30ac 26d9 003a 51de 5180 c8d7 6116 bfd0     .0.&:..Q.Q...a..
  200670:	f4b5 21b4 c423 56b3 9599 cfba a50f b8bd     ...!#..V........
  200680:	b89e 2802 8808 5f05 d9b2 c60c e924 b10b     ...(..._....$...
  200690:	7c87 2f6f 4c11 5868 1dab c161 2d3d b666     .|o/.LhX..a.=-f.
  2006a0:	4190 76dc 7106 01db 20bc 98d2 102a efd5     .A.v.q... ..*...
  2006b0:	8589 71b1 b51f 06b6 e4a5 9fbf d433 e8b8     ...q........3...
  2006c0:	c9a2 7807 f934 0f00 a88e 9609 9818 e10e     ...x4...........
  2006d0:	0dbb 7f6a 3d2d 086d 6c97 9164 5c01 e663     ..j.-=m..ld..\c.
  2006e0:	51f4 6b6b 6162 1c6c 30d8 8565 004e f262     .Qkkbal..0e.N.b.
  2006f0:	95ed 6c06 a57b 1b01 f4c1 8208 c457 f50f     ...l{.......W...
  200700:	d9c6 65b0 e950 12b7 b8ea 8bbe 887c fcb9     ...eP.......|...
  200710:	1ddf 62dd 2d49 15da 7cf3 8cd3 4c65 fbd4     ...bI-...|..eL..
  200720:	6158 4db2 51ce 3ab5 0074 a3bc 30e2 d4bb     Xa.M.Q.:t....0..
  200730:	a541 4adf 95d7 3dd8 c46d a4d1 f4fb d3d6     A..J...=m.......
  200740:	e96a 4369 d9fc 346e 8846 ad67 b8d0 da60     j.iC..n4F.g...`.
  200750:	2d73 4404 1de5 3303 4c5f aa0a 7cc9 dd0d     s-.D...3_L...|..
  200760:	713c 5005 41aa 2702 1010 be0b 2086 c90c     <q.P.A.'..... ..
  200770:	b525 5768 85b3 206f d409 b966 e49f ce61     %.hW..o ..f...a.
  200780:	f90e 5ede c998 29d9 9822 b0d0 a8b4 c7d7     ...^...)".......
  200790:	3d17 59b3 0d81 2eb4 5c3b b7bd 6cad c0ba     .=.Y....;\...l..
  2007a0:	8320 edb8 b3b6 9abf e20c 03b6 d29a 74b1      ..............t
  2007b0:	4739 ead5 77af 9dd2 2615 04db 1683 73dc     9G...w...&.....s
  2007c0:	0b12 e363 3b84 9464 6a3e 0d6d 5aa8 7a6a     ..c..;d.>jm..Zjz
  2007d0:	cf0b e40e ff9d 9309 ae27 0a00 9eb1 7d07     ........'......}
  2007e0:	9344 f00f a3d2 8708 f268 1e01 c2fe 6906     D.......h......i
  2007f0:	575d f762 67cb 8065 3671 196c 06e7 6e6b     ]Wb..ge.q6l...kn
  200800:	1b76 fed4 2be0 89d3 7a5a 10da 4acc 67dd     v....+..Zz...J.g
  200810:	df6f f9b9 eff9 8ebe be43 17b7 8ed5 60b0     o.......C......`
  200820:	a3e8 d6d6 937e a1d1 c2c4 38d8 f252 4fdf     ....~......8R..O
  200830:	67f1 d1bb 5767 a6bc 06dd 3fb5 364b 48b2     .g..gW.....?K6.H
  200840:	2bda d80d 1b4c af0a 4af6 3603 7a60 4104     .+..L....J.6`z.A
  200850:	efc3 df60 df55 a867 8eef 316e be79 4669     ..`.U.g...n1y.iF
  200860:	b38c cb61 831a bc66 d2a0 256f e236 5268     ..a...f...o%6.hR
  200870:	7795 cc0c 4703 bb0b 16b9 2202 262f 5505     .w...G....."/&.U
  200880:	3bbe c5ba 0b28 b2bd 5a92 2bb4 6a04 5cb3     .;..(....Z.+.j.\
  200890:	ffa7 c2d7 cf31 b5d0 9e8b 2cd9 ae1d 5bde     ....1......,...[
  2008a0:	c2b0 9b64 f226 ec63 a39c 756a 930a 026d     ..d.&.c...ju..m.
  2008b0:	06a9 9c09 363f eb0e 6785 7207 5713 0500     ....?6...g.r.W..
  2008c0:	4a82 95bf 7a14 e2b8 2bae 7bb1 1b38 0cb6     .J...z...+.{8...
  2008d0:	8e9b 92d2 be0d e5d5 efb7 7cdc df21 0bdb     ...........|!...
  2008e0:	d2d4 86d3 e242 f1d4 b3f8 68dd 836e 1fda     ....B......hn...
  2008f0:	16cd 81be 265b f6b9 77e1 6fb0 4777 18b7     ....[&...w.owG..
  200900:	5ae6 8808 6a70 ff0f 3bca 6606 0b5c 1101     .Z..pj...;.f\...
  200910:	9eff 8f65 ae69 f862 ffd3 616b cf45 166c     ..e.i.b...kaE.l.
  200920:	e278 a00a d2ee d70d 8354 4e04 b3c2 3903     x.......T..N...9
  200930:	2661 a767 16f7 d060 474d 4969 77db 3e6e     a&g...`.MGiI.wn>
  200940:	6a4a aed1 5adc d9d6 0b66 40df 3bf0 37d8     Jj...Z..f..@.;.7
  200950:	ae53 a9bc 9ec5 debb cf7f 47b2 ffe9 30b5     S..........G...0
  200960:	f21c bdbd c28a caba 9330 53b3 a3a6 24b4     ........0..S...$
  200970:	3605 bad0 0693 cdd7 5729 54de 67bf 23d9     .6......)W.T.g.#
  200980:	7a2e b366 4ab8 c461 1b02 5d68 2b94 2a6f     .zf..Ja...h].+o*
  200990:	be37 b40b 8ea1 c30c df1b 5a05 ef8d 2d02     7..........Z...-

002009a0 <Region$$Table$$Base>:
  2009a0:	002009b0 	.word	0x002009b0
  2009a4:	28200000 	.word	0x28200000
  2009a8:	00000004 	.word	0x00000004
  2009ac:	0020043c 	.word	0x0020043c
