
../../Example/out/eval/Oz/elf_ns/levenshtein.axf:     file format elf32-littlearm


Disassembly of section ER_ROM:

00200000 <__Vectors>:
  200000:	00 00 40 28 99 04 20 00 95 04 20 00 97 04 20 00     ..@(.. ... ... .
  200010:	95 04 20 00 95 04 20 00 95 04 20 00 95 04 20 00     .. ... ... ... .
	...
  20002c:	95 04 20 00 95 04 20 00 00 00 00 00 95 04 20 00     .. ... ....... .
  20003c:	95 04 20 00 95 04 20 00 95 04 20 00 95 04 20 00     .. ... ... ... .
  20004c:	95 04 20 00 95 04 20 00 95 04 20 00 00 00 00 00     .. ... ... .....
	...
  200064:	95 04 20 00 95 04 20 00 95 04 20 00 95 04 20 00     .. ... ... ... .
	...
  2000c0:	95 04 20 00 95 04 20 00 95 04 20 00 95 04 20 00     .. ... ... ... .
  2000d0:	95 04 20 00 95 04 20 00 95 04 20 00 95 04 20 00     .. ... ... ... .
  2000e0:	95 04 20 00 95 04 20 00 95 04 20 00 95 04 20 00     .. ... ... ... .
  2000f0:	95 04 20 00 95 04 20 00 95 04 20 00 95 04 20 00     .. ... ... ... .
  200100:	95 04 20 00 95 04 20 00 95 04 20 00 95 04 20 00     .. ... ... ... .
  200110:	95 04 20 00 95 04 20 00 95 04 20 00 95 04 20 00     .. ... ... ... .
  200120:	95 04 20 00 95 04 20 00 95 04 20 00 95 04 20 00     .. ... ... ... .
  200130:	95 04 20 00 95 04 20 00 95 04 20 00 95 04 20 00     .. ... ... ... .
  200140:	95 04 20 00 95 04 20 00 95 04 20 00 95 04 20 00     .. ... ... ... .
  200150:	95 04 20 00 95 04 20 00 95 04 20 00 95 04 20 00     .. ... ... ... .
  200160:	95 04 20 00 95 04 20 00 95 04 20 00 95 04 20 00     .. ... ... ... .
  200170:	95 04 20 00 95 04 20 00 95 04 20 00 95 04 20 00     .. ... ... ... .
  200180:	95 04 20 00 95 04 20 00 95 04 20 00 95 04 20 00     .. ... ... ... .
  200190:	95 04 20 00 95 04 20 00 95 04 20 00 95 04 20 00     .. ... ... ... .
  2001a0:	95 04 20 00 95 04 20 00 95 04 20 00 95 04 20 00     .. ... ... ... .
  2001b0:	95 04 20 00 95 04 20 00 95 04 20 00 95 04 20 00     .. ... ... ... .
  2001c0:	95 04 20 00 95 04 20 00 95 04 20 00 95 04 20 00     .. ... ... ... .
  2001d0:	95 04 20 00 95 04 20 00 95 04 20 00 95 04 20 00     .. ... ... ... .
  2001e0:	95 04 20 00 95 04 20 00 95 04 20 00 95 04 20 00     .. ... ... ... .
  2001f0:	95 04 20 00 95 04 20 00 95 04 20 00 95 04 20 00     .. ... ... ... .
  200200:	95 04 20 00 95 04 20 00 95 04 20 00 95 04 20 00     .. ... ... ... .
  200210:	95 04 20 00 95 04 20 00 95 04 20 00 95 04 20 00     .. ... ... ... .
  200220:	95 04 20 00 95 04 20 00 95 04 20 00 95 04 20 00     .. ... ... ... .
	...

00200400 <__main>:
  200400:	f3af 8000 	nop.w
  200404:	f000 f806 	bl	200414 <__rt_entry>

00200408 <__rt_lib_init>:
  200408:	b51f      	push	{r0, r1, r2, r3, r4, lr}

0020040a <__rt_lib_init_fp_1>:
  20040a:	f000 f927 	bl	20065c <_fp_init>

0020040e <__rt_lib_init_alloca_1>:
  20040e:	bd1f      	pop	{r0, r1, r2, r3, r4, pc}

00200410 <__rt_lib_shutdown>:
  200410:	b510      	push	{r4, lr}

00200412 <__rt_lib_shutdown_cpp_1>:
  200412:	bd10      	pop	{r4, pc}

00200414 <__rt_entry>:
  200414:	f8df d00c 	ldr.w	sp, [pc, #12]	; 200424 <__lit__00000000>

00200418 <__rt_entry_li>:
  200418:	f7ff fff6 	bl	200408 <__rt_lib_init>

0020041c <__rt_entry_main>:
  20041c:	f000 f8d4 	bl	2005c8 <main>
  200420:	f000 f827 	bl	200472 <exit>

00200424 <__lit__00000000>:
  200424:	0000 2840                                   ..@(

00200428 <__rt_exit>:
  200428:	b403      	push	{r0, r1}

0020042a <__rt_exit_ls>:
  20042a:	f7ff fff1 	bl	200410 <__rt_lib_shutdown>

0020042e <__rt_exit_exit>:
  20042e:	bc03      	pop	{r0, r1}
  200430:	f000 f82a 	bl	200488 <_sys_exit>

00200434 <strlen>:
  200434:	b510      	push	{r4, lr}
  200436:	1c43      	adds	r3, r0, #1
  200438:	e002      	b.n	200440 <strlen+0xc>
  20043a:	f810 1b01 	ldrb.w	r1, [r0], #1
  20043e:	b171      	cbz	r1, 20045e <strlen+0x2a>
  200440:	0781      	lsls	r1, r0, #30
  200442:	d1fa      	bne.n	20043a <strlen+0x6>
  200444:	f04f 3201 	mov.w	r2, #16843009	; 0x1010101
  200448:	c802      	ldmia	r0!, {r1}
  20044a:	1a8c      	subs	r4, r1, r2
  20044c:	438c      	bics	r4, r1
  20044e:	ea14 11c2 	ands.w	r1, r4, r2, lsl #7
  200452:	d0f9      	beq.n	200448 <strlen+0x14>
  200454:	1ac0      	subs	r0, r0, r3
  200456:	060a      	lsls	r2, r1, #24
  200458:	d003      	beq.n	200462 <strlen+0x2e>
  20045a:	1ec0      	subs	r0, r0, #3
  20045c:	bd10      	pop	{r4, pc}
  20045e:	1ac0      	subs	r0, r0, r3
  200460:	bd10      	pop	{r4, pc}
  200462:	040a      	lsls	r2, r1, #16
  200464:	d001      	beq.n	20046a <strlen+0x36>
  200466:	1e80      	subs	r0, r0, #2
  200468:	bd10      	pop	{r4, pc}
  20046a:	0209      	lsls	r1, r1, #8
  20046c:	d0fc      	beq.n	200468 <strlen+0x34>
  20046e:	1e40      	subs	r0, r0, #1
  200470:	bd10      	pop	{r4, pc}

00200472 <exit>:
  200472:	b510      	push	{r4, lr}
  200474:	4604      	mov	r4, r0
  200476:	f3af 8000 	nop.w
  20047a:	4620      	mov	r0, r4
  20047c:	e8bd 4010 	ldmia.w	sp!, {r4, lr}
  200480:	f7ff bfd2 	b.w	200428 <__rt_exit>

00200484 <__use_no_semihosting_swi>:
  200484:	4770      	bx	lr

00200486 <__semihosting_library_function>:
	...

00200488 <_sys_exit>:
  200488:	4901      	ldr	r1, [pc, #4]	; (200490 <_sys_exit+0x8>)
  20048a:	2018      	movs	r0, #24
  20048c:	beab      	bkpt	0x00ab
  20048e:	e7fe      	b.n	20048e <_sys_exit+0x6>
  200490:	00020026 	.word	0x00020026

00200494 <Default_Handler>:
  200494:	e7fe      	b.n	200494 <Default_Handler>

00200496 <HardFault_Handler>:
  200496:	e7fe      	b.n	200496 <HardFault_Handler>

00200498 <Reset_Handler>:
  200498:	4809      	ldr	r0, [pc, #36]	; (2004c0 <__arm_cp.2_0>)
  20049a:	f380 8809 	msr	PSP, r0
  20049e:	490b      	ldr	r1, [pc, #44]	; (2004cc <__arm_cp.2_3>)
  2004a0:	4808      	ldr	r0, [pc, #32]	; (2004c4 <__arm_cp.2_1>)
  2004a2:	f380 880a 	msr	MSPLIM, r0
  2004a6:	f380 880b 	msr	PSPLIM, r0
  2004aa:	4807      	ldr	r0, [pc, #28]	; (2004c8 <__arm_cp.2_2>)
  2004ac:	6001      	str	r1, [r0, #0]
  2004ae:	f8d0 1080 	ldr.w	r1, [r0, #128]	; 0x80
  2004b2:	f441 0170 	orr.w	r1, r1, #15728640	; 0xf00000
  2004b6:	f8c0 1080 	str.w	r1, [r0, #128]	; 0x80
  2004ba:	f7ff ffa1 	bl	200400 <__main>
  2004be:	bf00      	nop

002004c0 <__arm_cp.2_0>:
  2004c0:	28400000 	.word	0x28400000

002004c4 <__arm_cp.2_1>:
  2004c4:	283ffc00 	.word	0x283ffc00

002004c8 <__arm_cp.2_2>:
  2004c8:	e000ed08 	.word	0xe000ed08

002004cc <__arm_cp.2_3>:
  2004cc:	00200000 	.word	0x00200000

002004d0 <levenshtein_distance>:
  2004d0:	e92d 4ff0 	stmdb	sp!, {r4, r5, r6, r7, r8, r9, sl, fp, lr}
  2004d4:	af03      	add	r7, sp, #12
  2004d6:	b087      	sub	sp, #28
  2004d8:	460c      	mov	r4, r1
  2004da:	f847 0c14 	str.w	r0, [r7, #-20]
  2004de:	f7ff ffa9 	bl	200434 <strlen>
  2004e2:	4680      	mov	r8, r0
  2004e4:	4620      	mov	r0, r4
  2004e6:	46a3      	mov	fp, r4
  2004e8:	f7ff ffa4 	bl	200434 <strlen>
  2004ec:	1c42      	adds	r2, r0, #1
  2004ee:	f108 0101 	add.w	r1, r8, #1
  2004f2:	f847 2c24 	str.w	r2, [r7, #-36]
  2004f6:	4351      	muls	r1, r2
  2004f8:	2207      	movs	r2, #7
  2004fa:	eb02 0181 	add.w	r1, r2, r1, lsl #2
  2004fe:	f021 0107 	bic.w	r1, r1, #7
  200502:	ebad 0301 	sub.w	r3, sp, r1
  200506:	2104      	movs	r1, #4
  200508:	eb01 0180 	add.w	r1, r1, r0, lsl #2
  20050c:	469d      	mov	sp, r3
  20050e:	2200      	movs	r2, #0
  200510:	461c      	mov	r4, r3
  200512:	f847 3c28 	str.w	r3, [r7, #-40]
  200516:	4542      	cmp	r2, r8
  200518:	dc03      	bgt.n	200522 <levenshtein_distance+0x52>
  20051a:	601a      	str	r2, [r3, #0]
  20051c:	440b      	add	r3, r1
  20051e:	3201      	adds	r2, #1
  200520:	e7f9      	b.n	200516 <levenshtein_distance+0x46>
  200522:	2100      	movs	r1, #0
  200524:	4281      	cmp	r1, r0
  200526:	dc03      	bgt.n	200530 <levenshtein_distance+0x60>
  200528:	f844 1021 	str.w	r1, [r4, r1, lsl #2]
  20052c:	3101      	adds	r1, #1
  20052e:	e7f9      	b.n	200524 <levenshtein_distance+0x54>
  200530:	2104      	movs	r1, #4
  200532:	ea4f 0a80 	mov.w	sl, r0, lsl #2
  200536:	f847 0c20 	str.w	r0, [r7, #-32]
  20053a:	eb01 0980 	add.w	r9, r1, r0, lsl #2
  20053e:	2101      	movs	r1, #1
  200540:	4281      	cmp	r1, r0
  200542:	dc32      	bgt.n	2005aa <levenshtein_distance+0xda>
  200544:	1e4b      	subs	r3, r1, #1
  200546:	f04f 0c00 	mov.w	ip, #0
  20054a:	f847 1c1c 	str.w	r1, [r7, #-28]
  20054e:	f847 4c18 	str.w	r4, [r7, #-24]
  200552:	f10c 0501 	add.w	r5, ip, #1
  200556:	4545      	cmp	r5, r8
  200558:	dc1e      	bgt.n	200598 <levenshtein_distance+0xc8>
  20055a:	f857 0c14 	ldr.w	r0, [r7, #-20]
  20055e:	f81b e003 	ldrb.w	lr, [fp, r3]
  200562:	f810 600c 	ldrb.w	r6, [r0, ip]
  200566:	4576      	cmp	r6, lr
  200568:	d104      	bne.n	200574 <levenshtein_distance+0xa4>
  20056a:	eb04 060a 	add.w	r6, r4, sl
  20056e:	6820      	ldr	r0, [r4, #0]
  200570:	60b0      	str	r0, [r6, #8]
  200572:	e00e      	b.n	200592 <levenshtein_distance+0xc2>
  200574:	e9d4 1200 	ldrd	r1, r2, [r4]
  200578:	eb04 000a 	add.w	r0, r4, sl
  20057c:	6846      	ldr	r6, [r0, #4]
  20057e:	3601      	adds	r6, #1
  200580:	3101      	adds	r1, #1
  200582:	428e      	cmp	r6, r1
  200584:	bfb8      	it	lt
  200586:	4631      	movlt	r1, r6
  200588:	3201      	adds	r2, #1
  20058a:	428a      	cmp	r2, r1
  20058c:	bfb8      	it	lt
  20058e:	4611      	movlt	r1, r2
  200590:	6081      	str	r1, [r0, #8]
  200592:	444c      	add	r4, r9
  200594:	46ac      	mov	ip, r5
  200596:	e7dc      	b.n	200552 <levenshtein_distance+0x82>
  200598:	f857 4c18 	ldr.w	r4, [r7, #-24]
  20059c:	f857 1c1c 	ldr.w	r1, [r7, #-28]
  2005a0:	f857 0c20 	ldr.w	r0, [r7, #-32]
  2005a4:	3404      	adds	r4, #4
  2005a6:	3101      	adds	r1, #1
  2005a8:	e7ca      	b.n	200540 <levenshtein_distance+0x70>
  2005aa:	f857 1c24 	ldr.w	r1, [r7, #-36]
  2005ae:	f857 2c28 	ldr.w	r2, [r7, #-40]
  2005b2:	f1a7 040c 	sub.w	r4, r7, #12
  2005b6:	fb01 f108 	mul.w	r1, r1, r8
  2005ba:	eb02 0181 	add.w	r1, r2, r1, lsl #2
  2005be:	f851 0020 	ldr.w	r0, [r1, r0, lsl #2]
  2005c2:	46a5      	mov	sp, r4
  2005c4:	e8bd 8ff0 	ldmia.w	sp!, {r4, r5, r6, r7, r8, r9, sl, fp, pc}

002005c8 <main>:
  2005c8:	b082      	sub	sp, #8
  2005ca:	f04f 0800 	mov.w	r8, #0
  2005ce:	f44f 3080 	mov.w	r0, #65536	; 0x10000
  2005d2:	f8cd 8000 	str.w	r8, [sp]
  2005d6:	f000 f837 	bl	200648 <__arm_cp.0_1+0x4>
  2005da:	4819      	ldr	r0, [pc, #100]	; (200640 <__arm_cp.0_0>)
  2005dc:	4f19      	ldr	r7, [pc, #100]	; (200644 <__arm_cp.0_1>)
  2005de:	4682      	mov	sl, r0
  2005e0:	f1b8 0f05 	cmp.w	r8, #5
  2005e4:	d02a      	beq.n	20063c <main+0x74>
  2005e6:	f04f 0900 	mov.w	r9, #0
  2005ea:	4650      	mov	r0, sl
  2005ec:	f8ca 9000 	str.w	r9, [sl]
  2005f0:	f5b9 7f80 	cmp.w	r9, #256	; 0x100
  2005f4:	d01b      	beq.n	20062e <main+0x66>
  2005f6:	9800      	ldr	r0, [sp, #0]
  2005f8:	2500      	movs	r5, #0
  2005fa:	9501      	str	r5, [sp, #4]
  2005fc:	2d05      	cmp	r5, #5
  2005fe:	d010      	beq.n	200622 <main+0x5a>
  200600:	f857 4025 	ldr.w	r4, [r7, r5, lsl #2]
  200604:	2600      	movs	r6, #0
  200606:	2e05      	cmp	r6, #5
  200608:	d009      	beq.n	20061e <main+0x56>
  20060a:	f857 1026 	ldr.w	r1, [r7, r6, lsl #2]
  20060e:	4620      	mov	r0, r4
  200610:	f7ff ff5e 	bl	2004d0 <levenshtein_distance>
  200614:	9901      	ldr	r1, [sp, #4]
  200616:	3601      	adds	r6, #1
  200618:	4408      	add	r0, r1
  20061a:	9001      	str	r0, [sp, #4]
  20061c:	e7f3      	b.n	200606 <main+0x3e>
  20061e:	3501      	adds	r5, #1
  200620:	e7ec      	b.n	2005fc <main+0x34>
  200622:	9801      	ldr	r0, [sp, #4]
  200624:	f109 0901 	add.w	r9, r9, #1
  200628:	9000      	str	r0, [sp, #0]
  20062a:	9800      	ldr	r0, [sp, #0]
  20062c:	e7e0      	b.n	2005f0 <main+0x28>
  20062e:	f8da 0000 	ldr.w	r0, [sl]
  200632:	f000 f80e 	bl	200652 <__arm_cp.0_1+0xe>
  200636:	f108 0801 	add.w	r8, r8, #1
  20063a:	e7d1      	b.n	2005e0 <main+0x18>
  20063c:	e7fe      	b.n	20063c <main+0x74>
  20063e:	bf00      	nop

00200640 <__arm_cp.0_0>:
  200640:	e0001004 	.word	0xe0001004

00200644 <__arm_cp.0_1>:
  200644:	00200678 	.word	0x00200678
  200648:	f64f 6c11 	movw	ip, #65041	; 0xfe11
  20064c:	f2c1 0c1f 	movt	ip, #4127	; 0x101f
  200650:	4760      	bx	ip
  200652:	f64f 6c19 	movw	ip, #65049	; 0xfe19
  200656:	f2c1 0c1f 	movt	ip, #4127	; 0x101f
  20065a:	4760      	bx	ip

0020065c <_fp_init>:
  20065c:	eef1 0a10 	vmrs	r0, fpscr
  200660:	f64f 71ff 	movw	r1, #65535	; 0xffff
  200664:	f2c0 31c0 	movt	r1, #960	; 0x3c0
  200668:	ea20 0001 	bic.w	r0, r0, r1
  20066c:	f040 7040 	orr.w	r0, r0, #50331648	; 0x3000000
  200670:	eee1 0a10 	vmsr	fpscr, r0

00200674 <__fplib_config_fpu_vfp>:
  200674:	4770      	bx	lr
	...

00200678 <strings>:
  200678:	0690 0020 06a0 0020 0699 0020 068c 0020     .. ... ... ... .
  200688:	06ab 0020 736d 0064 7273 6a72 676e 6572     .. .msd.srrjngre
  200698:	7300 7274 6e69 0067 7361 6366 6e6a 6473     .string.asfcjnsd
  2006a8:	6a6b 7300 7274 6e69 7367 0000               kj.strings..
