
../../Example/out/eval/Oz/elf_ns/ndes.axf:     file format elf32-littlearm


Disassembly of section ER_ROM:

00200000 <__Vectors>:
  200000:	00 00 40 28 a9 04 20 00 a5 04 20 00 a7 04 20 00     ..@(.. ... ... .
  200010:	a5 04 20 00 a5 04 20 00 a5 04 20 00 a5 04 20 00     .. ... ... ... .
	...
  20002c:	a5 04 20 00 a5 04 20 00 00 00 00 00 a5 04 20 00     .. ... ....... .
  20003c:	a5 04 20 00 a5 04 20 00 a5 04 20 00 a5 04 20 00     .. ... ... ... .
  20004c:	a5 04 20 00 a5 04 20 00 a5 04 20 00 00 00 00 00     .. ... ... .....
	...
  200064:	a5 04 20 00 a5 04 20 00 a5 04 20 00 a5 04 20 00     .. ... ... ... .
	...
  2000c0:	a5 04 20 00 a5 04 20 00 a5 04 20 00 a5 04 20 00     .. ... ... ... .
  2000d0:	a5 04 20 00 a5 04 20 00 a5 04 20 00 a5 04 20 00     .. ... ... ... .
  2000e0:	a5 04 20 00 a5 04 20 00 a5 04 20 00 a5 04 20 00     .. ... ... ... .
  2000f0:	a5 04 20 00 a5 04 20 00 a5 04 20 00 a5 04 20 00     .. ... ... ... .
  200100:	a5 04 20 00 a5 04 20 00 a5 04 20 00 a5 04 20 00     .. ... ... ... .
  200110:	a5 04 20 00 a5 04 20 00 a5 04 20 00 a5 04 20 00     .. ... ... ... .
  200120:	a5 04 20 00 a5 04 20 00 a5 04 20 00 a5 04 20 00     .. ... ... ... .
  200130:	a5 04 20 00 a5 04 20 00 a5 04 20 00 a5 04 20 00     .. ... ... ... .
  200140:	a5 04 20 00 a5 04 20 00 a5 04 20 00 a5 04 20 00     .. ... ... ... .
  200150:	a5 04 20 00 a5 04 20 00 a5 04 20 00 a5 04 20 00     .. ... ... ... .
  200160:	a5 04 20 00 a5 04 20 00 a5 04 20 00 a5 04 20 00     .. ... ... ... .
  200170:	a5 04 20 00 a5 04 20 00 a5 04 20 00 a5 04 20 00     .. ... ... ... .
  200180:	a5 04 20 00 a5 04 20 00 a5 04 20 00 a5 04 20 00     .. ... ... ... .
  200190:	a5 04 20 00 a5 04 20 00 a5 04 20 00 a5 04 20 00     .. ... ... ... .
  2001a0:	a5 04 20 00 a5 04 20 00 a5 04 20 00 a5 04 20 00     .. ... ... ... .
  2001b0:	a5 04 20 00 a5 04 20 00 a5 04 20 00 a5 04 20 00     .. ... ... ... .
  2001c0:	a5 04 20 00 a5 04 20 00 a5 04 20 00 a5 04 20 00     .. ... ... ... .
  2001d0:	a5 04 20 00 a5 04 20 00 a5 04 20 00 a5 04 20 00     .. ... ... ... .
  2001e0:	a5 04 20 00 a5 04 20 00 a5 04 20 00 a5 04 20 00     .. ... ... ... .
  2001f0:	a5 04 20 00 a5 04 20 00 a5 04 20 00 a5 04 20 00     .. ... ... ... .
  200200:	a5 04 20 00 a5 04 20 00 a5 04 20 00 a5 04 20 00     .. ... ... ... .
  200210:	a5 04 20 00 a5 04 20 00 a5 04 20 00 a5 04 20 00     .. ... ... ... .
  200220:	a5 04 20 00 a5 04 20 00 a5 04 20 00 a5 04 20 00     .. ... ... ... .
	...

00200400 <__main>:
  200400:	f000 f802 	bl	200408 <__scatterload_rt2>
  200404:	f000 f82e 	bl	200464 <__rt_entry>

00200408 <__scatterload_rt2>:
  200408:	a00a      	add	r0, pc, #40	; (adr r0, 200434 <__scatterload_null+0x1e>)
  20040a:	e890 0c00 	ldmia.w	r0, {sl, fp}
  20040e:	4482      	add	sl, r0
  200410:	4483      	add	fp, r0
  200412:	f1aa 0701 	sub.w	r7, sl, #1

00200416 <__scatterload_null>:
  200416:	45da      	cmp	sl, fp
  200418:	d101      	bne.n	20041e <__scatterload_null+0x8>
  20041a:	f000 f823 	bl	200464 <__rt_entry>
  20041e:	f2af 0e09 	subw	lr, pc, #9
  200422:	e8ba 000f 	ldmia.w	sl!, {r0, r1, r2, r3}
  200426:	f013 0f01 	tst.w	r3, #1
  20042a:	bf18      	it	ne
  20042c:	1afb      	subne	r3, r7, r3
  20042e:	f043 0301 	orr.w	r3, r3, #1
  200432:	4718      	bx	r3
  200434:	000008d8 	.word	0x000008d8
  200438:	000008e8 	.word	0x000008e8

0020043c <__scatterload_zeroinit>:
  20043c:	2300      	movs	r3, #0
  20043e:	2400      	movs	r4, #0
  200440:	2500      	movs	r5, #0
  200442:	2600      	movs	r6, #0
  200444:	3a10      	subs	r2, #16
  200446:	bf28      	it	cs
  200448:	c178      	stmiacs	r1!, {r3, r4, r5, r6}
  20044a:	d8fb      	bhi.n	200444 <__scatterload_zeroinit+0x8>
  20044c:	0752      	lsls	r2, r2, #29
  20044e:	bf28      	it	cs
  200450:	c130      	stmiacs	r1!, {r4, r5}
  200452:	bf48      	it	mi
  200454:	600b      	strmi	r3, [r1, #0]
  200456:	4770      	bx	lr

00200458 <__rt_lib_init>:
  200458:	b51f      	push	{r0, r1, r2, r3, r4, lr}

0020045a <__rt_lib_init_fp_1>:
  20045a:	f000 fa2f 	bl	2008bc <_fp_init>

0020045e <__rt_lib_init_alloca_1>:
  20045e:	bd1f      	pop	{r0, r1, r2, r3, r4, pc}

00200460 <__rt_lib_shutdown>:
  200460:	b510      	push	{r4, lr}

00200462 <__rt_lib_shutdown_cpp_1>:
  200462:	bd10      	pop	{r4, pc}

00200464 <__rt_entry>:
  200464:	f8df d00c 	ldr.w	sp, [pc, #12]	; 200474 <__lit__00000000>

00200468 <__rt_entry_li>:
  200468:	f7ff fff6 	bl	200458 <__rt_lib_init>

0020046c <__rt_entry_main>:
  20046c:	f000 f844 	bl	2004f8 <main>
  200470:	f000 f808 	bl	200484 <exit>

00200474 <__lit__00000000>:
  200474:	0000 2840                                   ..@(

00200478 <__rt_exit>:
  200478:	b403      	push	{r0, r1}

0020047a <__rt_exit_ls>:
  20047a:	f7ff fff1 	bl	200460 <__rt_lib_shutdown>

0020047e <__rt_exit_exit>:
  20047e:	bc03      	pop	{r0, r1}
  200480:	f000 f80a 	bl	200498 <_sys_exit>

00200484 <exit>:
  200484:	b510      	push	{r4, lr}
  200486:	4604      	mov	r4, r0
  200488:	f3af 8000 	nop.w
  20048c:	4620      	mov	r0, r4
  20048e:	e8bd 4010 	ldmia.w	sp!, {r4, lr}
  200492:	f7ff bff1 	b.w	200478 <__rt_exit>

00200496 <__use_no_semihosting_swi>:
  200496:	4770      	bx	lr

00200498 <_sys_exit>:
  200498:	4901      	ldr	r1, [pc, #4]	; (2004a0 <_sys_exit+0x8>)
  20049a:	2018      	movs	r0, #24
  20049c:	beab      	bkpt	0x00ab
  20049e:	e7fe      	b.n	20049e <_sys_exit+0x6>
  2004a0:	00020026 	.word	0x00020026

002004a4 <Default_Handler>:
  2004a4:	e7fe      	b.n	2004a4 <Default_Handler>

002004a6 <HardFault_Handler>:
  2004a6:	e7fe      	b.n	2004a6 <HardFault_Handler>

002004a8 <Reset_Handler>:
  2004a8:	4809      	ldr	r0, [pc, #36]	; (2004d0 <__arm_cp.2_0>)
  2004aa:	f380 8809 	msr	PSP, r0
  2004ae:	490b      	ldr	r1, [pc, #44]	; (2004dc <__arm_cp.2_3>)
  2004b0:	4808      	ldr	r0, [pc, #32]	; (2004d4 <__arm_cp.2_1>)
  2004b2:	f380 880a 	msr	MSPLIM, r0
  2004b6:	f380 880b 	msr	PSPLIM, r0
  2004ba:	4807      	ldr	r0, [pc, #28]	; (2004d8 <__arm_cp.2_2>)
  2004bc:	6001      	str	r1, [r0, #0]
  2004be:	f8d0 1080 	ldr.w	r1, [r0, #128]	; 0x80
  2004c2:	f441 0170 	orr.w	r1, r1, #15728640	; 0xf00000
  2004c6:	f8c0 1080 	str.w	r1, [r0, #128]	; 0x80
  2004ca:	f7ff ff99 	bl	200400 <__main>
  2004ce:	bf00      	nop

002004d0 <__arm_cp.2_0>:
  2004d0:	28400000 	.word	0x28400000

002004d4 <__arm_cp.2_1>:
  2004d4:	283ffc00 	.word	0x283ffc00

002004d8 <__arm_cp.2_2>:
  2004d8:	e000ed08 	.word	0xe000ed08

002004dc <__arm_cp.2_3>:
  2004dc:	00200000 	.word	0x00200000

002004e0 <getbit>:
  2004e0:	429a      	cmp	r2, r3
  2004e2:	bfd4      	ite	le
  2004e4:	4608      	movle	r0, r1
  2004e6:	1ad2      	subgt	r2, r2, r3
  2004e8:	49e1      	ldr	r1, [pc, #900]	; (200870 <__arm_cp.0_2>)
  2004ea:	f851 1022 	ldr.w	r1, [r1, r2, lsl #2]
  2004ee:	4008      	ands	r0, r1
  2004f0:	bf18      	it	ne
  2004f2:	2001      	movne	r0, #1
  2004f4:	4770      	bx	lr
  2004f6:	bf00      	nop

002004f8 <main>:
  2004f8:	b08e      	sub	sp, #56	; 0x38
  2004fa:	2000      	movs	r0, #0
  2004fc:	900a      	str	r0, [sp, #40]	; 0x28
  2004fe:	f44f 3080 	mov.w	r0, #65536	; 0x10000
  200502:	f000 f9d1 	bl	2008a8 <__arm_cp.0_12+0x4>
  200506:	f8df b364 	ldr.w	fp, [pc, #868]	; 20086c <__arm_cp.0_1>
  20050a:	2000      	movs	r0, #0
  20050c:	2805      	cmp	r0, #5
  20050e:	f000 81a9 	beq.w	200864 <main+0x36c>
  200512:	9001      	str	r0, [sp, #4]
  200514:	2100      	movs	r1, #0
  200516:	48d4      	ldr	r0, [pc, #848]	; (200868 <__arm_cp.0_0>)
  200518:	6001      	str	r1, [r0, #0]
  20051a:	2000      	movs	r0, #0
  20051c:	f5b0 7f80 	cmp.w	r0, #256	; 0x100
  200520:	f000 8199 	beq.w	200856 <main+0x35e>
  200524:	9004      	str	r0, [sp, #16]
  200526:	2001      	movs	r0, #1
  200528:	f88b 0018 	strb.w	r0, [fp, #24]
  20052c:	f88b 0014 	strb.w	r0, [fp, #20]
  200530:	f88b 0010 	strb.w	r0, [fp, #16]
  200534:	f88b 000c 	strb.w	r0, [fp, #12]
  200538:	f88b 0008 	strb.w	r0, [fp, #8]
  20053c:	f88b 0004 	strb.w	r0, [fp, #4]
  200540:	980a      	ldr	r0, [sp, #40]	; 0x28
  200542:	f89b 0018 	ldrb.w	r0, [fp, #24]
  200546:	f89b 7010 	ldrb.w	r7, [fp, #16]
  20054a:	9005      	str	r0, [sp, #20]
  20054c:	2f00      	cmp	r7, #0
  20054e:	bf18      	it	ne
  200550:	2710      	movne	r7, #16
  200552:	f89b 800c 	ldrb.w	r8, [fp, #12]
  200556:	f89b 2008 	ldrb.w	r2, [fp, #8]
  20055a:	f89b 1004 	ldrb.w	r1, [fp, #4]
  20055e:	f89b 0000 	ldrb.w	r0, [fp]
  200562:	f1b8 0f00 	cmp.w	r8, #0
  200566:	bf18      	it	ne
  200568:	f04f 0802 	movne.w	r8, #2
  20056c:	2a00      	cmp	r2, #0
  20056e:	bf18      	it	ne
  200570:	221a      	movne	r2, #26
  200572:	9202      	str	r2, [sp, #8]
  200574:	2900      	cmp	r1, #0
  200576:	bf18      	it	ne
  200578:	2123      	movne	r1, #35	; 0x23
  20057a:	9103      	str	r1, [sp, #12]
  20057c:	b358      	cbz	r0, 2005d6 <main+0xde>
  20057e:	f89b 0014 	ldrb.w	r0, [fp, #20]
  200582:	2801      	cmp	r0, #1
  200584:	f040 80a9 	bne.w	2006da <main+0x1e2>
  200588:	2500      	movs	r5, #0
  20058a:	2600      	movs	r6, #0
  20058c:	2000      	movs	r0, #0
  20058e:	e9cb 5507 	strd	r5, r5, [fp, #28]
  200592:	f88b 5014 	strb.w	r5, [fp, #20]
  200596:	9008      	str	r0, [sp, #32]
  200598:	f115 001c 	adds.w	r0, r5, #28
  20059c:	d02a      	beq.n	2005f4 <main+0xfc>
  20059e:	48b5      	ldr	r0, [pc, #724]	; (200874 <__arm_cp.0_3>)
  2005a0:	4639      	mov	r1, r7
  2005a2:	2320      	movs	r3, #32
  2005a4:	4428      	add	r0, r5
  2005a6:	7f02      	ldrb	r2, [r0, #28]
  2005a8:	f890 4038 	ldrb.w	r4, [r0, #56]	; 0x38
  2005ac:	4640      	mov	r0, r8
  2005ae:	f7ff ff97 	bl	2004e0 <getbit>
  2005b2:	9908      	ldr	r1, [sp, #32]
  2005b4:	4622      	mov	r2, r4
  2005b6:	2320      	movs	r3, #32
  2005b8:	ea40 0141 	orr.w	r1, r0, r1, lsl #1
  2005bc:	4640      	mov	r0, r8
  2005be:	9108      	str	r1, [sp, #32]
  2005c0:	f8cb 1020 	str.w	r1, [fp, #32]
  2005c4:	4639      	mov	r1, r7
  2005c6:	f7ff ff8b 	bl	2004e0 <getbit>
  2005ca:	ea40 0646 	orr.w	r6, r0, r6, lsl #1
  2005ce:	3d01      	subs	r5, #1
  2005d0:	f8cb 601c 	str.w	r6, [fp, #28]
  2005d4:	e7e0      	b.n	200598 <main+0xa0>
  2005d6:	49a6      	ldr	r1, [pc, #664]	; (200870 <__arm_cp.0_2>)
  2005d8:	2001      	movs	r0, #1
  2005da:	f88b 0000 	strb.w	r0, [fp]
  2005de:	6048      	str	r0, [r1, #4]
  2005e0:	2100      	movs	r1, #0
  2005e2:	291f      	cmp	r1, #31
  2005e4:	d0cb      	beq.n	20057e <main+0x86>
  2005e6:	4aa2      	ldr	r2, [pc, #648]	; (200870 <__arm_cp.0_2>)
  2005e8:	0040      	lsls	r0, r0, #1
  2005ea:	eb02 0281 	add.w	r2, r2, r1, lsl #2
  2005ee:	3101      	adds	r1, #1
  2005f0:	6090      	str	r0, [r2, #8]
  2005f2:	e7f6      	b.n	2005e2 <main+0xea>
  2005f4:	2301      	movs	r3, #1
  2005f6:	2b11      	cmp	r3, #17
  2005f8:	9306      	str	r3, [sp, #24]
  2005fa:	d85a      	bhi.n	2006b2 <main+0x1ba>
  2005fc:	2001      	movs	r0, #1
  2005fe:	499e      	ldr	r1, [pc, #632]	; (200878 <__arm_cp.0_4>)
  200600:	4098      	lsls	r0, r3
  200602:	4208      	tst	r0, r1
  200604:	d053      	beq.n	2006ae <main+0x1b6>
  200606:	9908      	ldr	r1, [sp, #32]
  200608:	f001 0001 	and.w	r0, r1, #1
  20060c:	ea41 7000 	orr.w	r0, r1, r0, lsl #28
  200610:	0840      	lsrs	r0, r0, #1
  200612:	9008      	str	r0, [sp, #32]
  200614:	f8cb 0020 	str.w	r0, [fp, #32]
  200618:	f006 0001 	and.w	r0, r6, #1
  20061c:	ea46 7000 	orr.w	r0, r6, r0, lsl #28
  200620:	0846      	lsrs	r6, r0, #1
  200622:	2000      	movs	r0, #0
  200624:	f04f 0a00 	mov.w	sl, #0
  200628:	f04f 0900 	mov.w	r9, #0
  20062c:	f04f 0800 	mov.w	r8, #0
  200630:	9607      	str	r6, [sp, #28]
  200632:	f8cb 601c 	str.w	r6, [fp, #28]
  200636:	9009      	str	r0, [sp, #36]	; 0x24
  200638:	f11a 0010 	adds.w	r0, sl, #16
  20063c:	d026      	beq.n	20068c <main+0x194>
  20063e:	4898      	ldr	r0, [pc, #608]	; (2008a0 <__arm_cp.0_11>)
  200640:	f8dd b020 	ldr.w	fp, [sp, #32]
  200644:	9f07      	ldr	r7, [sp, #28]
  200646:	4e97      	ldr	r6, [pc, #604]	; (2008a4 <__arm_cp.0_12>)
  200648:	231c      	movs	r3, #28
  20064a:	4450      	add	r0, sl
  20064c:	4659      	mov	r1, fp
  20064e:	7c02      	ldrb	r2, [r0, #16]
  200650:	f890 4020 	ldrb.w	r4, [r0, #32]
  200654:	f890 5030 	ldrb.w	r5, [r0, #48]	; 0x30
  200658:	4638      	mov	r0, r7
  20065a:	47b0      	blx	r6
  20065c:	b280      	uxth	r0, r0
  20065e:	9909      	ldr	r1, [sp, #36]	; 0x24
  200660:	4622      	mov	r2, r4
  200662:	231c      	movs	r3, #28
  200664:	ea40 0141 	orr.w	r1, r0, r1, lsl #1
  200668:	4638      	mov	r0, r7
  20066a:	9109      	str	r1, [sp, #36]	; 0x24
  20066c:	4659      	mov	r1, fp
  20066e:	47b0      	blx	r6
  200670:	b280      	uxth	r0, r0
  200672:	4659      	mov	r1, fp
  200674:	462a      	mov	r2, r5
  200676:	231c      	movs	r3, #28
  200678:	ea40 0949 	orr.w	r9, r0, r9, lsl #1
  20067c:	4638      	mov	r0, r7
  20067e:	47b0      	blx	r6
  200680:	b280      	uxth	r0, r0
  200682:	f1aa 0a01 	sub.w	sl, sl, #1
  200686:	ea40 0848 	orr.w	r8, r0, r8, lsl #1
  20068a:	e7d5      	b.n	200638 <main+0x140>
  20068c:	9b06      	ldr	r3, [sp, #24]
  20068e:	497c      	ldr	r1, [pc, #496]	; (200880 <__arm_cp.0_6>)
  200690:	f8df b1d8 	ldr.w	fp, [pc, #472]	; 20086c <__arm_cp.0_1>
  200694:	9e07      	ldr	r6, [sp, #28]
  200696:	eb03 0043 	add.w	r0, r3, r3, lsl #1
  20069a:	3301      	adds	r3, #1
  20069c:	f841 8020 	str.w	r8, [r1, r0, lsl #2]
  2006a0:	eb01 0080 	add.w	r0, r1, r0, lsl #2
  2006a4:	9909      	ldr	r1, [sp, #36]	; 0x24
  2006a6:	f8c0 9004 	str.w	r9, [r0, #4]
  2006aa:	6081      	str	r1, [r0, #8]
  2006ac:	e7a3      	b.n	2005f6 <main+0xfe>
  2006ae:	2b11      	cmp	r3, #17
  2006b0:	d013      	beq.n	2006da <main+0x1e2>
  2006b2:	2002      	movs	r0, #2
  2006b4:	b168      	cbz	r0, 2006d2 <main+0x1da>
  2006b6:	f006 0101 	and.w	r1, r6, #1
  2006ba:	9a08      	ldr	r2, [sp, #32]
  2006bc:	3801      	subs	r0, #1
  2006be:	ea46 7101 	orr.w	r1, r6, r1, lsl #28
  2006c2:	084e      	lsrs	r6, r1, #1
  2006c4:	f002 0101 	and.w	r1, r2, #1
  2006c8:	ea42 7101 	orr.w	r1, r2, r1, lsl #28
  2006cc:	0849      	lsrs	r1, r1, #1
  2006ce:	9108      	str	r1, [sp, #32]
  2006d0:	e7f0      	b.n	2006b4 <main+0x1bc>
  2006d2:	9808      	ldr	r0, [sp, #32]
  2006d4:	f8cb 0020 	str.w	r0, [fp, #32]
  2006d8:	e7a3      	b.n	200622 <main+0x12a>
  2006da:	e9dd 6802 	ldrd	r6, r8, [sp, #8]
  2006de:	2700      	movs	r7, #0
  2006e0:	2500      	movs	r5, #0
  2006e2:	f04f 0b00 	mov.w	fp, #0
  2006e6:	f117 0020 	adds.w	r0, r7, #32
  2006ea:	d016      	beq.n	20071a <main+0x222>
  2006ec:	4863      	ldr	r0, [pc, #396]	; (20087c <__arm_cp.0_5>)
  2006ee:	4631      	mov	r1, r6
  2006f0:	2320      	movs	r3, #32
  2006f2:	4438      	add	r0, r7
  2006f4:	f890 2020 	ldrb.w	r2, [r0, #32]
  2006f8:	f890 4040 	ldrb.w	r4, [r0, #64]	; 0x40
  2006fc:	4640      	mov	r0, r8
  2006fe:	f7ff feef 	bl	2004e0 <getbit>
  200702:	ea40 0545 	orr.w	r5, r0, r5, lsl #1
  200706:	4640      	mov	r0, r8
  200708:	4631      	mov	r1, r6
  20070a:	4622      	mov	r2, r4
  20070c:	2320      	movs	r3, #32
  20070e:	f7ff fee7 	bl	2004e0 <getbit>
  200712:	ea40 0b4b 	orr.w	fp, r0, fp, lsl #1
  200716:	3f01      	subs	r7, #1
  200718:	e7e5      	b.n	2006e6 <main+0x1ee>
  20071a:	f04f 0c01 	mov.w	ip, #1
  20071e:	f1bc 0f11 	cmp.w	ip, #17
  200722:	f000 8090 	beq.w	200846 <main+0x34e>
  200726:	9805      	ldr	r0, [sp, #20]
  200728:	9509      	str	r5, [sp, #36]	; 0x24
  20072a:	4955      	ldr	r1, [pc, #340]	; (200880 <__arm_cp.0_6>)
  20072c:	2800      	cmp	r0, #0
  20072e:	4660      	mov	r0, ip
  200730:	bf18      	it	ne
  200732:	f1c0 0011 	rsbne	r0, r0, #17
  200736:	2700      	movs	r7, #0
  200738:	2400      	movs	r4, #0
  20073a:	2600      	movs	r6, #0
  20073c:	eb00 0040 	add.w	r0, r0, r0, lsl #1
  200740:	f851 e020 	ldr.w	lr, [r1, r0, lsl #2]
  200744:	eb01 0080 	add.w	r0, r1, r0, lsl #2
  200748:	e9d0 9a01 	ldrd	r9, sl, [r0, #4]
  20074c:	2000      	movs	r0, #0
  20074e:	f117 0110 	adds.w	r1, r7, #16
  200752:	d020      	beq.n	200796 <main+0x29e>
  200754:	494b      	ldr	r1, [pc, #300]	; (200884 <__arm_cp.0_7>)
  200756:	f8df 8118 	ldr.w	r8, [pc, #280]	; 200870 <__arm_cp.0_2>
  20075a:	0064      	lsls	r4, r4, #1
  20075c:	eb01 0187 	add.w	r1, r1, r7, lsl #2
  200760:	6c0a      	ldr	r2, [r1, #64]	; 0x40
  200762:	f8d1 3080 	ldr.w	r3, [r1, #128]	; 0x80
  200766:	f8d1 10c0 	ldr.w	r1, [r1, #192]	; 0xc0
  20076a:	f858 1021 	ldr.w	r1, [r8, r1, lsl #2]
  20076e:	ea11 0f0b 	tst.w	r1, fp
  200772:	bf18      	it	ne
  200774:	3401      	addne	r4, #1
  200776:	f858 1023 	ldr.w	r1, [r8, r3, lsl #2]
  20077a:	0076      	lsls	r6, r6, #1
  20077c:	ea11 0f0b 	tst.w	r1, fp
  200780:	bf18      	it	ne
  200782:	3601      	addne	r6, #1
  200784:	f858 1022 	ldr.w	r1, [r8, r2, lsl #2]
  200788:	0040      	lsls	r0, r0, #1
  20078a:	ea11 0f0b 	tst.w	r1, fp
  20078e:	bf18      	it	ne
  200790:	3001      	addne	r0, #1
  200792:	3f01      	subs	r7, #1
  200794:	e7db      	b.n	20074e <main+0x256>
  200796:	ea86 0109 	eor.w	r1, r6, r9
  20079a:	ea80 000a 	eor.w	r0, r0, sl
  20079e:	ea84 020e 	eor.w	r2, r4, lr
  2007a2:	4f3e      	ldr	r7, [pc, #248]	; (20089c <__arm_cp.0_10>)
  2007a4:	f8df 80e0 	ldr.w	r8, [pc, #224]	; 200888 <__arm_cp.0_8>
  2007a8:	f10d 052f 	add.w	r5, sp, #47	; 0x2f
  2007ac:	f04f 0e02 	mov.w	lr, #2
  2007b0:	f20f 09d8 	addw	r9, pc, #216	; 0xd8
  2007b4:	eb00 4001 	add.w	r0, r0, r1, lsl #16
  2007b8:	0a09      	lsrs	r1, r1, #8
  2007ba:	eb01 2102 	add.w	r1, r1, r2, lsl #8
  2007be:	2200      	movs	r2, #0
  2007c0:	2a04      	cmp	r2, #4
  2007c2:	d00a      	beq.n	2007da <main+0x2e2>
  2007c4:	18ab      	adds	r3, r5, r2
  2007c6:	f001 043f 	and.w	r4, r1, #63	; 0x3f
  2007ca:	3201      	adds	r2, #1
  2007cc:	0989      	lsrs	r1, r1, #6
  2007ce:	715c      	strb	r4, [r3, #5]
  2007d0:	f000 043f 	and.w	r4, r0, #63	; 0x3f
  2007d4:	0980      	lsrs	r0, r0, #6
  2007d6:	705c      	strb	r4, [r3, #1]
  2007d8:	e7f2      	b.n	2007c0 <main+0x2c8>
  2007da:	2008      	movs	r0, #8
  2007dc:	2100      	movs	r1, #0
  2007de:	b1f0      	cbz	r0, 20081e <main+0x326>
  2007e0:	5c2a      	ldrb	r2, [r5, r0]
  2007e2:	f3c2 1340 	ubfx	r3, r2, #5, #1
  2007e6:	f002 0402 	and.w	r4, r2, #2
  2007ea:	f002 0604 	and.w	r6, r2, #4
  2007ee:	ea46 0484 	orr.w	r4, r6, r4, lsl #2
  2007f2:	ea0e 0692 	and.w	r6, lr, r2, lsr #2
  2007f6:	f362 0341 	bfi	r3, r2, #1, #1
  2007fa:	f3c2 1200 	ubfx	r2, r2, #4, #1
  2007fe:	4434      	add	r4, r6
  200800:	eb03 03c3 	add.w	r3, r3, r3, lsl #3
  200804:	4422      	add	r2, r4
  200806:	eb02 02c2 	add.w	r2, r2, r2, lsl #3
  20080a:	eb03 0282 	add.w	r2, r3, r2, lsl #2
  20080e:	4442      	add	r2, r8
  200810:	5c12      	ldrb	r2, [r2, r0]
  200812:	3801      	subs	r0, #1
  200814:	f819 2002 	ldrb.w	r2, [r9, r2]
  200818:	ea42 1101 	orr.w	r1, r2, r1, lsl #4
  20081c:	e7df      	b.n	2007de <main+0x2e6>
  20081e:	2000      	movs	r0, #0
  200820:	2280      	movs	r2, #128	; 0x80
  200822:	9d09      	ldr	r5, [sp, #36]	; 0x24
  200824:	b14a      	cbz	r2, 20083a <main+0x342>
  200826:	4c12      	ldr	r4, [pc, #72]	; (200870 <__arm_cp.0_2>)
  200828:	58bb      	ldr	r3, [r7, r2]
  20082a:	0040      	lsls	r0, r0, #1
  20082c:	f854 3023 	ldr.w	r3, [r4, r3, lsl #2]
  200830:	420b      	tst	r3, r1
  200832:	bf18      	it	ne
  200834:	3001      	addne	r0, #1
  200836:	3a04      	subs	r2, #4
  200838:	e7f4      	b.n	200824 <main+0x32c>
  20083a:	4068      	eors	r0, r5
  20083c:	465d      	mov	r5, fp
  20083e:	f10c 0c01 	add.w	ip, ip, #1
  200842:	4683      	mov	fp, r0
  200844:	e76b      	b.n	20071e <main+0x226>
  200846:	2000      	movs	r0, #0
  200848:	f8df b020 	ldr.w	fp, [pc, #32]	; 20086c <__arm_cp.0_1>
  20084c:	900a      	str	r0, [sp, #40]	; 0x28
  20084e:	980a      	ldr	r0, [sp, #40]	; 0x28
  200850:	9804      	ldr	r0, [sp, #16]
  200852:	3001      	adds	r0, #1
  200854:	e662      	b.n	20051c <main+0x24>
  200856:	4804      	ldr	r0, [pc, #16]	; (200868 <__arm_cp.0_0>)
  200858:	6800      	ldr	r0, [r0, #0]
  20085a:	f000 f82a 	bl	2008b2 <__arm_cp.0_12+0xe>
  20085e:	9801      	ldr	r0, [sp, #4]
  200860:	3001      	adds	r0, #1
  200862:	e653      	b.n	20050c <main+0x14>
  200864:	e7fe      	b.n	200864 <main+0x36c>
  200866:	bf00      	nop

00200868 <__arm_cp.0_0>:
  200868:	e0001004 	.word	0xe0001004

0020086c <__arm_cp.0_1>:
  20086c:	28200150 	.word	0x28200150

00200870 <__arm_cp.0_2>:
  200870:	282000cc 	.word	0x282000cc

00200874 <__arm_cp.0_3>:
  200874:	00200919 	.word	0x00200919

00200878 <__arm_cp.0_4>:
  200878:	00010206 	.word	0x00010206

0020087c <__arm_cp.0_5>:
  20087c:	002008d8 	.word	0x002008d8

00200880 <__arm_cp.0_6>:
  200880:	28200000 	.word	0x28200000

00200884 <__arm_cp.0_7>:
  200884:	00200984 	.word	0x00200984

00200888 <__arm_cp.0_8>:
  200888:	00200acc 	.word	0x00200acc

0020088c <cyfun.ibin>:
  20088c:	0c040800 	.word	0x0c040800
  200890:	0e060a02 	.word	0x0e060a02
  200894:	0d050901 	.word	0x0d050901
  200898:	0f070b03 	.word	0x0f070b03

0020089c <__arm_cp.0_10>:
  20089c:	00200a48 	.word	0x00200a48

002008a0 <__arm_cp.0_11>:
  2008a0:	00200952 	.word	0x00200952

002008a4 <__arm_cp.0_12>:
  2008a4:	002004e1 	.word	0x002004e1
  2008a8:	f64f 6c11 	movw	ip, #65041	; 0xfe11
  2008ac:	f2c1 0c1f 	movt	ip, #4127	; 0x101f
  2008b0:	4760      	bx	ip
  2008b2:	f64f 6c19 	movw	ip, #65049	; 0xfe19
  2008b6:	f2c1 0c1f 	movt	ip, #4127	; 0x101f
  2008ba:	4760      	bx	ip

002008bc <_fp_init>:
  2008bc:	eef1 0a10 	vmrs	r0, fpscr
  2008c0:	f64f 71ff 	movw	r1, #65535	; 0xffff
  2008c4:	f2c0 31c0 	movt	r1, #960	; 0x3c0
  2008c8:	ea20 0001 	bic.w	r0, r0, r1
  2008cc:	f040 7040 	orr.w	r0, r0, #50331648	; 0x3000000
  2008d0:	eee1 0a10 	vmsr	fpscr, r0

002008d4 <__fplib_config_fpu_vfp>:
  2008d4:	4770      	bx	lr
	...

002008d8 <des.ip>:
  2008d8:	3a00 2a32 1a22 0a12 3c02 2c34 1c24 0c14     .:2*"....<4,$...
  2008e8:	3e04 2e36 1e26 0e16 4006 3038 2028 1018     .>6.&....@80( ..
  2008f8:	3908 2931 1921 0911 3b01 2b33 1b23 0b13     .91)!....;3+#...
  200908:	3d03 2d35 1d25 0d15 3f05 2f37 1f27 0f17     .=5-%....?7/'...
  200918:	                                             .

00200919 <ipc1>:
  200919:	3900 2931 1921 0911 3a01 2a32 1a22 0a12     .91)!....:2*"...
  200929:	3b02 2b33 1b23 0b13 3c03 2c34 3f24 2f37     .;3+#....<4,$?7/
  200939:	1f27 0f17 3e07 2e36 1e26 0e16 3d06 2d35     '....>6.&....=5-
  200949:	1d25 0d15 1c05 0c14                          %........

00200952 <ipc2>:
  200952:	0e00 0b11 0118 0305 0f1c 1506 170a 0c13     ................
  200962:	1a04 1008 1b07 0d14 2902 1f34 2f25 1e37     .........)4.%/7.
  200972:	3328 212d 2c30 2731 2238 2e35 322a 1d24     (3-!0,1'8"5.*2$.
  200982:	0020                                         .

00200984 <cyfun.iet>:
  200984:	0000 0000 0020 0000 0001 0000 0002 0000     .... ...........
  200994:	0003 0000 0004 0000 0005 0000 0004 0000     ................
  2009a4:	0005 0000 0006 0000 0007 0000 0008 0000     ................
  2009b4:	0009 0000 0008 0000 0009 0000 000a 0000     ................
  2009c4:	000b 0000 000c 0000 000d 0000 000c 0000     ................
  2009d4:	000d 0000 000e 0000 000f 0000 0010 0000     ................
  2009e4:	0011 0000 0010 0000 0011 0000 0012 0000     ................
  2009f4:	0013 0000 0014 0000 0015 0000 0014 0000     ................
  200a04:	0015 0000 0016 0000 0017 0000 0018 0000     ................
  200a14:	0019 0000 0018 0000 0019 0000 001a 0000     ................
  200a24:	001b 0000 001c 0000 001d 0000 001c 0000     ................
  200a34:	001d 0000 001e 0000 001f 0000 0020 0000     ............ ...
  200a44:	0001 0000                                   ....

00200a48 <cyfun.ipp>:
  200a48:	0000 0000 0010 0000 0007 0000 0014 0000     ................
  200a58:	0015 0000 001d 0000 000c 0000 001c 0000     ................
  200a68:	0011 0000 0001 0000 000f 0000 0017 0000     ................
  200a78:	001a 0000 0005 0000 0012 0000 001f 0000     ................
  200a88:	000a 0000 0002 0000 0008 0000 0018 0000     ................
  200a98:	000e 0000 0020 0000 001b 0000 0003 0000     .... ...........
  200aa8:	0009 0000 0013 0000 000d 0000 001e 0000     ................
  200ab8:	0006 0000 0016 0000 000b 0000 0004 0000     ................
  200ac8:	0019 0000                                   ....

00200acc <cyfun.is>:
  200acc:	0e00 0a0f 0207 040c 000d 0300 0d0d 0a0e     ................
  200adc:	010d 0400 0d00 040a 0109 0007 0d0f 0301     ................
  200aec:	040b 0206 0400 0001 0c0d 0b01 0002 0d0f     ................
  200afc:	0807 0f0b 0f00 0100 060e 0206 040e 000b     ................
  200b0c:	080c 0f0a 0308 010b 0d00 0908 040e 020a     ................
  200b1c:	0008 0407 0b00 0402 0d0b 0e00 0407 0109     ................
  200b2c:	0b0f 0004 0a08 000d 020c 0e0d 0100 0e0e     ................
  200b3c:	0103 0e0f 0004 0704 0509 020c 0807 0800     ................
  200b4c:	090b 0b00 0d05 0001 0102 0600 0c07 0708     ................
  200b5c:	0200 0606 0700 0f09 0006 0f0e 0603 0704     ................
  200b6c:	0a04 0d00 080a 0a0c 0c02 0009 0304 0a06     ................
  200b7c:	0901 0401 0f00 030b 0a06 0002 000f 0202     ................
  200b8c:	0f04 0c07 0309 0600 0f04 0d0b 0308 000c     ................
  200b9c:	0f09 0109 050e 0a04 0b00 0f03 0b09 0806     ................
  200bac:	000b 080d 0006 090d 0701 0200 030d 0707     ................
  200bbc:	070c 000e 0401 0d08 0f02 080a 0800 0504     ................
  200bcc:	060a 0d08 0001 0e01 030a 0501 040a 0b00     ................
  200bdc:	0001 080d 0e03 0002 0207 0807 0a0d 0d07     ................
  200bec:	0300 0109 0801 0300 000a 0c0a 0402 0605     ................
  200bfc:	0c0e 0f00 0b05 0f0f 0a07 0000 0b05 0904     ................
  200c0c:	0b06 0f09 0a00 0d07 0502 0c0d 0009 0006     ................
  200c1c:	0708 0100 0503 0c00 0108 0901 0f00 0006     ................
  200c2c:	060b 040f 0e0f 0c05 0600 0c02 0308 0903     ................
  200c3c:	0003 010c 0205 0d0f 0605 0900 020c 0c03     ................
  200c4c:	0604 000a 0703 050e 0100 0900 0c00 070d     ................
  200c5c:	0f05 0704 000e 0a0b 0c0e 0e0a 0b0c 0700     ................
  200c6c:	0c06 050e 080a 000d 0c0e 0b03 0709 000f     ................
  200c7c:	0500 0b0c 0d0b 050e 0005 0609 010c 0003     ................
  200c8c:	0002 0300 0509 0605 0001 000f 000a 0c0b     ................
  200c9c:	060a 030e 0900 0400 000c 0a07 0000 0905     ................
  200cac:	0a0b 0b09 0e0f 0a00 0a03 0302 050d 0003     ................
  200cbc:	0500 0705 0004 0502 0000 0205 0e04 0605     ................
  200ccc:	000c 0b03 0e0f 0308 0908 0500 0e02 0008     ................
  200cdc:	090b 0005 0e06 0202 0805 0603 0700 080a     ................
  200cec:	090f 010b 0007 0508 0901 0806 0206 0000     ................
  200cfc:	070f 0e04 0206 0008 090d 0e0c 0d03 0b0c     ................

00200d0c <Region$$Table$$Base>:
  200d0c:	00200d1c 	.word	0x00200d1c
  200d10:	28200000 	.word	0x28200000
  200d14:	00000174 	.word	0x00000174
  200d18:	0020043c 	.word	0x0020043c
