
../../Example/out/eval/Oz/elf_ns/nettle_arcfour.axf:     file format elf32-littlearm


Disassembly of section ER_ROM:

00200000 <__Vectors>:
  200000:	00 00 40 28 a9 04 20 00 a5 04 20 00 a7 04 20 00     ..@(.. ... ... .
  200010:	a5 04 20 00 a5 04 20 00 a5 04 20 00 a5 04 20 00     .. ... ... ... .
	...
  20002c:	a5 04 20 00 a5 04 20 00 00 00 00 00 a5 04 20 00     .. ... ....... .
  20003c:	a5 04 20 00 a5 04 20 00 a5 04 20 00 a5 04 20 00     .. ... ... ... .
  20004c:	a5 04 20 00 a5 04 20 00 a5 04 20 00 00 00 00 00     .. ... ... .....
	...
  200064:	a5 04 20 00 a5 04 20 00 a5 04 20 00 a5 04 20 00     .. ... ... ... .
	...
  2000c0:	a5 04 20 00 a5 04 20 00 a5 04 20 00 a5 04 20 00     .. ... ... ... .
  2000d0:	a5 04 20 00 a5 04 20 00 a5 04 20 00 a5 04 20 00     .. ... ... ... .
  2000e0:	a5 04 20 00 a5 04 20 00 a5 04 20 00 a5 04 20 00     .. ... ... ... .
  2000f0:	a5 04 20 00 a5 04 20 00 a5 04 20 00 a5 04 20 00     .. ... ... ... .
  200100:	a5 04 20 00 a5 04 20 00 a5 04 20 00 a5 04 20 00     .. ... ... ... .
  200110:	a5 04 20 00 a5 04 20 00 a5 04 20 00 a5 04 20 00     .. ... ... ... .
  200120:	a5 04 20 00 a5 04 20 00 a5 04 20 00 a5 04 20 00     .. ... ... ... .
  200130:	a5 04 20 00 a5 04 20 00 a5 04 20 00 a5 04 20 00     .. ... ... ... .
  200140:	a5 04 20 00 a5 04 20 00 a5 04 20 00 a5 04 20 00     .. ... ... ... .
  200150:	a5 04 20 00 a5 04 20 00 a5 04 20 00 a5 04 20 00     .. ... ... ... .
  200160:	a5 04 20 00 a5 04 20 00 a5 04 20 00 a5 04 20 00     .. ... ... ... .
  200170:	a5 04 20 00 a5 04 20 00 a5 04 20 00 a5 04 20 00     .. ... ... ... .
  200180:	a5 04 20 00 a5 04 20 00 a5 04 20 00 a5 04 20 00     .. ... ... ... .
  200190:	a5 04 20 00 a5 04 20 00 a5 04 20 00 a5 04 20 00     .. ... ... ... .
  2001a0:	a5 04 20 00 a5 04 20 00 a5 04 20 00 a5 04 20 00     .. ... ... ... .
  2001b0:	a5 04 20 00 a5 04 20 00 a5 04 20 00 a5 04 20 00     .. ... ... ... .
  2001c0:	a5 04 20 00 a5 04 20 00 a5 04 20 00 a5 04 20 00     .. ... ... ... .
  2001d0:	a5 04 20 00 a5 04 20 00 a5 04 20 00 a5 04 20 00     .. ... ... ... .
  2001e0:	a5 04 20 00 a5 04 20 00 a5 04 20 00 a5 04 20 00     .. ... ... ... .
  2001f0:	a5 04 20 00 a5 04 20 00 a5 04 20 00 a5 04 20 00     .. ... ... ... .
  200200:	a5 04 20 00 a5 04 20 00 a5 04 20 00 a5 04 20 00     .. ... ... ... .
  200210:	a5 04 20 00 a5 04 20 00 a5 04 20 00 a5 04 20 00     .. ... ... ... .
  200220:	a5 04 20 00 a5 04 20 00 a5 04 20 00 a5 04 20 00     .. ... ... ... .
	...

00200400 <__main>:
  200400:	f000 f802 	bl	200408 <__scatterload_rt2>
  200404:	f000 f82e 	bl	200464 <__rt_entry>

00200408 <__scatterload_rt2>:
  200408:	a00a      	add	r0, pc, #40	; (adr r0, 200434 <__scatterload_null+0x1e>)
  20040a:	e890 0c00 	ldmia.w	r0, {sl, fp}
  20040e:	4482      	add	sl, r0
  200410:	4483      	add	fp, r0
  200412:	f1aa 0701 	sub.w	r7, sl, #1

00200416 <__scatterload_null>:
  200416:	45da      	cmp	sl, fp
  200418:	d101      	bne.n	20041e <__scatterload_null+0x8>
  20041a:	f000 f823 	bl	200464 <__rt_entry>
  20041e:	f2af 0e09 	subw	lr, pc, #9
  200422:	e8ba 000f 	ldmia.w	sl!, {r0, r1, r2, r3}
  200426:	f013 0f01 	tst.w	r3, #1
  20042a:	bf18      	it	ne
  20042c:	1afb      	subne	r3, r7, r3
  20042e:	f043 0301 	orr.w	r3, r3, #1
  200432:	4718      	bx	r3
  200434:	000001f8 	.word	0x000001f8
  200438:	00000208 	.word	0x00000208

0020043c <__scatterload_zeroinit>:
  20043c:	2300      	movs	r3, #0
  20043e:	2400      	movs	r4, #0
  200440:	2500      	movs	r5, #0
  200442:	2600      	movs	r6, #0
  200444:	3a10      	subs	r2, #16
  200446:	bf28      	it	cs
  200448:	c178      	stmiacs	r1!, {r3, r4, r5, r6}
  20044a:	d8fb      	bhi.n	200444 <__scatterload_zeroinit+0x8>
  20044c:	0752      	lsls	r2, r2, #29
  20044e:	bf28      	it	cs
  200450:	c130      	stmiacs	r1!, {r4, r5}
  200452:	bf48      	it	mi
  200454:	600b      	strmi	r3, [r1, #0]
  200456:	4770      	bx	lr

00200458 <__rt_lib_init>:
  200458:	b51f      	push	{r0, r1, r2, r3, r4, lr}

0020045a <__rt_lib_init_fp_1>:
  20045a:	f000 f8d1 	bl	200600 <_fp_init>

0020045e <__rt_lib_init_alloca_1>:
  20045e:	bd1f      	pop	{r0, r1, r2, r3, r4, pc}

00200460 <__rt_lib_shutdown>:
  200460:	b510      	push	{r4, lr}

00200462 <__rt_lib_shutdown_cpp_1>:
  200462:	bd10      	pop	{r4, pc}

00200464 <__rt_entry>:
  200464:	f8df d00c 	ldr.w	sp, [pc, #12]	; 200474 <__lit__00000000>

00200468 <__rt_entry_li>:
  200468:	f7ff fff6 	bl	200458 <__rt_lib_init>

0020046c <__rt_entry_main>:
  20046c:	f000 f88c 	bl	200588 <main>
  200470:	f000 f808 	bl	200484 <exit>

00200474 <__lit__00000000>:
  200474:	0000 2840                                   ..@(

00200478 <__rt_exit>:
  200478:	b403      	push	{r0, r1}

0020047a <__rt_exit_ls>:
  20047a:	f7ff fff1 	bl	200460 <__rt_lib_shutdown>

0020047e <__rt_exit_exit>:
  20047e:	bc03      	pop	{r0, r1}
  200480:	f000 f80a 	bl	200498 <_sys_exit>

00200484 <exit>:
  200484:	b510      	push	{r4, lr}
  200486:	4604      	mov	r4, r0
  200488:	f3af 8000 	nop.w
  20048c:	4620      	mov	r0, r4
  20048e:	e8bd 4010 	ldmia.w	sp!, {r4, lr}
  200492:	f7ff bff1 	b.w	200478 <__rt_exit>

00200496 <__use_no_semihosting_swi>:
  200496:	4770      	bx	lr

00200498 <_sys_exit>:
  200498:	4901      	ldr	r1, [pc, #4]	; (2004a0 <_sys_exit+0x8>)
  20049a:	2018      	movs	r0, #24
  20049c:	beab      	bkpt	0x00ab
  20049e:	e7fe      	b.n	20049e <_sys_exit+0x6>
  2004a0:	00020026 	.word	0x00020026

002004a4 <Default_Handler>:
  2004a4:	e7fe      	b.n	2004a4 <Default_Handler>

002004a6 <HardFault_Handler>:
  2004a6:	e7fe      	b.n	2004a6 <HardFault_Handler>

002004a8 <Reset_Handler>:
  2004a8:	4809      	ldr	r0, [pc, #36]	; (2004d0 <__arm_cp.3_0>)
  2004aa:	f380 8809 	msr	PSP, r0
  2004ae:	490b      	ldr	r1, [pc, #44]	; (2004dc <__arm_cp.3_3>)
  2004b0:	4808      	ldr	r0, [pc, #32]	; (2004d4 <__arm_cp.3_1>)
  2004b2:	f380 880a 	msr	MSPLIM, r0
  2004b6:	f380 880b 	msr	PSPLIM, r0
  2004ba:	4807      	ldr	r0, [pc, #28]	; (2004d8 <__arm_cp.3_2>)
  2004bc:	6001      	str	r1, [r0, #0]
  2004be:	f8d0 1080 	ldr.w	r1, [r0, #128]	; 0x80
  2004c2:	f441 0170 	orr.w	r1, r1, #15728640	; 0xf00000
  2004c6:	f8c0 1080 	str.w	r1, [r0, #128]	; 0x80
  2004ca:	f7ff ff99 	bl	200400 <__main>
  2004ce:	bf00      	nop

002004d0 <__arm_cp.3_0>:
  2004d0:	28400000 	.word	0x28400000

002004d4 <__arm_cp.3_1>:
  2004d4:	283ffc00 	.word	0x283ffc00

002004d8 <__arm_cp.3_2>:
  2004d8:	e000ed08 	.word	0xe000ed08

002004dc <__arm_cp.3_3>:
  2004dc:	00200000 	.word	0x00200000

002004e0 <arcfour_crypt>:
  2004e0:	b5f0      	push	{r4, r5, r6, r7, lr}
  2004e2:	f8df e090 	ldr.w	lr, [pc, #144]	; 200574 <__arm_cp.1_0>
  2004e6:	f8df c100 	ldr.w	ip, [pc, #256]	; 2005e8 <__arm_cp.0_2>
  2004ea:	2400      	movs	r4, #0
  2004ec:	f89e 2100 	ldrb.w	r2, [lr, #256]	; 0x100
  2004f0:	f89e 3101 	ldrb.w	r3, [lr, #257]	; 0x101
  2004f4:	2c10      	cmp	r4, #16
  2004f6:	d015      	beq.n	200524 <arcfour_crypt+0x44>
  2004f8:	3201      	adds	r2, #1
  2004fa:	b2d6      	uxtb	r6, r2
  2004fc:	f81e 7006 	ldrb.w	r7, [lr, r6]
  200500:	443b      	add	r3, r7
  200502:	b2dd      	uxtb	r5, r3
  200504:	f81e 1005 	ldrb.w	r1, [lr, r5]
  200508:	f80e 1006 	strb.w	r1, [lr, r6]
  20050c:	4439      	add	r1, r7
  20050e:	f80e 7005 	strb.w	r7, [lr, r5]
  200512:	b2c9      	uxtb	r1, r1
  200514:	5d05      	ldrb	r5, [r0, r4]
  200516:	f81e 1001 	ldrb.w	r1, [lr, r1]
  20051a:	4069      	eors	r1, r5
  20051c:	f80c 1004 	strb.w	r1, [ip, r4]
  200520:	3401      	adds	r4, #1
  200522:	e7e7      	b.n	2004f4 <arcfour_crypt+0x14>
  200524:	f88e 3101 	strb.w	r3, [lr, #257]	; 0x101
  200528:	f88e 2100 	strb.w	r2, [lr, #256]	; 0x100
  20052c:	bdf0      	pop	{r4, r5, r6, r7, pc}
  20052e:	bf00      	nop

00200530 <arcfour_set_key>:
  200530:	b570      	push	{r4, r5, r6, lr}
  200532:	4810      	ldr	r0, [pc, #64]	; (200574 <__arm_cp.1_0>)
  200534:	2100      	movs	r1, #0
  200536:	f5b1 7f80 	cmp.w	r1, #256	; 0x100
  20053a:	d002      	beq.n	200542 <arcfour_set_key+0x12>
  20053c:	5441      	strb	r1, [r0, r1]
  20053e:	3101      	adds	r1, #1
  200540:	e7f9      	b.n	200536 <arcfour_set_key+0x6>
  200542:	2200      	movs	r2, #0
  200544:	a10c      	add	r1, pc, #48	; (adr r1, 200578 <key>)
  200546:	2300      	movs	r3, #0
  200548:	2400      	movs	r4, #0
  20054a:	f5b4 7f80 	cmp.w	r4, #256	; 0x100
  20054e:	d00c      	beq.n	20056a <arcfour_set_key+0x3a>
  200550:	5d06      	ldrb	r6, [r0, r4]
  200552:	5ccd      	ldrb	r5, [r1, r3]
  200554:	3301      	adds	r3, #1
  200556:	4432      	add	r2, r6
  200558:	f003 030f 	and.w	r3, r3, #15
  20055c:	442a      	add	r2, r5
  20055e:	b2d2      	uxtb	r2, r2
  200560:	5c85      	ldrb	r5, [r0, r2]
  200562:	5505      	strb	r5, [r0, r4]
  200564:	5486      	strb	r6, [r0, r2]
  200566:	3401      	adds	r4, #1
  200568:	e7ef      	b.n	20054a <arcfour_set_key+0x1a>
  20056a:	2100      	movs	r1, #0
  20056c:	f8a0 1100 	strh.w	r1, [r0, #256]	; 0x100
  200570:	bd70      	pop	{r4, r5, r6, pc}
  200572:	bf00      	nop

00200574 <__arm_cp.1_0>:
  200574:	28200000 	.word	0x28200000

00200578 <key>:
  200578:	0c0d0e0f 	.word	0x0c0d0e0f
  20057c:	08090a0b 	.word	0x08090a0b
  200580:	04050607 	.word	0x04050607
  200584:	00010203 	.word	0x00010203

00200588 <main>:
  200588:	b082      	sub	sp, #8
  20058a:	2600      	movs	r6, #0
  20058c:	f44f 3080 	mov.w	r0, #65536	; 0x10000
  200590:	9601      	str	r6, [sp, #4]
  200592:	f000 f82b 	bl	2005ec <__arm_cp.0_2+0x4>
  200596:	4c13      	ldr	r4, [pc, #76]	; (2005e4 <__arm_cp.0_1>)
  200598:	4d13      	ldr	r5, [pc, #76]	; (2005e8 <__arm_cp.0_2>)
  20059a:	4f11      	ldr	r7, [pc, #68]	; (2005e0 <__arm_cp.0_0>)
  20059c:	f04f 0800 	mov.w	r8, #0
  2005a0:	f1b8 0f05 	cmp.w	r8, #5
  2005a4:	d01b      	beq.n	2005de <main+0x56>
  2005a6:	46b9      	mov	r9, r7
  2005a8:	603e      	str	r6, [r7, #0]
  2005aa:	f44f 7780 	mov.w	r7, #256	; 0x100
  2005ae:	b177      	cbz	r7, 2005ce <main+0x46>
  2005b0:	9801      	ldr	r0, [sp, #4]
  2005b2:	f7ff ffbd 	bl	200530 <arcfour_set_key>
  2005b6:	4620      	mov	r0, r4
  2005b8:	f7ff ff92 	bl	2004e0 <arcfour_crypt>
  2005bc:	f7ff ffb8 	bl	200530 <arcfour_set_key>
  2005c0:	4628      	mov	r0, r5
  2005c2:	f7ff ff8d 	bl	2004e0 <arcfour_crypt>
  2005c6:	9601      	str	r6, [sp, #4]
  2005c8:	3f01      	subs	r7, #1
  2005ca:	9801      	ldr	r0, [sp, #4]
  2005cc:	e7ef      	b.n	2005ae <main+0x26>
  2005ce:	f8d9 0000 	ldr.w	r0, [r9]
  2005d2:	464f      	mov	r7, r9
  2005d4:	f000 f80f 	bl	2005f6 <__arm_cp.0_2+0xe>
  2005d8:	f108 0801 	add.w	r8, r8, #1
  2005dc:	e7e0      	b.n	2005a0 <main+0x18>
  2005de:	e7fe      	b.n	2005de <main+0x56>

002005e0 <__arm_cp.0_0>:
  2005e0:	e0001004 	.word	0xe0001004

002005e4 <__arm_cp.0_1>:
  2005e4:	0020061a 	.word	0x0020061a

002005e8 <__arm_cp.0_2>:
  2005e8:	28200102 	.word	0x28200102
  2005ec:	f64f 6c11 	movw	ip, #65041	; 0xfe11
  2005f0:	f2c1 0c1f 	movt	ip, #4127	; 0x101f
  2005f4:	4760      	bx	ip
  2005f6:	f64f 6c19 	movw	ip, #65049	; 0xfe19
  2005fa:	f2c1 0c1f 	movt	ip, #4127	; 0x101f
  2005fe:	4760      	bx	ip

00200600 <_fp_init>:
  200600:	eef1 0a10 	vmrs	r0, fpscr
  200604:	f64f 71ff 	movw	r1, #65535	; 0xffff
  200608:	f2c0 31c0 	movt	r1, #960	; 0x3c0
  20060c:	ea20 0001 	bic.w	r0, r0, r1
  200610:	f040 7040 	orr.w	r0, r0, #50331648	; 0x3000000
  200614:	eee1 0a10 	vmsr	fpscr, r0

00200618 <__fplib_config_fpu_vfp>:
  200618:	4770      	bx	lr

0020061a <data>:
  20061a:	0100 0302 0504 0706 0908 0b0a 0d0c 0f0e     ................
	...

0020062c <Region$$Table$$Base>:
  20062c:	0020063c 	.word	0x0020063c
  200630:	28200000 	.word	0x28200000
  200634:	00000114 	.word	0x00000114
  200638:	0020043c 	.word	0x0020043c
