
../../Example/out/eval/Oz/elf_ns/sglib_listsort.axf:     file format elf32-littlearm


Disassembly of section ER_ROM:

00200000 <__Vectors>:
  200000:	00 00 40 28 a9 04 20 00 a5 04 20 00 a7 04 20 00     ..@(.. ... ... .
  200010:	a5 04 20 00 a5 04 20 00 a5 04 20 00 a5 04 20 00     .. ... ... ... .
	...
  20002c:	a5 04 20 00 a5 04 20 00 00 00 00 00 a5 04 20 00     .. ... ....... .
  20003c:	a5 04 20 00 a5 04 20 00 a5 04 20 00 a5 04 20 00     .. ... ... ... .
  20004c:	a5 04 20 00 a5 04 20 00 a5 04 20 00 00 00 00 00     .. ... ... .....
	...
  200064:	a5 04 20 00 a5 04 20 00 a5 04 20 00 a5 04 20 00     .. ... ... ... .
	...
  2000c0:	a5 04 20 00 a5 04 20 00 a5 04 20 00 a5 04 20 00     .. ... ... ... .
  2000d0:	a5 04 20 00 a5 04 20 00 a5 04 20 00 a5 04 20 00     .. ... ... ... .
  2000e0:	a5 04 20 00 a5 04 20 00 a5 04 20 00 a5 04 20 00     .. ... ... ... .
  2000f0:	a5 04 20 00 a5 04 20 00 a5 04 20 00 a5 04 20 00     .. ... ... ... .
  200100:	a5 04 20 00 a5 04 20 00 a5 04 20 00 a5 04 20 00     .. ... ... ... .
  200110:	a5 04 20 00 a5 04 20 00 a5 04 20 00 a5 04 20 00     .. ... ... ... .
  200120:	a5 04 20 00 a5 04 20 00 a5 04 20 00 a5 04 20 00     .. ... ... ... .
  200130:	a5 04 20 00 a5 04 20 00 a5 04 20 00 a5 04 20 00     .. ... ... ... .
  200140:	a5 04 20 00 a5 04 20 00 a5 04 20 00 a5 04 20 00     .. ... ... ... .
  200150:	a5 04 20 00 a5 04 20 00 a5 04 20 00 a5 04 20 00     .. ... ... ... .
  200160:	a5 04 20 00 a5 04 20 00 a5 04 20 00 a5 04 20 00     .. ... ... ... .
  200170:	a5 04 20 00 a5 04 20 00 a5 04 20 00 a5 04 20 00     .. ... ... ... .
  200180:	a5 04 20 00 a5 04 20 00 a5 04 20 00 a5 04 20 00     .. ... ... ... .
  200190:	a5 04 20 00 a5 04 20 00 a5 04 20 00 a5 04 20 00     .. ... ... ... .
  2001a0:	a5 04 20 00 a5 04 20 00 a5 04 20 00 a5 04 20 00     .. ... ... ... .
  2001b0:	a5 04 20 00 a5 04 20 00 a5 04 20 00 a5 04 20 00     .. ... ... ... .
  2001c0:	a5 04 20 00 a5 04 20 00 a5 04 20 00 a5 04 20 00     .. ... ... ... .
  2001d0:	a5 04 20 00 a5 04 20 00 a5 04 20 00 a5 04 20 00     .. ... ... ... .
  2001e0:	a5 04 20 00 a5 04 20 00 a5 04 20 00 a5 04 20 00     .. ... ... ... .
  2001f0:	a5 04 20 00 a5 04 20 00 a5 04 20 00 a5 04 20 00     .. ... ... ... .
  200200:	a5 04 20 00 a5 04 20 00 a5 04 20 00 a5 04 20 00     .. ... ... ... .
  200210:	a5 04 20 00 a5 04 20 00 a5 04 20 00 a5 04 20 00     .. ... ... ... .
  200220:	a5 04 20 00 a5 04 20 00 a5 04 20 00 a5 04 20 00     .. ... ... ... .
	...

00200400 <__main>:
  200400:	f000 f802 	bl	200408 <__scatterload_rt2>
  200404:	f000 f82e 	bl	200464 <__rt_entry>

00200408 <__scatterload_rt2>:
  200408:	a00a      	add	r0, pc, #40	; (adr r0, 200434 <__scatterload_null+0x1e>)
  20040a:	e890 0c00 	ldmia.w	r0, {sl, fp}
  20040e:	4482      	add	sl, r0
  200410:	4483      	add	fp, r0
  200412:	f1aa 0701 	sub.w	r7, sl, #1

00200416 <__scatterload_null>:
  200416:	45da      	cmp	sl, fp
  200418:	d101      	bne.n	20041e <__scatterload_null+0x8>
  20041a:	f000 f823 	bl	200464 <__rt_entry>
  20041e:	f2af 0e09 	subw	lr, pc, #9
  200422:	e8ba 000f 	ldmia.w	sl!, {r0, r1, r2, r3}
  200426:	f013 0f01 	tst.w	r3, #1
  20042a:	bf18      	it	ne
  20042c:	1afb      	subne	r3, r7, r3
  20042e:	f043 0301 	orr.w	r3, r3, #1
  200432:	4718      	bx	r3
  200434:	00000398 	.word	0x00000398
  200438:	000003a8 	.word	0x000003a8

0020043c <__scatterload_zeroinit>:
  20043c:	2300      	movs	r3, #0
  20043e:	2400      	movs	r4, #0
  200440:	2500      	movs	r5, #0
  200442:	2600      	movs	r6, #0
  200444:	3a10      	subs	r2, #16
  200446:	bf28      	it	cs
  200448:	c178      	stmiacs	r1!, {r3, r4, r5, r6}
  20044a:	d8fb      	bhi.n	200444 <__scatterload_zeroinit+0x8>
  20044c:	0752      	lsls	r2, r2, #29
  20044e:	bf28      	it	cs
  200450:	c130      	stmiacs	r1!, {r4, r5}
  200452:	bf48      	it	mi
  200454:	600b      	strmi	r3, [r1, #0]
  200456:	4770      	bx	lr

00200458 <__rt_lib_init>:
  200458:	b51f      	push	{r0, r1, r2, r3, r4, lr}

0020045a <__rt_lib_init_fp_1>:
  20045a:	f000 f8e1 	bl	200620 <_fp_init>

0020045e <__rt_lib_init_alloca_1>:
  20045e:	bd1f      	pop	{r0, r1, r2, r3, r4, pc}

00200460 <__rt_lib_shutdown>:
  200460:	b510      	push	{r4, lr}

00200462 <__rt_lib_shutdown_cpp_1>:
  200462:	bd10      	pop	{r4, pc}

00200464 <__rt_entry>:
  200464:	f8df d00c 	ldr.w	sp, [pc, #12]	; 200474 <__lit__00000000>

00200468 <__rt_entry_li>:
  200468:	f7ff fff6 	bl	200458 <__rt_lib_init>

0020046c <__rt_entry_main>:
  20046c:	f000 f838 	bl	2004e0 <main>
  200470:	f000 f808 	bl	200484 <exit>

00200474 <__lit__00000000>:
  200474:	0000 2840                                   ..@(

00200478 <__rt_exit>:
  200478:	b403      	push	{r0, r1}

0020047a <__rt_exit_ls>:
  20047a:	f7ff fff1 	bl	200460 <__rt_lib_shutdown>

0020047e <__rt_exit_exit>:
  20047e:	bc03      	pop	{r0, r1}
  200480:	f000 f80a 	bl	200498 <_sys_exit>

00200484 <exit>:
  200484:	b510      	push	{r4, lr}
  200486:	4604      	mov	r4, r0
  200488:	f3af 8000 	nop.w
  20048c:	4620      	mov	r0, r4
  20048e:	e8bd 4010 	ldmia.w	sp!, {r4, lr}
  200492:	f7ff bff1 	b.w	200478 <__rt_exit>

00200496 <__use_no_semihosting_swi>:
  200496:	4770      	bx	lr

00200498 <_sys_exit>:
  200498:	4901      	ldr	r1, [pc, #4]	; (2004a0 <_sys_exit+0x8>)
  20049a:	2018      	movs	r0, #24
  20049c:	beab      	bkpt	0x00ab
  20049e:	e7fe      	b.n	20049e <_sys_exit+0x6>
  2004a0:	00020026 	.word	0x00020026

002004a4 <Default_Handler>:
  2004a4:	e7fe      	b.n	2004a4 <Default_Handler>

002004a6 <HardFault_Handler>:
  2004a6:	e7fe      	b.n	2004a6 <HardFault_Handler>

002004a8 <Reset_Handler>:
  2004a8:	4809      	ldr	r0, [pc, #36]	; (2004d0 <__arm_cp.1_0>)
  2004aa:	f380 8809 	msr	PSP, r0
  2004ae:	490b      	ldr	r1, [pc, #44]	; (2004dc <__arm_cp.1_3>)
  2004b0:	4808      	ldr	r0, [pc, #32]	; (2004d4 <__arm_cp.1_1>)
  2004b2:	f380 880a 	msr	MSPLIM, r0
  2004b6:	f380 880b 	msr	PSPLIM, r0
  2004ba:	4807      	ldr	r0, [pc, #28]	; (2004d8 <__arm_cp.1_2>)
  2004bc:	6001      	str	r1, [r0, #0]
  2004be:	f8d0 1080 	ldr.w	r1, [r0, #128]	; 0x80
  2004c2:	f441 0170 	orr.w	r1, r1, #15728640	; 0xf00000
  2004c6:	f8c0 1080 	str.w	r1, [r0, #128]	; 0x80
  2004ca:	f7ff ff99 	bl	200400 <__main>
  2004ce:	bf00      	nop

002004d0 <__arm_cp.1_0>:
  2004d0:	28400000 	.word	0x28400000

002004d4 <__arm_cp.1_1>:
  2004d4:	283ffc00 	.word	0x283ffc00

002004d8 <__arm_cp.1_2>:
  2004d8:	e000ed08 	.word	0xe000ed08

002004dc <__arm_cp.1_3>:
  2004dc:	00200000 	.word	0x00200000

002004e0 <main>:
  2004e0:	b084      	sub	sp, #16
  2004e2:	2400      	movs	r4, #0
  2004e4:	f44f 3080 	mov.w	r0, #65536	; 0x10000
  2004e8:	9402      	str	r4, [sp, #8]
  2004ea:	f000 f88f 	bl	20060c <__arm_cp.0_3+0x4>
  2004ee:	f8df e114 	ldr.w	lr, [pc, #276]	; 200604 <__arm_cp.0_2>
  2004f2:	f8df 810c 	ldr.w	r8, [pc, #268]	; 200600 <__arm_cp.0_1>
  2004f6:	f8df 9110 	ldr.w	r9, [pc, #272]	; 200608 <__arm_cp.0_3>
  2004fa:	f10d 0a0c 	add.w	sl, sp, #12
  2004fe:	2000      	movs	r0, #0
  200500:	f50e 5b00 	add.w	fp, lr, #8192	; 0x2000
  200504:	2805      	cmp	r0, #5
  200506:	d078      	beq.n	2005fa <main+0x11a>
  200508:	9001      	str	r0, [sp, #4]
  20050a:	f04f 0c00 	mov.w	ip, #0
  20050e:	483b      	ldr	r0, [pc, #236]	; (2005fc <__arm_cp.0_0>)
  200510:	f8c0 c000 	str.w	ip, [r0]
  200514:	f5bc 7f80 	cmp.w	ip, #256	; 0x100
  200518:	d066      	beq.n	2005e8 <main+0x108>
  20051a:	e9c8 eb00 	strd	lr, fp, [r8]
  20051e:	2200      	movs	r2, #0
  200520:	464b      	mov	r3, r9
  200522:	9802      	ldr	r0, [sp, #8]
  200524:	f8d8 1000 	ldr.w	r1, [r8]
  200528:	2000      	movs	r0, #0
  20052a:	f5b2 7f48 	cmp.w	r2, #800	; 0x320
  20052e:	d00a      	beq.n	200546 <main+0x66>
  200530:	cb20      	ldmia	r3!, {r5}
  200532:	508d      	str	r5, [r1, r2]
  200534:	188d      	adds	r5, r1, r2
  200536:	3208      	adds	r2, #8
  200538:	f105 0708 	add.w	r7, r5, #8
  20053c:	f8c8 7000 	str.w	r7, [r8]
  200540:	6068      	str	r0, [r5, #4]
  200542:	4628      	mov	r0, r5
  200544:	e7f1      	b.n	20052a <main+0x4a>
  200546:	2500      	movs	r5, #0
  200548:	b120      	cbz	r0, 200554 <main+0x74>
  20054a:	4601      	mov	r1, r0
  20054c:	6840      	ldr	r0, [r0, #4]
  20054e:	604d      	str	r5, [r1, #4]
  200550:	460d      	mov	r5, r1
  200552:	e7f9      	b.n	200548 <main+0x68>
  200554:	2201      	movs	r2, #1
  200556:	2301      	movs	r3, #1
  200558:	b3db      	cbz	r3, 2005d2 <main+0xf2>
  20055a:	2300      	movs	r3, #0
  20055c:	4651      	mov	r1, sl
  20055e:	9303      	str	r3, [sp, #12]
  200560:	b3a5      	cbz	r5, 2005cc <main+0xec>
  200562:	2701      	movs	r7, #1
  200564:	4628      	mov	r0, r5
  200566:	4297      	cmp	r7, r2
  200568:	da03      	bge.n	200572 <main+0x92>
  20056a:	b110      	cbz	r0, 200572 <main+0x92>
  20056c:	6840      	ldr	r0, [r0, #4]
  20056e:	3701      	adds	r7, #1
  200570:	e7f9      	b.n	200566 <main+0x86>
  200572:	b350      	cbz	r0, 2005ca <main+0xea>
  200574:	6843      	ldr	r3, [r0, #4]
  200576:	6044      	str	r4, [r0, #4]
  200578:	2001      	movs	r0, #1
  20057a:	461f      	mov	r7, r3
  20057c:	4290      	cmp	r0, r2
  20057e:	da03      	bge.n	200588 <main+0xa8>
  200580:	b117      	cbz	r7, 200588 <main+0xa8>
  200582:	687f      	ldr	r7, [r7, #4]
  200584:	3001      	adds	r0, #1
  200586:	e7f9      	b.n	20057c <main+0x9c>
  200588:	b117      	cbz	r7, 200590 <main+0xb0>
  20058a:	6878      	ldr	r0, [r7, #4]
  20058c:	607c      	str	r4, [r7, #4]
  20058e:	e000      	b.n	200592 <main+0xb2>
  200590:	2000      	movs	r0, #0
  200592:	b175      	cbz	r5, 2005b2 <main+0xd2>
  200594:	b16b      	cbz	r3, 2005b2 <main+0xd2>
  200596:	681f      	ldr	r7, [r3, #0]
  200598:	682e      	ldr	r6, [r5, #0]
  20059a:	42be      	cmp	r6, r7
  20059c:	bfa3      	ittte	ge
  20059e:	600b      	strge	r3, [r1, #0]
  2005a0:	4619      	movge	r1, r3
  2005a2:	f851 3f04 	ldrge.w	r3, [r1, #4]!
  2005a6:	600d      	strlt	r5, [r1, #0]
  2005a8:	bfbc      	itt	lt
  2005aa:	4629      	movlt	r1, r5
  2005ac:	f851 5f04 	ldrlt.w	r5, [r1, #4]!
  2005b0:	e7ef      	b.n	200592 <main+0xb2>
  2005b2:	2d00      	cmp	r5, #0
  2005b4:	bf18      	it	ne
  2005b6:	462b      	movne	r3, r5
  2005b8:	600b      	str	r3, [r1, #0]
  2005ba:	b11b      	cbz	r3, 2005c4 <main+0xe4>
  2005bc:	4619      	mov	r1, r3
  2005be:	f851 3f04 	ldr.w	r3, [r1, #4]!
  2005c2:	e7fa      	b.n	2005ba <main+0xda>
  2005c4:	2301      	movs	r3, #1
  2005c6:	4605      	mov	r5, r0
  2005c8:	e7ca      	b.n	200560 <main+0x80>
  2005ca:	600d      	str	r5, [r1, #0]
  2005cc:	0052      	lsls	r2, r2, #1
  2005ce:	9d03      	ldr	r5, [sp, #12]
  2005d0:	e7c2      	b.n	200558 <main+0x78>
  2005d2:	2000      	movs	r0, #0
  2005d4:	b11d      	cbz	r5, 2005de <main+0xfe>
  2005d6:	e9d5 1500 	ldrd	r1, r5, [r5]
  2005da:	4408      	add	r0, r1
  2005dc:	e7fa      	b.n	2005d4 <main+0xf4>
  2005de:	9002      	str	r0, [sp, #8]
  2005e0:	f10c 0c01 	add.w	ip, ip, #1
  2005e4:	9802      	ldr	r0, [sp, #8]
  2005e6:	e795      	b.n	200514 <main+0x34>
  2005e8:	4804      	ldr	r0, [pc, #16]	; (2005fc <__arm_cp.0_0>)
  2005ea:	4675      	mov	r5, lr
  2005ec:	6800      	ldr	r0, [r0, #0]
  2005ee:	f000 f812 	bl	200616 <__arm_cp.0_3+0xe>
  2005f2:	9801      	ldr	r0, [sp, #4]
  2005f4:	46ae      	mov	lr, r5
  2005f6:	3001      	adds	r0, #1
  2005f8:	e784      	b.n	200504 <main+0x24>
  2005fa:	e7fe      	b.n	2005fa <main+0x11a>

002005fc <__arm_cp.0_0>:
  2005fc:	e0001004 	.word	0xe0001004

00200600 <__arm_cp.0_1>:
  200600:	28202000 	.word	0x28202000

00200604 <__arm_cp.0_2>:
  200604:	28200000 	.word	0x28200000

00200608 <__arm_cp.0_3>:
  200608:	0020063c 	.word	0x0020063c
  20060c:	f64f 6c11 	movw	ip, #65041	; 0xfe11
  200610:	f2c1 0c1f 	movt	ip, #4127	; 0x101f
  200614:	4760      	bx	ip
  200616:	f64f 6c19 	movw	ip, #65049	; 0xfe19
  20061a:	f2c1 0c1f 	movt	ip, #4127	; 0x101f
  20061e:	4760      	bx	ip

00200620 <_fp_init>:
  200620:	eef1 0a10 	vmrs	r0, fpscr
  200624:	f64f 71ff 	movw	r1, #65535	; 0xffff
  200628:	f2c0 31c0 	movt	r1, #960	; 0x3c0
  20062c:	ea20 0001 	bic.w	r0, r0, r1
  200630:	f040 7040 	orr.w	r0, r0, #50331648	; 0x3000000
  200634:	eee1 0a10 	vmsr	fpscr, r0

00200638 <__fplib_config_fpu_vfp>:
  200638:	4770      	bx	lr
	...

0020063c <array>:
  20063c:	000e 0000 0042 0000 000c 0000 0029 0000     ....B.......)...
  20064c:	0056 0000 0045 0000 0013 0000 004d 0000     V...E.......M...
  20065c:	0044 0000 0026 0000 001a 0000 002a 0000     D...&.......*...
  20066c:	0025 0000 0017 0000 0011 0000 001d 0000     %...............
  20067c:	0037 0000 000d 0000 005a 0000 005c 0000     7.......Z...\...
  20068c:	004c 0000 0063 0000 000a 0000 0036 0000     L...c.......6...
  20069c:	0039 0000 0053 0000 0028 0000 002c 0000     9...S...(...,...
  2006ac:	004b 0000 0021 0000 0018 0000 001c 0000     K...!...........
  2006bc:	0050 0000 0012 0000 004e 0000 0020 0000     P.......N... ...
  2006cc:	005d 0000 0059 0000 0034 0000 000b 0000     ]...Y...4.......
  2006dc:	0015 0000 0060 0000 0032 0000 000f 0000     ....`...2.......
  2006ec:	0030 0000 003f 0000 0057 0000 0014 0000     0...?...W.......
  2006fc:	0008 0000 0055 0000 002b 0000 0010 0000     ....U...+.......
  20070c:	005e 0000 0058 0000 0035 0000 0054 0000     ^...X...5...T...
  20071c:	004a 0000 005b 0000 0043 0000 0024 0000     J...[...C...$...
  20072c:	005f 0000 003d 0000 0040 0000 0005 0000     _...=...@.......
  20073c:	001e 0000 0052 0000 0048 0000 002e 0000     ....R...H.......
  20074c:	003b 0000 0009 0000 0007 0000 0003 0000     ;...............
  20075c:	0027 0000 001f 0000 0004 0000 0049 0000     '...........I...
  20076c:	0046 0000 003c 0000 003a 0000 0051 0000     F...<...:...Q...
  20077c:	0038 0000 0033 0000 002d 0000 0001 0000     8...3...-.......
  20078c:	0006 0000 0031 0000 001b 0000 002f 0000     ....1......./...
  20079c:	0022 0000 0023 0000 003e 0000 0061 0000     "...#...>...a...
  2007ac:	0002 0000 004f 0000 0062 0000 0019 0000     ....O...b.......
  2007bc:	0016 0000 0041 0000 0047 0000 0000 0000     ....A...G.......

002007cc <Region$$Table$$Base>:
  2007cc:	002007dc 	.word	0x002007dc
  2007d0:	28200000 	.word	0x28200000
  2007d4:	00002008 	.word	0x00002008
  2007d8:	0020043c 	.word	0x0020043c
