
../../Example/out/eval/Oz/elf_ns/sglib_arrayheapsort.axf:     file format elf32-littlearm


Disassembly of section ER_ROM:

00200000 <__Vectors>:
  200000:	00 00 40 28 a9 04 20 00 a5 04 20 00 a7 04 20 00     ..@(.. ... ... .
  200010:	a5 04 20 00 a5 04 20 00 a5 04 20 00 a5 04 20 00     .. ... ... ... .
	...
  20002c:	a5 04 20 00 a5 04 20 00 00 00 00 00 a5 04 20 00     .. ... ....... .
  20003c:	a5 04 20 00 a5 04 20 00 a5 04 20 00 a5 04 20 00     .. ... ... ... .
  20004c:	a5 04 20 00 a5 04 20 00 a5 04 20 00 00 00 00 00     .. ... ... .....
	...
  200064:	a5 04 20 00 a5 04 20 00 a5 04 20 00 a5 04 20 00     .. ... ... ... .
	...
  2000c0:	a5 04 20 00 a5 04 20 00 a5 04 20 00 a5 04 20 00     .. ... ... ... .
  2000d0:	a5 04 20 00 a5 04 20 00 a5 04 20 00 a5 04 20 00     .. ... ... ... .
  2000e0:	a5 04 20 00 a5 04 20 00 a5 04 20 00 a5 04 20 00     .. ... ... ... .
  2000f0:	a5 04 20 00 a5 04 20 00 a5 04 20 00 a5 04 20 00     .. ... ... ... .
  200100:	a5 04 20 00 a5 04 20 00 a5 04 20 00 a5 04 20 00     .. ... ... ... .
  200110:	a5 04 20 00 a5 04 20 00 a5 04 20 00 a5 04 20 00     .. ... ... ... .
  200120:	a5 04 20 00 a5 04 20 00 a5 04 20 00 a5 04 20 00     .. ... ... ... .
  200130:	a5 04 20 00 a5 04 20 00 a5 04 20 00 a5 04 20 00     .. ... ... ... .
  200140:	a5 04 20 00 a5 04 20 00 a5 04 20 00 a5 04 20 00     .. ... ... ... .
  200150:	a5 04 20 00 a5 04 20 00 a5 04 20 00 a5 04 20 00     .. ... ... ... .
  200160:	a5 04 20 00 a5 04 20 00 a5 04 20 00 a5 04 20 00     .. ... ... ... .
  200170:	a5 04 20 00 a5 04 20 00 a5 04 20 00 a5 04 20 00     .. ... ... ... .
  200180:	a5 04 20 00 a5 04 20 00 a5 04 20 00 a5 04 20 00     .. ... ... ... .
  200190:	a5 04 20 00 a5 04 20 00 a5 04 20 00 a5 04 20 00     .. ... ... ... .
  2001a0:	a5 04 20 00 a5 04 20 00 a5 04 20 00 a5 04 20 00     .. ... ... ... .
  2001b0:	a5 04 20 00 a5 04 20 00 a5 04 20 00 a5 04 20 00     .. ... ... ... .
  2001c0:	a5 04 20 00 a5 04 20 00 a5 04 20 00 a5 04 20 00     .. ... ... ... .
  2001d0:	a5 04 20 00 a5 04 20 00 a5 04 20 00 a5 04 20 00     .. ... ... ... .
  2001e0:	a5 04 20 00 a5 04 20 00 a5 04 20 00 a5 04 20 00     .. ... ... ... .
  2001f0:	a5 04 20 00 a5 04 20 00 a5 04 20 00 a5 04 20 00     .. ... ... ... .
  200200:	a5 04 20 00 a5 04 20 00 a5 04 20 00 a5 04 20 00     .. ... ... ... .
  200210:	a5 04 20 00 a5 04 20 00 a5 04 20 00 a5 04 20 00     .. ... ... ... .
  200220:	a5 04 20 00 a5 04 20 00 a5 04 20 00 a5 04 20 00     .. ... ... ... .
	...

00200400 <__main>:
  200400:	f000 f802 	bl	200408 <__scatterload_rt2>
  200404:	f000 f82e 	bl	200464 <__rt_entry>

00200408 <__scatterload_rt2>:
  200408:	a00a      	add	r0, pc, #40	; (adr r0, 200434 <__scatterload_null+0x1e>)
  20040a:	e890 0c00 	ldmia.w	r0, {sl, fp}
  20040e:	4482      	add	sl, r0
  200410:	4483      	add	fp, r0
  200412:	f1aa 0701 	sub.w	r7, sl, #1

00200416 <__scatterload_null>:
  200416:	45da      	cmp	sl, fp
  200418:	d101      	bne.n	20041e <__scatterload_null+0x8>
  20041a:	f000 f823 	bl	200464 <__rt_entry>
  20041e:	f2af 0e09 	subw	lr, pc, #9
  200422:	e8ba 000f 	ldmia.w	sl!, {r0, r1, r2, r3}
  200426:	f013 0f01 	tst.w	r3, #1
  20042a:	bf18      	it	ne
  20042c:	1afb      	subne	r3, r7, r3
  20042e:	f043 0301 	orr.w	r3, r3, #1
  200432:	4718      	bx	r3
  200434:	0000038c 	.word	0x0000038c
  200438:	0000039c 	.word	0x0000039c

0020043c <__scatterload_zeroinit>:
  20043c:	2300      	movs	r3, #0
  20043e:	2400      	movs	r4, #0
  200440:	2500      	movs	r5, #0
  200442:	2600      	movs	r6, #0
  200444:	3a10      	subs	r2, #16
  200446:	bf28      	it	cs
  200448:	c178      	stmiacs	r1!, {r3, r4, r5, r6}
  20044a:	d8fb      	bhi.n	200444 <__scatterload_zeroinit+0x8>
  20044c:	0752      	lsls	r2, r2, #29
  20044e:	bf28      	it	cs
  200450:	c130      	stmiacs	r1!, {r4, r5}
  200452:	bf48      	it	mi
  200454:	600b      	strmi	r3, [r1, #0]
  200456:	4770      	bx	lr

00200458 <__rt_lib_init>:
  200458:	b51f      	push	{r0, r1, r2, r3, r4, lr}

0020045a <__rt_lib_init_fp_1>:
  20045a:	f000 f8db 	bl	200614 <_fp_init>

0020045e <__rt_lib_init_alloca_1>:
  20045e:	bd1f      	pop	{r0, r1, r2, r3, r4, pc}

00200460 <__rt_lib_shutdown>:
  200460:	b510      	push	{r4, lr}

00200462 <__rt_lib_shutdown_cpp_1>:
  200462:	bd10      	pop	{r4, pc}

00200464 <__rt_entry>:
  200464:	f8df d00c 	ldr.w	sp, [pc, #12]	; 200474 <__lit__00000000>

00200468 <__rt_entry_li>:
  200468:	f7ff fff6 	bl	200458 <__rt_lib_init>

0020046c <__rt_entry_main>:
  20046c:	f000 f838 	bl	2004e0 <main>
  200470:	f000 f808 	bl	200484 <exit>

00200474 <__lit__00000000>:
  200474:	0000 2840                                   ..@(

00200478 <__rt_exit>:
  200478:	b403      	push	{r0, r1}

0020047a <__rt_exit_ls>:
  20047a:	f7ff fff1 	bl	200460 <__rt_lib_shutdown>

0020047e <__rt_exit_exit>:
  20047e:	bc03      	pop	{r0, r1}
  200480:	f000 f80a 	bl	200498 <_sys_exit>

00200484 <exit>:
  200484:	b510      	push	{r4, lr}
  200486:	4604      	mov	r4, r0
  200488:	f3af 8000 	nop.w
  20048c:	4620      	mov	r0, r4
  20048e:	e8bd 4010 	ldmia.w	sp!, {r4, lr}
  200492:	f7ff bff1 	b.w	200478 <__rt_exit>

00200496 <__use_no_semihosting_swi>:
  200496:	4770      	bx	lr

00200498 <_sys_exit>:
  200498:	4901      	ldr	r1, [pc, #4]	; (2004a0 <_sys_exit+0x8>)
  20049a:	2018      	movs	r0, #24
  20049c:	beab      	bkpt	0x00ab
  20049e:	e7fe      	b.n	20049e <_sys_exit+0x6>
  2004a0:	00020026 	.word	0x00020026

002004a4 <Default_Handler>:
  2004a4:	e7fe      	b.n	2004a4 <Default_Handler>

002004a6 <HardFault_Handler>:
  2004a6:	e7fe      	b.n	2004a6 <HardFault_Handler>

002004a8 <Reset_Handler>:
  2004a8:	4809      	ldr	r0, [pc, #36]	; (2004d0 <__arm_cp.1_0>)
  2004aa:	f380 8809 	msr	PSP, r0
  2004ae:	490b      	ldr	r1, [pc, #44]	; (2004dc <__arm_cp.1_3>)
  2004b0:	4808      	ldr	r0, [pc, #32]	; (2004d4 <__arm_cp.1_1>)
  2004b2:	f380 880a 	msr	MSPLIM, r0
  2004b6:	f380 880b 	msr	PSPLIM, r0
  2004ba:	4807      	ldr	r0, [pc, #28]	; (2004d8 <__arm_cp.1_2>)
  2004bc:	6001      	str	r1, [r0, #0]
  2004be:	f8d0 1080 	ldr.w	r1, [r0, #128]	; 0x80
  2004c2:	f441 0170 	orr.w	r1, r1, #15728640	; 0xf00000
  2004c6:	f8c0 1080 	str.w	r1, [r0, #128]	; 0x80
  2004ca:	f7ff ff99 	bl	200400 <__main>
  2004ce:	bf00      	nop

002004d0 <__arm_cp.1_0>:
  2004d0:	28400000 	.word	0x28400000

002004d4 <__arm_cp.1_1>:
  2004d4:	283ffc00 	.word	0x283ffc00

002004d8 <__arm_cp.1_2>:
  2004d8:	e000ed08 	.word	0xe000ed08

002004dc <__arm_cp.1_3>:
  2004dc:	00200000 	.word	0x00200000

002004e0 <main>:
  2004e0:	b082      	sub	sp, #8
  2004e2:	f04f 0800 	mov.w	r8, #0
  2004e6:	f44f 3080 	mov.w	r0, #65536	; 0x10000
  2004ea:	f8cd 8000 	str.w	r8, [sp]
  2004ee:	f000 f887 	bl	200600 <__arm_cp.0_2+0x4>
  2004f2:	4840      	ldr	r0, [pc, #256]	; (2005f4 <__arm_cp.0_0>)
  2004f4:	4f41      	ldr	r7, [pc, #260]	; (2005fc <__arm_cp.0_2>)
  2004f6:	f8df 9100 	ldr.w	r9, [pc, #256]	; 2005f8 <__arm_cp.0_1>
  2004fa:	f04f 0a02 	mov.w	sl, #2
  2004fe:	4683      	mov	fp, r0
  200500:	f1b8 0f05 	cmp.w	r8, #5
  200504:	d074      	beq.n	2005f0 <main+0x110>
  200506:	f04f 0c00 	mov.w	ip, #0
  20050a:	4658      	mov	r0, fp
  20050c:	f8cb c000 	str.w	ip, [fp]
  200510:	f5bc 7f80 	cmp.w	ip, #256	; 0x100
  200514:	d065      	beq.n	2005e2 <main+0x102>
  200516:	9800      	ldr	r0, [sp, #0]
  200518:	2000      	movs	r0, #0
  20051a:	9001      	str	r0, [sp, #4]
  20051c:	2864      	cmp	r0, #100	; 0x64
  20051e:	d005      	beq.n	20052c <main+0x4c>
  200520:	f859 1020 	ldr.w	r1, [r9, r0, lsl #2]
  200524:	f847 1020 	str.w	r1, [r7, r0, lsl #2]
  200528:	3001      	adds	r0, #1
  20052a:	e7f7      	b.n	20051c <main+0x3c>
  20052c:	f04f 0e32 	mov.w	lr, #50	; 0x32
  200530:	f1be 3fff 	cmp.w	lr, #4294967295
  200534:	dd23      	ble.n	20057e <main+0x9e>
  200536:	4672      	mov	r2, lr
  200538:	0050      	lsls	r0, r2, #1
  20053a:	1c43      	adds	r3, r0, #1
  20053c:	2b63      	cmp	r3, #99	; 0x63
  20053e:	dc1b      	bgt.n	200578 <main+0x98>
  200540:	f857 5023 	ldr.w	r5, [r7, r3, lsl #2]
  200544:	f857 4022 	ldr.w	r4, [r7, r2, lsl #2]
  200548:	eb0a 0042 	add.w	r0, sl, r2, lsl #1
  20054c:	42ac      	cmp	r4, r5
  20054e:	bfa8      	it	ge
  200550:	4613      	movge	r3, r2
  200552:	2863      	cmp	r0, #99	; 0x63
  200554:	dc06      	bgt.n	200564 <main+0x84>
  200556:	f857 5020 	ldr.w	r5, [r7, r0, lsl #2]
  20055a:	f857 1023 	ldr.w	r1, [r7, r3, lsl #2]
  20055e:	42a9      	cmp	r1, r5
  200560:	bfb8      	it	lt
  200562:	4603      	movlt	r3, r0
  200564:	4293      	cmp	r3, r2
  200566:	d007      	beq.n	200578 <main+0x98>
  200568:	f857 0023 	ldr.w	r0, [r7, r3, lsl #2]
  20056c:	f847 0022 	str.w	r0, [r7, r2, lsl #2]
  200570:	f847 4023 	str.w	r4, [r7, r3, lsl #2]
  200574:	461a      	mov	r2, r3
  200576:	e7df      	b.n	200538 <main+0x58>
  200578:	f1ae 0e01 	sub.w	lr, lr, #1
  20057c:	e7d8      	b.n	200530 <main+0x50>
  20057e:	2163      	movs	r1, #99	; 0x63
  200580:	2900      	cmp	r1, #0
  200582:	d428      	bmi.n	2005d6 <main+0xf6>
  200584:	f857 0021 	ldr.w	r0, [r7, r1, lsl #2]
  200588:	683a      	ldr	r2, [r7, #0]
  20058a:	6038      	str	r0, [r7, #0]
  20058c:	f847 2021 	str.w	r2, [r7, r1, lsl #2]
  200590:	2200      	movs	r2, #0
  200592:	0050      	lsls	r0, r2, #1
  200594:	1c43      	adds	r3, r0, #1
  200596:	428b      	cmp	r3, r1
  200598:	da1b      	bge.n	2005d2 <main+0xf2>
  20059a:	f857 5023 	ldr.w	r5, [r7, r3, lsl #2]
  20059e:	f857 4022 	ldr.w	r4, [r7, r2, lsl #2]
  2005a2:	eb0a 0042 	add.w	r0, sl, r2, lsl #1
  2005a6:	42ac      	cmp	r4, r5
  2005a8:	bfa8      	it	ge
  2005aa:	4613      	movge	r3, r2
  2005ac:	4288      	cmp	r0, r1
  2005ae:	da06      	bge.n	2005be <main+0xde>
  2005b0:	f857 5020 	ldr.w	r5, [r7, r0, lsl #2]
  2005b4:	f857 6023 	ldr.w	r6, [r7, r3, lsl #2]
  2005b8:	42ae      	cmp	r6, r5
  2005ba:	bfb8      	it	lt
  2005bc:	4603      	movlt	r3, r0
  2005be:	4293      	cmp	r3, r2
  2005c0:	d007      	beq.n	2005d2 <main+0xf2>
  2005c2:	f857 0023 	ldr.w	r0, [r7, r3, lsl #2]
  2005c6:	f847 0022 	str.w	r0, [r7, r2, lsl #2]
  2005ca:	f847 4023 	str.w	r4, [r7, r3, lsl #2]
  2005ce:	461a      	mov	r2, r3
  2005d0:	e7df      	b.n	200592 <main+0xb2>
  2005d2:	3901      	subs	r1, #1
  2005d4:	e7d4      	b.n	200580 <main+0xa0>
  2005d6:	9801      	ldr	r0, [sp, #4]
  2005d8:	f10c 0c01 	add.w	ip, ip, #1
  2005dc:	9000      	str	r0, [sp, #0]
  2005de:	9800      	ldr	r0, [sp, #0]
  2005e0:	e796      	b.n	200510 <main+0x30>
  2005e2:	f8db 0000 	ldr.w	r0, [fp]
  2005e6:	f000 f810 	bl	20060a <__arm_cp.0_2+0xe>
  2005ea:	f108 0801 	add.w	r8, r8, #1
  2005ee:	e787      	b.n	200500 <main+0x20>
  2005f0:	e7fe      	b.n	2005f0 <main+0x110>
  2005f2:	bf00      	nop

002005f4 <__arm_cp.0_0>:
  2005f4:	e0001004 	.word	0xe0001004

002005f8 <__arm_cp.0_1>:
  2005f8:	00200630 	.word	0x00200630

002005fc <__arm_cp.0_2>:
  2005fc:	28200000 	.word	0x28200000
  200600:	f64f 6c11 	movw	ip, #65041	; 0xfe11
  200604:	f2c1 0c1f 	movt	ip, #4127	; 0x101f
  200608:	4760      	bx	ip
  20060a:	f64f 6c19 	movw	ip, #65049	; 0xfe19
  20060e:	f2c1 0c1f 	movt	ip, #4127	; 0x101f
  200612:	4760      	bx	ip

00200614 <_fp_init>:
  200614:	eef1 0a10 	vmrs	r0, fpscr
  200618:	f64f 71ff 	movw	r1, #65535	; 0xffff
  20061c:	f2c0 31c0 	movt	r1, #960	; 0x3c0
  200620:	ea20 0001 	bic.w	r0, r0, r1
  200624:	f040 7040 	orr.w	r0, r0, #50331648	; 0x3000000
  200628:	eee1 0a10 	vmsr	fpscr, r0

0020062c <__fplib_config_fpu_vfp>:
  20062c:	4770      	bx	lr
	...

00200630 <array>:
  200630:	000e 0000 0042 0000 000c 0000 0029 0000     ....B.......)...
  200640:	0056 0000 0045 0000 0013 0000 004d 0000     V...E.......M...
  200650:	0044 0000 0026 0000 001a 0000 002a 0000     D...&.......*...
  200660:	0025 0000 0017 0000 0011 0000 001d 0000     %...............
  200670:	0037 0000 000d 0000 005a 0000 005c 0000     7.......Z...\...
  200680:	004c 0000 0063 0000 000a 0000 0036 0000     L...c.......6...
  200690:	0039 0000 0053 0000 0028 0000 002c 0000     9...S...(...,...
  2006a0:	004b 0000 0021 0000 0018 0000 001c 0000     K...!...........
  2006b0:	0050 0000 0012 0000 004e 0000 0020 0000     P.......N... ...
  2006c0:	005d 0000 0059 0000 0034 0000 000b 0000     ]...Y...4.......
  2006d0:	0015 0000 0060 0000 0032 0000 000f 0000     ....`...2.......
  2006e0:	0030 0000 003f 0000 0057 0000 0014 0000     0...?...W.......
  2006f0:	0008 0000 0055 0000 002b 0000 0010 0000     ....U...+.......
  200700:	005e 0000 0058 0000 0035 0000 0054 0000     ^...X...5...T...
  200710:	004a 0000 005b 0000 0043 0000 0024 0000     J...[...C...$...
  200720:	005f 0000 003d 0000 0040 0000 0005 0000     _...=...@.......
  200730:	001e 0000 0052 0000 0048 0000 002e 0000     ....R...H.......
  200740:	003b 0000 0009 0000 0007 0000 0003 0000     ;...............
  200750:	0027 0000 001f 0000 0004 0000 0049 0000     '...........I...
  200760:	0046 0000 003c 0000 003a 0000 0051 0000     F...<...:...Q...
  200770:	0038 0000 0033 0000 002d 0000 0001 0000     8...3...-.......
  200780:	0006 0000 0031 0000 001b 0000 002f 0000     ....1......./...
  200790:	0022 0000 0023 0000 003e 0000 0061 0000     "...#...>...a...
  2007a0:	0002 0000 004f 0000 0062 0000 0019 0000     ....O...b.......
  2007b0:	0016 0000 0041 0000 0047 0000 0000 0000     ....A...G.......

002007c0 <Region$$Table$$Base>:
  2007c0:	002007d0 	.word	0x002007d0
  2007c4:	28200000 	.word	0x28200000
  2007c8:	00000190 	.word	0x00000190
  2007cc:	0020043c 	.word	0x0020043c
