
../../Example/out/eval/Oz/elf_ns/sglib_listinsertsort.axf:     file format elf32-littlearm


Disassembly of section ER_ROM:

00200000 <__Vectors>:
  200000:	00 00 40 28 a9 04 20 00 a5 04 20 00 a7 04 20 00     ..@(.. ... ... .
  200010:	a5 04 20 00 a5 04 20 00 a5 04 20 00 a5 04 20 00     .. ... ... ... .
	...
  20002c:	a5 04 20 00 a5 04 20 00 00 00 00 00 a5 04 20 00     .. ... ....... .
  20003c:	a5 04 20 00 a5 04 20 00 a5 04 20 00 a5 04 20 00     .. ... ... ... .
  20004c:	a5 04 20 00 a5 04 20 00 a5 04 20 00 00 00 00 00     .. ... ... .....
	...
  200064:	a5 04 20 00 a5 04 20 00 a5 04 20 00 a5 04 20 00     .. ... ... ... .
	...
  2000c0:	a5 04 20 00 a5 04 20 00 a5 04 20 00 a5 04 20 00     .. ... ... ... .
  2000d0:	a5 04 20 00 a5 04 20 00 a5 04 20 00 a5 04 20 00     .. ... ... ... .
  2000e0:	a5 04 20 00 a5 04 20 00 a5 04 20 00 a5 04 20 00     .. ... ... ... .
  2000f0:	a5 04 20 00 a5 04 20 00 a5 04 20 00 a5 04 20 00     .. ... ... ... .
  200100:	a5 04 20 00 a5 04 20 00 a5 04 20 00 a5 04 20 00     .. ... ... ... .
  200110:	a5 04 20 00 a5 04 20 00 a5 04 20 00 a5 04 20 00     .. ... ... ... .
  200120:	a5 04 20 00 a5 04 20 00 a5 04 20 00 a5 04 20 00     .. ... ... ... .
  200130:	a5 04 20 00 a5 04 20 00 a5 04 20 00 a5 04 20 00     .. ... ... ... .
  200140:	a5 04 20 00 a5 04 20 00 a5 04 20 00 a5 04 20 00     .. ... ... ... .
  200150:	a5 04 20 00 a5 04 20 00 a5 04 20 00 a5 04 20 00     .. ... ... ... .
  200160:	a5 04 20 00 a5 04 20 00 a5 04 20 00 a5 04 20 00     .. ... ... ... .
  200170:	a5 04 20 00 a5 04 20 00 a5 04 20 00 a5 04 20 00     .. ... ... ... .
  200180:	a5 04 20 00 a5 04 20 00 a5 04 20 00 a5 04 20 00     .. ... ... ... .
  200190:	a5 04 20 00 a5 04 20 00 a5 04 20 00 a5 04 20 00     .. ... ... ... .
  2001a0:	a5 04 20 00 a5 04 20 00 a5 04 20 00 a5 04 20 00     .. ... ... ... .
  2001b0:	a5 04 20 00 a5 04 20 00 a5 04 20 00 a5 04 20 00     .. ... ... ... .
  2001c0:	a5 04 20 00 a5 04 20 00 a5 04 20 00 a5 04 20 00     .. ... ... ... .
  2001d0:	a5 04 20 00 a5 04 20 00 a5 04 20 00 a5 04 20 00     .. ... ... ... .
  2001e0:	a5 04 20 00 a5 04 20 00 a5 04 20 00 a5 04 20 00     .. ... ... ... .
  2001f0:	a5 04 20 00 a5 04 20 00 a5 04 20 00 a5 04 20 00     .. ... ... ... .
  200200:	a5 04 20 00 a5 04 20 00 a5 04 20 00 a5 04 20 00     .. ... ... ... .
  200210:	a5 04 20 00 a5 04 20 00 a5 04 20 00 a5 04 20 00     .. ... ... ... .
  200220:	a5 04 20 00 a5 04 20 00 a5 04 20 00 a5 04 20 00     .. ... ... ... .
	...

00200400 <__main>:
  200400:	f000 f802 	bl	200408 <__scatterload_rt2>
  200404:	f000 f82e 	bl	200464 <__rt_entry>

00200408 <__scatterload_rt2>:
  200408:	a00a      	add	r0, pc, #40	; (adr r0, 200434 <__scatterload_null+0x1e>)
  20040a:	e890 0c00 	ldmia.w	r0, {sl, fp}
  20040e:	4482      	add	sl, r0
  200410:	4483      	add	fp, r0
  200412:	f1aa 0701 	sub.w	r7, sl, #1

00200416 <__scatterload_null>:
  200416:	45da      	cmp	sl, fp
  200418:	d101      	bne.n	20041e <__scatterload_null+0x8>
  20041a:	f000 f823 	bl	200464 <__rt_entry>
  20041e:	f2af 0e09 	subw	lr, pc, #9
  200422:	e8ba 000f 	ldmia.w	sl!, {r0, r1, r2, r3}
  200426:	f013 0f01 	tst.w	r3, #1
  20042a:	bf18      	it	ne
  20042c:	1afb      	subne	r3, r7, r3
  20042e:	f043 0301 	orr.w	r3, r3, #1
  200432:	4718      	bx	r3
  200434:	000003a0 	.word	0x000003a0
  200438:	000003b0 	.word	0x000003b0

0020043c <__scatterload_zeroinit>:
  20043c:	2300      	movs	r3, #0
  20043e:	2400      	movs	r4, #0
  200440:	2500      	movs	r5, #0
  200442:	2600      	movs	r6, #0
  200444:	3a10      	subs	r2, #16
  200446:	bf28      	it	cs
  200448:	c178      	stmiacs	r1!, {r3, r4, r5, r6}
  20044a:	d8fb      	bhi.n	200444 <__scatterload_zeroinit+0x8>
  20044c:	0752      	lsls	r2, r2, #29
  20044e:	bf28      	it	cs
  200450:	c130      	stmiacs	r1!, {r4, r5}
  200452:	bf48      	it	mi
  200454:	600b      	strmi	r3, [r1, #0]
  200456:	4770      	bx	lr

00200458 <__rt_lib_init>:
  200458:	b51f      	push	{r0, r1, r2, r3, r4, lr}

0020045a <__rt_lib_init_fp_1>:
  20045a:	f000 f8e5 	bl	200628 <_fp_init>

0020045e <__rt_lib_init_alloca_1>:
  20045e:	bd1f      	pop	{r0, r1, r2, r3, r4, pc}

00200460 <__rt_lib_shutdown>:
  200460:	b510      	push	{r4, lr}

00200462 <__rt_lib_shutdown_cpp_1>:
  200462:	bd10      	pop	{r4, pc}

00200464 <__rt_entry>:
  200464:	f8df d00c 	ldr.w	sp, [pc, #12]	; 200474 <__lit__00000000>

00200468 <__rt_entry_li>:
  200468:	f7ff fff6 	bl	200458 <__rt_lib_init>

0020046c <__rt_entry_main>:
  20046c:	f000 f838 	bl	2004e0 <main>
  200470:	f000 f808 	bl	200484 <exit>

00200474 <__lit__00000000>:
  200474:	0000 2840                                   ..@(

00200478 <__rt_exit>:
  200478:	b403      	push	{r0, r1}

0020047a <__rt_exit_ls>:
  20047a:	f7ff fff1 	bl	200460 <__rt_lib_shutdown>

0020047e <__rt_exit_exit>:
  20047e:	bc03      	pop	{r0, r1}
  200480:	f000 f80a 	bl	200498 <_sys_exit>

00200484 <exit>:
  200484:	b510      	push	{r4, lr}
  200486:	4604      	mov	r4, r0
  200488:	f3af 8000 	nop.w
  20048c:	4620      	mov	r0, r4
  20048e:	e8bd 4010 	ldmia.w	sp!, {r4, lr}
  200492:	f7ff bff1 	b.w	200478 <__rt_exit>

00200496 <__use_no_semihosting_swi>:
  200496:	4770      	bx	lr

00200498 <_sys_exit>:
  200498:	4901      	ldr	r1, [pc, #4]	; (2004a0 <_sys_exit+0x8>)
  20049a:	2018      	movs	r0, #24
  20049c:	beab      	bkpt	0x00ab
  20049e:	e7fe      	b.n	20049e <_sys_exit+0x6>
  2004a0:	00020026 	.word	0x00020026

002004a4 <Default_Handler>:
  2004a4:	e7fe      	b.n	2004a4 <Default_Handler>

002004a6 <HardFault_Handler>:
  2004a6:	e7fe      	b.n	2004a6 <HardFault_Handler>

002004a8 <Reset_Handler>:
  2004a8:	4809      	ldr	r0, [pc, #36]	; (2004d0 <__arm_cp.3_0>)
  2004aa:	f380 8809 	msr	PSP, r0
  2004ae:	490b      	ldr	r1, [pc, #44]	; (2004dc <__arm_cp.3_3>)
  2004b0:	4808      	ldr	r0, [pc, #32]	; (2004d4 <__arm_cp.3_1>)
  2004b2:	f380 880a 	msr	MSPLIM, r0
  2004b6:	f380 880b 	msr	PSPLIM, r0
  2004ba:	4807      	ldr	r0, [pc, #28]	; (2004d8 <__arm_cp.3_2>)
  2004bc:	6001      	str	r1, [r0, #0]
  2004be:	f8d0 1080 	ldr.w	r1, [r0, #128]	; 0x80
  2004c2:	f441 0170 	orr.w	r1, r1, #15728640	; 0xf00000
  2004c6:	f8c0 1080 	str.w	r1, [r0, #128]	; 0x80
  2004ca:	f7ff ff99 	bl	200400 <__main>
  2004ce:	bf00      	nop

002004d0 <__arm_cp.3_0>:
  2004d0:	28400000 	.word	0x28400000

002004d4 <__arm_cp.3_1>:
  2004d4:	283ffc00 	.word	0x283ffc00

002004d8 <__arm_cp.3_2>:
  2004d8:	e000ed08 	.word	0xe000ed08

002004dc <__arm_cp.3_3>:
  2004dc:	00200000 	.word	0x00200000

002004e0 <main>:
  2004e0:	b08a      	sub	sp, #40	; 0x28
  2004e2:	2000      	movs	r0, #0
  2004e4:	9004      	str	r0, [sp, #16]
  2004e6:	f44f 3080 	mov.w	r0, #65536	; 0x10000
  2004ea:	f000 f893 	bl	200614 <sglib_iListType_it_next+0x3c>
  2004ee:	4835      	ldr	r0, [pc, #212]	; (2005c4 <__arm_cp.0_2>)
  2004f0:	f8df 90cc 	ldr.w	r9, [pc, #204]	; 2005c0 <__arm_cp.0_1>
  2004f4:	f8df 80d0 	ldr.w	r8, [pc, #208]	; 2005c8 <__arm_cp.0_3>
  2004f8:	f10d 0a14 	add.w	sl, sp, #20
  2004fc:	f10d 0b24 	add.w	fp, sp, #36	; 0x24
  200500:	f500 5000 	add.w	r0, r0, #8192	; 0x2000
  200504:	9002      	str	r0, [sp, #8]
  200506:	2000      	movs	r0, #0
  200508:	2805      	cmp	r0, #5
  20050a:	d056      	beq.n	2005ba <main+0xda>
  20050c:	9001      	str	r0, [sp, #4]
  20050e:	2100      	movs	r1, #0
  200510:	482a      	ldr	r0, [pc, #168]	; (2005bc <__arm_cp.0_0>)
  200512:	6001      	str	r1, [r0, #0]
  200514:	2000      	movs	r0, #0
  200516:	f5b0 7f80 	cmp.w	r0, #256	; 0x100
  20051a:	d047      	beq.n	2005ac <main+0xcc>
  20051c:	9003      	str	r0, [sp, #12]
  20051e:	4829      	ldr	r0, [pc, #164]	; (2005c4 <__arm_cp.0_2>)
  200520:	2101      	movs	r1, #1
  200522:	f8c9 0000 	str.w	r0, [r9]
  200526:	9802      	ldr	r0, [sp, #8]
  200528:	f8c9 0004 	str.w	r0, [r9, #4]
  20052c:	9804      	ldr	r0, [sp, #16]
  20052e:	2000      	movs	r0, #0
  200530:	9009      	str	r0, [sp, #36]	; 0x24
  200532:	e9d9 2000 	ldrd	r2, r0, [r9]
  200536:	2964      	cmp	r1, #100	; 0x64
  200538:	d019      	beq.n	20056e <main+0x8e>
  20053a:	f102 0708 	add.w	r7, r2, #8
  20053e:	f858 6021 	ldr.w	r6, [r8, r1, lsl #2]
  200542:	4287      	cmp	r7, r0
  200544:	bf99      	ittee	ls
  200546:	f8c9 7000 	strls.w	r7, [r9]
  20054a:	4613      	movls	r3, r2
  20054c:	2300      	movhi	r3, #0
  20054e:	4617      	movhi	r7, r2
  200550:	465a      	mov	r2, fp
  200552:	601e      	str	r6, [r3, #0]
  200554:	6815      	ldr	r5, [r2, #0]
  200556:	b125      	cbz	r5, 200562 <main+0x82>
  200558:	682c      	ldr	r4, [r5, #0]
  20055a:	42b4      	cmp	r4, r6
  20055c:	da02      	bge.n	200564 <main+0x84>
  20055e:	1d2a      	adds	r2, r5, #4
  200560:	e7f8      	b.n	200554 <main+0x74>
  200562:	2500      	movs	r5, #0
  200564:	605d      	str	r5, [r3, #4]
  200566:	6013      	str	r3, [r2, #0]
  200568:	3101      	adds	r1, #1
  20056a:	463a      	mov	r2, r7
  20056c:	e7e3      	b.n	200536 <main+0x56>
  20056e:	9d09      	ldr	r5, [sp, #36]	; 0x24
  200570:	4650      	mov	r0, sl
  200572:	464c      	mov	r4, r9
  200574:	4629      	mov	r1, r5
  200576:	f000 f829 	bl	2005cc <sglib_iListType_it_init>
  20057a:	f04f 0900 	mov.w	r9, #0
  20057e:	b128      	cbz	r0, 20058c <main+0xac>
  200580:	6800      	ldr	r0, [r0, #0]
  200582:	4481      	add	r9, r0
  200584:	4650      	mov	r0, sl
  200586:	f000 f827 	bl	2005d8 <sglib_iListType_it_next>
  20058a:	e7f8      	b.n	20057e <main+0x9e>
  20058c:	4650      	mov	r0, sl
  20058e:	4629      	mov	r1, r5
  200590:	f000 f81c 	bl	2005cc <sglib_iListType_it_init>
  200594:	b118      	cbz	r0, 20059e <main+0xbe>
  200596:	4650      	mov	r0, sl
  200598:	f000 f81e 	bl	2005d8 <sglib_iListType_it_next>
  20059c:	e7fa      	b.n	200594 <main+0xb4>
  20059e:	f8cd 9010 	str.w	r9, [sp, #16]
  2005a2:	46a1      	mov	r9, r4
  2005a4:	9804      	ldr	r0, [sp, #16]
  2005a6:	9803      	ldr	r0, [sp, #12]
  2005a8:	3001      	adds	r0, #1
  2005aa:	e7b4      	b.n	200516 <main+0x36>
  2005ac:	4803      	ldr	r0, [pc, #12]	; (2005bc <__arm_cp.0_0>)
  2005ae:	6800      	ldr	r0, [r0, #0]
  2005b0:	f000 f835 	bl	20061e <sglib_iListType_it_next+0x46>
  2005b4:	9801      	ldr	r0, [sp, #4]
  2005b6:	3001      	adds	r0, #1
  2005b8:	e7a6      	b.n	200508 <main+0x28>
  2005ba:	e7fe      	b.n	2005ba <main+0xda>

002005bc <__arm_cp.0_0>:
  2005bc:	e0001004 	.word	0xe0001004

002005c0 <__arm_cp.0_1>:
  2005c0:	28202000 	.word	0x28202000

002005c4 <__arm_cp.0_2>:
  2005c4:	28200000 	.word	0x28200000

002005c8 <__arm_cp.0_3>:
  2005c8:	00200644 	.word	0x00200644

002005cc <sglib_iListType_it_init>:
  2005cc:	2200      	movs	r2, #0
  2005ce:	e9c0 1201 	strd	r1, r2, [r0, #4]
  2005d2:	60c2      	str	r2, [r0, #12]
  2005d4:	f3af 8000 	nop.w

002005d8 <sglib_iListType_it_next>:
  2005d8:	b5f8      	push	{r3, r4, r5, r6, r7, lr}
  2005da:	e9d0 4701 	ldrd	r4, r7, [r0, #4]
  2005de:	4605      	mov	r5, r0
  2005e0:	2000      	movs	r0, #0
  2005e2:	6068      	str	r0, [r5, #4]
  2005e4:	b14f      	cbz	r7, 2005fa <sglib_iListType_it_next+0x22>
  2005e6:	68ee      	ldr	r6, [r5, #12]
  2005e8:	b164      	cbz	r4, 200604 <sglib_iListType_it_next+0x2c>
  2005ea:	4620      	mov	r0, r4
  2005ec:	4631      	mov	r1, r6
  2005ee:	47b8      	blx	r7
  2005f0:	f1b0 3fff 	cmp.w	r0, #4294967295
  2005f4:	dc05      	bgt.n	200602 <sglib_iListType_it_next+0x2a>
  2005f6:	6864      	ldr	r4, [r4, #4]
  2005f8:	e7f6      	b.n	2005e8 <sglib_iListType_it_next+0x10>
  2005fa:	602c      	str	r4, [r5, #0]
  2005fc:	b934      	cbnz	r4, 20060c <sglib_iListType_it_next+0x34>
  2005fe:	2400      	movs	r4, #0
  200600:	e006      	b.n	200610 <sglib_iListType_it_next+0x38>
  200602:	b110      	cbz	r0, 20060a <sglib_iListType_it_next+0x32>
  200604:	2400      	movs	r4, #0
  200606:	602c      	str	r4, [r5, #0]
  200608:	e002      	b.n	200610 <sglib_iListType_it_next+0x38>
  20060a:	602c      	str	r4, [r5, #0]
  20060c:	6860      	ldr	r0, [r4, #4]
  20060e:	6068      	str	r0, [r5, #4]
  200610:	4620      	mov	r0, r4
  200612:	bdf8      	pop	{r3, r4, r5, r6, r7, pc}
  200614:	f64f 6c11 	movw	ip, #65041	; 0xfe11
  200618:	f2c1 0c1f 	movt	ip, #4127	; 0x101f
  20061c:	4760      	bx	ip
  20061e:	f64f 6c19 	movw	ip, #65049	; 0xfe19
  200622:	f2c1 0c1f 	movt	ip, #4127	; 0x101f
  200626:	4760      	bx	ip

00200628 <_fp_init>:
  200628:	eef1 0a10 	vmrs	r0, fpscr
  20062c:	f64f 71ff 	movw	r1, #65535	; 0xffff
  200630:	f2c0 31c0 	movt	r1, #960	; 0x3c0
  200634:	ea20 0001 	bic.w	r0, r0, r1
  200638:	f040 7040 	orr.w	r0, r0, #50331648	; 0x3000000
  20063c:	eee1 0a10 	vmsr	fpscr, r0

00200640 <__fplib_config_fpu_vfp>:
  200640:	4770      	bx	lr
	...

00200644 <array>:
  200644:	000e 0000 0042 0000 000c 0000 0029 0000     ....B.......)...
  200654:	0056 0000 0045 0000 0013 0000 004d 0000     V...E.......M...
  200664:	0044 0000 0026 0000 001a 0000 002a 0000     D...&.......*...
  200674:	0025 0000 0017 0000 0011 0000 001d 0000     %...............
  200684:	0037 0000 000d 0000 005a 0000 005c 0000     7.......Z...\...
  200694:	004c 0000 0063 0000 000a 0000 0036 0000     L...c.......6...
  2006a4:	0039 0000 0053 0000 0028 0000 002c 0000     9...S...(...,...
  2006b4:	004b 0000 0021 0000 0018 0000 001c 0000     K...!...........
  2006c4:	0050 0000 0012 0000 004e 0000 0020 0000     P.......N... ...
  2006d4:	005d 0000 0059 0000 0034 0000 000b 0000     ]...Y...4.......
  2006e4:	0015 0000 0060 0000 0032 0000 000f 0000     ....`...2.......
  2006f4:	0030 0000 003f 0000 0057 0000 0014 0000     0...?...W.......
  200704:	0008 0000 0055 0000 002b 0000 0010 0000     ....U...+.......
  200714:	005e 0000 0058 0000 0035 0000 0054 0000     ^...X...5...T...
  200724:	004a 0000 005b 0000 0043 0000 0024 0000     J...[...C...$...
  200734:	005f 0000 003d 0000 0040 0000 0005 0000     _...=...@.......
  200744:	001e 0000 0052 0000 0048 0000 002e 0000     ....R...H.......
  200754:	003b 0000 0009 0000 0007 0000 0003 0000     ;...............
  200764:	0027 0000 001f 0000 0004 0000 0049 0000     '...........I...
  200774:	0046 0000 003c 0000 003a 0000 0051 0000     F...<...:...Q...
  200784:	0038 0000 0033 0000 002d 0000 0001 0000     8...3...-.......
  200794:	0006 0000 0031 0000 001b 0000 002f 0000     ....1......./...
  2007a4:	0022 0000 0023 0000 003e 0000 0061 0000     "...#...>...a...
  2007b4:	0002 0000 004f 0000 0062 0000 0019 0000     ....O...b.......
  2007c4:	0016 0000 0041 0000 0047 0000 0000 0000     ....A...G.......

002007d4 <Region$$Table$$Base>:
  2007d4:	002007e4 	.word	0x002007e4
  2007d8:	28200000 	.word	0x28200000
  2007dc:	00002008 	.word	0x00002008
  2007e0:	0020043c 	.word	0x0020043c
