
../../Example/out/eval/Oz/elf_ns/sglib_arrayquicksort.axf:     file format elf32-littlearm


Disassembly of section ER_ROM:

00200000 <__Vectors>:
  200000:	00 00 40 28 a9 04 20 00 a5 04 20 00 a7 04 20 00     ..@(.. ... ... .
  200010:	a5 04 20 00 a5 04 20 00 a5 04 20 00 a5 04 20 00     .. ... ... ... .
	...
  20002c:	a5 04 20 00 a5 04 20 00 00 00 00 00 a5 04 20 00     .. ... ....... .
  20003c:	a5 04 20 00 a5 04 20 00 a5 04 20 00 a5 04 20 00     .. ... ... ... .
  20004c:	a5 04 20 00 a5 04 20 00 a5 04 20 00 00 00 00 00     .. ... ... .....
	...
  200064:	a5 04 20 00 a5 04 20 00 a5 04 20 00 a5 04 20 00     .. ... ... ... .
	...
  2000c0:	a5 04 20 00 a5 04 20 00 a5 04 20 00 a5 04 20 00     .. ... ... ... .
  2000d0:	a5 04 20 00 a5 04 20 00 a5 04 20 00 a5 04 20 00     .. ... ... ... .
  2000e0:	a5 04 20 00 a5 04 20 00 a5 04 20 00 a5 04 20 00     .. ... ... ... .
  2000f0:	a5 04 20 00 a5 04 20 00 a5 04 20 00 a5 04 20 00     .. ... ... ... .
  200100:	a5 04 20 00 a5 04 20 00 a5 04 20 00 a5 04 20 00     .. ... ... ... .
  200110:	a5 04 20 00 a5 04 20 00 a5 04 20 00 a5 04 20 00     .. ... ... ... .
  200120:	a5 04 20 00 a5 04 20 00 a5 04 20 00 a5 04 20 00     .. ... ... ... .
  200130:	a5 04 20 00 a5 04 20 00 a5 04 20 00 a5 04 20 00     .. ... ... ... .
  200140:	a5 04 20 00 a5 04 20 00 a5 04 20 00 a5 04 20 00     .. ... ... ... .
  200150:	a5 04 20 00 a5 04 20 00 a5 04 20 00 a5 04 20 00     .. ... ... ... .
  200160:	a5 04 20 00 a5 04 20 00 a5 04 20 00 a5 04 20 00     .. ... ... ... .
  200170:	a5 04 20 00 a5 04 20 00 a5 04 20 00 a5 04 20 00     .. ... ... ... .
  200180:	a5 04 20 00 a5 04 20 00 a5 04 20 00 a5 04 20 00     .. ... ... ... .
  200190:	a5 04 20 00 a5 04 20 00 a5 04 20 00 a5 04 20 00     .. ... ... ... .
  2001a0:	a5 04 20 00 a5 04 20 00 a5 04 20 00 a5 04 20 00     .. ... ... ... .
  2001b0:	a5 04 20 00 a5 04 20 00 a5 04 20 00 a5 04 20 00     .. ... ... ... .
  2001c0:	a5 04 20 00 a5 04 20 00 a5 04 20 00 a5 04 20 00     .. ... ... ... .
  2001d0:	a5 04 20 00 a5 04 20 00 a5 04 20 00 a5 04 20 00     .. ... ... ... .
  2001e0:	a5 04 20 00 a5 04 20 00 a5 04 20 00 a5 04 20 00     .. ... ... ... .
  2001f0:	a5 04 20 00 a5 04 20 00 a5 04 20 00 a5 04 20 00     .. ... ... ... .
  200200:	a5 04 20 00 a5 04 20 00 a5 04 20 00 a5 04 20 00     .. ... ... ... .
  200210:	a5 04 20 00 a5 04 20 00 a5 04 20 00 a5 04 20 00     .. ... ... ... .
  200220:	a5 04 20 00 a5 04 20 00 a5 04 20 00 a5 04 20 00     .. ... ... ... .
	...

00200400 <__main>:
  200400:	f000 f802 	bl	200408 <__scatterload_rt2>
  200404:	f000 f82e 	bl	200464 <__rt_entry>

00200408 <__scatterload_rt2>:
  200408:	a00a      	add	r0, pc, #40	; (adr r0, 200434 <__scatterload_null+0x1e>)
  20040a:	e890 0c00 	ldmia.w	r0, {sl, fp}
  20040e:	4482      	add	sl, r0
  200410:	4483      	add	fp, r0
  200412:	f1aa 0701 	sub.w	r7, sl, #1

00200416 <__scatterload_null>:
  200416:	45da      	cmp	sl, fp
  200418:	d101      	bne.n	20041e <__scatterload_null+0x8>
  20041a:	f000 f823 	bl	200464 <__rt_entry>
  20041e:	f2af 0e09 	subw	lr, pc, #9
  200422:	e8ba 000f 	ldmia.w	sl!, {r0, r1, r2, r3}
  200426:	f013 0f01 	tst.w	r3, #1
  20042a:	bf18      	it	ne
  20042c:	1afb      	subne	r3, r7, r3
  20042e:	f043 0301 	orr.w	r3, r3, #1
  200432:	4718      	bx	r3
  200434:	000003c8 	.word	0x000003c8
  200438:	000003d8 	.word	0x000003d8

0020043c <__scatterload_zeroinit>:
  20043c:	2300      	movs	r3, #0
  20043e:	2400      	movs	r4, #0
  200440:	2500      	movs	r5, #0
  200442:	2600      	movs	r6, #0
  200444:	3a10      	subs	r2, #16
  200446:	bf28      	it	cs
  200448:	c178      	stmiacs	r1!, {r3, r4, r5, r6}
  20044a:	d8fb      	bhi.n	200444 <__scatterload_zeroinit+0x8>
  20044c:	0752      	lsls	r2, r2, #29
  20044e:	bf28      	it	cs
  200450:	c130      	stmiacs	r1!, {r4, r5}
  200452:	bf48      	it	mi
  200454:	600b      	strmi	r3, [r1, #0]
  200456:	4770      	bx	lr

00200458 <__rt_lib_init>:
  200458:	b51f      	push	{r0, r1, r2, r3, r4, lr}

0020045a <__rt_lib_init_fp_1>:
  20045a:	f000 f8f9 	bl	200650 <_fp_init>

0020045e <__rt_lib_init_alloca_1>:
  20045e:	bd1f      	pop	{r0, r1, r2, r3, r4, pc}

00200460 <__rt_lib_shutdown>:
  200460:	b510      	push	{r4, lr}

00200462 <__rt_lib_shutdown_cpp_1>:
  200462:	bd10      	pop	{r4, pc}

00200464 <__rt_entry>:
  200464:	f8df d00c 	ldr.w	sp, [pc, #12]	; 200474 <__lit__00000000>

00200468 <__rt_entry_li>:
  200468:	f7ff fff6 	bl	200458 <__rt_lib_init>

0020046c <__rt_entry_main>:
  20046c:	f000 f838 	bl	2004e0 <main>
  200470:	f000 f808 	bl	200484 <exit>

00200474 <__lit__00000000>:
  200474:	0000 2840                                   ..@(

00200478 <__rt_exit>:
  200478:	b403      	push	{r0, r1}

0020047a <__rt_exit_ls>:
  20047a:	f7ff fff1 	bl	200460 <__rt_lib_shutdown>

0020047e <__rt_exit_exit>:
  20047e:	bc03      	pop	{r0, r1}
  200480:	f000 f80a 	bl	200498 <_sys_exit>

00200484 <exit>:
  200484:	b510      	push	{r4, lr}
  200486:	4604      	mov	r4, r0
  200488:	f3af 8000 	nop.w
  20048c:	4620      	mov	r0, r4
  20048e:	e8bd 4010 	ldmia.w	sp!, {r4, lr}
  200492:	f7ff bff1 	b.w	200478 <__rt_exit>

00200496 <__use_no_semihosting_swi>:
  200496:	4770      	bx	lr

00200498 <_sys_exit>:
  200498:	4901      	ldr	r1, [pc, #4]	; (2004a0 <_sys_exit+0x8>)
  20049a:	2018      	movs	r0, #24
  20049c:	beab      	bkpt	0x00ab
  20049e:	e7fe      	b.n	20049e <_sys_exit+0x6>
  2004a0:	00020026 	.word	0x00020026

002004a4 <Default_Handler>:
  2004a4:	e7fe      	b.n	2004a4 <Default_Handler>

002004a6 <HardFault_Handler>:
  2004a6:	e7fe      	b.n	2004a6 <HardFault_Handler>

002004a8 <Reset_Handler>:
  2004a8:	4809      	ldr	r0, [pc, #36]	; (2004d0 <__arm_cp.1_0>)
  2004aa:	f380 8809 	msr	PSP, r0
  2004ae:	490b      	ldr	r1, [pc, #44]	; (2004dc <__arm_cp.1_3>)
  2004b0:	4808      	ldr	r0, [pc, #32]	; (2004d4 <__arm_cp.1_1>)
  2004b2:	f380 880a 	msr	MSPLIM, r0
  2004b6:	f380 880b 	msr	PSPLIM, r0
  2004ba:	4807      	ldr	r0, [pc, #28]	; (2004d8 <__arm_cp.1_2>)
  2004bc:	6001      	str	r1, [r0, #0]
  2004be:	f8d0 1080 	ldr.w	r1, [r0, #128]	; 0x80
  2004c2:	f441 0170 	orr.w	r1, r1, #15728640	; 0xf00000
  2004c6:	f8c0 1080 	str.w	r1, [r0, #128]	; 0x80
  2004ca:	f7ff ff99 	bl	200400 <__main>
  2004ce:	bf00      	nop

002004d0 <__arm_cp.1_0>:
  2004d0:	28400000 	.word	0x28400000

002004d4 <__arm_cp.1_1>:
  2004d4:	283ffc00 	.word	0x283ffc00

002004d8 <__arm_cp.1_2>:
  2004d8:	e000ed08 	.word	0xe000ed08

002004dc <__arm_cp.1_3>:
  2004dc:	00200000 	.word	0x00200000

002004e0 <main>:
  2004e0:	f5ad 7d04 	sub.w	sp, sp, #528	; 0x210
  2004e4:	2000      	movs	r0, #0
  2004e6:	9002      	str	r0, [sp, #8]
  2004e8:	f44f 3080 	mov.w	r0, #65536	; 0x10000
  2004ec:	f000 f8a6 	bl	20063c <__arm_cp.0_2+0x4>
  2004f0:	4c51      	ldr	r4, [pc, #324]	; (200638 <__arm_cp.0_2>)
  2004f2:	f8df b140 	ldr.w	fp, [pc, #320]	; 200634 <__arm_cp.0_1>
  2004f6:	f10d 0a0c 	add.w	sl, sp, #12
  2004fa:	f50d 7886 	add.w	r8, sp, #268	; 0x10c
  2004fe:	2000      	movs	r0, #0
  200500:	2805      	cmp	r0, #5
  200502:	f000 8094 	beq.w	20062e <main+0x14e>
  200506:	9001      	str	r0, [sp, #4]
  200508:	f04f 0c00 	mov.w	ip, #0
  20050c:	4848      	ldr	r0, [pc, #288]	; (200630 <__arm_cp.0_0>)
  20050e:	f8c0 c000 	str.w	ip, [r0]
  200512:	f5bc 7f80 	cmp.w	ip, #256	; 0x100
  200516:	f000 8083 	beq.w	200620 <main+0x140>
  20051a:	9802      	ldr	r0, [sp, #8]
  20051c:	2000      	movs	r0, #0
  20051e:	9083      	str	r0, [sp, #524]	; 0x20c
  200520:	2864      	cmp	r0, #100	; 0x64
  200522:	d005      	beq.n	200530 <main+0x50>
  200524:	f85b 1020 	ldr.w	r1, [fp, r0, lsl #2]
  200528:	f844 1020 	str.w	r1, [r4, r0, lsl #2]
  20052c:	3001      	adds	r0, #1
  20052e:	e7f7      	b.n	200520 <main+0x40>
  200530:	2000      	movs	r0, #0
  200532:	f04f 0e01 	mov.w	lr, #1
  200536:	9043      	str	r0, [sp, #268]	; 0x10c
  200538:	2064      	movs	r0, #100	; 0x64
  20053a:	9003      	str	r0, [sp, #12]
  20053c:	f1be 0f01 	cmp.w	lr, #1
  200540:	db68      	blt.n	200614 <main+0x134>
  200542:	f1ae 0e01 	sub.w	lr, lr, #1
  200546:	f85a 302e 	ldr.w	r3, [sl, lr, lsl #2]
  20054a:	f858 202e 	ldr.w	r2, [r8, lr, lsl #2]
  20054e:	1c50      	adds	r0, r2, #1
  200550:	1a99      	subs	r1, r3, r2
  200552:	461e      	mov	r6, r3
  200554:	2903      	cmp	r1, #3
  200556:	db4f      	blt.n	2005f8 <main+0x118>
  200558:	1e77      	subs	r7, r6, #1
  20055a:	4603      	mov	r3, r0
  20055c:	42bb      	cmp	r3, r7
  20055e:	da31      	bge.n	2005c4 <main+0xe4>
  200560:	42bb      	cmp	r3, r7
  200562:	dc1b      	bgt.n	20059c <main+0xbc>
  200564:	f854 1022 	ldr.w	r1, [r4, r2, lsl #2]
  200568:	f854 5023 	ldr.w	r5, [r4, r3, lsl #2]
  20056c:	428d      	cmp	r5, r1
  20056e:	dc02      	bgt.n	200576 <main+0x96>
  200570:	3301      	adds	r3, #1
  200572:	e7f5      	b.n	200560 <main+0x80>
  200574:	3f01      	subs	r7, #1
  200576:	f854 9027 	ldr.w	r9, [r4, r7, lsl #2]
  20057a:	42bb      	cmp	r3, r7
  20057c:	dc18      	bgt.n	2005b0 <main+0xd0>
  20057e:	4589      	cmp	r9, r1
  200580:	daf8      	bge.n	200574 <main+0x94>
  200582:	42bb      	cmp	r3, r7
  200584:	daea      	bge.n	20055c <main+0x7c>
  200586:	f844 9023 	str.w	r9, [r4, r3, lsl #2]
  20058a:	f844 5027 	str.w	r5, [r4, r7, lsl #2]
  20058e:	1c59      	adds	r1, r3, #1
  200590:	1c9d      	adds	r5, r3, #2
  200592:	42bd      	cmp	r5, r7
  200594:	da12      	bge.n	2005bc <main+0xdc>
  200596:	3f01      	subs	r7, #1
  200598:	460b      	mov	r3, r1
  20059a:	e7df      	b.n	20055c <main+0x7c>
  20059c:	f854 1027 	ldr.w	r1, [r4, r7, lsl #2]
  2005a0:	f854 3022 	ldr.w	r3, [r4, r2, lsl #2]
  2005a4:	f844 3027 	str.w	r3, [r4, r7, lsl #2]
  2005a8:	f844 1022 	str.w	r1, [r4, r2, lsl #2]
  2005ac:	463b      	mov	r3, r7
  2005ae:	e7d5      	b.n	20055c <main+0x7c>
  2005b0:	f844 1027 	str.w	r1, [r4, r7, lsl #2]
  2005b4:	f844 9022 	str.w	r9, [r4, r2, lsl #2]
  2005b8:	463b      	mov	r3, r7
  2005ba:	e7cf      	b.n	20055c <main+0x7c>
  2005bc:	42b9      	cmp	r1, r7
  2005be:	bfb8      	it	lt
  2005c0:	460b      	movlt	r3, r1
  2005c2:	e7cb      	b.n	20055c <main+0x7c>
  2005c4:	1a99      	subs	r1, r3, r2
  2005c6:	2902      	cmp	r1, #2
  2005c8:	db13      	blt.n	2005f2 <main+0x112>
  2005ca:	1bf5      	subs	r5, r6, r7
  2005cc:	2d02      	cmp	r5, #2
  2005ce:	dbbf      	blt.n	200550 <main+0x70>
  2005d0:	3d01      	subs	r5, #1
  2005d2:	42a9      	cmp	r1, r5
  2005d4:	d207      	bcs.n	2005e6 <main+0x106>
  2005d6:	1c79      	adds	r1, r7, #1
  2005d8:	f84a 602e 	str.w	r6, [sl, lr, lsl #2]
  2005dc:	f848 102e 	str.w	r1, [r8, lr, lsl #2]
  2005e0:	f10e 0e01 	add.w	lr, lr, #1
  2005e4:	e7b4      	b.n	200550 <main+0x70>
  2005e6:	f84a 302e 	str.w	r3, [sl, lr, lsl #2]
  2005ea:	f848 202e 	str.w	r2, [r8, lr, lsl #2]
  2005ee:	f10e 0e01 	add.w	lr, lr, #1
  2005f2:	1c7a      	adds	r2, r7, #1
  2005f4:	4633      	mov	r3, r6
  2005f6:	e7aa      	b.n	20054e <main+0x6e>
  2005f8:	2902      	cmp	r1, #2
  2005fa:	d19f      	bne.n	20053c <main+0x5c>
  2005fc:	1e71      	subs	r1, r6, #1
  2005fe:	f854 0022 	ldr.w	r0, [r4, r2, lsl #2]
  200602:	f854 3021 	ldr.w	r3, [r4, r1, lsl #2]
  200606:	4298      	cmp	r0, r3
  200608:	dd98      	ble.n	20053c <main+0x5c>
  20060a:	f844 3022 	str.w	r3, [r4, r2, lsl #2]
  20060e:	f844 0021 	str.w	r0, [r4, r1, lsl #2]
  200612:	e793      	b.n	20053c <main+0x5c>
  200614:	9883      	ldr	r0, [sp, #524]	; 0x20c
  200616:	f10c 0c01 	add.w	ip, ip, #1
  20061a:	9002      	str	r0, [sp, #8]
  20061c:	9802      	ldr	r0, [sp, #8]
  20061e:	e778      	b.n	200512 <main+0x32>
  200620:	4803      	ldr	r0, [pc, #12]	; (200630 <__arm_cp.0_0>)
  200622:	6800      	ldr	r0, [r0, #0]
  200624:	f000 f80f 	bl	200646 <__arm_cp.0_2+0xe>
  200628:	9801      	ldr	r0, [sp, #4]
  20062a:	3001      	adds	r0, #1
  20062c:	e768      	b.n	200500 <main+0x20>
  20062e:	e7fe      	b.n	20062e <main+0x14e>

00200630 <__arm_cp.0_0>:
  200630:	e0001004 	.word	0xe0001004

00200634 <__arm_cp.0_1>:
  200634:	0020066c 	.word	0x0020066c

00200638 <__arm_cp.0_2>:
  200638:	28200000 	.word	0x28200000
  20063c:	f64f 6c11 	movw	ip, #65041	; 0xfe11
  200640:	f2c1 0c1f 	movt	ip, #4127	; 0x101f
  200644:	4760      	bx	ip
  200646:	f64f 6c19 	movw	ip, #65049	; 0xfe19
  20064a:	f2c1 0c1f 	movt	ip, #4127	; 0x101f
  20064e:	4760      	bx	ip

00200650 <_fp_init>:
  200650:	eef1 0a10 	vmrs	r0, fpscr
  200654:	f64f 71ff 	movw	r1, #65535	; 0xffff
  200658:	f2c0 31c0 	movt	r1, #960	; 0x3c0
  20065c:	ea20 0001 	bic.w	r0, r0, r1
  200660:	f040 7040 	orr.w	r0, r0, #50331648	; 0x3000000
  200664:	eee1 0a10 	vmsr	fpscr, r0

00200668 <__fplib_config_fpu_vfp>:
  200668:	4770      	bx	lr
	...

0020066c <array>:
  20066c:	000e 0000 0042 0000 000c 0000 0029 0000     ....B.......)...
  20067c:	0056 0000 0045 0000 0013 0000 004d 0000     V...E.......M...
  20068c:	0044 0000 0026 0000 001a 0000 002a 0000     D...&.......*...
  20069c:	0025 0000 0017 0000 0011 0000 001d 0000     %...............
  2006ac:	0037 0000 000d 0000 005a 0000 005c 0000     7.......Z...\...
  2006bc:	004c 0000 0063 0000 000a 0000 0036 0000     L...c.......6...
  2006cc:	0039 0000 0053 0000 0028 0000 002c 0000     9...S...(...,...
  2006dc:	004b 0000 0021 0000 0018 0000 001c 0000     K...!...........
  2006ec:	0050 0000 0012 0000 004e 0000 0020 0000     P.......N... ...
  2006fc:	005d 0000 0059 0000 0034 0000 000b 0000     ]...Y...4.......
  20070c:	0015 0000 0060 0000 0032 0000 000f 0000     ....`...2.......
  20071c:	0030 0000 003f 0000 0057 0000 0014 0000     0...?...W.......
  20072c:	0008 0000 0055 0000 002b 0000 0010 0000     ....U...+.......
  20073c:	005e 0000 0058 0000 0035 0000 0054 0000     ^...X...5...T...
  20074c:	004a 0000 005b 0000 0043 0000 0024 0000     J...[...C...$...
  20075c:	005f 0000 003d 0000 0040 0000 0005 0000     _...=...@.......
  20076c:	001e 0000 0052 0000 0048 0000 002e 0000     ....R...H.......
  20077c:	003b 0000 0009 0000 0007 0000 0003 0000     ;...............
  20078c:	0027 0000 001f 0000 0004 0000 0049 0000     '...........I...
  20079c:	0046 0000 003c 0000 003a 0000 0051 0000     F...<...:...Q...
  2007ac:	0038 0000 0033 0000 002d 0000 0001 0000     8...3...-.......
  2007bc:	0006 0000 0031 0000 001b 0000 002f 0000     ....1......./...
  2007cc:	0022 0000 0023 0000 003e 0000 0061 0000     "...#...>...a...
  2007dc:	0002 0000 004f 0000 0062 0000 0019 0000     ....O...b.......
  2007ec:	0016 0000 0041 0000 0047 0000 0000 0000     ....A...G.......

002007fc <Region$$Table$$Base>:
  2007fc:	0020080c 	.word	0x0020080c
  200800:	28200000 	.word	0x28200000
  200804:	00000190 	.word	0x00000190
  200808:	0020043c 	.word	0x0020043c
