
../../Example/out/eval/O3/elf_ns/crc32.axf:     file format elf32-littlearm


Disassembly of section ER_ROM:

00200000 <__Vectors>:
  200000:	00 00 40 28 ad 04 20 00 a5 04 20 00 a9 04 20 00     ..@(.. ... ... .
  200010:	a5 04 20 00 a5 04 20 00 a5 04 20 00 a5 04 20 00     .. ... ... ... .
	...
  20002c:	a5 04 20 00 a5 04 20 00 00 00 00 00 a5 04 20 00     .. ... ....... .
  20003c:	a5 04 20 00 a5 04 20 00 a5 04 20 00 a5 04 20 00     .. ... ... ... .
  20004c:	a5 04 20 00 a5 04 20 00 a5 04 20 00 00 00 00 00     .. ... ... .....
	...
  200064:	a5 04 20 00 a5 04 20 00 a5 04 20 00 a5 04 20 00     .. ... ... ... .
	...
  2000c0:	a5 04 20 00 a5 04 20 00 a5 04 20 00 a5 04 20 00     .. ... ... ... .
  2000d0:	a5 04 20 00 a5 04 20 00 a5 04 20 00 a5 04 20 00     .. ... ... ... .
  2000e0:	a5 04 20 00 a5 04 20 00 a5 04 20 00 a5 04 20 00     .. ... ... ... .
  2000f0:	a5 04 20 00 a5 04 20 00 a5 04 20 00 a5 04 20 00     .. ... ... ... .
  200100:	a5 04 20 00 a5 04 20 00 a5 04 20 00 a5 04 20 00     .. ... ... ... .
  200110:	a5 04 20 00 a5 04 20 00 a5 04 20 00 a5 04 20 00     .. ... ... ... .
  200120:	a5 04 20 00 a5 04 20 00 a5 04 20 00 a5 04 20 00     .. ... ... ... .
  200130:	a5 04 20 00 a5 04 20 00 a5 04 20 00 a5 04 20 00     .. ... ... ... .
  200140:	a5 04 20 00 a5 04 20 00 a5 04 20 00 a5 04 20 00     .. ... ... ... .
  200150:	a5 04 20 00 a5 04 20 00 a5 04 20 00 a5 04 20 00     .. ... ... ... .
  200160:	a5 04 20 00 a5 04 20 00 a5 04 20 00 a5 04 20 00     .. ... ... ... .
  200170:	a5 04 20 00 a5 04 20 00 a5 04 20 00 a5 04 20 00     .. ... ... ... .
  200180:	a5 04 20 00 a5 04 20 00 a5 04 20 00 a5 04 20 00     .. ... ... ... .
  200190:	a5 04 20 00 a5 04 20 00 a5 04 20 00 a5 04 20 00     .. ... ... ... .
  2001a0:	a5 04 20 00 a5 04 20 00 a5 04 20 00 a5 04 20 00     .. ... ... ... .
  2001b0:	a5 04 20 00 a5 04 20 00 a5 04 20 00 a5 04 20 00     .. ... ... ... .
  2001c0:	a5 04 20 00 a5 04 20 00 a5 04 20 00 a5 04 20 00     .. ... ... ... .
  2001d0:	a5 04 20 00 a5 04 20 00 a5 04 20 00 a5 04 20 00     .. ... ... ... .
  2001e0:	a5 04 20 00 a5 04 20 00 a5 04 20 00 a5 04 20 00     .. ... ... ... .
  2001f0:	a5 04 20 00 a5 04 20 00 a5 04 20 00 a5 04 20 00     .. ... ... ... .
  200200:	a5 04 20 00 a5 04 20 00 a5 04 20 00 a5 04 20 00     .. ... ... ... .
  200210:	a5 04 20 00 a5 04 20 00 a5 04 20 00 a5 04 20 00     .. ... ... ... .
  200220:	a5 04 20 00 a5 04 20 00 a5 04 20 00 a5 04 20 00     .. ... ... ... .
	...

00200400 <__main>:
  200400:	f000 f802 	bl	200408 <__scatterload_rt2>
  200404:	f000 f82e 	bl	200464 <__rt_entry>

00200408 <__scatterload_rt2>:
  200408:	a00a      	add	r0, pc, #40	; (adr r0, 200434 <__scatterload_null+0x1e>)
  20040a:	e890 0c00 	ldmia.w	r0, {sl, fp}
  20040e:	4482      	add	sl, r0
  200410:	4483      	add	fp, r0
  200412:	f1aa 0701 	sub.w	r7, sl, #1

00200416 <__scatterload_null>:
  200416:	45da      	cmp	sl, fp
  200418:	d101      	bne.n	20041e <__scatterload_null+0x8>
  20041a:	f000 f823 	bl	200464 <__rt_entry>
  20041e:	f2af 0e09 	subw	lr, pc, #9
  200422:	e8ba 000f 	ldmia.w	sl!, {r0, r1, r2, r3}
  200426:	f013 0f01 	tst.w	r3, #1
  20042a:	bf18      	it	ne
  20042c:	1afb      	subne	r3, r7, r3
  20042e:	f043 0301 	orr.w	r3, r3, #1
  200432:	4718      	bx	r3
  200434:	000006f8 	.word	0x000006f8
  200438:	00000708 	.word	0x00000708

0020043c <__scatterload_zeroinit>:
  20043c:	2300      	movs	r3, #0
  20043e:	2400      	movs	r4, #0
  200440:	2500      	movs	r5, #0
  200442:	2600      	movs	r6, #0
  200444:	3a10      	subs	r2, #16
  200446:	bf28      	it	cs
  200448:	c178      	stmiacs	r1!, {r3, r4, r5, r6}
  20044a:	d8fb      	bhi.n	200444 <__scatterload_zeroinit+0x8>
  20044c:	0752      	lsls	r2, r2, #29
  20044e:	bf28      	it	cs
  200450:	c130      	stmiacs	r1!, {r4, r5}
  200452:	bf48      	it	mi
  200454:	600b      	strmi	r3, [r1, #0]
  200456:	4770      	bx	lr

00200458 <__rt_lib_init>:
  200458:	b51f      	push	{r0, r1, r2, r3, r4, lr}

0020045a <__rt_lib_init_fp_1>:
  20045a:	f000 f95a 	bl	200712 <_fp_init>

0020045e <__rt_lib_init_alloca_1>:
  20045e:	bd1f      	pop	{r0, r1, r2, r3, r4, pc}

00200460 <__rt_lib_shutdown>:
  200460:	b510      	push	{r4, lr}

00200462 <__rt_lib_shutdown_cpp_1>:
  200462:	bd10      	pop	{r4, pc}

00200464 <__rt_entry>:
  200464:	f8df d00c 	ldr.w	sp, [pc, #12]	; 200474 <__lit__00000000>

00200468 <__rt_entry_li>:
  200468:	f7ff fff6 	bl	200458 <__rt_lib_init>

0020046c <__rt_entry_main>:
  20046c:	f000 f8f6 	bl	20065c <main>
  200470:	f000 f808 	bl	200484 <exit>

00200474 <__lit__00000000>:
  200474:	0000 2840                                   ..@(

00200478 <__rt_exit>:
  200478:	b403      	push	{r0, r1}

0020047a <__rt_exit_ls>:
  20047a:	f7ff fff1 	bl	200460 <__rt_lib_shutdown>

0020047e <__rt_exit_exit>:
  20047e:	bc03      	pop	{r0, r1}
  200480:	f000 f80a 	bl	200498 <_sys_exit>

00200484 <exit>:
  200484:	b510      	push	{r4, lr}
  200486:	4604      	mov	r4, r0
  200488:	f3af 8000 	nop.w
  20048c:	4620      	mov	r0, r4
  20048e:	e8bd 4010 	ldmia.w	sp!, {r4, lr}
  200492:	f7ff bff1 	b.w	200478 <__rt_exit>

00200496 <__use_no_semihosting_swi>:
  200496:	4770      	bx	lr

00200498 <_sys_exit>:
  200498:	4901      	ldr	r1, [pc, #4]	; (2004a0 <_sys_exit+0x8>)
  20049a:	2018      	movs	r0, #24
  20049c:	beab      	bkpt	0x00ab
  20049e:	e7fe      	b.n	20049e <_sys_exit+0x6>
  2004a0:	00020026 	.word	0x00020026

002004a4 <Default_Handler>:
  2004a4:	e7fe      	b.n	2004a4 <Default_Handler>
	...

002004a8 <HardFault_Handler>:
  2004a8:	e7fe      	b.n	2004a8 <HardFault_Handler>
	...

002004ac <Reset_Handler>:
  2004ac:	f240 0000 	movw	r0, #0
  2004b0:	f6c2 0040 	movt	r0, #10304	; 0x2840
  2004b4:	f380 8809 	msr	PSP, r0
  2004b8:	f240 0000 	movw	r0, #0
  2004bc:	f64e 5288 	movw	r2, #60808	; 0xed88
  2004c0:	f64f 4100 	movw	r1, #64512	; 0xfc00
  2004c4:	f2c0 0020 	movt	r0, #32
  2004c8:	f2ce 0200 	movt	r2, #57344	; 0xe000
  2004cc:	f6c2 013f 	movt	r1, #10303	; 0x283f
  2004d0:	f381 880a 	msr	MSPLIM, r1
  2004d4:	f381 880b 	msr	PSPLIM, r1
  2004d8:	f842 0c80 	str.w	r0, [r2, #-128]
  2004dc:	6810      	ldr	r0, [r2, #0]
  2004de:	f440 0070 	orr.w	r0, r0, #15728640	; 0xf00000
  2004e2:	6010      	str	r0, [r2, #0]
  2004e4:	f7ff ff8c 	bl	200400 <__main>

002004e8 <benchmark>:
  2004e8:	b5b0      	push	{r4, r5, r7, lr}
  2004ea:	f240 0c00 	movw	ip, #0
  2004ee:	f6c2 0c20 	movt	ip, #10272	; 0x2820
  2004f2:	f8dc 4000 	ldr.w	r4, [ip]
  2004f6:	f644 606d 	movw	r0, #20077	; 0x4e6d
  2004fa:	f240 712c 	movw	r1, #1836	; 0x72c
  2004fe:	f04f 32ff 	mov.w	r2, #4294967295
  200502:	f2c4 10c6 	movt	r0, #16838	; 0x41c6
  200506:	f44f 6e80 	mov.w	lr, #1024	; 0x400
  20050a:	f243 0339 	movw	r3, #12345	; 0x3039
  20050e:	f2c0 0120 	movt	r1, #32
  200512:	bf00      	nop
  200514:	fb04 3400 	mla	r4, r4, r0, r3
  200518:	f1be 0e10 	subs.w	lr, lr, #16
  20051c:	ea82 4514 	eor.w	r5, r2, r4, lsr #16
  200520:	f024 4400 	bic.w	r4, r4, #2147483648	; 0x80000000
  200524:	b2ed      	uxtb	r5, r5
  200526:	f851 5025 	ldr.w	r5, [r1, r5, lsl #2]
  20052a:	fb04 3400 	mla	r4, r4, r0, r3
  20052e:	ea85 2212 	eor.w	r2, r5, r2, lsr #8
  200532:	ea82 4514 	eor.w	r5, r2, r4, lsr #16
  200536:	fb04 3400 	mla	r4, r4, r0, r3
  20053a:	b2ed      	uxtb	r5, r5
  20053c:	f851 5025 	ldr.w	r5, [r1, r5, lsl #2]
  200540:	ea85 2212 	eor.w	r2, r5, r2, lsr #8
  200544:	ea82 4514 	eor.w	r5, r2, r4, lsr #16
  200548:	fb04 3400 	mla	r4, r4, r0, r3
  20054c:	b2ed      	uxtb	r5, r5
  20054e:	f851 5025 	ldr.w	r5, [r1, r5, lsl #2]
  200552:	ea85 2212 	eor.w	r2, r5, r2, lsr #8
  200556:	ea82 4514 	eor.w	r5, r2, r4, lsr #16
  20055a:	f024 4400 	bic.w	r4, r4, #2147483648	; 0x80000000
  20055e:	b2ed      	uxtb	r5, r5
  200560:	f851 5025 	ldr.w	r5, [r1, r5, lsl #2]
  200564:	fb04 3400 	mla	r4, r4, r0, r3
  200568:	ea85 2212 	eor.w	r2, r5, r2, lsr #8
  20056c:	ea82 4514 	eor.w	r5, r2, r4, lsr #16
  200570:	fb04 3400 	mla	r4, r4, r0, r3
  200574:	b2ed      	uxtb	r5, r5
  200576:	f851 5025 	ldr.w	r5, [r1, r5, lsl #2]
  20057a:	ea85 2212 	eor.w	r2, r5, r2, lsr #8
  20057e:	ea82 4514 	eor.w	r5, r2, r4, lsr #16
  200582:	fb04 3400 	mla	r4, r4, r0, r3
  200586:	b2ed      	uxtb	r5, r5
  200588:	f851 5025 	ldr.w	r5, [r1, r5, lsl #2]
  20058c:	ea85 2212 	eor.w	r2, r5, r2, lsr #8
  200590:	ea82 4514 	eor.w	r5, r2, r4, lsr #16
  200594:	f024 4400 	bic.w	r4, r4, #2147483648	; 0x80000000
  200598:	b2ed      	uxtb	r5, r5
  20059a:	f851 5025 	ldr.w	r5, [r1, r5, lsl #2]
  20059e:	fb04 3400 	mla	r4, r4, r0, r3
  2005a2:	ea85 2212 	eor.w	r2, r5, r2, lsr #8
  2005a6:	ea82 4514 	eor.w	r5, r2, r4, lsr #16
  2005aa:	fb04 3400 	mla	r4, r4, r0, r3
  2005ae:	b2ed      	uxtb	r5, r5
  2005b0:	f851 5025 	ldr.w	r5, [r1, r5, lsl #2]
  2005b4:	ea85 2212 	eor.w	r2, r5, r2, lsr #8
  2005b8:	ea82 4514 	eor.w	r5, r2, r4, lsr #16
  2005bc:	fb04 3400 	mla	r4, r4, r0, r3
  2005c0:	b2ed      	uxtb	r5, r5
  2005c2:	f851 5025 	ldr.w	r5, [r1, r5, lsl #2]
  2005c6:	ea85 2212 	eor.w	r2, r5, r2, lsr #8
  2005ca:	ea82 4514 	eor.w	r5, r2, r4, lsr #16
  2005ce:	f024 4400 	bic.w	r4, r4, #2147483648	; 0x80000000
  2005d2:	b2ed      	uxtb	r5, r5
  2005d4:	f851 5025 	ldr.w	r5, [r1, r5, lsl #2]
  2005d8:	fb04 3400 	mla	r4, r4, r0, r3
  2005dc:	ea85 2212 	eor.w	r2, r5, r2, lsr #8
  2005e0:	ea82 4514 	eor.w	r5, r2, r4, lsr #16
  2005e4:	fb04 3400 	mla	r4, r4, r0, r3
  2005e8:	b2ed      	uxtb	r5, r5
  2005ea:	f851 5025 	ldr.w	r5, [r1, r5, lsl #2]
  2005ee:	ea85 2212 	eor.w	r2, r5, r2, lsr #8
  2005f2:	ea82 4514 	eor.w	r5, r2, r4, lsr #16
  2005f6:	fb04 3400 	mla	r4, r4, r0, r3
  2005fa:	b2ed      	uxtb	r5, r5
  2005fc:	f851 5025 	ldr.w	r5, [r1, r5, lsl #2]
  200600:	ea85 2212 	eor.w	r2, r5, r2, lsr #8
  200604:	ea82 4514 	eor.w	r5, r2, r4, lsr #16
  200608:	f024 4400 	bic.w	r4, r4, #2147483648	; 0x80000000
  20060c:	b2ed      	uxtb	r5, r5
  20060e:	f851 5025 	ldr.w	r5, [r1, r5, lsl #2]
  200612:	fb04 3400 	mla	r4, r4, r0, r3
  200616:	ea85 2212 	eor.w	r2, r5, r2, lsr #8
  20061a:	ea82 4514 	eor.w	r5, r2, r4, lsr #16
  20061e:	fb04 3400 	mla	r4, r4, r0, r3
  200622:	b2ed      	uxtb	r5, r5
  200624:	f851 5025 	ldr.w	r5, [r1, r5, lsl #2]
  200628:	ea85 2212 	eor.w	r2, r5, r2, lsr #8
  20062c:	ea82 4514 	eor.w	r5, r2, r4, lsr #16
  200630:	fb04 3400 	mla	r4, r4, r0, r3
  200634:	b2ed      	uxtb	r5, r5
  200636:	f851 5025 	ldr.w	r5, [r1, r5, lsl #2]
  20063a:	ea85 2212 	eor.w	r2, r5, r2, lsr #8
  20063e:	ea82 4514 	eor.w	r5, r2, r4, lsr #16
  200642:	f024 4400 	bic.w	r4, r4, #2147483648	; 0x80000000
  200646:	b2ed      	uxtb	r5, r5
  200648:	f851 5025 	ldr.w	r5, [r1, r5, lsl #2]
  20064c:	ea85 2212 	eor.w	r2, r5, r2, lsr #8
  200650:	f47f af60 	bne.w	200514 <benchmark+0x2c>
  200654:	43d0      	mvns	r0, r2
  200656:	f8cc 4000 	str.w	r4, [ip]
  20065a:	bdb0      	pop	{r4, r5, r7, pc}

0020065c <main>:
  20065c:	b082      	sub	sp, #8
  20065e:	2500      	movs	r5, #0
  200660:	f241 0404 	movw	r4, #4100	; 0x1004
  200664:	f44f 3080 	mov.w	r0, #65536	; 0x10000
  200668:	f2ce 0400 	movt	r4, #57344	; 0xe000
  20066c:	9501      	str	r5, [sp, #4]
  20066e:	f000 f846 	bl	2006fe <main+0xa2>
  200672:	6025      	str	r5, [r4, #0]
  200674:	f44f 7580 	mov.w	r5, #256	; 0x100
  200678:	9801      	ldr	r0, [sp, #4]
  20067a:	f7ff ff35 	bl	2004e8 <benchmark>
  20067e:	9001      	str	r0, [sp, #4]
  200680:	9801      	ldr	r0, [sp, #4]
  200682:	3d01      	subs	r5, #1
  200684:	d1f8      	bne.n	200678 <main+0x1c>
  200686:	6820      	ldr	r0, [r4, #0]
  200688:	f000 f83e 	bl	200708 <main+0xac>
  20068c:	2000      	movs	r0, #0
  20068e:	f44f 7580 	mov.w	r5, #256	; 0x100
  200692:	6020      	str	r0, [r4, #0]
  200694:	9801      	ldr	r0, [sp, #4]
  200696:	f7ff ff27 	bl	2004e8 <benchmark>
  20069a:	9001      	str	r0, [sp, #4]
  20069c:	9801      	ldr	r0, [sp, #4]
  20069e:	3d01      	subs	r5, #1
  2006a0:	d1f8      	bne.n	200694 <main+0x38>
  2006a2:	6820      	ldr	r0, [r4, #0]
  2006a4:	f000 f830 	bl	200708 <main+0xac>
  2006a8:	2000      	movs	r0, #0
  2006aa:	f44f 7580 	mov.w	r5, #256	; 0x100
  2006ae:	6020      	str	r0, [r4, #0]
  2006b0:	9801      	ldr	r0, [sp, #4]
  2006b2:	f7ff ff19 	bl	2004e8 <benchmark>
  2006b6:	9001      	str	r0, [sp, #4]
  2006b8:	9801      	ldr	r0, [sp, #4]
  2006ba:	3d01      	subs	r5, #1
  2006bc:	d1f8      	bne.n	2006b0 <main+0x54>
  2006be:	6820      	ldr	r0, [r4, #0]
  2006c0:	f000 f822 	bl	200708 <main+0xac>
  2006c4:	2000      	movs	r0, #0
  2006c6:	f44f 7580 	mov.w	r5, #256	; 0x100
  2006ca:	6020      	str	r0, [r4, #0]
  2006cc:	9801      	ldr	r0, [sp, #4]
  2006ce:	f7ff ff0b 	bl	2004e8 <benchmark>
  2006d2:	9001      	str	r0, [sp, #4]
  2006d4:	9801      	ldr	r0, [sp, #4]
  2006d6:	3d01      	subs	r5, #1
  2006d8:	d1f8      	bne.n	2006cc <main+0x70>
  2006da:	6820      	ldr	r0, [r4, #0]
  2006dc:	f000 f814 	bl	200708 <main+0xac>
  2006e0:	2000      	movs	r0, #0
  2006e2:	f44f 7580 	mov.w	r5, #256	; 0x100
  2006e6:	6020      	str	r0, [r4, #0]
  2006e8:	9801      	ldr	r0, [sp, #4]
  2006ea:	f7ff fefd 	bl	2004e8 <benchmark>
  2006ee:	9001      	str	r0, [sp, #4]
  2006f0:	9801      	ldr	r0, [sp, #4]
  2006f2:	3d01      	subs	r5, #1
  2006f4:	d1f8      	bne.n	2006e8 <main+0x8c>
  2006f6:	6820      	ldr	r0, [r4, #0]
  2006f8:	f000 f806 	bl	200708 <main+0xac>
  2006fc:	e7fe      	b.n	2006fc <main+0xa0>
  2006fe:	f64f 6c11 	movw	ip, #65041	; 0xfe11
  200702:	f2c1 0c1f 	movt	ip, #4127	; 0x101f
  200706:	4760      	bx	ip
  200708:	f64f 6c19 	movw	ip, #65049	; 0xfe19
  20070c:	f2c1 0c1f 	movt	ip, #4127	; 0x101f
  200710:	4760      	bx	ip

00200712 <_fp_init>:
  200712:	eef1 0a10 	vmrs	r0, fpscr
  200716:	f64f 71ff 	movw	r1, #65535	; 0xffff
  20071a:	f2c0 31c0 	movt	r1, #960	; 0x3c0
  20071e:	ea20 0001 	bic.w	r0, r0, r1
  200722:	f040 7040 	orr.w	r0, r0, #50331648	; 0x3000000
  200726:	eee1 0a10 	vmsr	fpscr, r0

0020072a <__fplib_config_fpu_vfp>:
  20072a:	4770      	bx	lr

0020072c <crc_32_tab>:
  20072c:	0000 0000 3096 7707 612c ee0e 51ba 9909     .....0.w,a...Q..
  20073c:	c419 076d f48f 706a a535 e963 95a3 9e64     ..m...jp5.c...d.
  20074c:	8832 0edb b8a4 79dc e91e e0d5 d988 97d2     2......y........
  20075c:	4c2b 09b6 7cbd 7eb1 2d07 e7b8 1d91 90bf     +L...|.~.-......
  20076c:	1064 1db7 20f2 6ab0 7148 f3b9 41de 84be     d.... .jHq...A..
  20077c:	d47d 1ada e4eb 6ddd b551 f4d4 85c7 83d3     }......mQ.......
  20078c:	9856 136c a8c0 646b f97a fd62 c9ec 8a65     V.l...kdz.b...e.
  20079c:	5c4f 1401 6cd9 6306 3d63 fa0f 0df5 8d08     O\...l.cc=......
  2007ac:	20c8 3b6e 105e 4c69 41e4 d560 7172 a267     . n;^.iL.A`.rqg.
  2007bc:	e4d1 3c03 d447 4b04 85fd d20d b56b a50a     ...<G..K....k...
  2007cc:	a8fa 35b5 986c 42b2 c9d6 dbbb f940 acbc     ...5l..B....@...
  2007dc:	6ce3 32d8 5c75 45df 0dcf dcd6 3d59 abd1     .l.2u\.E....Y=..
  2007ec:	30ac 26d9 003a 51de 5180 c8d7 6116 bfd0     .0.&:..Q.Q...a..
  2007fc:	f4b5 21b4 c423 56b3 9599 cfba a50f b8bd     ...!#..V........
  20080c:	b89e 2802 8808 5f05 d9b2 c60c e924 b10b     ...(..._....$...
  20081c:	7c87 2f6f 4c11 5868 1dab c161 2d3d b666     .|o/.LhX..a.=-f.
  20082c:	4190 76dc 7106 01db 20bc 98d2 102a efd5     .A.v.q... ..*...
  20083c:	8589 71b1 b51f 06b6 e4a5 9fbf d433 e8b8     ...q........3...
  20084c:	c9a2 7807 f934 0f00 a88e 9609 9818 e10e     ...x4...........
  20085c:	0dbb 7f6a 3d2d 086d 6c97 9164 5c01 e663     ..j.-=m..ld..\c.
  20086c:	51f4 6b6b 6162 1c6c 30d8 8565 004e f262     .Qkkbal..0e.N.b.
  20087c:	95ed 6c06 a57b 1b01 f4c1 8208 c457 f50f     ...l{.......W...
  20088c:	d9c6 65b0 e950 12b7 b8ea 8bbe 887c fcb9     ...eP.......|...
  20089c:	1ddf 62dd 2d49 15da 7cf3 8cd3 4c65 fbd4     ...bI-...|..eL..
  2008ac:	6158 4db2 51ce 3ab5 0074 a3bc 30e2 d4bb     Xa.M.Q.:t....0..
  2008bc:	a541 4adf 95d7 3dd8 c46d a4d1 f4fb d3d6     A..J...=m.......
  2008cc:	e96a 4369 d9fc 346e 8846 ad67 b8d0 da60     j.iC..n4F.g...`.
  2008dc:	2d73 4404 1de5 3303 4c5f aa0a 7cc9 dd0d     s-.D...3_L...|..
  2008ec:	713c 5005 41aa 2702 1010 be0b 2086 c90c     <q.P.A.'..... ..
  2008fc:	b525 5768 85b3 206f d409 b966 e49f ce61     %.hW..o ..f...a.
  20090c:	f90e 5ede c998 29d9 9822 b0d0 a8b4 c7d7     ...^...)".......
  20091c:	3d17 59b3 0d81 2eb4 5c3b b7bd 6cad c0ba     .=.Y....;\...l..
  20092c:	8320 edb8 b3b6 9abf e20c 03b6 d29a 74b1      ..............t
  20093c:	4739 ead5 77af 9dd2 2615 04db 1683 73dc     9G...w...&.....s
  20094c:	0b12 e363 3b84 9464 6a3e 0d6d 5aa8 7a6a     ..c..;d.>jm..Zjz
  20095c:	cf0b e40e ff9d 9309 ae27 0a00 9eb1 7d07     ........'......}
  20096c:	9344 f00f a3d2 8708 f268 1e01 c2fe 6906     D.......h......i
  20097c:	575d f762 67cb 8065 3671 196c 06e7 6e6b     ]Wb..ge.q6l...kn
  20098c:	1b76 fed4 2be0 89d3 7a5a 10da 4acc 67dd     v....+..Zz...J.g
  20099c:	df6f f9b9 eff9 8ebe be43 17b7 8ed5 60b0     o.......C......`
  2009ac:	a3e8 d6d6 937e a1d1 c2c4 38d8 f252 4fdf     ....~......8R..O
  2009bc:	67f1 d1bb 5767 a6bc 06dd 3fb5 364b 48b2     .g..gW.....?K6.H
  2009cc:	2bda d80d 1b4c af0a 4af6 3603 7a60 4104     .+..L....J.6`z.A
  2009dc:	efc3 df60 df55 a867 8eef 316e be79 4669     ..`.U.g...n1y.iF
  2009ec:	b38c cb61 831a bc66 d2a0 256f e236 5268     ..a...f...o%6.hR
  2009fc:	7795 cc0c 4703 bb0b 16b9 2202 262f 5505     .w...G....."/&.U
  200a0c:	3bbe c5ba 0b28 b2bd 5a92 2bb4 6a04 5cb3     .;..(....Z.+.j.\
  200a1c:	ffa7 c2d7 cf31 b5d0 9e8b 2cd9 ae1d 5bde     ....1......,...[
  200a2c:	c2b0 9b64 f226 ec63 a39c 756a 930a 026d     ..d.&.c...ju..m.
  200a3c:	06a9 9c09 363f eb0e 6785 7207 5713 0500     ....?6...g.r.W..
  200a4c:	4a82 95bf 7a14 e2b8 2bae 7bb1 1b38 0cb6     .J...z...+.{8...
  200a5c:	8e9b 92d2 be0d e5d5 efb7 7cdc df21 0bdb     ...........|!...
  200a6c:	d2d4 86d3 e242 f1d4 b3f8 68dd 836e 1fda     ....B......hn...
  200a7c:	16cd 81be 265b f6b9 77e1 6fb0 4777 18b7     ....[&...w.owG..
  200a8c:	5ae6 8808 6a70 ff0f 3bca 6606 0b5c 1101     .Z..pj...;.f\...
  200a9c:	9eff 8f65 ae69 f862 ffd3 616b cf45 166c     ..e.i.b...kaE.l.
  200aac:	e278 a00a d2ee d70d 8354 4e04 b3c2 3903     x.......T..N...9
  200abc:	2661 a767 16f7 d060 474d 4969 77db 3e6e     a&g...`.MGiI.wn>
  200acc:	6a4a aed1 5adc d9d6 0b66 40df 3bf0 37d8     Jj...Z..f..@.;.7
  200adc:	ae53 a9bc 9ec5 debb cf7f 47b2 ffe9 30b5     S..........G...0
  200aec:	f21c bdbd c28a caba 9330 53b3 a3a6 24b4     ........0..S...$
  200afc:	3605 bad0 0693 cdd7 5729 54de 67bf 23d9     .6......)W.T.g.#
  200b0c:	7a2e b366 4ab8 c461 1b02 5d68 2b94 2a6f     .zf..Ja...h].+o*
  200b1c:	be37 b40b 8ea1 c30c df1b 5a05 ef8d 2d02     7..........Z...-

00200b2c <Region$$Table$$Base>:
  200b2c:	00200b3c 	.word	0x00200b3c
  200b30:	28200000 	.word	0x28200000
  200b34:	00000004 	.word	0x00000004
  200b38:	0020043c 	.word	0x0020043c
