
../../Example/out/eval/O3/elf_ns/dijkstra.axf:     file format elf32-littlearm


Disassembly of section ER_ROM:

00200000 <__Vectors>:
  200000:	00 00 40 28 ad 04 20 00 a5 04 20 00 a9 04 20 00     ..@(.. ... ... .
  200010:	a5 04 20 00 a5 04 20 00 a5 04 20 00 a5 04 20 00     .. ... ... ... .
	...
  20002c:	a5 04 20 00 a5 04 20 00 00 00 00 00 a5 04 20 00     .. ... ....... .
  20003c:	a5 04 20 00 a5 04 20 00 a5 04 20 00 a5 04 20 00     .. ... ... ... .
  20004c:	a5 04 20 00 a5 04 20 00 a5 04 20 00 00 00 00 00     .. ... ... .....
	...
  200064:	a5 04 20 00 a5 04 20 00 a5 04 20 00 a5 04 20 00     .. ... ... ... .
	...
  2000c0:	a5 04 20 00 a5 04 20 00 a5 04 20 00 a5 04 20 00     .. ... ... ... .
  2000d0:	a5 04 20 00 a5 04 20 00 a5 04 20 00 a5 04 20 00     .. ... ... ... .
  2000e0:	a5 04 20 00 a5 04 20 00 a5 04 20 00 a5 04 20 00     .. ... ... ... .
  2000f0:	a5 04 20 00 a5 04 20 00 a5 04 20 00 a5 04 20 00     .. ... ... ... .
  200100:	a5 04 20 00 a5 04 20 00 a5 04 20 00 a5 04 20 00     .. ... ... ... .
  200110:	a5 04 20 00 a5 04 20 00 a5 04 20 00 a5 04 20 00     .. ... ... ... .
  200120:	a5 04 20 00 a5 04 20 00 a5 04 20 00 a5 04 20 00     .. ... ... ... .
  200130:	a5 04 20 00 a5 04 20 00 a5 04 20 00 a5 04 20 00     .. ... ... ... .
  200140:	a5 04 20 00 a5 04 20 00 a5 04 20 00 a5 04 20 00     .. ... ... ... .
  200150:	a5 04 20 00 a5 04 20 00 a5 04 20 00 a5 04 20 00     .. ... ... ... .
  200160:	a5 04 20 00 a5 04 20 00 a5 04 20 00 a5 04 20 00     .. ... ... ... .
  200170:	a5 04 20 00 a5 04 20 00 a5 04 20 00 a5 04 20 00     .. ... ... ... .
  200180:	a5 04 20 00 a5 04 20 00 a5 04 20 00 a5 04 20 00     .. ... ... ... .
  200190:	a5 04 20 00 a5 04 20 00 a5 04 20 00 a5 04 20 00     .. ... ... ... .
  2001a0:	a5 04 20 00 a5 04 20 00 a5 04 20 00 a5 04 20 00     .. ... ... ... .
  2001b0:	a5 04 20 00 a5 04 20 00 a5 04 20 00 a5 04 20 00     .. ... ... ... .
  2001c0:	a5 04 20 00 a5 04 20 00 a5 04 20 00 a5 04 20 00     .. ... ... ... .
  2001d0:	a5 04 20 00 a5 04 20 00 a5 04 20 00 a5 04 20 00     .. ... ... ... .
  2001e0:	a5 04 20 00 a5 04 20 00 a5 04 20 00 a5 04 20 00     .. ... ... ... .
  2001f0:	a5 04 20 00 a5 04 20 00 a5 04 20 00 a5 04 20 00     .. ... ... ... .
  200200:	a5 04 20 00 a5 04 20 00 a5 04 20 00 a5 04 20 00     .. ... ... ... .
  200210:	a5 04 20 00 a5 04 20 00 a5 04 20 00 a5 04 20 00     .. ... ... ... .
  200220:	a5 04 20 00 a5 04 20 00 a5 04 20 00 a5 04 20 00     .. ... ... ... .
	...

00200400 <__main>:
  200400:	f000 f802 	bl	200408 <__scatterload_rt2>
  200404:	f000 f82e 	bl	200464 <__rt_entry>

00200408 <__scatterload_rt2>:
  200408:	a00a      	add	r0, pc, #40	; (adr r0, 200434 <__scatterload_null+0x1e>)
  20040a:	e890 0c00 	ldmia.w	r0, {sl, fp}
  20040e:	4482      	add	sl, r0
  200410:	4483      	add	fp, r0
  200412:	f1aa 0701 	sub.w	r7, sl, #1

00200416 <__scatterload_null>:
  200416:	45da      	cmp	sl, fp
  200418:	d101      	bne.n	20041e <__scatterload_null+0x8>
  20041a:	f000 f823 	bl	200464 <__rt_entry>
  20041e:	f2af 0e09 	subw	lr, pc, #9
  200422:	e8ba 000f 	ldmia.w	sl!, {r0, r1, r2, r3}
  200426:	f013 0f01 	tst.w	r3, #1
  20042a:	bf18      	it	ne
  20042c:	1afb      	subne	r3, r7, r3
  20042e:	f043 0301 	orr.w	r3, r3, #1
  200432:	4718      	bx	r3
  200434:	00000700 	.word	0x00000700
  200438:	00000710 	.word	0x00000710

0020043c <__scatterload_zeroinit>:
  20043c:	2300      	movs	r3, #0
  20043e:	2400      	movs	r4, #0
  200440:	2500      	movs	r5, #0
  200442:	2600      	movs	r6, #0
  200444:	3a10      	subs	r2, #16
  200446:	bf28      	it	cs
  200448:	c178      	stmiacs	r1!, {r3, r4, r5, r6}
  20044a:	d8fb      	bhi.n	200444 <__scatterload_zeroinit+0x8>
  20044c:	0752      	lsls	r2, r2, #29
  20044e:	bf28      	it	cs
  200450:	c130      	stmiacs	r1!, {r4, r5}
  200452:	bf48      	it	mi
  200454:	600b      	strmi	r3, [r1, #0]
  200456:	4770      	bx	lr

00200458 <__rt_lib_init>:
  200458:	b51f      	push	{r0, r1, r2, r3, r4, lr}

0020045a <__rt_lib_init_fp_1>:
  20045a:	f000 fa96 	bl	20098a <_fp_init>

0020045e <__rt_lib_init_alloca_1>:
  20045e:	bd1f      	pop	{r0, r1, r2, r3, r4, pc}

00200460 <__rt_lib_shutdown>:
  200460:	b510      	push	{r4, lr}

00200462 <__rt_lib_shutdown_cpp_1>:
  200462:	bd10      	pop	{r4, pc}

00200464 <__rt_entry>:
  200464:	f8df d00c 	ldr.w	sp, [pc, #12]	; 200474 <__lit__00000000>

00200468 <__rt_entry_li>:
  200468:	f7ff fff6 	bl	200458 <__rt_lib_init>

0020046c <__rt_entry_main>:
  20046c:	f000 fa28 	bl	2008c0 <main>
  200470:	f000 f808 	bl	200484 <exit>

00200474 <__lit__00000000>:
  200474:	0000 2840                                   ..@(

00200478 <__rt_exit>:
  200478:	b403      	push	{r0, r1}

0020047a <__rt_exit_ls>:
  20047a:	f7ff fff1 	bl	200460 <__rt_lib_shutdown>

0020047e <__rt_exit_exit>:
  20047e:	bc03      	pop	{r0, r1}
  200480:	f000 f80a 	bl	200498 <_sys_exit>

00200484 <exit>:
  200484:	b510      	push	{r4, lr}
  200486:	4604      	mov	r4, r0
  200488:	f3af 8000 	nop.w
  20048c:	4620      	mov	r0, r4
  20048e:	e8bd 4010 	ldmia.w	sp!, {r4, lr}
  200492:	f7ff bff1 	b.w	200478 <__rt_exit>

00200496 <__use_no_semihosting_swi>:
  200496:	4770      	bx	lr

00200498 <_sys_exit>:
  200498:	4901      	ldr	r1, [pc, #4]	; (2004a0 <_sys_exit+0x8>)
  20049a:	2018      	movs	r0, #24
  20049c:	beab      	bkpt	0x00ab
  20049e:	e7fe      	b.n	20049e <_sys_exit+0x6>
  2004a0:	00020026 	.word	0x00020026

002004a4 <Default_Handler>:
  2004a4:	e7fe      	b.n	2004a4 <Default_Handler>
	...

002004a8 <HardFault_Handler>:
  2004a8:	e7fe      	b.n	2004a8 <HardFault_Handler>
	...

002004ac <Reset_Handler>:
  2004ac:	f240 0000 	movw	r0, #0
  2004b0:	f6c2 0040 	movt	r0, #10304	; 0x2840
  2004b4:	f380 8809 	msr	PSP, r0
  2004b8:	f240 0000 	movw	r0, #0
  2004bc:	f64e 5288 	movw	r2, #60808	; 0xed88
  2004c0:	f64f 4100 	movw	r1, #64512	; 0xfc00
  2004c4:	f2c0 0020 	movt	r0, #32
  2004c8:	f2ce 0200 	movt	r2, #57344	; 0xe000
  2004cc:	f6c2 013f 	movt	r1, #10303	; 0x283f
  2004d0:	f381 880a 	msr	MSPLIM, r1
  2004d4:	f381 880b 	msr	PSPLIM, r1
  2004d8:	f842 0c80 	str.w	r0, [r2, #-128]
  2004dc:	6810      	ldr	r0, [r2, #0]
  2004de:	f440 0070 	orr.w	r0, r0, #15728640	; 0xf00000
  2004e2:	6010      	str	r0, [r2, #0]
  2004e4:	f7ff ff8c 	bl	200400 <__main>

002004e8 <benchmark>:
  2004e8:	e92d 4ff0 	stmdb	sp!, {r4, r5, r6, r7, r8, r9, sl, fp, lr}
  2004ec:	b082      	sub	sp, #8
  2004ee:	f240 0060 	movw	r0, #96	; 0x60
  2004f2:	f6c2 0020 	movt	r0, #10272	; 0x2820
  2004f6:	f8d0 9000 	ldr.w	r9, [r0]
  2004fa:	f240 0208 	movw	r2, #8
  2004fe:	f640 1ba4 	movw	fp, #2468	; 0x9a4
  200502:	f6c2 0220 	movt	r2, #10272	; 0x2820
  200506:	f242 730f 	movw	r3, #9999	; 0x270f
  20050a:	f2c0 0b20 	movt	fp, #32
  20050e:	2000      	movs	r0, #0
  200510:	9000      	str	r0, [sp, #0]
  200512:	e007      	b.n	200524 <benchmark+0x3c>
  200514:	9800      	ldr	r0, [sp, #0]
  200516:	3001      	adds	r0, #1
  200518:	280a      	cmp	r0, #10
  20051a:	9000      	str	r0, [sp, #0]
  20051c:	bf04      	itt	eq
  20051e:	b002      	addeq	sp, #8
  200520:	e8bd 8ff0 	ldmiaeq.w	sp!, {r4, r5, r6, r7, r8, r9, sl, fp, pc}
  200524:	2500      	movs	r5, #0
  200526:	4648      	mov	r0, r9
  200528:	e006      	b.n	200538 <benchmark+0x50>
  20052a:	bf00      	nop
  20052c:	4604      	mov	r4, r0
  20052e:	9d01      	ldr	r5, [sp, #4]
  200530:	4620      	mov	r0, r4
  200532:	3501      	adds	r5, #1
  200534:	2d0a      	cmp	r5, #10
  200536:	d0ed      	beq.n	200514 <benchmark+0x2c>
  200538:	9900      	ldr	r1, [sp, #0]
  20053a:	e9c2 3300 	strd	r3, r3, [r2]
  20053e:	428d      	cmp	r5, r1
  200540:	e9c2 3302 	strd	r3, r3, [r2, #8]
  200544:	e9c2 3304 	strd	r3, r3, [r2, #16]
  200548:	e9c2 3306 	strd	r3, r3, [r2, #24]
  20054c:	e9c2 3308 	strd	r3, r3, [r2, #32]
  200550:	e9c2 330a 	strd	r3, r3, [r2, #40]	; 0x28
  200554:	e9c2 330c 	strd	r3, r3, [r2, #48]	; 0x30
  200558:	e9c2 330e 	strd	r3, r3, [r2, #56]	; 0x38
  20055c:	e9c2 3310 	strd	r3, r3, [r2, #64]	; 0x40
  200560:	6493      	str	r3, [r2, #72]	; 0x48
  200562:	64d3      	str	r3, [r2, #76]	; 0x4c
  200564:	9501      	str	r5, [sp, #4]
  200566:	d0e1      	beq.n	20052c <benchmark+0x44>
  200568:	eb02 01c5 	add.w	r1, r2, r5, lsl #3
  20056c:	f240 0600 	movw	r6, #0
  200570:	f04f 0e00 	mov.w	lr, #0
  200574:	f6c2 0620 	movt	r6, #10272	; 0x2820
  200578:	f842 e035 	str.w	lr, [r2, r5, lsl #3]
  20057c:	604b      	str	r3, [r1, #4]
  20057e:	b140      	cbz	r0, 200592 <benchmark+0xaa>
  200580:	f8d0 900c 	ldr.w	r9, [r0, #12]
  200584:	f240 0160 	movw	r1, #96	; 0x60
  200588:	f6c2 0120 	movt	r1, #10272	; 0x2820
  20058c:	46ce      	mov	lr, r9
  20058e:	f8c1 9000 	str.w	r9, [r1]
  200592:	6837      	ldr	r7, [r6, #0]
  200594:	2100      	movs	r1, #0
  200596:	6005      	str	r5, [r0, #0]
  200598:	e9c0 1301 	strd	r1, r3, [r0, #4]
  20059c:	60c1      	str	r1, [r0, #12]
  20059e:	b177      	cbz	r7, 2005be <benchmark+0xd6>
  2005a0:	68fe      	ldr	r6, [r7, #12]
  2005a2:	4639      	mov	r1, r7
  2005a4:	b14e      	cbz	r6, 2005ba <benchmark+0xd2>
  2005a6:	68f7      	ldr	r7, [r6, #12]
  2005a8:	4631      	mov	r1, r6
  2005aa:	b137      	cbz	r7, 2005ba <benchmark+0xd2>
  2005ac:	68fe      	ldr	r6, [r7, #12]
  2005ae:	4639      	mov	r1, r7
  2005b0:	b11e      	cbz	r6, 2005ba <benchmark+0xd2>
  2005b2:	68f7      	ldr	r7, [r6, #12]
  2005b4:	4631      	mov	r1, r6
  2005b6:	2f00      	cmp	r7, #0
  2005b8:	d1f2      	bne.n	2005a0 <benchmark+0xb8>
  2005ba:	310c      	adds	r1, #12
  2005bc:	e000      	b.n	2005c0 <benchmark+0xd8>
  2005be:	4631      	mov	r1, r6
  2005c0:	f240 0504 	movw	r5, #4
  2005c4:	f6c2 0520 	movt	r5, #10272	; 0x2820
  2005c8:	682c      	ldr	r4, [r5, #0]
  2005ca:	6008      	str	r0, [r1, #0]
  2005cc:	f104 0c01 	add.w	ip, r4, #1
  2005d0:	2c00      	cmp	r4, #0
  2005d2:	4674      	mov	r4, lr
  2005d4:	f8c5 c000 	str.w	ip, [r5]
  2005d8:	d504      	bpl.n	2005e4 <benchmark+0xfc>
  2005da:	e7a8      	b.n	20052e <benchmark+0x46>
  2005dc:	f1bc 0f01 	cmp.w	ip, #1
  2005e0:	4674      	mov	r4, lr
  2005e2:	dba4      	blt.n	20052e <benchmark+0x46>
  2005e4:	f240 0e00 	movw	lr, #0
  2005e8:	f6c2 0e20 	movt	lr, #10272	; 0x2820
  2005ec:	f8de 1000 	ldr.w	r1, [lr]
  2005f0:	b301      	cbz	r1, 200634 <benchmark+0x14c>
  2005f2:	6808      	ldr	r0, [r1, #0]
  2005f4:	f240 0758 	movw	r7, #88	; 0x58
  2005f8:	f6c2 0720 	movt	r7, #10272	; 0x2820
  2005fc:	4626      	mov	r6, r4
  2005fe:	684c      	ldr	r4, [r1, #4]
  200600:	6038      	str	r0, [r7, #0]
  200602:	f240 075c 	movw	r7, #92	; 0x5c
  200606:	f6c2 0720 	movt	r7, #10272	; 0x2820
  20060a:	603c      	str	r4, [r7, #0]
  20060c:	f240 0404 	movw	r4, #4
  200610:	f1ac 0c01 	sub.w	ip, ip, #1
  200614:	f6c2 0420 	movt	r4, #10272	; 0x2820
  200618:	f8c4 c000 	str.w	ip, [r4]
  20061c:	f240 0460 	movw	r4, #96	; 0x60
  200620:	68cd      	ldr	r5, [r1, #12]
  200622:	f6c2 0420 	movt	r4, #10272	; 0x2820
  200626:	6021      	str	r1, [r4, #0]
  200628:	4689      	mov	r9, r1
  20062a:	460c      	mov	r4, r1
  20062c:	f8ce 5000 	str.w	r5, [lr]
  200630:	60ce      	str	r6, [r1, #12]
  200632:	e004      	b.n	20063e <benchmark+0x156>
  200634:	f240 0058 	movw	r0, #88	; 0x58
  200638:	f6c2 0020 	movt	r0, #10272	; 0x2820
  20063c:	6800      	ldr	r0, [r0, #0]
  20063e:	f04f 0800 	mov.w	r8, #0
  200642:	46a6      	mov	lr, r4
  200644:	e006      	b.n	200654 <benchmark+0x16c>
  200646:	bf00      	nop
  200648:	463c      	mov	r4, r7
  20064a:	f108 0802 	add.w	r8, r8, #2
  20064e:	f1b8 0f0a 	cmp.w	r8, #10
  200652:	d0c3      	beq.n	2005dc <benchmark+0xf4>
  200654:	eb00 0180 	add.w	r1, r0, r0, lsl #2
  200658:	eb0b 01c1 	add.w	r1, fp, r1, lsl #3
  20065c:	f851 1028 	ldr.w	r1, [r1, r8, lsl #2]
  200660:	4299      	cmp	r1, r3
  200662:	d00b      	beq.n	20067c <benchmark+0x194>
  200664:	f240 065c 	movw	r6, #92	; 0x5c
  200668:	f6c2 0620 	movt	r6, #10272	; 0x2820
  20066c:	f852 5038 	ldr.w	r5, [r2, r8, lsl #3]
  200670:	6836      	ldr	r6, [r6, #0]
  200672:	429d      	cmp	r5, r3
  200674:	4431      	add	r1, r6
  200676:	d003      	beq.n	200680 <benchmark+0x198>
  200678:	428d      	cmp	r5, r1
  20067a:	dc01      	bgt.n	200680 <benchmark+0x198>
  20067c:	4627      	mov	r7, r4
  20067e:	e03d      	b.n	2006fc <benchmark+0x214>
  200680:	eb02 07c8 	add.w	r7, r2, r8, lsl #3
  200684:	f842 1038 	str.w	r1, [r2, r8, lsl #3]
  200688:	6078      	str	r0, [r7, #4]
  20068a:	b154      	cbz	r4, 2006a2 <benchmark+0x1ba>
  20068c:	f8d4 900c 	ldr.w	r9, [r4, #12]
  200690:	f240 0760 	movw	r7, #96	; 0x60
  200694:	f6c2 0720 	movt	r7, #10272	; 0x2820
  200698:	f8c7 9000 	str.w	r9, [r7]
  20069c:	46ce      	mov	lr, r9
  20069e:	464f      	mov	r7, r9
  2006a0:	e000      	b.n	2006a4 <benchmark+0x1bc>
  2006a2:	2700      	movs	r7, #0
  2006a4:	f240 0500 	movw	r5, #0
  2006a8:	f6c2 0520 	movt	r5, #10272	; 0x2820
  2006ac:	60a0      	str	r0, [r4, #8]
  2006ae:	f240 0058 	movw	r0, #88	; 0x58
  2006b2:	682e      	ldr	r6, [r5, #0]
  2006b4:	e9c4 8100 	strd	r8, r1, [r4]
  2006b8:	f6c2 0020 	movt	r0, #10272	; 0x2820
  2006bc:	6800      	ldr	r0, [r0, #0]
  2006be:	f04f 0100 	mov.w	r1, #0
  2006c2:	60e1      	str	r1, [r4, #12]
  2006c4:	b17e      	cbz	r6, 2006e6 <benchmark+0x1fe>
  2006c6:	bf00      	nop
  2006c8:	68f5      	ldr	r5, [r6, #12]
  2006ca:	4631      	mov	r1, r6
  2006cc:	b14d      	cbz	r5, 2006e2 <benchmark+0x1fa>
  2006ce:	68ee      	ldr	r6, [r5, #12]
  2006d0:	4629      	mov	r1, r5
  2006d2:	b136      	cbz	r6, 2006e2 <benchmark+0x1fa>
  2006d4:	68f5      	ldr	r5, [r6, #12]
  2006d6:	4631      	mov	r1, r6
  2006d8:	b11d      	cbz	r5, 2006e2 <benchmark+0x1fa>
  2006da:	68ee      	ldr	r6, [r5, #12]
  2006dc:	4629      	mov	r1, r5
  2006de:	2e00      	cmp	r6, #0
  2006e0:	d1f2      	bne.n	2006c8 <benchmark+0x1e0>
  2006e2:	310c      	adds	r1, #12
  2006e4:	e000      	b.n	2006e8 <benchmark+0x200>
  2006e6:	4629      	mov	r1, r5
  2006e8:	f240 0504 	movw	r5, #4
  2006ec:	f6c2 0520 	movt	r5, #10272	; 0x2820
  2006f0:	682e      	ldr	r6, [r5, #0]
  2006f2:	600c      	str	r4, [r1, #0]
  2006f4:	f106 0c01 	add.w	ip, r6, #1
  2006f8:	f8c5 c000 	str.w	ip, [r5]
  2006fc:	eb00 0180 	add.w	r1, r0, r0, lsl #2
  200700:	f048 0a01 	orr.w	sl, r8, #1
  200704:	eb0b 01c1 	add.w	r1, fp, r1, lsl #3
  200708:	f851 102a 	ldr.w	r1, [r1, sl, lsl #2]
  20070c:	4299      	cmp	r1, r3
  20070e:	d09b      	beq.n	200648 <benchmark+0x160>
  200710:	f240 055c 	movw	r5, #92	; 0x5c
  200714:	f6c2 0520 	movt	r5, #10272	; 0x2820
  200718:	f852 403a 	ldr.w	r4, [r2, sl, lsl #3]
  20071c:	682d      	ldr	r5, [r5, #0]
  20071e:	429c      	cmp	r4, r3
  200720:	4429      	add	r1, r5
  200722:	d002      	beq.n	20072a <benchmark+0x242>
  200724:	428c      	cmp	r4, r1
  200726:	f77f af8f 	ble.w	200648 <benchmark+0x160>
  20072a:	eb02 06ca 	add.w	r6, r2, sl, lsl #3
  20072e:	f842 103a 	str.w	r1, [r2, sl, lsl #3]
  200732:	6070      	str	r0, [r6, #4]
  200734:	b157      	cbz	r7, 20074c <benchmark+0x264>
  200736:	f8d7 900c 	ldr.w	r9, [r7, #12]
  20073a:	f240 0660 	movw	r6, #96	; 0x60
  20073e:	f6c2 0620 	movt	r6, #10272	; 0x2820
  200742:	46ce      	mov	lr, r9
  200744:	464c      	mov	r4, r9
  200746:	f8c6 9000 	str.w	r9, [r6]
  20074a:	e000      	b.n	20074e <benchmark+0x266>
  20074c:	2400      	movs	r4, #0
  20074e:	f240 0500 	movw	r5, #0
  200752:	f6c2 0520 	movt	r5, #10272	; 0x2820
  200756:	60b8      	str	r0, [r7, #8]
  200758:	f240 0058 	movw	r0, #88	; 0x58
  20075c:	682e      	ldr	r6, [r5, #0]
  20075e:	e9c7 a100 	strd	sl, r1, [r7]
  200762:	f6c2 0020 	movt	r0, #10272	; 0x2820
  200766:	6800      	ldr	r0, [r0, #0]
  200768:	f04f 0100 	mov.w	r1, #0
  20076c:	60f9      	str	r1, [r7, #12]
  20076e:	b176      	cbz	r6, 20078e <benchmark+0x2a6>
  200770:	68f5      	ldr	r5, [r6, #12]
  200772:	4631      	mov	r1, r6
  200774:	b14d      	cbz	r5, 20078a <benchmark+0x2a2>
  200776:	68ee      	ldr	r6, [r5, #12]
  200778:	4629      	mov	r1, r5
  20077a:	b136      	cbz	r6, 20078a <benchmark+0x2a2>
  20077c:	68f5      	ldr	r5, [r6, #12]
  20077e:	4631      	mov	r1, r6
  200780:	b11d      	cbz	r5, 20078a <benchmark+0x2a2>
  200782:	68ee      	ldr	r6, [r5, #12]
  200784:	4629      	mov	r1, r5
  200786:	2e00      	cmp	r6, #0
  200788:	d1f2      	bne.n	200770 <benchmark+0x288>
  20078a:	310c      	adds	r1, #12
  20078c:	e000      	b.n	200790 <benchmark+0x2a8>
  20078e:	4629      	mov	r1, r5
  200790:	f240 0504 	movw	r5, #4
  200794:	f6c2 0520 	movt	r5, #10272	; 0x2820
  200798:	682e      	ldr	r6, [r5, #0]
  20079a:	600f      	str	r7, [r1, #0]
  20079c:	f106 0c01 	add.w	ip, r6, #1
  2007a0:	f8c5 c000 	str.w	ip, [r5]
  2007a4:	e751      	b.n	20064a <benchmark+0x162>
	...

002007a8 <initialise_benchmark>:
  2007a8:	f240 0c64 	movw	ip, #100	; 0x64
  2007ac:	2000      	movs	r0, #0
  2007ae:	f6c2 0c20 	movt	ip, #10272	; 0x2820
  2007b2:	2300      	movs	r3, #0
  2007b4:	eb0c 0200 	add.w	r2, ip, r0
  2007b8:	60d3      	str	r3, [r2, #12]
  2007ba:	f102 0310 	add.w	r3, r2, #16
  2007be:	f102 0120 	add.w	r1, r2, #32
  2007c2:	62d3      	str	r3, [r2, #44]	; 0x2c
  2007c4:	f102 0330 	add.w	r3, r2, #48	; 0x30
  2007c8:	63d1      	str	r1, [r2, #60]	; 0x3c
  2007ca:	f102 0140 	add.w	r1, r2, #64	; 0x40
  2007ce:	64d3      	str	r3, [r2, #76]	; 0x4c
  2007d0:	f102 0350 	add.w	r3, r2, #80	; 0x50
  2007d4:	65d1      	str	r1, [r2, #92]	; 0x5c
  2007d6:	f102 0160 	add.w	r1, r2, #96	; 0x60
  2007da:	66d3      	str	r3, [r2, #108]	; 0x6c
  2007dc:	f102 0370 	add.w	r3, r2, #112	; 0x70
  2007e0:	67d1      	str	r1, [r2, #124]	; 0x7c
  2007e2:	f102 0180 	add.w	r1, r2, #128	; 0x80
  2007e6:	f8c2 308c 	str.w	r3, [r2, #140]	; 0x8c
  2007ea:	f102 0390 	add.w	r3, r2, #144	; 0x90
  2007ee:	f8c2 109c 	str.w	r1, [r2, #156]	; 0x9c
  2007f2:	f102 01a0 	add.w	r1, r2, #160	; 0xa0
  2007f6:	f8c2 30ac 	str.w	r3, [r2, #172]	; 0xac
  2007fa:	f102 03b0 	add.w	r3, r2, #176	; 0xb0
  2007fe:	f8c2 10bc 	str.w	r1, [r2, #188]	; 0xbc
  200802:	f102 01c0 	add.w	r1, r2, #192	; 0xc0
  200806:	f8c2 30cc 	str.w	r3, [r2, #204]	; 0xcc
  20080a:	f102 03d0 	add.w	r3, r2, #208	; 0xd0
  20080e:	f8c2 10dc 	str.w	r1, [r2, #220]	; 0xdc
  200812:	f102 01e0 	add.w	r1, r2, #224	; 0xe0
  200816:	f8c2 30ec 	str.w	r3, [r2, #236]	; 0xec
  20081a:	f102 03f0 	add.w	r3, r2, #240	; 0xf0
  20081e:	f8c2 10fc 	str.w	r1, [r2, #252]	; 0xfc
  200822:	f502 7180 	add.w	r1, r2, #256	; 0x100
  200826:	f8c2 310c 	str.w	r3, [r2, #268]	; 0x10c
  20082a:	f502 7388 	add.w	r3, r2, #272	; 0x110
  20082e:	f8c2 111c 	str.w	r1, [r2, #284]	; 0x11c
  200832:	f502 7190 	add.w	r1, r2, #288	; 0x120
  200836:	f8c2 312c 	str.w	r3, [r2, #300]	; 0x12c
  20083a:	f502 7398 	add.w	r3, r2, #304	; 0x130
  20083e:	f8c2 113c 	str.w	r1, [r2, #316]	; 0x13c
  200842:	f502 71a0 	add.w	r1, r2, #320	; 0x140
  200846:	f8c2 314c 	str.w	r3, [r2, #332]	; 0x14c
  20084a:	f502 73a8 	add.w	r3, r2, #336	; 0x150
  20084e:	f8c2 115c 	str.w	r1, [r2, #348]	; 0x15c
  200852:	f502 71b0 	add.w	r1, r2, #352	; 0x160
  200856:	f8c2 316c 	str.w	r3, [r2, #364]	; 0x16c
  20085a:	f502 73b8 	add.w	r3, r2, #368	; 0x170
  20085e:	f8c2 117c 	str.w	r1, [r2, #380]	; 0x17c
  200862:	f502 71c0 	add.w	r1, r2, #384	; 0x180
  200866:	f8c2 318c 	str.w	r3, [r2, #396]	; 0x18c
  20086a:	f502 73c8 	add.w	r3, r2, #400	; 0x190
  20086e:	f8c2 119c 	str.w	r1, [r2, #412]	; 0x19c
  200872:	f502 71d0 	add.w	r1, r2, #416	; 0x1a0
  200876:	f8c2 31ac 	str.w	r3, [r2, #428]	; 0x1ac
  20087a:	f502 73d8 	add.w	r3, r2, #432	; 0x1b0
  20087e:	f8c2 11bc 	str.w	r1, [r2, #444]	; 0x1bc
  200882:	f502 71e0 	add.w	r1, r2, #448	; 0x1c0
  200886:	f8c2 31cc 	str.w	r3, [r2, #460]	; 0x1cc
  20088a:	f502 73e8 	add.w	r3, r2, #464	; 0x1d0
  20088e:	f500 7000 	add.w	r0, r0, #512	; 0x200
  200892:	f8c2 11dc 	str.w	r1, [r2, #476]	; 0x1dc
  200896:	f502 71f0 	add.w	r1, r2, #480	; 0x1e0
  20089a:	f8c2 31ec 	str.w	r3, [r2, #492]	; 0x1ec
  20089e:	f502 73f8 	add.w	r3, r2, #496	; 0x1f0
  2008a2:	f5b0 5f00 	cmp.w	r0, #8192	; 0x2000
  2008a6:	61d2      	str	r2, [r2, #28]
  2008a8:	f8c2 11fc 	str.w	r1, [r2, #508]	; 0x1fc
  2008ac:	d182      	bne.n	2007b4 <initialise_benchmark+0xc>
  2008ae:	4460      	add	r0, ip
  2008b0:	f240 0160 	movw	r1, #96	; 0x60
  2008b4:	3810      	subs	r0, #16
  2008b6:	f6c2 0120 	movt	r1, #10272	; 0x2820
  2008ba:	6008      	str	r0, [r1, #0]
  2008bc:	4770      	bx	lr
	...

002008c0 <main>:
  2008c0:	b082      	sub	sp, #8
  2008c2:	2500      	movs	r5, #0
  2008c4:	f241 0404 	movw	r4, #4100	; 0x1004
  2008c8:	f44f 3080 	mov.w	r0, #65536	; 0x10000
  2008cc:	f2ce 0400 	movt	r4, #57344	; 0xe000
  2008d0:	9501      	str	r5, [sp, #4]
  2008d2:	f000 f850 	bl	200976 <main+0xb6>
  2008d6:	f44f 7680 	mov.w	r6, #256	; 0x100
  2008da:	6025      	str	r5, [r4, #0]
  2008dc:	f7ff ff64 	bl	2007a8 <initialise_benchmark>
  2008e0:	9801      	ldr	r0, [sp, #4]
  2008e2:	f7ff fe01 	bl	2004e8 <benchmark>
  2008e6:	9501      	str	r5, [sp, #4]
  2008e8:	9801      	ldr	r0, [sp, #4]
  2008ea:	3e01      	subs	r6, #1
  2008ec:	d1f6      	bne.n	2008dc <main+0x1c>
  2008ee:	6820      	ldr	r0, [r4, #0]
  2008f0:	f000 f846 	bl	200980 <main+0xc0>
  2008f4:	2500      	movs	r5, #0
  2008f6:	f44f 7680 	mov.w	r6, #256	; 0x100
  2008fa:	6025      	str	r5, [r4, #0]
  2008fc:	f7ff ff54 	bl	2007a8 <initialise_benchmark>
  200900:	9801      	ldr	r0, [sp, #4]
  200902:	f7ff fdf1 	bl	2004e8 <benchmark>
  200906:	9501      	str	r5, [sp, #4]
  200908:	9801      	ldr	r0, [sp, #4]
  20090a:	3e01      	subs	r6, #1
  20090c:	d1f6      	bne.n	2008fc <main+0x3c>
  20090e:	6820      	ldr	r0, [r4, #0]
  200910:	f000 f836 	bl	200980 <main+0xc0>
  200914:	2500      	movs	r5, #0
  200916:	f44f 7680 	mov.w	r6, #256	; 0x100
  20091a:	6025      	str	r5, [r4, #0]
  20091c:	f7ff ff44 	bl	2007a8 <initialise_benchmark>
  200920:	9801      	ldr	r0, [sp, #4]
  200922:	f7ff fde1 	bl	2004e8 <benchmark>
  200926:	9501      	str	r5, [sp, #4]
  200928:	9801      	ldr	r0, [sp, #4]
  20092a:	3e01      	subs	r6, #1
  20092c:	d1f6      	bne.n	20091c <main+0x5c>
  20092e:	6820      	ldr	r0, [r4, #0]
  200930:	f000 f826 	bl	200980 <main+0xc0>
  200934:	2500      	movs	r5, #0
  200936:	f44f 7680 	mov.w	r6, #256	; 0x100
  20093a:	6025      	str	r5, [r4, #0]
  20093c:	f7ff ff34 	bl	2007a8 <initialise_benchmark>
  200940:	9801      	ldr	r0, [sp, #4]
  200942:	f7ff fdd1 	bl	2004e8 <benchmark>
  200946:	9501      	str	r5, [sp, #4]
  200948:	9801      	ldr	r0, [sp, #4]
  20094a:	3e01      	subs	r6, #1
  20094c:	d1f6      	bne.n	20093c <main+0x7c>
  20094e:	6820      	ldr	r0, [r4, #0]
  200950:	f000 f816 	bl	200980 <main+0xc0>
  200954:	2500      	movs	r5, #0
  200956:	f44f 7680 	mov.w	r6, #256	; 0x100
  20095a:	6025      	str	r5, [r4, #0]
  20095c:	f7ff ff24 	bl	2007a8 <initialise_benchmark>
  200960:	9801      	ldr	r0, [sp, #4]
  200962:	f7ff fdc1 	bl	2004e8 <benchmark>
  200966:	9501      	str	r5, [sp, #4]
  200968:	9801      	ldr	r0, [sp, #4]
  20096a:	3e01      	subs	r6, #1
  20096c:	d1f6      	bne.n	20095c <main+0x9c>
  20096e:	6820      	ldr	r0, [r4, #0]
  200970:	f000 f806 	bl	200980 <main+0xc0>
  200974:	e7fe      	b.n	200974 <main+0xb4>
  200976:	f64f 6c11 	movw	ip, #65041	; 0xfe11
  20097a:	f2c1 0c1f 	movt	ip, #4127	; 0x101f
  20097e:	4760      	bx	ip
  200980:	f64f 6c19 	movw	ip, #65049	; 0xfe19
  200984:	f2c1 0c1f 	movt	ip, #4127	; 0x101f
  200988:	4760      	bx	ip

0020098a <_fp_init>:
  20098a:	eef1 0a10 	vmrs	r0, fpscr
  20098e:	f64f 71ff 	movw	r1, #65535	; 0xffff
  200992:	f2c0 31c0 	movt	r1, #960	; 0x3c0
  200996:	ea20 0001 	bic.w	r0, r0, r1
  20099a:	f040 7040 	orr.w	r0, r0, #50331648	; 0x3000000
  20099e:	eee1 0a10 	vmsr	fpscr, r0

002009a2 <__fplib_config_fpu_vfp>:
  2009a2:	4770      	bx	lr

002009a4 <AdjMatrix>:
  2009a4:	0020 0000 0020 0000 0036 0000 000c 0000      ... ...6.......
  2009b4:	0034 0000 0038 0000 0008 0000 001e 0000     4...8...........
  2009c4:	002c 0000 005e 0000 004c 0000 0036 0000     ,...^...L...6...
  2009d4:	0041 0000 000e 0000 0059 0000 0045 0000     A.......Y...E...
  2009e4:	0004 0000 0010 0000 0018 0000 002f 0000     ............/...
  2009f4:	0026 0000 001f 0000 004b 0000 0028 0000     &.......K...(...
  200a04:	003d 0000 0015 0000 0054 0000 0033 0000     =.......T...3...
  200a14:	0056 0000 0029 0000 0050 0000 0010 0000     V...)...P.......
  200a24:	0035 0000 000e 0000 005e 0000 001d 0000     5.......^.......
  200a34:	004d 0000 0063 0000 0010 0000 001d 0000     M...c...........
  200a44:	003b 0000 0007 0000 000e 0000 004e 0000     ;...........N...
  200a54:	004f 0000 002d 0000 0036 0000 0053 0000     O...-...6...S...
  200a64:	0008 0000 005e 0000 005e 0000 0029 0000     ....^...^...)...
  200a74:	0003 0000 003d 0000 001b 0000 0013 0000     ....=...........
  200a84:	0021 0000 0023 0000 004e 0000 0026 0000     !...#...N...&...
  200a94:	0003 0000 0037 0000 0029 0000 004c 0000     ....7...)...L...
  200aa4:	0031 0000 0044 0000 0053 0000 0017 0000     1...D...S.......
  200ab4:	0043 0000 000f 0000 0044 0000 001c 0000     C.......D.......
  200ac4:	002f 0000 000c 0000 0052 0000 0006 0000     /.......R.......
  200ad4:	001a 0000 0060 0000 0062 0000 004b 0000     ....`...b...K...
  200ae4:	0007 0000 0001 0000 002e 0000 0027 0000     ............'...
  200af4:	000c 0000 0044 0000 0029 0000 001c 0000     ....D...).......
  200b04:	001f 0000 0000 0000 0052 0000 0061 0000     ........R...a...
  200b14:	0048 0000 003d 0000 0027 0000 0030 0000     H...=...'...0...
  200b24:	000b 0000 0063 0000 0026 0000 0031 0000     ....c...&...1...

00200b34 <Region$$Table$$Base>:
  200b34:	00200b44 	.word	0x00200b44
  200b38:	28200000 	.word	0x28200000
  200b3c:	00002064 	.word	0x00002064
  200b40:	0020043c 	.word	0x0020043c
