
../../Example/out/eval/O3/elf_ns/picojpeg.axf:     file format elf32-littlearm


Disassembly of section ER_ROM:

00200000 <__Vectors>:
  200000:	00 00 40 28 9d 05 20 00 95 05 20 00 99 05 20 00     ..@(.. ... ... .
  200010:	95 05 20 00 95 05 20 00 95 05 20 00 95 05 20 00     .. ... ... ... .
	...
  20002c:	95 05 20 00 95 05 20 00 00 00 00 00 95 05 20 00     .. ... ....... .
  20003c:	95 05 20 00 95 05 20 00 95 05 20 00 95 05 20 00     .. ... ... ... .
  20004c:	95 05 20 00 95 05 20 00 95 05 20 00 00 00 00 00     .. ... ... .....
	...
  200064:	95 05 20 00 95 05 20 00 95 05 20 00 95 05 20 00     .. ... ... ... .
	...
  2000c0:	95 05 20 00 95 05 20 00 95 05 20 00 95 05 20 00     .. ... ... ... .
  2000d0:	95 05 20 00 95 05 20 00 95 05 20 00 95 05 20 00     .. ... ... ... .
  2000e0:	95 05 20 00 95 05 20 00 95 05 20 00 95 05 20 00     .. ... ... ... .
  2000f0:	95 05 20 00 95 05 20 00 95 05 20 00 95 05 20 00     .. ... ... ... .
  200100:	95 05 20 00 95 05 20 00 95 05 20 00 95 05 20 00     .. ... ... ... .
  200110:	95 05 20 00 95 05 20 00 95 05 20 00 95 05 20 00     .. ... ... ... .
  200120:	95 05 20 00 95 05 20 00 95 05 20 00 95 05 20 00     .. ... ... ... .
  200130:	95 05 20 00 95 05 20 00 95 05 20 00 95 05 20 00     .. ... ... ... .
  200140:	95 05 20 00 95 05 20 00 95 05 20 00 95 05 20 00     .. ... ... ... .
  200150:	95 05 20 00 95 05 20 00 95 05 20 00 95 05 20 00     .. ... ... ... .
  200160:	95 05 20 00 95 05 20 00 95 05 20 00 95 05 20 00     .. ... ... ... .
  200170:	95 05 20 00 95 05 20 00 95 05 20 00 95 05 20 00     .. ... ... ... .
  200180:	95 05 20 00 95 05 20 00 95 05 20 00 95 05 20 00     .. ... ... ... .
  200190:	95 05 20 00 95 05 20 00 95 05 20 00 95 05 20 00     .. ... ... ... .
  2001a0:	95 05 20 00 95 05 20 00 95 05 20 00 95 05 20 00     .. ... ... ... .
  2001b0:	95 05 20 00 95 05 20 00 95 05 20 00 95 05 20 00     .. ... ... ... .
  2001c0:	95 05 20 00 95 05 20 00 95 05 20 00 95 05 20 00     .. ... ... ... .
  2001d0:	95 05 20 00 95 05 20 00 95 05 20 00 95 05 20 00     .. ... ... ... .
  2001e0:	95 05 20 00 95 05 20 00 95 05 20 00 95 05 20 00     .. ... ... ... .
  2001f0:	95 05 20 00 95 05 20 00 95 05 20 00 95 05 20 00     .. ... ... ... .
  200200:	95 05 20 00 95 05 20 00 95 05 20 00 95 05 20 00     .. ... ... ... .
  200210:	95 05 20 00 95 05 20 00 95 05 20 00 95 05 20 00     .. ... ... ... .
  200220:	95 05 20 00 95 05 20 00 95 05 20 00 95 05 20 00     .. ... ... ... .
	...

00200400 <__main>:
  200400:	f000 f802 	bl	200408 <__scatterload_rt2>
  200404:	f000 f82e 	bl	200464 <__rt_entry>

00200408 <__scatterload_rt2>:
  200408:	a00a      	add	r0, pc, #40	; (adr r0, 200434 <__scatterload_null+0x1e>)
  20040a:	e890 0c00 	ldmia.w	r0, {sl, fp}
  20040e:	4482      	add	sl, r0
  200410:	4483      	add	fp, r0
  200412:	f1aa 0701 	sub.w	r7, sl, #1

00200416 <__scatterload_null>:
  200416:	45da      	cmp	sl, fp
  200418:	d101      	bne.n	20041e <__scatterload_null+0x8>
  20041a:	f000 f823 	bl	200464 <__rt_entry>
  20041e:	f2af 0e09 	subw	lr, pc, #9
  200422:	e8ba 000f 	ldmia.w	sl!, {r0, r1, r2, r3}
  200426:	f013 0f01 	tst.w	r3, #1
  20042a:	bf18      	it	ne
  20042c:	1afb      	subne	r3, r7, r3
  20042e:	f043 0301 	orr.w	r3, r3, #1
  200432:	4718      	bx	r3
  200434:	00006f74 	.word	0x00006f74
  200438:	00006f84 	.word	0x00006f84

0020043c <__scatterload_zeroinit>:
  20043c:	2300      	movs	r3, #0
  20043e:	2400      	movs	r4, #0
  200440:	2500      	movs	r5, #0
  200442:	2600      	movs	r6, #0
  200444:	3a10      	subs	r2, #16
  200446:	bf28      	it	cs
  200448:	c178      	stmiacs	r1!, {r3, r4, r5, r6}
  20044a:	d8fb      	bhi.n	200444 <__scatterload_zeroinit+0x8>
  20044c:	0752      	lsls	r2, r2, #29
  20044e:	bf28      	it	cs
  200450:	c130      	stmiacs	r1!, {r4, r5}
  200452:	bf48      	it	mi
  200454:	600b      	strmi	r3, [r1, #0]
  200456:	4770      	bx	lr

00200458 <__rt_lib_init>:
  200458:	b51f      	push	{r0, r1, r2, r3, r4, lr}

0020045a <__rt_lib_init_fp_1>:
  20045a:	f006 fe1c 	bl	207096 <_fp_init>

0020045e <__rt_lib_init_alloca_1>:
  20045e:	bd1f      	pop	{r0, r1, r2, r3, r4, pc}

00200460 <__rt_lib_shutdown>:
  200460:	b510      	push	{r4, lr}

00200462 <__rt_lib_shutdown_cpp_1>:
  200462:	bd10      	pop	{r4, pc}

00200464 <__rt_entry>:
  200464:	f8df d00c 	ldr.w	sp, [pc, #12]	; 200474 <__lit__00000000>

00200468 <__rt_entry_li>:
  200468:	f7ff fff6 	bl	200458 <__rt_lib_init>

0020046c <__rt_entry_main>:
  20046c:	f003 ff34 	bl	2042d8 <main>
  200470:	f000 f808 	bl	200484 <exit>

00200474 <__lit__00000000>:
  200474:	0000 2840                                   ..@(

00200478 <__rt_exit>:
  200478:	b403      	push	{r0, r1}

0020047a <__rt_exit_ls>:
  20047a:	f7ff fff1 	bl	200460 <__rt_lib_shutdown>

0020047e <__rt_exit_exit>:
  20047e:	bc03      	pop	{r0, r1}
  200480:	f000 f80a 	bl	200498 <_sys_exit>

00200484 <exit>:
  200484:	b510      	push	{r4, lr}
  200486:	4604      	mov	r4, r0
  200488:	f3af 8000 	nop.w
  20048c:	4620      	mov	r0, r4
  20048e:	e8bd 4010 	ldmia.w	sp!, {r4, lr}
  200492:	f7ff bff1 	b.w	200478 <__rt_exit>

00200496 <__use_no_semihosting_swi>:
  200496:	4770      	bx	lr

00200498 <_sys_exit>:
  200498:	4901      	ldr	r1, [pc, #4]	; (2004a0 <_sys_exit+0x8>)
  20049a:	2018      	movs	r0, #24
  20049c:	beab      	bkpt	0x00ab
  20049e:	e7fe      	b.n	20049e <_sys_exit+0x6>
  2004a0:	00020026 	.word	0x00020026

002004a4 <__rt_memcpy>:
  2004a4:	2a03      	cmp	r2, #3
  2004a6:	f240 8030 	bls.w	20050a <_memcpy_lastbytes>
  2004aa:	f010 0c03 	ands.w	ip, r0, #3
  2004ae:	f000 8015 	beq.w	2004dc <__rt_memcpy+0x38>
  2004b2:	f811 3b01 	ldrb.w	r3, [r1], #1
  2004b6:	f1bc 0f02 	cmp.w	ip, #2
  2004ba:	4462      	add	r2, ip
  2004bc:	bf98      	it	ls
  2004be:	f811 cb01 	ldrbls.w	ip, [r1], #1
  2004c2:	f800 3b01 	strb.w	r3, [r0], #1
  2004c6:	bf38      	it	cc
  2004c8:	f811 3b01 	ldrbcc.w	r3, [r1], #1
  2004cc:	f1a2 0204 	sub.w	r2, r2, #4
  2004d0:	bf98      	it	ls
  2004d2:	f800 cb01 	strbls.w	ip, [r0], #1
  2004d6:	bf38      	it	cc
  2004d8:	f800 3b01 	strbcc.w	r3, [r0], #1
  2004dc:	f011 0303 	ands.w	r3, r1, #3
  2004e0:	f000 8025 	beq.w	20052e <__rt_memcpy_w>
  2004e4:	3a08      	subs	r2, #8
  2004e6:	f0c0 8008 	bcc.w	2004fa <__rt_memcpy+0x56>
  2004ea:	f851 3b04 	ldr.w	r3, [r1], #4
  2004ee:	3a08      	subs	r2, #8
  2004f0:	f851 cb04 	ldr.w	ip, [r1], #4
  2004f4:	e8a0 1008 	stmia.w	r0!, {r3, ip}
  2004f8:	e7f5      	b.n	2004e6 <__rt_memcpy+0x42>
  2004fa:	1d12      	adds	r2, r2, #4
  2004fc:	bf5c      	itt	pl
  2004fe:	f851 3b04 	ldrpl.w	r3, [r1], #4
  200502:	f840 3b04 	strpl.w	r3, [r0], #4
  200506:	f3af 8000 	nop.w

0020050a <_memcpy_lastbytes>:
  20050a:	07d2      	lsls	r2, r2, #31
  20050c:	bf24      	itt	cs
  20050e:	f811 3b01 	ldrbcs.w	r3, [r1], #1
  200512:	f811 cb01 	ldrbcs.w	ip, [r1], #1
  200516:	bf48      	it	mi
  200518:	f811 2b01 	ldrbmi.w	r2, [r1], #1
  20051c:	bf24      	itt	cs
  20051e:	f800 3b01 	strbcs.w	r3, [r0], #1
  200522:	f800 cb01 	strbcs.w	ip, [r0], #1
  200526:	bf48      	it	mi
  200528:	f800 2b01 	strbmi.w	r2, [r0], #1
  20052c:	4770      	bx	lr

0020052e <__rt_memcpy_w>:
  20052e:	b510      	push	{r4, lr}
  200530:	3a20      	subs	r2, #32
  200532:	f0c0 800b 	bcc.w	20054c <__rt_memcpy_w+0x1e>
  200536:	e8b1 5018 	ldmia.w	r1!, {r3, r4, ip, lr}
  20053a:	e8a0 5018 	stmia.w	r0!, {r3, r4, ip, lr}
  20053e:	e8b1 5018 	ldmia.w	r1!, {r3, r4, ip, lr}
  200542:	e8a0 5018 	stmia.w	r0!, {r3, r4, ip, lr}
  200546:	3a20      	subs	r2, #32
  200548:	f4bf aff5 	bcs.w	200536 <__rt_memcpy_w+0x8>
  20054c:	ea5f 7c02 	movs.w	ip, r2, lsl #28
  200550:	bf24      	itt	cs
  200552:	e8b1 5018 	ldmiacs.w	r1!, {r3, r4, ip, lr}
  200556:	e8a0 5018 	stmiacs.w	r0!, {r3, r4, ip, lr}
  20055a:	bf44      	itt	mi
  20055c:	c918      	ldmiami	r1!, {r3, r4}
  20055e:	c018      	stmiami	r0!, {r3, r4}
  200560:	e8bd 4010 	ldmia.w	sp!, {r4, lr}
  200564:	ea5f 7c82 	movs.w	ip, r2, lsl #30
  200568:	bf24      	itt	cs
  20056a:	f851 3b04 	ldrcs.w	r3, [r1], #4
  20056e:	f840 3b04 	strcs.w	r3, [r0], #4
  200572:	bf08      	it	eq
  200574:	4770      	bxeq	lr

00200576 <_memcpy_lastbytes_aligned>:
  200576:	07d2      	lsls	r2, r2, #31
  200578:	bf28      	it	cs
  20057a:	f831 3b02 	ldrhcs.w	r3, [r1], #2
  20057e:	bf48      	it	mi
  200580:	f811 2b01 	ldrbmi.w	r2, [r1], #1
  200584:	bf28      	it	cs
  200586:	f820 3b02 	strhcs.w	r3, [r0], #2
  20058a:	bf48      	it	mi
  20058c:	f800 2b01 	strbmi.w	r2, [r0], #1
  200590:	4770      	bx	lr
	...

00200594 <Default_Handler>:
  200594:	e7fe      	b.n	200594 <Default_Handler>
	...

00200598 <HardFault_Handler>:
  200598:	e7fe      	b.n	200598 <HardFault_Handler>
	...

0020059c <Reset_Handler>:
  20059c:	f240 0000 	movw	r0, #0
  2005a0:	f6c2 0040 	movt	r0, #10304	; 0x2840
  2005a4:	f380 8809 	msr	PSP, r0
  2005a8:	f240 0000 	movw	r0, #0
  2005ac:	f64e 5288 	movw	r2, #60808	; 0xed88
  2005b0:	f64f 4100 	movw	r1, #64512	; 0xfc00
  2005b4:	f2c0 0020 	movt	r0, #32
  2005b8:	f2ce 0200 	movt	r2, #57344	; 0xe000
  2005bc:	f6c2 013f 	movt	r1, #10303	; 0x283f
  2005c0:	f381 880a 	msr	MSPLIM, r1
  2005c4:	f381 880b 	msr	PSPLIM, r1
  2005c8:	f842 0c80 	str.w	r0, [r2, #-128]
  2005cc:	6810      	ldr	r0, [r2, #0]
  2005ce:	f440 0070 	orr.w	r0, r0, #15728640	; 0xf00000
  2005d2:	6010      	str	r0, [r2, #0]
  2005d4:	f7ff ff14 	bl	200400 <__main>

002005d8 <benchmark_picojpeg>:
  2005d8:	e92d 4ff0 	stmdb	sp!, {r4, r5, r6, r7, r8, r9, sl, fp, lr}
  2005dc:	b08b      	sub	sp, #44	; 0x2c
  2005de:	f240 0102 	movw	r1, #2
  2005e2:	f6c2 0120 	movt	r1, #10272	; 0x2820
  2005e6:	2000      	movs	r0, #0
  2005e8:	8008      	strh	r0, [r1, #0]
  2005ea:	f240 0104 	movw	r1, #4
  2005ee:	f6c2 0120 	movt	r1, #10272	; 0x2820
  2005f2:	8008      	strh	r0, [r1, #0]
  2005f4:	f240 0106 	movw	r1, #6
  2005f8:	f6c2 0120 	movt	r1, #10272	; 0x2820
  2005fc:	7008      	strb	r0, [r1, #0]
  2005fe:	f240 3112 	movw	r1, #786	; 0x312
  200602:	f6c2 0120 	movt	r1, #10272	; 0x2820
  200606:	8008      	strh	r0, [r1, #0]
  200608:	f640 1118 	movw	r1, #2328	; 0x918
  20060c:	f6c2 0120 	movt	r1, #10272	; 0x2820
  200610:	7008      	strb	r0, [r1, #0]
  200612:	f640 1119 	movw	r1, #2329	; 0x919
  200616:	f6c2 0120 	movt	r1, #10272	; 0x2820
  20061a:	7008      	strb	r0, [r1, #0]
  20061c:	f640 111a 	movw	r1, #2330	; 0x91a
  200620:	f6c2 0120 	movt	r1, #10272	; 0x2820
  200624:	7008      	strb	r0, [r1, #0]
  200626:	f640 0112 	movw	r1, #2066	; 0x812
  20062a:	f640 0510 	movw	r5, #2064	; 0x810
  20062e:	f6c2 0120 	movt	r1, #10272	; 0x2820
  200632:	f6c2 0520 	movt	r5, #10272	; 0x2820
  200636:	f640 1614 	movw	r6, #2324	; 0x914
  20063a:	f640 0714 	movw	r7, #2068	; 0x814
  20063e:	7008      	strb	r0, [r1, #0]
  200640:	7028      	strb	r0, [r5, #0]
  200642:	f6c2 0620 	movt	r6, #10272	; 0x2820
  200646:	2004      	movs	r0, #4
  200648:	f6c2 0720 	movt	r7, #10272	; 0x2820
  20064c:	f247 116c 	movw	r1, #29036	; 0x716c
  200650:	7030      	strb	r0, [r6, #0]
  200652:	1d38      	adds	r0, r7, #4
  200654:	f2c0 0120 	movt	r1, #32
  200658:	22fc      	movs	r2, #252	; 0xfc
  20065a:	9007      	str	r0, [sp, #28]
  20065c:	24fc      	movs	r4, #252	; 0xfc
  20065e:	f7ff ff66 	bl	20052e <__rt_memcpy_w>
  200662:	f640 1028 	movw	r0, #2344	; 0x928
  200666:	f6c2 0020 	movt	r0, #10272	; 0x2820
  20066a:	f640 0111 	movw	r1, #2065	; 0x811
  20066e:	6004      	str	r4, [r0, #0]
  200670:	f6c2 0120 	movt	r1, #10272	; 0x2820
  200674:	20fb      	movs	r0, #251	; 0xfb
  200676:	7008      	strb	r0, [r1, #0]
  200678:	2005      	movs	r0, #5
  20067a:	7030      	strb	r0, [r6, #0]
  20067c:	20f9      	movs	r0, #249	; 0xf9
  20067e:	7008      	strb	r0, [r1, #0]
  200680:	79b9      	ldrb	r1, [r7, #6]
  200682:	2007      	movs	r0, #7
  200684:	f640 1216 	movw	r2, #2326	; 0x916
  200688:	7030      	strb	r0, [r6, #0]
  20068a:	f6c2 0220 	movt	r2, #10272	; 0x2820
  20068e:	0208      	lsls	r0, r1, #8
  200690:	8010      	strh	r0, [r2, #0]
  200692:	f10d 002a 	add.w	r0, sp, #42	; 0x2a
  200696:	f003 fe71 	bl	20437c <processMarkers>
  20069a:	46ac      	mov	ip, r5
  20069c:	2800      	cmp	r0, #0
  20069e:	f040 85b6 	bne.w	20120e <benchmark_picojpeg+0xc36>
  2006a2:	f89d 002a 	ldrb.w	r0, [sp, #42]	; 0x2a
  2006a6:	28c0      	cmp	r0, #192	; 0xc0
  2006a8:	f040 85b1 	bne.w	20120e <benchmark_picojpeg+0xc36>
  2006ac:	f640 1016 	movw	r0, #2326	; 0x916
  2006b0:	f640 0311 	movw	r3, #2065	; 0x811
  2006b4:	f6c2 0020 	movt	r0, #10272	; 0x2820
  2006b8:	f6c2 0320 	movt	r3, #10272	; 0x2820
  2006bc:	8804      	ldrh	r4, [r0, #0]
  2006be:	781e      	ldrb	r6, [r3, #0]
  2006c0:	f89c b000 	ldrb.w	fp, [ip]
  2006c4:	fa04 f90b 	lsl.w	r9, r4, fp
  2006c8:	b12e      	cbz	r6, 2006d6 <benchmark_picojpeg+0xfe>
  2006ca:	f640 1214 	movw	r2, #2324	; 0x914
  2006ce:	f6c2 0220 	movt	r2, #10272	; 0x2820
  2006d2:	7815      	ldrb	r5, [r2, #0]
  2006d4:	e02d      	b.n	200732 <benchmark_picojpeg+0x15a>
  2006d6:	f640 1828 	movw	r8, #2344	; 0x928
  2006da:	f640 1014 	movw	r0, #2324	; 0x914
  2006de:	f6c2 0820 	movt	r8, #10272	; 0x2820
  2006e2:	2504      	movs	r5, #4
  2006e4:	f6c2 0020 	movt	r0, #10272	; 0x2820
  2006e8:	f8d8 7000 	ldr.w	r7, [r8]
  2006ec:	7005      	strb	r5, [r0, #0]
  2006ee:	f240 203a 	movw	r0, #570	; 0x23a
  2006f2:	1bc6      	subs	r6, r0, r7
  2006f4:	f247 106c 	movw	r0, #29036	; 0x716c
  2006f8:	f2c0 0020 	movt	r0, #32
  2006fc:	2efc      	cmp	r6, #252	; 0xfc
  2006fe:	bf28      	it	cs
  200700:	26fc      	movcs	r6, #252	; 0xfc
  200702:	19c1      	adds	r1, r0, r7
  200704:	9807      	ldr	r0, [sp, #28]
  200706:	4632      	mov	r2, r6
  200708:	f7ff fecc 	bl	2004a4 <__rt_memcpy>
  20070c:	f640 0311 	movw	r3, #2065	; 0x811
  200710:	f6c2 0320 	movt	r3, #10272	; 0x2820
  200714:	19b8      	adds	r0, r7, r6
  200716:	0631      	lsls	r1, r6, #24
  200718:	701e      	strb	r6, [r3, #0]
  20071a:	f8c8 0000 	str.w	r0, [r8]
  20071e:	f000 8219 	beq.w	200b54 <benchmark_picojpeg+0x57c>
  200722:	f640 0c10 	movw	ip, #2064	; 0x810
  200726:	f640 1214 	movw	r2, #2324	; 0x914
  20072a:	f6c2 0c20 	movt	ip, #10272	; 0x2820
  20072e:	f6c2 0220 	movt	r2, #10272	; 0x2820
  200732:	f640 0014 	movw	r0, #2068	; 0x814
  200736:	f6c2 0020 	movt	r0, #10272	; 0x2820
  20073a:	3e01      	subs	r6, #1
  20073c:	1c6f      	adds	r7, r5, #1
  20073e:	5d40      	ldrb	r0, [r0, r5]
  200740:	701e      	strb	r6, [r3, #0]
  200742:	7017      	strb	r7, [r2, #0]
  200744:	fa1f f189 	uxth.w	r1, r9
  200748:	b2c0      	uxtb	r0, r0
  20074a:	f1cb 0508 	rsb	r5, fp, #8
  20074e:	4308      	orrs	r0, r1
  200750:	f1bb 0f07 	cmp.w	fp, #7
  200754:	fa00 f105 	lsl.w	r1, r0, r5
  200758:	e9cd 1408 	strd	r1, r4, [sp, #32]
  20075c:	d848      	bhi.n	2007f0 <benchmark_picojpeg+0x218>
  20075e:	0630      	lsls	r0, r6, #24
  200760:	f640 1016 	movw	r0, #2326	; 0x916
  200764:	fa01 f90b 	lsl.w	r9, r1, fp
  200768:	f6c2 0020 	movt	r0, #10272	; 0x2820
  20076c:	f8a0 9000 	strh.w	r9, [r0]
  200770:	d129      	bne.n	2007c6 <benchmark_picojpeg+0x1ee>
  200772:	f640 1828 	movw	r8, #2344	; 0x928
  200776:	f6c2 0820 	movt	r8, #10272	; 0x2820
  20077a:	f8d8 4000 	ldr.w	r4, [r8]
  20077e:	f240 203a 	movw	r0, #570	; 0x23a
  200782:	1b06      	subs	r6, r0, r4
  200784:	f247 106c 	movw	r0, #29036	; 0x716c
  200788:	2704      	movs	r7, #4
  20078a:	f2c0 0020 	movt	r0, #32
  20078e:	7017      	strb	r7, [r2, #0]
  200790:	2efc      	cmp	r6, #252	; 0xfc
  200792:	bf28      	it	cs
  200794:	26fc      	movcs	r6, #252	; 0xfc
  200796:	1901      	adds	r1, r0, r4
  200798:	9807      	ldr	r0, [sp, #28]
  20079a:	4632      	mov	r2, r6
  20079c:	f7ff fe82 	bl	2004a4 <__rt_memcpy>
  2007a0:	f640 0311 	movw	r3, #2065	; 0x811
  2007a4:	f6c2 0320 	movt	r3, #10272	; 0x2820
  2007a8:	19a0      	adds	r0, r4, r6
  2007aa:	0631      	lsls	r1, r6, #24
  2007ac:	701e      	strb	r6, [r3, #0]
  2007ae:	f8c8 0000 	str.w	r0, [r8]
  2007b2:	f000 8268 	beq.w	200c86 <benchmark_picojpeg+0x6ae>
  2007b6:	f640 0c10 	movw	ip, #2064	; 0x810
  2007ba:	f640 1214 	movw	r2, #2324	; 0x914
  2007be:	f6c2 0c20 	movt	ip, #10272	; 0x2820
  2007c2:	f6c2 0220 	movt	r2, #10272	; 0x2820
  2007c6:	3e01      	subs	r6, #1
  2007c8:	701e      	strb	r6, [r3, #0]
  2007ca:	f640 0314 	movw	r3, #2068	; 0x814
  2007ce:	b2f9      	uxtb	r1, r7
  2007d0:	f6c2 0320 	movt	r3, #10272	; 0x2820
  2007d4:	1c78      	adds	r0, r7, #1
  2007d6:	5c59      	ldrb	r1, [r3, r1]
  2007d8:	f640 0311 	movw	r3, #2065	; 0x811
  2007dc:	f6c2 0320 	movt	r3, #10272	; 0x2820
  2007e0:	7010      	strb	r0, [r2, #0]
  2007e2:	b2c9      	uxtb	r1, r1
  2007e4:	ea41 0109 	orr.w	r1, r1, r9
  2007e8:	fa01 fa05 	lsl.w	sl, r1, r5
  2007ec:	4607      	mov	r7, r0
  2007ee:	e009      	b.n	200804 <benchmark_picojpeg+0x22c>
  2007f0:	f1ab 0b08 	sub.w	fp, fp, #8
  2007f4:	fa5f f08b 	uxtb.w	r0, fp
  2007f8:	2807      	cmp	r0, #7
  2007fa:	ea4f 2a01 	mov.w	sl, r1, lsl #8
  2007fe:	f88c b000 	strb.w	fp, [ip]
  200802:	d843      	bhi.n	20088c <benchmark_picojpeg+0x2b4>
  200804:	fa1f f08a 	uxth.w	r0, sl
  200808:	fa5f f48b 	uxtb.w	r4, fp
  20080c:	0631      	lsls	r1, r6, #24
  20080e:	fa00 f904 	lsl.w	r9, r0, r4
  200812:	d129      	bne.n	200868 <benchmark_picojpeg+0x290>
  200814:	f640 1828 	movw	r8, #2344	; 0x928
  200818:	f6c2 0820 	movt	r8, #10272	; 0x2820
  20081c:	f8d8 5000 	ldr.w	r5, [r8]
  200820:	f240 203a 	movw	r0, #570	; 0x23a
  200824:	1b46      	subs	r6, r0, r5
  200826:	f247 106c 	movw	r0, #29036	; 0x716c
  20082a:	2704      	movs	r7, #4
  20082c:	f2c0 0020 	movt	r0, #32
  200830:	7017      	strb	r7, [r2, #0]
  200832:	2efc      	cmp	r6, #252	; 0xfc
  200834:	bf28      	it	cs
  200836:	26fc      	movcs	r6, #252	; 0xfc
  200838:	1941      	adds	r1, r0, r5
  20083a:	9807      	ldr	r0, [sp, #28]
  20083c:	4632      	mov	r2, r6
  20083e:	f7ff fe31 	bl	2004a4 <__rt_memcpy>
  200842:	f640 0311 	movw	r3, #2065	; 0x811
  200846:	f6c2 0320 	movt	r3, #10272	; 0x2820
  20084a:	19a8      	adds	r0, r5, r6
  20084c:	0631      	lsls	r1, r6, #24
  20084e:	701e      	strb	r6, [r3, #0]
  200850:	f8c8 0000 	str.w	r0, [r8]
  200854:	f000 8203 	beq.w	200c5e <benchmark_picojpeg+0x686>
  200858:	f640 0c10 	movw	ip, #2064	; 0x810
  20085c:	f640 1214 	movw	r2, #2324	; 0x914
  200860:	f6c2 0c20 	movt	ip, #10272	; 0x2820
  200864:	f6c2 0220 	movt	r2, #10272	; 0x2820
  200868:	3e01      	subs	r6, #1
  20086a:	701e      	strb	r6, [r3, #0]
  20086c:	f640 0314 	movw	r3, #2068	; 0x814
  200870:	b2f8      	uxtb	r0, r7
  200872:	f6c2 0320 	movt	r3, #10272	; 0x2820
  200876:	1c79      	adds	r1, r7, #1
  200878:	5c18      	ldrb	r0, [r3, r0]
  20087a:	7011      	strb	r1, [r2, #0]
  20087c:	b2c0      	uxtb	r0, r0
  20087e:	f1c4 0208 	rsb	r2, r4, #8
  200882:	ea40 0009 	orr.w	r0, r0, r9
  200886:	4090      	lsls	r0, r2
  200888:	460f      	mov	r7, r1
  20088a:	e005      	b.n	200898 <benchmark_picojpeg+0x2c0>
  20088c:	f1ab 0b08 	sub.w	fp, fp, #8
  200890:	ea4f 200a 	mov.w	r0, sl, lsl #8
  200894:	f88c b000 	strb.w	fp, [ip]
  200898:	f40a 417f 	and.w	r1, sl, #65280	; 0xff00
  20089c:	f5b1 6f00 	cmp.w	r1, #2048	; 0x800
  2008a0:	f640 1116 	movw	r1, #2326	; 0x916
  2008a4:	f6c2 0120 	movt	r1, #10272	; 0x2820
  2008a8:	8008      	strh	r0, [r1, #0]
  2008aa:	f040 84b0 	bne.w	20120e <benchmark_picojpeg+0xc36>
  2008ae:	fa1f f980 	uxth.w	r9, r0
  2008b2:	0630      	lsls	r0, r6, #24
  2008b4:	fa5f f48b 	uxtb.w	r4, fp
  2008b8:	f640 1016 	movw	r0, #2326	; 0x916
  2008bc:	f640 1214 	movw	r2, #2324	; 0x914
  2008c0:	fa09 f804 	lsl.w	r8, r9, r4
  2008c4:	f6c2 0020 	movt	r0, #10272	; 0x2820
  2008c8:	f6c2 0220 	movt	r2, #10272	; 0x2820
  2008cc:	f8a0 8000 	strh.w	r8, [r0]
  2008d0:	d129      	bne.n	200926 <benchmark_picojpeg+0x34e>
  2008d2:	f640 1a28 	movw	sl, #2344	; 0x928
  2008d6:	f6c2 0a20 	movt	sl, #10272	; 0x2820
  2008da:	f8da 5000 	ldr.w	r5, [sl]
  2008de:	f240 203a 	movw	r0, #570	; 0x23a
  2008e2:	1b46      	subs	r6, r0, r5
  2008e4:	f247 106c 	movw	r0, #29036	; 0x716c
  2008e8:	2704      	movs	r7, #4
  2008ea:	f2c0 0020 	movt	r0, #32
  2008ee:	7017      	strb	r7, [r2, #0]
  2008f0:	2efc      	cmp	r6, #252	; 0xfc
  2008f2:	bf28      	it	cs
  2008f4:	26fc      	movcs	r6, #252	; 0xfc
  2008f6:	1941      	adds	r1, r0, r5
  2008f8:	9807      	ldr	r0, [sp, #28]
  2008fa:	4632      	mov	r2, r6
  2008fc:	f7ff fdd2 	bl	2004a4 <__rt_memcpy>
  200900:	f640 0311 	movw	r3, #2065	; 0x811
  200904:	f6c2 0320 	movt	r3, #10272	; 0x2820
  200908:	19a8      	adds	r0, r5, r6
  20090a:	0631      	lsls	r1, r6, #24
  20090c:	701e      	strb	r6, [r3, #0]
  20090e:	f8ca 0000 	str.w	r0, [sl]
  200912:	f000 81d0 	beq.w	200cb6 <benchmark_picojpeg+0x6de>
  200916:	f640 0c10 	movw	ip, #2064	; 0x810
  20091a:	f640 1214 	movw	r2, #2324	; 0x914
  20091e:	f6c2 0c20 	movt	ip, #10272	; 0x2820
  200922:	f6c2 0220 	movt	r2, #10272	; 0x2820
  200926:	f640 0114 	movw	r1, #2068	; 0x814
  20092a:	f640 0311 	movw	r3, #2065	; 0x811
  20092e:	b2f8      	uxtb	r0, r7
  200930:	f6c2 0120 	movt	r1, #10272	; 0x2820
  200934:	3e01      	subs	r6, #1
  200936:	f6c2 0320 	movt	r3, #10272	; 0x2820
  20093a:	f107 0a01 	add.w	sl, r7, #1
  20093e:	5c08      	ldrb	r0, [r1, r0]
  200940:	701e      	strb	r6, [r3, #0]
  200942:	f882 a000 	strb.w	sl, [r2]
  200946:	fa1f f188 	uxth.w	r1, r8
  20094a:	b2c0      	uxtb	r0, r0
  20094c:	f1c4 0708 	rsb	r7, r4, #8
  200950:	4308      	orrs	r0, r1
  200952:	40b8      	lsls	r0, r7
  200954:	0a05      	lsrs	r5, r0, #8
  200956:	ea4f 2119 	mov.w	r1, r9, lsr #8
  20095a:	2c07      	cmp	r4, #7
  20095c:	f361 251f 	bfi	r5, r1, #8, #24
  200960:	d842      	bhi.n	2009e8 <benchmark_picojpeg+0x410>
  200962:	0631      	lsls	r1, r6, #24
  200964:	fa00 f404 	lsl.w	r4, r0, r4
  200968:	d12d      	bne.n	2009c6 <benchmark_picojpeg+0x3ee>
  20096a:	f640 1828 	movw	r8, #2344	; 0x928
  20096e:	f6c2 0820 	movt	r8, #10272	; 0x2820
  200972:	46a9      	mov	r9, r5
  200974:	f8d8 5000 	ldr.w	r5, [r8]
  200978:	f240 203a 	movw	r0, #570	; 0x23a
  20097c:	1b46      	subs	r6, r0, r5
  20097e:	f247 106c 	movw	r0, #29036	; 0x716c
  200982:	f04f 0a04 	mov.w	sl, #4
  200986:	f2c0 0020 	movt	r0, #32
  20098a:	f882 a000 	strb.w	sl, [r2]
  20098e:	2efc      	cmp	r6, #252	; 0xfc
  200990:	bf28      	it	cs
  200992:	26fc      	movcs	r6, #252	; 0xfc
  200994:	1941      	adds	r1, r0, r5
  200996:	9807      	ldr	r0, [sp, #28]
  200998:	4632      	mov	r2, r6
  20099a:	f7ff fd83 	bl	2004a4 <__rt_memcpy>
  20099e:	f640 0311 	movw	r3, #2065	; 0x811
  2009a2:	f6c2 0320 	movt	r3, #10272	; 0x2820
  2009a6:	19a8      	adds	r0, r5, r6
  2009a8:	0631      	lsls	r1, r6, #24
  2009aa:	701e      	strb	r6, [r3, #0]
  2009ac:	f8c8 0000 	str.w	r0, [r8]
  2009b0:	f000 83e4 	beq.w	20117c <benchmark_picojpeg+0xba4>
  2009b4:	f640 0c10 	movw	ip, #2064	; 0x810
  2009b8:	f640 1214 	movw	r2, #2324	; 0x914
  2009bc:	f6c2 0c20 	movt	ip, #10272	; 0x2820
  2009c0:	f6c2 0220 	movt	r2, #10272	; 0x2820
  2009c4:	464d      	mov	r5, r9
  2009c6:	3e01      	subs	r6, #1
  2009c8:	701e      	strb	r6, [r3, #0]
  2009ca:	f640 0314 	movw	r3, #2068	; 0x814
  2009ce:	fa5f f08a 	uxtb.w	r0, sl
  2009d2:	f6c2 0320 	movt	r3, #10272	; 0x2820
  2009d6:	f10a 0101 	add.w	r1, sl, #1
  2009da:	5c18      	ldrb	r0, [r3, r0]
  2009dc:	7011      	strb	r1, [r2, #0]
  2009de:	b2c0      	uxtb	r0, r0
  2009e0:	4320      	orrs	r0, r4
  2009e2:	40b8      	lsls	r0, r7
  2009e4:	468a      	mov	sl, r1
  2009e6:	e004      	b.n	2009f2 <benchmark_picojpeg+0x41a>
  2009e8:	f1ab 0b08 	sub.w	fp, fp, #8
  2009ec:	0200      	lsls	r0, r0, #8
  2009ee:	f88c b000 	strb.w	fp, [ip]
  2009f2:	f640 1116 	movw	r1, #2326	; 0x916
  2009f6:	f6c2 0120 	movt	r1, #10272	; 0x2820
  2009fa:	8008      	strh	r0, [r1, #0]
  2009fc:	f244 0101 	movw	r1, #16385	; 0x4001
  200a00:	f240 0204 	movw	r2, #4
  200a04:	1a69      	subs	r1, r5, r1
  200a06:	f6c2 0220 	movt	r2, #10272	; 0x2820
  200a0a:	f511 4f80 	cmn.w	r1, #16384	; 0x4000
  200a0e:	8015      	strh	r5, [r2, #0]
  200a10:	f0c0 83fd 	bcc.w	20120e <benchmark_picojpeg+0xc36>
  200a14:	fa1f f880 	uxth.w	r8, r0
  200a18:	0630      	lsls	r0, r6, #24
  200a1a:	fa5f f48b 	uxtb.w	r4, fp
  200a1e:	f640 1016 	movw	r0, #2326	; 0x916
  200a22:	f640 1214 	movw	r2, #2324	; 0x914
  200a26:	fa08 f904 	lsl.w	r9, r8, r4
  200a2a:	f6c2 0020 	movt	r0, #10272	; 0x2820
  200a2e:	f6c2 0220 	movt	r2, #10272	; 0x2820
  200a32:	f8a0 9000 	strh.w	r9, [r0]
  200a36:	d12b      	bne.n	200a90 <benchmark_picojpeg+0x4b8>
  200a38:	9503      	str	r5, [sp, #12]
  200a3a:	f640 1528 	movw	r5, #2344	; 0x928
  200a3e:	f6c2 0520 	movt	r5, #10272	; 0x2820
  200a42:	682f      	ldr	r7, [r5, #0]
  200a44:	f240 203a 	movw	r0, #570	; 0x23a
  200a48:	1bc6      	subs	r6, r0, r7
  200a4a:	f247 106c 	movw	r0, #29036	; 0x716c
  200a4e:	f04f 0a04 	mov.w	sl, #4
  200a52:	f2c0 0020 	movt	r0, #32
  200a56:	f882 a000 	strb.w	sl, [r2]
  200a5a:	2efc      	cmp	r6, #252	; 0xfc
  200a5c:	bf28      	it	cs
  200a5e:	26fc      	movcs	r6, #252	; 0xfc
  200a60:	19c1      	adds	r1, r0, r7
  200a62:	9807      	ldr	r0, [sp, #28]
  200a64:	4632      	mov	r2, r6
  200a66:	f7ff fd1d 	bl	2004a4 <__rt_memcpy>
  200a6a:	f640 0311 	movw	r3, #2065	; 0x811
  200a6e:	f6c2 0320 	movt	r3, #10272	; 0x2820
  200a72:	19b8      	adds	r0, r7, r6
  200a74:	0631      	lsls	r1, r6, #24
  200a76:	701e      	strb	r6, [r3, #0]
  200a78:	6028      	str	r0, [r5, #0]
  200a7a:	f000 8395 	beq.w	2011a8 <benchmark_picojpeg+0xbd0>
  200a7e:	f640 0c10 	movw	ip, #2064	; 0x810
  200a82:	f640 1214 	movw	r2, #2324	; 0x914
  200a86:	9d03      	ldr	r5, [sp, #12]
  200a88:	f6c2 0c20 	movt	ip, #10272	; 0x2820
  200a8c:	f6c2 0220 	movt	r2, #10272	; 0x2820
  200a90:	f640 0114 	movw	r1, #2068	; 0x814
  200a94:	f640 0311 	movw	r3, #2065	; 0x811
  200a98:	fa5f f08a 	uxtb.w	r0, sl
  200a9c:	f6c2 0120 	movt	r1, #10272	; 0x2820
  200aa0:	3e01      	subs	r6, #1
  200aa2:	f6c2 0320 	movt	r3, #10272	; 0x2820
  200aa6:	f10a 0701 	add.w	r7, sl, #1
  200aaa:	5c08      	ldrb	r0, [r1, r0]
  200aac:	701e      	strb	r6, [r3, #0]
  200aae:	9706      	str	r7, [sp, #24]
  200ab0:	7017      	strb	r7, [r2, #0]
  200ab2:	fa1f f189 	uxth.w	r1, r9
  200ab6:	b2c0      	uxtb	r0, r0
  200ab8:	f1c4 0a08 	rsb	sl, r4, #8
  200abc:	4308      	orrs	r0, r1
  200abe:	fa00 f00a 	lsl.w	r0, r0, sl
  200ac2:	0a07      	lsrs	r7, r0, #8
  200ac4:	ea4f 2118 	mov.w	r1, r8, lsr #8
  200ac8:	2c07      	cmp	r4, #7
  200aca:	f361 271f 	bfi	r7, r1, #8, #24
  200ace:	d859      	bhi.n	200b84 <benchmark_picojpeg+0x5ac>
  200ad0:	0631      	lsls	r1, r6, #24
  200ad2:	fa00 f904 	lsl.w	r9, r0, r4
  200ad6:	d12b      	bne.n	200b30 <benchmark_picojpeg+0x558>
  200ad8:	f640 1828 	movw	r8, #2344	; 0x928
  200adc:	f6c2 0820 	movt	r8, #10272	; 0x2820
  200ae0:	2004      	movs	r0, #4
  200ae2:	f8d8 4000 	ldr.w	r4, [r8]
  200ae6:	9006      	str	r0, [sp, #24]
  200ae8:	f240 203a 	movw	r0, #570	; 0x23a
  200aec:	1b06      	subs	r6, r0, r4
  200aee:	f247 106c 	movw	r0, #29036	; 0x716c
  200af2:	2104      	movs	r1, #4
  200af4:	f2c0 0020 	movt	r0, #32
  200af8:	7011      	strb	r1, [r2, #0]
  200afa:	2efc      	cmp	r6, #252	; 0xfc
  200afc:	bf28      	it	cs
  200afe:	26fc      	movcs	r6, #252	; 0xfc
  200b00:	1901      	adds	r1, r0, r4
  200b02:	9807      	ldr	r0, [sp, #28]
  200b04:	4632      	mov	r2, r6
  200b06:	f7ff fccd 	bl	2004a4 <__rt_memcpy>
  200b0a:	f640 0311 	movw	r3, #2065	; 0x811
  200b0e:	f6c2 0320 	movt	r3, #10272	; 0x2820
  200b12:	19a0      	adds	r0, r4, r6
  200b14:	0631      	lsls	r1, r6, #24
  200b16:	701e      	strb	r6, [r3, #0]
  200b18:	f8c8 0000 	str.w	r0, [r8]
  200b1c:	f000 835e 	beq.w	2011dc <benchmark_picojpeg+0xc04>
  200b20:	f640 0c10 	movw	ip, #2064	; 0x810
  200b24:	f640 1214 	movw	r2, #2324	; 0x914
  200b28:	f6c2 0c20 	movt	ip, #10272	; 0x2820
  200b2c:	f6c2 0220 	movt	r2, #10272	; 0x2820
  200b30:	3e01      	subs	r6, #1
  200b32:	9906      	ldr	r1, [sp, #24]
  200b34:	701e      	strb	r6, [r3, #0]
  200b36:	f640 0314 	movw	r3, #2068	; 0x814
  200b3a:	1c48      	adds	r0, r1, #1
  200b3c:	b2c9      	uxtb	r1, r1
  200b3e:	f6c2 0320 	movt	r3, #10272	; 0x2820
  200b42:	5c59      	ldrb	r1, [r3, r1]
  200b44:	7010      	strb	r0, [r2, #0]
  200b46:	b2c9      	uxtb	r1, r1
  200b48:	ea41 0109 	orr.w	r1, r1, r9
  200b4c:	fa01 fa0a 	lsl.w	sl, r1, sl
  200b50:	9006      	str	r0, [sp, #24]
  200b52:	e01d      	b.n	200b90 <benchmark_picojpeg+0x5b8>
  200b54:	f640 0212 	movw	r2, #2066	; 0x812
  200b58:	f6c2 0220 	movt	r2, #10272	; 0x2820
  200b5c:	7811      	ldrb	r1, [r2, #0]
  200b5e:	f640 0c10 	movw	ip, #2064	; 0x810
  200b62:	43c8      	mvns	r0, r1
  200b64:	7010      	strb	r0, [r2, #0]
  200b66:	f640 1214 	movw	r2, #2324	; 0x914
  200b6a:	f04f 30ff 	mov.w	r0, #4294967295
  200b6e:	2600      	movs	r6, #0
  200b70:	2704      	movs	r7, #4
  200b72:	f6c2 0c20 	movt	ip, #10272	; 0x2820
  200b76:	f6c2 0220 	movt	r2, #10272	; 0x2820
  200b7a:	29ff      	cmp	r1, #255	; 0xff
  200b7c:	bf08      	it	eq
  200b7e:	f06f 0026 	mvneq.w	r0, #38	; 0x26
  200b82:	e5df      	b.n	200744 <benchmark_picojpeg+0x16c>
  200b84:	f1ab 0b08 	sub.w	fp, fp, #8
  200b88:	ea4f 2a00 	mov.w	sl, r0, lsl #8
  200b8c:	f88c b000 	strb.w	fp, [ip]
  200b90:	f640 1016 	movw	r0, #2326	; 0x916
  200b94:	f6c2 0020 	movt	r0, #10272	; 0x2820
  200b98:	f8a0 a000 	strh.w	sl, [r0]
  200b9c:	f244 0001 	movw	r0, #16385	; 0x4001
  200ba0:	1a38      	subs	r0, r7, r0
  200ba2:	f510 4f80 	cmn.w	r0, #16384	; 0x4000
  200ba6:	f240 0002 	movw	r0, #2
  200baa:	f6c2 0020 	movt	r0, #10272	; 0x2820
  200bae:	8007      	strh	r7, [r0, #0]
  200bb0:	f0c0 832d 	bcc.w	20120e <benchmark_picojpeg+0xc36>
  200bb4:	fa5f f48b 	uxtb.w	r4, fp
  200bb8:	2c07      	cmp	r4, #7
  200bba:	f200 8095 	bhi.w	200ce8 <benchmark_picojpeg+0x710>
  200bbe:	fa1f f08a 	uxth.w	r0, sl
  200bc2:	f640 1214 	movw	r2, #2324	; 0x914
  200bc6:	f640 0311 	movw	r3, #2065	; 0x811
  200bca:	0631      	lsls	r1, r6, #24
  200bcc:	fa00 f804 	lsl.w	r8, r0, r4
  200bd0:	f6c2 0220 	movt	r2, #10272	; 0x2820
  200bd4:	f6c2 0320 	movt	r3, #10272	; 0x2820
  200bd8:	d12d      	bne.n	200c36 <benchmark_picojpeg+0x65e>
  200bda:	f640 1928 	movw	r9, #2344	; 0x928
  200bde:	f6c2 0920 	movt	r9, #10272	; 0x2820
  200be2:	9701      	str	r7, [sp, #4]
  200be4:	2004      	movs	r0, #4
  200be6:	f8d9 7000 	ldr.w	r7, [r9]
  200bea:	9006      	str	r0, [sp, #24]
  200bec:	f240 203a 	movw	r0, #570	; 0x23a
  200bf0:	1bc6      	subs	r6, r0, r7
  200bf2:	f247 106c 	movw	r0, #29036	; 0x716c
  200bf6:	2104      	movs	r1, #4
  200bf8:	f2c0 0020 	movt	r0, #32
  200bfc:	7011      	strb	r1, [r2, #0]
  200bfe:	2efc      	cmp	r6, #252	; 0xfc
  200c00:	bf28      	it	cs
  200c02:	26fc      	movcs	r6, #252	; 0xfc
  200c04:	19c1      	adds	r1, r0, r7
  200c06:	9807      	ldr	r0, [sp, #28]
  200c08:	4632      	mov	r2, r6
  200c0a:	f7ff fc4b 	bl	2004a4 <__rt_memcpy>
  200c0e:	f640 0311 	movw	r3, #2065	; 0x811
  200c12:	f6c2 0320 	movt	r3, #10272	; 0x2820
  200c16:	19b8      	adds	r0, r7, r6
  200c18:	0631      	lsls	r1, r6, #24
  200c1a:	701e      	strb	r6, [r3, #0]
  200c1c:	f8c9 0000 	str.w	r0, [r9]
  200c20:	f002 82ef 	beq.w	203202 <benchmark_picojpeg+0x2c2a>
  200c24:	f640 0c10 	movw	ip, #2064	; 0x810
  200c28:	f640 1214 	movw	r2, #2324	; 0x914
  200c2c:	9f01      	ldr	r7, [sp, #4]
  200c2e:	f6c2 0c20 	movt	ip, #10272	; 0x2820
  200c32:	f6c2 0220 	movt	r2, #10272	; 0x2820
  200c36:	3e01      	subs	r6, #1
  200c38:	9906      	ldr	r1, [sp, #24]
  200c3a:	701e      	strb	r6, [r3, #0]
  200c3c:	f640 0314 	movw	r3, #2068	; 0x814
  200c40:	1c48      	adds	r0, r1, #1
  200c42:	b2c9      	uxtb	r1, r1
  200c44:	f6c2 0320 	movt	r3, #10272	; 0x2820
  200c48:	5c59      	ldrb	r1, [r3, r1]
  200c4a:	7010      	strb	r0, [r2, #0]
  200c4c:	b2c9      	uxtb	r1, r1
  200c4e:	f1c4 0208 	rsb	r2, r4, #8
  200c52:	ea41 0108 	orr.w	r1, r1, r8
  200c56:	fa01 f302 	lsl.w	r3, r1, r2
  200c5a:	9006      	str	r0, [sp, #24]
  200c5c:	e04a      	b.n	200cf4 <benchmark_picojpeg+0x71c>
  200c5e:	f640 0212 	movw	r2, #2066	; 0x812
  200c62:	f6c2 0220 	movt	r2, #10272	; 0x2820
  200c66:	7811      	ldrb	r1, [r2, #0]
  200c68:	f640 0c10 	movw	ip, #2064	; 0x810
  200c6c:	43c8      	mvns	r0, r1
  200c6e:	7010      	strb	r0, [r2, #0]
  200c70:	f04f 30ff 	mov.w	r0, #4294967295
  200c74:	29ff      	cmp	r1, #255	; 0xff
  200c76:	bf08      	it	eq
  200c78:	f06f 0026 	mvneq.w	r0, #38	; 0x26
  200c7c:	2600      	movs	r6, #0
  200c7e:	2104      	movs	r1, #4
  200c80:	f6c2 0c20 	movt	ip, #10272	; 0x2820
  200c84:	e5fa      	b.n	20087c <benchmark_picojpeg+0x2a4>
  200c86:	f640 0212 	movw	r2, #2066	; 0x812
  200c8a:	f6c2 0220 	movt	r2, #10272	; 0x2820
  200c8e:	7810      	ldrb	r0, [r2, #0]
  200c90:	f640 0c10 	movw	ip, #2064	; 0x810
  200c94:	43c1      	mvns	r1, r0
  200c96:	7011      	strb	r1, [r2, #0]
  200c98:	f640 1214 	movw	r2, #2324	; 0x914
  200c9c:	f04f 31ff 	mov.w	r1, #4294967295
  200ca0:	28ff      	cmp	r0, #255	; 0xff
  200ca2:	bf08      	it	eq
  200ca4:	f06f 0126 	mvneq.w	r1, #38	; 0x26
  200ca8:	2600      	movs	r6, #0
  200caa:	2004      	movs	r0, #4
  200cac:	f6c2 0c20 	movt	ip, #10272	; 0x2820
  200cb0:	f6c2 0220 	movt	r2, #10272	; 0x2820
  200cb4:	e595      	b.n	2007e2 <benchmark_picojpeg+0x20a>
  200cb6:	f640 0212 	movw	r2, #2066	; 0x812
  200cba:	f6c2 0220 	movt	r2, #10272	; 0x2820
  200cbe:	7811      	ldrb	r1, [r2, #0]
  200cc0:	f640 0c10 	movw	ip, #2064	; 0x810
  200cc4:	43c8      	mvns	r0, r1
  200cc6:	7010      	strb	r0, [r2, #0]
  200cc8:	f640 1214 	movw	r2, #2324	; 0x914
  200ccc:	f04f 30ff 	mov.w	r0, #4294967295
  200cd0:	2600      	movs	r6, #0
  200cd2:	f04f 0a04 	mov.w	sl, #4
  200cd6:	f6c2 0c20 	movt	ip, #10272	; 0x2820
  200cda:	f6c2 0220 	movt	r2, #10272	; 0x2820
  200cde:	29ff      	cmp	r1, #255	; 0xff
  200ce0:	bf08      	it	eq
  200ce2:	f06f 0026 	mvneq.w	r0, #38	; 0x26
  200ce6:	e62e      	b.n	200946 <benchmark_picojpeg+0x36e>
  200ce8:	f1ab 0b08 	sub.w	fp, fp, #8
  200cec:	ea4f 230a 	mov.w	r3, sl, lsl #8
  200cf0:	f88c b000 	strb.w	fp, [ip]
  200cf4:	f640 1016 	movw	r0, #2326	; 0x916
  200cf8:	f6c2 0020 	movt	r0, #10272	; 0x2820
  200cfc:	8003      	strh	r3, [r0, #0]
  200cfe:	fa1f f08a 	uxth.w	r0, sl
  200d02:	2100      	movs	r1, #0
  200d04:	ebb1 2f90 	cmp.w	r1, r0, lsr #10
  200d08:	ea4f 2210 	mov.w	r2, r0, lsr #8
  200d0c:	f240 0006 	movw	r0, #6
  200d10:	f6c2 0020 	movt	r0, #10272	; 0x2820
  200d14:	7002      	strb	r2, [r0, #0]
  200d16:	f040 827a 	bne.w	20120e <benchmark_picojpeg+0xc36>
  200d1a:	9808      	ldr	r0, [sp, #32]
  200d1c:	9909      	ldr	r1, [sp, #36]	; 0x24
  200d1e:	0a00      	lsrs	r0, r0, #8
  200d20:	0a09      	lsrs	r1, r1, #8
  200d22:	f361 201f 	bfi	r0, r1, #8, #24
  200d26:	eb02 0142 	add.w	r1, r2, r2, lsl #1
  200d2a:	b280      	uxth	r0, r0
  200d2c:	3108      	adds	r1, #8
  200d2e:	4281      	cmp	r1, r0
  200d30:	f040 826d 	bne.w	20120e <benchmark_picojpeg+0xc36>
  200d34:	2a00      	cmp	r2, #0
  200d36:	f000 826a 	beq.w	20120e <benchmark_picojpeg+0xc36>
  200d3a:	f640 1028 	movw	r0, #2344	; 0x928
  200d3e:	f6c2 0020 	movt	r0, #10272	; 0x2820
  200d42:	6800      	ldr	r0, [r0, #0]
  200d44:	9701      	str	r7, [sp, #4]
  200d46:	9004      	str	r0, [sp, #16]
  200d48:	f640 0012 	movw	r0, #2066	; 0x812
  200d4c:	f6c2 0020 	movt	r0, #10272	; 0x2820
  200d50:	7800      	ldrb	r0, [r0, #0]
  200d52:	f640 191b 	movw	r9, #2331	; 0x91b
  200d56:	9002      	str	r0, [sp, #8]
  200d58:	f640 1021 	movw	r0, #2337	; 0x921
  200d5c:	f240 341e 	movw	r4, #798	; 0x31e
  200d60:	f640 171e 	movw	r7, #2334	; 0x91e
  200d64:	f6c2 0020 	movt	r0, #10272	; 0x2820
  200d68:	f640 1e14 	movw	lr, #2324	; 0x914
  200d6c:	f8dd 8018 	ldr.w	r8, [sp, #24]
  200d70:	9503      	str	r5, [sp, #12]
  200d72:	f6c2 0920 	movt	r9, #10272	; 0x2820
  200d76:	f6c2 0420 	movt	r4, #10272	; 0x2820
  200d7a:	f6c2 0720 	movt	r7, #10272	; 0x2820
  200d7e:	9200      	str	r2, [sp, #0]
  200d80:	4615      	mov	r5, r2
  200d82:	9008      	str	r0, [sp, #32]
  200d84:	f6c2 0e20 	movt	lr, #10272	; 0x2820
  200d88:	9406      	str	r4, [sp, #24]
  200d8a:	fa5f f48b 	uxtb.w	r4, fp
  200d8e:	2c07      	cmp	r4, #7
  200d90:	9709      	str	r7, [sp, #36]	; 0x24
  200d92:	d806      	bhi.n	200da2 <benchmark_picojpeg+0x7ca>
  200d94:	0630      	lsls	r0, r6, #24
  200d96:	d00b      	beq.n	200db0 <benchmark_picojpeg+0x7d8>
  200d98:	f640 0111 	movw	r1, #2065	; 0x811
  200d9c:	f6c2 0120 	movt	r1, #10272	; 0x2820
  200da0:	e034      	b.n	200e0c <benchmark_picojpeg+0x834>
  200da2:	f1ab 0b08 	sub.w	fp, fp, #8
  200da6:	ea4f 2a03 	mov.w	sl, r3, lsl #8
  200daa:	f88c b000 	strb.w	fp, [ip]
  200dae:	e045      	b.n	200e3c <benchmark_picojpeg+0x864>
  200db0:	9f04      	ldr	r7, [sp, #16]
  200db2:	f240 203a 	movw	r0, #570	; 0x23a
  200db6:	f04f 0804 	mov.w	r8, #4
  200dba:	1bc6      	subs	r6, r0, r7
  200dbc:	20fc      	movs	r0, #252	; 0xfc
  200dbe:	f88e 8000 	strb.w	r8, [lr]
  200dc2:	2efc      	cmp	r6, #252	; 0xfc
  200dc4:	bf28      	it	cs
  200dc6:	4606      	movcs	r6, r0
  200dc8:	f247 106c 	movw	r0, #29036	; 0x716c
  200dcc:	f2c0 0020 	movt	r0, #32
  200dd0:	19c1      	adds	r1, r0, r7
  200dd2:	9807      	ldr	r0, [sp, #28]
  200dd4:	4632      	mov	r2, r6
  200dd6:	469a      	mov	sl, r3
  200dd8:	f7ff fb64 	bl	2004a4 <__rt_memcpy>
  200ddc:	0630      	lsls	r0, r6, #24
  200dde:	f640 0111 	movw	r1, #2065	; 0x811
  200de2:	f640 1028 	movw	r0, #2344	; 0x928
  200de6:	f6c2 0120 	movt	r1, #10272	; 0x2820
  200dea:	4437      	add	r7, r6
  200dec:	f6c2 0020 	movt	r0, #10272	; 0x2820
  200df0:	700e      	strb	r6, [r1, #0]
  200df2:	9704      	str	r7, [sp, #16]
  200df4:	6007      	str	r7, [r0, #0]
  200df6:	f000 816e 	beq.w	2010d6 <benchmark_picojpeg+0xafe>
  200dfa:	f640 0c10 	movw	ip, #2064	; 0x810
  200dfe:	f640 1e14 	movw	lr, #2324	; 0x914
  200e02:	f6c2 0c20 	movt	ip, #10272	; 0x2820
  200e06:	f6c2 0e20 	movt	lr, #10272	; 0x2820
  200e0a:	4653      	mov	r3, sl
  200e0c:	3e01      	subs	r6, #1
  200e0e:	f640 0214 	movw	r2, #2068	; 0x814
  200e12:	700e      	strb	r6, [r1, #0]
  200e14:	fa5f f188 	uxtb.w	r1, r8
  200e18:	f6c2 0220 	movt	r2, #10272	; 0x2820
  200e1c:	f108 0001 	add.w	r0, r8, #1
  200e20:	5c51      	ldrb	r1, [r2, r1]
  200e22:	f88e 0000 	strb.w	r0, [lr]
  200e26:	b29a      	uxth	r2, r3
  200e28:	b2c9      	uxtb	r1, r1
  200e2a:	40a2      	lsls	r2, r4
  200e2c:	461f      	mov	r7, r3
  200e2e:	f1c4 0308 	rsb	r3, r4, #8
  200e32:	4311      	orrs	r1, r2
  200e34:	fa01 fa03 	lsl.w	sl, r1, r3
  200e38:	463b      	mov	r3, r7
  200e3a:	4680      	mov	r8, r0
  200e3c:	fa5f f48b 	uxtb.w	r4, fp
  200e40:	0a18      	lsrs	r0, r3, #8
  200e42:	2c03      	cmp	r4, #3
  200e44:	f889 0000 	strb.w	r0, [r9]
  200e48:	9505      	str	r5, [sp, #20]
  200e4a:	d84e      	bhi.n	200eea <benchmark_picojpeg+0x912>
  200e4c:	f640 0111 	movw	r1, #2065	; 0x811
  200e50:	0630      	lsls	r0, r6, #24
  200e52:	f6c2 0120 	movt	r1, #10272	; 0x2820
  200e56:	d12b      	bne.n	200eb0 <benchmark_picojpeg+0x8d8>
  200e58:	9f04      	ldr	r7, [sp, #16]
  200e5a:	f240 203a 	movw	r0, #570	; 0x23a
  200e5e:	f04f 0804 	mov.w	r8, #4
  200e62:	1bc6      	subs	r6, r0, r7
  200e64:	20fc      	movs	r0, #252	; 0xfc
  200e66:	f88e 8000 	strb.w	r8, [lr]
  200e6a:	2efc      	cmp	r6, #252	; 0xfc
  200e6c:	bf28      	it	cs
  200e6e:	4606      	movcs	r6, r0
  200e70:	f247 106c 	movw	r0, #29036	; 0x716c
  200e74:	f2c0 0020 	movt	r0, #32
  200e78:	19c1      	adds	r1, r0, r7
  200e7a:	9807      	ldr	r0, [sp, #28]
  200e7c:	4632      	mov	r2, r6
  200e7e:	f7ff fb11 	bl	2004a4 <__rt_memcpy>
  200e82:	0630      	lsls	r0, r6, #24
  200e84:	f640 0111 	movw	r1, #2065	; 0x811
  200e88:	f640 1028 	movw	r0, #2344	; 0x928
  200e8c:	f6c2 0120 	movt	r1, #10272	; 0x2820
  200e90:	4437      	add	r7, r6
  200e92:	f6c2 0020 	movt	r0, #10272	; 0x2820
  200e96:	700e      	strb	r6, [r1, #0]
  200e98:	9704      	str	r7, [sp, #16]
  200e9a:	6007      	str	r7, [r0, #0]
  200e9c:	f000 8137 	beq.w	20110e <benchmark_picojpeg+0xb36>
  200ea0:	f640 0c10 	movw	ip, #2064	; 0x810
  200ea4:	f640 1e14 	movw	lr, #2324	; 0x914
  200ea8:	f6c2 0c20 	movt	ip, #10272	; 0x2820
  200eac:	f6c2 0e20 	movt	lr, #10272	; 0x2820
  200eb0:	f640 0214 	movw	r2, #2068	; 0x814
  200eb4:	3e01      	subs	r6, #1
  200eb6:	fa5f f088 	uxtb.w	r0, r8
  200eba:	f6c2 0220 	movt	r2, #10272	; 0x2820
  200ebe:	700e      	strb	r6, [r1, #0]
  200ec0:	f108 0101 	add.w	r1, r8, #1
  200ec4:	5c10      	ldrb	r0, [r2, r0]
  200ec6:	f88e 1000 	strb.w	r1, [lr]
  200eca:	fa1f f28a 	uxth.w	r2, sl
  200ece:	b2c0      	uxtb	r0, r0
  200ed0:	fa02 f304 	lsl.w	r3, r2, r4
  200ed4:	f1c4 0704 	rsb	r7, r4, #4
  200ed8:	4318      	orrs	r0, r3
  200eda:	40b8      	lsls	r0, r7
  200edc:	9f09      	ldr	r7, [sp, #36]	; 0x24
  200ede:	f10b 0404 	add.w	r4, fp, #4
  200ee2:	0b12      	lsrs	r2, r2, #12
  200ee4:	4688      	mov	r8, r1
  200ee6:	703a      	strb	r2, [r7, #0]
  200ee8:	e063      	b.n	200fb2 <benchmark_picojpeg+0x9da>
  200eea:	f1ab 0404 	sub.w	r4, fp, #4
  200eee:	fa1f f18a 	uxth.w	r1, sl
  200ef2:	b2e5      	uxtb	r5, r4
  200ef4:	9f09      	ldr	r7, [sp, #36]	; 0x24
  200ef6:	ea4f 100a 	mov.w	r0, sl, lsl #4
  200efa:	0b09      	lsrs	r1, r1, #12
  200efc:	2d03      	cmp	r5, #3
  200efe:	7039      	strb	r1, [r7, #0]
  200f00:	d857      	bhi.n	200fb2 <benchmark_picojpeg+0x9da>
  200f02:	b287      	uxth	r7, r0
  200f04:	f640 0311 	movw	r3, #2065	; 0x811
  200f08:	0630      	lsls	r0, r6, #24
  200f0a:	fa07 fb05 	lsl.w	fp, r7, r5
  200f0e:	f6c2 0320 	movt	r3, #10272	; 0x2820
  200f12:	d12e      	bne.n	200f72 <benchmark_picojpeg+0x99a>
  200f14:	46ba      	mov	sl, r7
  200f16:	2004      	movs	r0, #4
  200f18:	9f04      	ldr	r7, [sp, #16]
  200f1a:	f88e 0000 	strb.w	r0, [lr]
  200f1e:	f240 203a 	movw	r0, #570	; 0x23a
  200f22:	1bc6      	subs	r6, r0, r7
  200f24:	20fc      	movs	r0, #252	; 0xfc
  200f26:	2efc      	cmp	r6, #252	; 0xfc
  200f28:	bf28      	it	cs
  200f2a:	4606      	movcs	r6, r0
  200f2c:	f247 106c 	movw	r0, #29036	; 0x716c
  200f30:	f2c0 0020 	movt	r0, #32
  200f34:	19c1      	adds	r1, r0, r7
  200f36:	9807      	ldr	r0, [sp, #28]
  200f38:	4632      	mov	r2, r6
  200f3a:	f04f 0804 	mov.w	r8, #4
  200f3e:	f7ff fab1 	bl	2004a4 <__rt_memcpy>
  200f42:	0630      	lsls	r0, r6, #24
  200f44:	f640 0311 	movw	r3, #2065	; 0x811
  200f48:	f640 1028 	movw	r0, #2344	; 0x928
  200f4c:	f6c2 0320 	movt	r3, #10272	; 0x2820
  200f50:	4437      	add	r7, r6
  200f52:	f6c2 0020 	movt	r0, #10272	; 0x2820
  200f56:	701e      	strb	r6, [r3, #0]
  200f58:	9704      	str	r7, [sp, #16]
  200f5a:	6007      	str	r7, [r0, #0]
  200f5c:	f000 80f2 	beq.w	201144 <benchmark_picojpeg+0xb6c>
  200f60:	f640 0c10 	movw	ip, #2064	; 0x810
  200f64:	f640 1e14 	movw	lr, #2324	; 0x914
  200f68:	f6c2 0c20 	movt	ip, #10272	; 0x2820
  200f6c:	f6c2 0e20 	movt	lr, #10272	; 0x2820
  200f70:	4657      	mov	r7, sl
  200f72:	f640 0214 	movw	r2, #2068	; 0x814
  200f76:	fa5f f188 	uxtb.w	r1, r8
  200f7a:	f6c2 0220 	movt	r2, #10272	; 0x2820
  200f7e:	3e01      	subs	r6, #1
  200f80:	f108 0001 	add.w	r0, r8, #1
  200f84:	5c51      	ldrb	r1, [r2, r1]
  200f86:	701e      	strb	r6, [r3, #0]
  200f88:	f88e 0000 	strb.w	r0, [lr]
  200f8c:	b2c9      	uxtb	r1, r1
  200f8e:	f1c5 0204 	rsb	r2, r5, #4
  200f92:	ea41 010b 	orr.w	r1, r1, fp
  200f96:	fa01 fa02 	lsl.w	sl, r1, r2
  200f9a:	0b39      	lsrs	r1, r7, #12
  200f9c:	9d08      	ldr	r5, [sp, #32]
  200f9e:	9f09      	ldr	r7, [sp, #36]	; 0x24
  200fa0:	f104 0b04 	add.w	fp, r4, #4
  200fa4:	4680      	mov	r8, r0
  200fa6:	f88c b000 	strb.w	fp, [ip]
  200faa:	7029      	strb	r1, [r5, #0]
  200fac:	0630      	lsls	r0, r6, #24
  200fae:	d13f      	bne.n	201030 <benchmark_picojpeg+0xa58>
  200fb0:	e013      	b.n	200fda <benchmark_picojpeg+0xa02>
  200fb2:	f1a4 0b04 	sub.w	fp, r4, #4
  200fb6:	b282      	uxth	r2, r0
  200fb8:	9d08      	ldr	r5, [sp, #32]
  200fba:	fa5f f18b 	uxtb.w	r1, fp
  200fbe:	ea4f 1a00 	mov.w	sl, r0, lsl #4
  200fc2:	0b10      	lsrs	r0, r2, #12
  200fc4:	2907      	cmp	r1, #7
  200fc6:	f88c b000 	strb.w	fp, [ip]
  200fca:	7028      	strb	r0, [r5, #0]
  200fcc:	d84b      	bhi.n	201066 <benchmark_picojpeg+0xa8e>
  200fce:	f640 0311 	movw	r3, #2065	; 0x811
  200fd2:	f6c2 0320 	movt	r3, #10272	; 0x2820
  200fd6:	0630      	lsls	r0, r6, #24
  200fd8:	d12a      	bne.n	201030 <benchmark_picojpeg+0xa58>
  200fda:	9c04      	ldr	r4, [sp, #16]
  200fdc:	f240 203a 	movw	r0, #570	; 0x23a
  200fe0:	f04f 0804 	mov.w	r8, #4
  200fe4:	1b06      	subs	r6, r0, r4
  200fe6:	20fc      	movs	r0, #252	; 0xfc
  200fe8:	f88e 8000 	strb.w	r8, [lr]
  200fec:	2efc      	cmp	r6, #252	; 0xfc
  200fee:	bf28      	it	cs
  200ff0:	4606      	movcs	r6, r0
  200ff2:	f247 106c 	movw	r0, #29036	; 0x716c
  200ff6:	f2c0 0020 	movt	r0, #32
  200ffa:	1901      	adds	r1, r0, r4
  200ffc:	9807      	ldr	r0, [sp, #28]
  200ffe:	4632      	mov	r2, r6
  201000:	f7ff fa50 	bl	2004a4 <__rt_memcpy>
  201004:	0630      	lsls	r0, r6, #24
  201006:	f640 0311 	movw	r3, #2065	; 0x811
  20100a:	f640 1028 	movw	r0, #2344	; 0x928
  20100e:	f6c2 0320 	movt	r3, #10272	; 0x2820
  201012:	4434      	add	r4, r6
  201014:	f6c2 0020 	movt	r0, #10272	; 0x2820
  201018:	701e      	strb	r6, [r3, #0]
  20101a:	9404      	str	r4, [sp, #16]
  20101c:	6004      	str	r4, [r0, #0]
  20101e:	d03f      	beq.n	2010a0 <benchmark_picojpeg+0xac8>
  201020:	f640 0c10 	movw	ip, #2064	; 0x810
  201024:	f640 1e14 	movw	lr, #2324	; 0x914
  201028:	f6c2 0c20 	movt	ip, #10272	; 0x2820
  20102c:	f6c2 0e20 	movt	lr, #10272	; 0x2820
  201030:	f640 0214 	movw	r2, #2068	; 0x814
  201034:	fa5f f188 	uxtb.w	r1, r8
  201038:	f6c2 0220 	movt	r2, #10272	; 0x2820
  20103c:	9c06      	ldr	r4, [sp, #24]
  20103e:	3e01      	subs	r6, #1
  201040:	f108 0001 	add.w	r0, r8, #1
  201044:	5c51      	ldrb	r1, [r2, r1]
  201046:	701e      	strb	r6, [r3, #0]
  201048:	f88e 0000 	strb.w	r0, [lr]
  20104c:	fa1f f28a 	uxth.w	r2, sl
  201050:	fa5f f38b 	uxtb.w	r3, fp
  201054:	409a      	lsls	r2, r3
  201056:	b2c9      	uxtb	r1, r1
  201058:	f1c3 0308 	rsb	r3, r3, #8
  20105c:	4311      	orrs	r1, r2
  20105e:	fa01 f303 	lsl.w	r3, r1, r3
  201062:	4680      	mov	r8, r0
  201064:	e006      	b.n	201074 <benchmark_picojpeg+0xa9c>
  201066:	9c06      	ldr	r4, [sp, #24]
  201068:	f1ab 0b08 	sub.w	fp, fp, #8
  20106c:	ea4f 230a 	mov.w	r3, sl, lsl #8
  201070:	f88c b000 	strb.w	fp, [ip]
  201074:	fa1f f08a 	uxth.w	r0, sl
  201078:	ea4f 211a 	mov.w	r1, sl, lsr #8
  20107c:	f5b0 7f00 	cmp.w	r0, #512	; 0x200
  201080:	7021      	strb	r1, [r4, #0]
  201082:	f080 80bf 	bcs.w	201204 <benchmark_picojpeg+0xc2c>
  201086:	3501      	adds	r5, #1
  201088:	9508      	str	r5, [sp, #32]
  20108a:	9d05      	ldr	r5, [sp, #20]
  20108c:	3701      	adds	r7, #1
  20108e:	3d01      	subs	r5, #1
  201090:	f104 0401 	add.w	r4, r4, #1
  201094:	f109 0901 	add.w	r9, r9, #1
  201098:	f47f ae76 	bne.w	200d88 <benchmark_picojpeg+0x7b0>
  20109c:	f002 b880 	b.w	2031a0 <benchmark_picojpeg+0x2bc8>
  2010a0:	9802      	ldr	r0, [sp, #8]
  2010a2:	f04f 31ff 	mov.w	r1, #4294967295
  2010a6:	28ff      	cmp	r0, #255	; 0xff
  2010a8:	f080 02ff 	eor.w	r2, r0, #255	; 0xff
  2010ac:	f640 0012 	movw	r0, #2066	; 0x812
  2010b0:	f6c2 0020 	movt	r0, #10272	; 0x2820
  2010b4:	7002      	strb	r2, [r0, #0]
  2010b6:	bf08      	it	eq
  2010b8:	f06f 0126 	mvneq.w	r1, #38	; 0x26
  2010bc:	f640 0c10 	movw	ip, #2064	; 0x810
  2010c0:	f640 1e14 	movw	lr, #2324	; 0x914
  2010c4:	9c06      	ldr	r4, [sp, #24]
  2010c6:	2600      	movs	r6, #0
  2010c8:	2004      	movs	r0, #4
  2010ca:	f6c2 0c20 	movt	ip, #10272	; 0x2820
  2010ce:	f6c2 0e20 	movt	lr, #10272	; 0x2820
  2010d2:	9202      	str	r2, [sp, #8]
  2010d4:	e7ba      	b.n	20104c <benchmark_picojpeg+0xa74>
  2010d6:	9802      	ldr	r0, [sp, #8]
  2010d8:	f640 0c10 	movw	ip, #2064	; 0x810
  2010dc:	28ff      	cmp	r0, #255	; 0xff
  2010de:	f080 02ff 	eor.w	r2, r0, #255	; 0xff
  2010e2:	f640 0012 	movw	r0, #2066	; 0x812
  2010e6:	f6c2 0020 	movt	r0, #10272	; 0x2820
  2010ea:	f640 1e14 	movw	lr, #2324	; 0x914
  2010ee:	7002      	strb	r2, [r0, #0]
  2010f0:	f04f 31ff 	mov.w	r1, #4294967295
  2010f4:	f04f 0600 	mov.w	r6, #0
  2010f8:	bf08      	it	eq
  2010fa:	f06f 0126 	mvneq.w	r1, #38	; 0x26
  2010fe:	2004      	movs	r0, #4
  201100:	f6c2 0c20 	movt	ip, #10272	; 0x2820
  201104:	f6c2 0e20 	movt	lr, #10272	; 0x2820
  201108:	4653      	mov	r3, sl
  20110a:	9202      	str	r2, [sp, #8]
  20110c:	e68b      	b.n	200e26 <benchmark_picojpeg+0x84e>
  20110e:	9802      	ldr	r0, [sp, #8]
  201110:	f640 0c10 	movw	ip, #2064	; 0x810
  201114:	28ff      	cmp	r0, #255	; 0xff
  201116:	f080 02ff 	eor.w	r2, r0, #255	; 0xff
  20111a:	f640 0012 	movw	r0, #2066	; 0x812
  20111e:	f6c2 0020 	movt	r0, #10272	; 0x2820
  201122:	f640 1e14 	movw	lr, #2324	; 0x914
  201126:	7002      	strb	r2, [r0, #0]
  201128:	f04f 30ff 	mov.w	r0, #4294967295
  20112c:	f04f 0600 	mov.w	r6, #0
  201130:	bf08      	it	eq
  201132:	f06f 0026 	mvneq.w	r0, #38	; 0x26
  201136:	2104      	movs	r1, #4
  201138:	f6c2 0c20 	movt	ip, #10272	; 0x2820
  20113c:	f6c2 0e20 	movt	lr, #10272	; 0x2820
  201140:	9202      	str	r2, [sp, #8]
  201142:	e6c2      	b.n	200eca <benchmark_picojpeg+0x8f2>
  201144:	9802      	ldr	r0, [sp, #8]
  201146:	f640 0c10 	movw	ip, #2064	; 0x810
  20114a:	28ff      	cmp	r0, #255	; 0xff
  20114c:	f080 02ff 	eor.w	r2, r0, #255	; 0xff
  201150:	f640 0012 	movw	r0, #2066	; 0x812
  201154:	f6c2 0020 	movt	r0, #10272	; 0x2820
  201158:	f640 1e14 	movw	lr, #2324	; 0x914
  20115c:	7002      	strb	r2, [r0, #0]
  20115e:	f04f 31ff 	mov.w	r1, #4294967295
  201162:	f04f 0600 	mov.w	r6, #0
  201166:	bf08      	it	eq
  201168:	f06f 0126 	mvneq.w	r1, #38	; 0x26
  20116c:	2004      	movs	r0, #4
  20116e:	f6c2 0c20 	movt	ip, #10272	; 0x2820
  201172:	f6c2 0e20 	movt	lr, #10272	; 0x2820
  201176:	4657      	mov	r7, sl
  201178:	9202      	str	r2, [sp, #8]
  20117a:	e707      	b.n	200f8c <benchmark_picojpeg+0x9b4>
  20117c:	f640 0212 	movw	r2, #2066	; 0x812
  201180:	f6c2 0220 	movt	r2, #10272	; 0x2820
  201184:	7811      	ldrb	r1, [r2, #0]
  201186:	f640 0c10 	movw	ip, #2064	; 0x810
  20118a:	43c8      	mvns	r0, r1
  20118c:	7010      	strb	r0, [r2, #0]
  20118e:	f04f 30ff 	mov.w	r0, #4294967295
  201192:	29ff      	cmp	r1, #255	; 0xff
  201194:	bf08      	it	eq
  201196:	f06f 0026 	mvneq.w	r0, #38	; 0x26
  20119a:	2600      	movs	r6, #0
  20119c:	2104      	movs	r1, #4
  20119e:	f6c2 0c20 	movt	ip, #10272	; 0x2820
  2011a2:	464d      	mov	r5, r9
  2011a4:	f7ff bc1b 	b.w	2009de <benchmark_picojpeg+0x406>
  2011a8:	f640 0212 	movw	r2, #2066	; 0x812
  2011ac:	f6c2 0220 	movt	r2, #10272	; 0x2820
  2011b0:	7811      	ldrb	r1, [r2, #0]
  2011b2:	f640 0c10 	movw	ip, #2064	; 0x810
  2011b6:	43c8      	mvns	r0, r1
  2011b8:	7010      	strb	r0, [r2, #0]
  2011ba:	f04f 30ff 	mov.w	r0, #4294967295
  2011be:	29ff      	cmp	r1, #255	; 0xff
  2011c0:	bf08      	it	eq
  2011c2:	f06f 0026 	mvneq.w	r0, #38	; 0x26
  2011c6:	f640 1214 	movw	r2, #2324	; 0x914
  2011ca:	9d03      	ldr	r5, [sp, #12]
  2011cc:	2600      	movs	r6, #0
  2011ce:	2104      	movs	r1, #4
  2011d0:	f6c2 0c20 	movt	ip, #10272	; 0x2820
  2011d4:	f6c2 0220 	movt	r2, #10272	; 0x2820
  2011d8:	9106      	str	r1, [sp, #24]
  2011da:	e46a      	b.n	200ab2 <benchmark_picojpeg+0x4da>
  2011dc:	f640 0212 	movw	r2, #2066	; 0x812
  2011e0:	f6c2 0220 	movt	r2, #10272	; 0x2820
  2011e4:	7810      	ldrb	r0, [r2, #0]
  2011e6:	f640 0c10 	movw	ip, #2064	; 0x810
  2011ea:	43c1      	mvns	r1, r0
  2011ec:	7011      	strb	r1, [r2, #0]
  2011ee:	f04f 31ff 	mov.w	r1, #4294967295
  2011f2:	28ff      	cmp	r0, #255	; 0xff
  2011f4:	bf08      	it	eq
  2011f6:	f06f 0126 	mvneq.w	r1, #38	; 0x26
  2011fa:	2600      	movs	r6, #0
  2011fc:	2004      	movs	r0, #4
  2011fe:	f6c2 0c20 	movt	ip, #10272	; 0x2820
  201202:	e4a0      	b.n	200b46 <benchmark_picojpeg+0x56e>
  201204:	f640 1016 	movw	r0, #2326	; 0x916
  201208:	f6c2 0020 	movt	r0, #10272	; 0x2820
  20120c:	8003      	strh	r3, [r0, #0]
  20120e:	f640 1e14 	movw	lr, #2324	; 0x914
  201212:	f6c2 0e20 	movt	lr, #10272	; 0x2820
  201216:	f240 200e 	movw	r0, #526	; 0x20e
  20121a:	f6c2 0020 	movt	r0, #10272	; 0x2820
  20121e:	3820      	subs	r0, #32
  201220:	9003      	str	r0, [sp, #12]
  201222:	f240 100e 	movw	r0, #270	; 0x10e
  201226:	f6c2 0020 	movt	r0, #10272	; 0x2820
  20122a:	3820      	subs	r0, #32
  20122c:	9002      	str	r0, [sp, #8]
  20122e:	f240 000e 	movw	r0, #14
  201232:	f6c2 0020 	movt	r0, #10272	; 0x2820
  201236:	f640 0311 	movw	r3, #2065	; 0x811
  20123a:	3820      	subs	r0, #32
  20123c:	f6c2 0320 	movt	r3, #10272	; 0x2820
  201240:	9001      	str	r0, [sp, #4]
  201242:	bf00      	nop
  201244:	f240 0000 	movw	r0, #0
  201248:	f6c2 0020 	movt	r0, #10272	; 0x2820
  20124c:	f8b0 9000 	ldrh.w	r9, [r0]
  201250:	f240 3114 	movw	r1, #788	; 0x314
  201254:	f6c2 0120 	movt	r1, #10272	; 0x2820
  201258:	e012      	b.n	201280 <benchmark_picojpeg+0xca8>
  20125a:	bf00      	nop
  20125c:	f240 0000 	movw	r0, #0
  201260:	f6c2 0020 	movt	r0, #10272	; 0x2820
  201264:	f8b0 9000 	ldrh.w	r9, [r0]
  201268:	f240 3114 	movw	r1, #788	; 0x314
  20126c:	f6c2 0120 	movt	r1, #10272	; 0x2820
  201270:	f240 0000 	movw	r0, #0
  201274:	f1a9 0901 	sub.w	r9, r9, #1
  201278:	f6c2 0020 	movt	r0, #10272	; 0x2820
  20127c:	f8a0 9000 	strh.w	r9, [r0]
  201280:	ea5f 4009 	movs.w	r0, r9, lsl #16
  201284:	bf04      	itt	eq
  201286:	b00b      	addeq	sp, #44	; 0x2c
  201288:	e8bd 8ff0 	ldmiaeq.w	sp!, {r4, r5, r6, r7, r8, r9, sl, fp, pc}
  20128c:	f240 3012 	movw	r0, #786	; 0x312
  201290:	f6c2 0020 	movt	r0, #10272	; 0x2820
  201294:	f8b0 8000 	ldrh.w	r8, [r0]
  201298:	f1b8 0f00 	cmp.w	r8, #0
  20129c:	d005      	beq.n	2012aa <benchmark_picojpeg+0xcd2>
  20129e:	8808      	ldrh	r0, [r1, #0]
  2012a0:	2800      	cmp	r0, #0
  2012a2:	f001 8687 	beq.w	202fb4 <benchmark_picojpeg+0x29dc>
  2012a6:	3801      	subs	r0, #1
  2012a8:	8008      	strh	r0, [r1, #0]
  2012aa:	f240 3016 	movw	r0, #790	; 0x316
  2012ae:	f6c2 0020 	movt	r0, #10272	; 0x2820
  2012b2:	7800      	ldrb	r0, [r0, #0]
  2012b4:	2800      	cmp	r0, #0
  2012b6:	d0db      	beq.n	201270 <benchmark_picojpeg+0xc98>
  2012b8:	2200      	movs	r2, #0
  2012ba:	e014      	b.n	2012e6 <benchmark_picojpeg+0xd0e>
  2012bc:	f240 3016 	movw	r0, #790	; 0x316
  2012c0:	f6c2 0020 	movt	r0, #10272	; 0x2820
  2012c4:	9a06      	ldr	r2, [sp, #24]
  2012c6:	7800      	ldrb	r0, [r0, #0]
  2012c8:	3201      	adds	r2, #1
  2012ca:	f640 0c10 	movw	ip, #2064	; 0x810
  2012ce:	f640 1e14 	movw	lr, #2324	; 0x914
  2012d2:	f640 0311 	movw	r3, #2065	; 0x811
  2012d6:	4282      	cmp	r2, r0
  2012d8:	f6c2 0c20 	movt	ip, #10272	; 0x2820
  2012dc:	f6c2 0e20 	movt	lr, #10272	; 0x2820
  2012e0:	f6c2 0320 	movt	r3, #10272	; 0x2820
  2012e4:	d2ba      	bcs.n	20125c <benchmark_picojpeg+0xc84>
  2012e6:	f240 3018 	movw	r0, #792	; 0x318
  2012ea:	f6c2 0020 	movt	r0, #10272	; 0x2820
  2012ee:	5c85      	ldrb	r5, [r0, r2]
  2012f0:	f240 301e 	movw	r0, #798	; 0x31e
  2012f4:	f6c2 0020 	movt	r0, #10272	; 0x2820
  2012f8:	5d40      	ldrb	r0, [r0, r5]
  2012fa:	f240 3121 	movw	r1, #801	; 0x321
  2012fe:	2800      	cmp	r0, #0
  201300:	f240 3424 	movw	r4, #804	; 0x324
  201304:	f240 30a4 	movw	r0, #932	; 0x3a4
  201308:	f6c2 0120 	movt	r1, #10272	; 0x2820
  20130c:	f6c2 0420 	movt	r4, #10272	; 0x2820
  201310:	f6c2 0020 	movt	r0, #10272	; 0x2820
  201314:	5d49      	ldrb	r1, [r1, r5]
  201316:	bf08      	it	eq
  201318:	4604      	moveq	r4, r0
  20131a:	f240 4924 	movw	r9, #1060	; 0x424
  20131e:	f240 4074 	movw	r0, #1140	; 0x474
  201322:	f6c2 0920 	movt	r9, #10272	; 0x2820
  201326:	f6c2 0020 	movt	r0, #10272	; 0x2820
  20132a:	9408      	str	r4, [sp, #32]
  20132c:	2900      	cmp	r1, #0
  20132e:	bf08      	it	eq
  201330:	4681      	moveq	r9, r0
  201332:	f240 46c4 	movw	r6, #1220	; 0x4c4
  201336:	f240 40d4 	movw	r0, #1236	; 0x4d4
  20133a:	f6c2 0620 	movt	r6, #10272	; 0x2820
  20133e:	f6c2 0020 	movt	r0, #10272	; 0x2820
  201342:	bf08      	it	eq
  201344:	4606      	moveq	r6, r0
  201346:	f640 1116 	movw	r1, #2326	; 0x916
  20134a:	f89c 0000 	ldrb.w	r0, [ip]
  20134e:	f6c2 0120 	movt	r1, #10272	; 0x2820
  201352:	880c      	ldrh	r4, [r1, #0]
  201354:	9509      	str	r5, [sp, #36]	; 0x24
  201356:	e9cd 6205 	strd	r6, r2, [sp, #20]
  20135a:	b108      	cbz	r0, 201360 <benchmark_picojpeg+0xd88>
  20135c:	4621      	mov	r1, r4
  20135e:	e010      	b.n	201382 <benchmark_picojpeg+0xdaa>
  201360:	f002 ff22 	bl	2041a8 <getOctet>
  201364:	f640 0311 	movw	r3, #2065	; 0x811
  201368:	f640 1e14 	movw	lr, #2324	; 0x914
  20136c:	f640 0c10 	movw	ip, #2064	; 0x810
  201370:	f6c2 0320 	movt	r3, #10272	; 0x2820
  201374:	f6c2 0e20 	movt	lr, #10272	; 0x2820
  201378:	f6c2 0c20 	movt	ip, #10272	; 0x2820
  20137c:	ea44 0100 	orr.w	r1, r4, r0
  201380:	2008      	movs	r0, #8
  201382:	004d      	lsls	r5, r1, #1
  201384:	f640 1116 	movw	r1, #2326	; 0x916
  201388:	f6c2 0120 	movt	r1, #10272	; 0x2820
  20138c:	800d      	strh	r5, [r1, #0]
  20138e:	f640 1128 	movw	r1, #2344	; 0x928
  201392:	f6c2 0120 	movt	r1, #10272	; 0x2820
  201396:	f8d1 8000 	ldr.w	r8, [r1]
  20139a:	f640 0112 	movw	r1, #2066	; 0x812
  20139e:	f6c2 0120 	movt	r1, #10272	; 0x2820
  2013a2:	781e      	ldrb	r6, [r3, #0]
  2013a4:	f89e b000 	ldrb.w	fp, [lr]
  2013a8:	f891 a000 	ldrb.w	sl, [r1]
  2013ac:	0be4      	lsrs	r4, r4, #15
  2013ae:	3801      	subs	r0, #1
  2013b0:	2700      	movs	r7, #0
  2013b2:	f88c 0000 	strb.w	r0, [ip]
  2013b6:	e011      	b.n	2013dc <benchmark_picojpeg+0xe04>
  2013b8:	462a      	mov	r2, r5
  2013ba:	0429      	lsls	r1, r5, #16
  2013bc:	0055      	lsls	r5, r2, #1
  2013be:	f640 1216 	movw	r2, #2326	; 0x916
  2013c2:	f6c2 0220 	movt	r2, #10272	; 0x2820
  2013c6:	8015      	strh	r5, [r2, #0]
  2013c8:	0062      	lsls	r2, r4, #1
  2013ca:	3701      	adds	r7, #1
  2013cc:	ea42 74d1 	orr.w	r4, r2, r1, lsr #31
  2013d0:	3801      	subs	r0, #1
  2013d2:	2f10      	cmp	r7, #16
  2013d4:	f88c 0000 	strb.w	r0, [ip]
  2013d8:	f000 80f2 	beq.w	2015c0 <benchmark_picojpeg+0xfe8>
  2013dc:	eb09 0147 	add.w	r1, r9, r7, lsl #1
  2013e0:	b2a2      	uxth	r2, r4
  2013e2:	8c09      	ldrh	r1, [r1, #32]
  2013e4:	428a      	cmp	r2, r1
  2013e6:	d804      	bhi.n	2013f2 <benchmark_picojpeg+0xe1a>
  2013e8:	f64f 72ff 	movw	r2, #65535	; 0xffff
  2013ec:	4291      	cmp	r1, r2
  2013ee:	f040 80cd 	bne.w	20158c <benchmark_picojpeg+0xfb4>
  2013f2:	0601      	lsls	r1, r0, #24
  2013f4:	d1e0      	bne.n	2013b8 <benchmark_picojpeg+0xde0>
  2013f6:	0630      	lsls	r0, r6, #24
  2013f8:	d12b      	bne.n	201452 <benchmark_picojpeg+0xe7a>
  2013fa:	f240 203a 	movw	r0, #570	; 0x23a
  2013fe:	f04f 0b04 	mov.w	fp, #4
  201402:	eba0 0608 	sub.w	r6, r0, r8
  201406:	20fc      	movs	r0, #252	; 0xfc
  201408:	f88e b000 	strb.w	fp, [lr]
  20140c:	2efc      	cmp	r6, #252	; 0xfc
  20140e:	bf28      	it	cs
  201410:	4606      	movcs	r6, r0
  201412:	f247 106c 	movw	r0, #29036	; 0x716c
  201416:	f2c0 0020 	movt	r0, #32
  20141a:	eb00 0108 	add.w	r1, r0, r8
  20141e:	9807      	ldr	r0, [sp, #28]
  201420:	4632      	mov	r2, r6
  201422:	f7ff f83f 	bl	2004a4 <__rt_memcpy>
  201426:	0630      	lsls	r0, r6, #24
  201428:	f640 0311 	movw	r3, #2065	; 0x811
  20142c:	f640 1028 	movw	r0, #2344	; 0x928
  201430:	f6c2 0320 	movt	r3, #10272	; 0x2820
  201434:	44b0      	add	r8, r6
  201436:	f6c2 0020 	movt	r0, #10272	; 0x2820
  20143a:	701e      	strb	r6, [r3, #0]
  20143c:	f8c0 8000 	str.w	r8, [r0]
  201440:	d01a      	beq.n	201478 <benchmark_picojpeg+0xea0>
  201442:	f640 0c10 	movw	ip, #2064	; 0x810
  201446:	f640 1e14 	movw	lr, #2324	; 0x914
  20144a:	f6c2 0c20 	movt	ip, #10272	; 0x2820
  20144e:	f6c2 0e20 	movt	lr, #10272	; 0x2820
  201452:	f640 0114 	movw	r1, #2068	; 0x814
  201456:	fa5f f08b 	uxtb.w	r0, fp
  20145a:	f6c2 0120 	movt	r1, #10272	; 0x2820
  20145e:	5c08      	ldrb	r0, [r1, r0]
  201460:	3e01      	subs	r6, #1
  201462:	f10b 0b01 	add.w	fp, fp, #1
  201466:	28ff      	cmp	r0, #255	; 0xff
  201468:	701e      	strb	r6, [r3, #0]
  20146a:	f88e b000 	strb.w	fp, [lr]
  20146e:	f040 8087 	bne.w	201580 <benchmark_picojpeg+0xfa8>
  201472:	0630      	lsls	r0, r6, #24
  201474:	d148      	bne.n	201508 <benchmark_picojpeg+0xf30>
  201476:	e01b      	b.n	2014b0 <benchmark_picojpeg+0xed8>
  201478:	f640 0012 	movw	r0, #2066	; 0x812
  20147c:	f640 0c10 	movw	ip, #2064	; 0x810
  201480:	f08a 01ff 	eor.w	r1, sl, #255	; 0xff
  201484:	f1ba 0fff 	cmp.w	sl, #255	; 0xff
  201488:	f6c2 0020 	movt	r0, #10272	; 0x2820
  20148c:	f6c2 0c20 	movt	ip, #10272	; 0x2820
  201490:	7001      	strb	r1, [r0, #0]
  201492:	d108      	bne.n	2014a6 <benchmark_picojpeg+0xece>
  201494:	f640 1e14 	movw	lr, #2324	; 0x914
  201498:	20d9      	movs	r0, #217	; 0xd9
  20149a:	2600      	movs	r6, #0
  20149c:	f04f 0b04 	mov.w	fp, #4
  2014a0:	f6c2 0e20 	movt	lr, #10272	; 0x2820
  2014a4:	e06d      	b.n	201582 <benchmark_picojpeg+0xfaa>
  2014a6:	f640 1e14 	movw	lr, #2324	; 0x914
  2014aa:	468a      	mov	sl, r1
  2014ac:	f6c2 0e20 	movt	lr, #10272	; 0x2820
  2014b0:	f240 203a 	movw	r0, #570	; 0x23a
  2014b4:	f04f 0b04 	mov.w	fp, #4
  2014b8:	eba0 0608 	sub.w	r6, r0, r8
  2014bc:	20fc      	movs	r0, #252	; 0xfc
  2014be:	f88e b000 	strb.w	fp, [lr]
  2014c2:	2efc      	cmp	r6, #252	; 0xfc
  2014c4:	bf28      	it	cs
  2014c6:	4606      	movcs	r6, r0
  2014c8:	f247 106c 	movw	r0, #29036	; 0x716c
  2014cc:	f2c0 0020 	movt	r0, #32
  2014d0:	eb00 0108 	add.w	r1, r0, r8
  2014d4:	9807      	ldr	r0, [sp, #28]
  2014d6:	4632      	mov	r2, r6
  2014d8:	f7fe ffe4 	bl	2004a4 <__rt_memcpy>
  2014dc:	0630      	lsls	r0, r6, #24
  2014de:	f640 0311 	movw	r3, #2065	; 0x811
  2014e2:	f640 1028 	movw	r0, #2344	; 0x928
  2014e6:	f6c2 0320 	movt	r3, #10272	; 0x2820
  2014ea:	44b0      	add	r8, r6
  2014ec:	f6c2 0020 	movt	r0, #10272	; 0x2820
  2014f0:	701e      	strb	r6, [r3, #0]
  2014f2:	f8c0 8000 	str.w	r8, [r0]
  2014f6:	d017      	beq.n	201528 <benchmark_picojpeg+0xf50>
  2014f8:	f640 0c10 	movw	ip, #2064	; 0x810
  2014fc:	f640 1e14 	movw	lr, #2324	; 0x914
  201500:	f6c2 0c20 	movt	ip, #10272	; 0x2820
  201504:	f6c2 0e20 	movt	lr, #10272	; 0x2820
  201508:	f640 0114 	movw	r1, #2068	; 0x814
  20150c:	fa5f f08b 	uxtb.w	r0, fp
  201510:	f6c2 0120 	movt	r1, #10272	; 0x2820
  201514:	5c08      	ldrb	r0, [r1, r0]
  201516:	3e01      	subs	r6, #1
  201518:	f10b 0b01 	add.w	fp, fp, #1
  20151c:	701e      	strb	r6, [r3, #0]
  20151e:	f88e b000 	strb.w	fp, [lr]
  201522:	b9d8      	cbnz	r0, 20155c <benchmark_picojpeg+0xf84>
  201524:	20ff      	movs	r0, #255	; 0xff
  201526:	e02b      	b.n	201580 <benchmark_picojpeg+0xfa8>
  201528:	f640 0012 	movw	r0, #2066	; 0x812
  20152c:	f1ba 0fff 	cmp.w	sl, #255	; 0xff
  201530:	f08a 0aff 	eor.w	sl, sl, #255	; 0xff
  201534:	f6c2 0020 	movt	r0, #10272	; 0x2820
  201538:	f640 0c10 	movw	ip, #2064	; 0x810
  20153c:	f640 1e14 	movw	lr, #2324	; 0x914
  201540:	f880 a000 	strb.w	sl, [r0]
  201544:	f04f 30ff 	mov.w	r0, #4294967295
  201548:	f04f 0b04 	mov.w	fp, #4
  20154c:	bf08      	it	eq
  20154e:	f06f 0026 	mvneq.w	r0, #38	; 0x26
  201552:	2600      	movs	r6, #0
  201554:	f6c2 0c20 	movt	ip, #10272	; 0x2820
  201558:	f6c2 0e20 	movt	lr, #10272	; 0x2820
  20155c:	f1ab 0101 	sub.w	r1, fp, #1
  201560:	f640 0214 	movw	r2, #2068	; 0x814
  201564:	b2c9      	uxtb	r1, r1
  201566:	f6c2 0220 	movt	r2, #10272	; 0x2820
  20156a:	f1ab 0b02 	sub.w	fp, fp, #2
  20156e:	5450      	strb	r0, [r2, r1]
  201570:	fa5f f18b 	uxtb.w	r1, fp
  201574:	20ff      	movs	r0, #255	; 0xff
  201576:	3602      	adds	r6, #2
  201578:	f88e b000 	strb.w	fp, [lr]
  20157c:	5450      	strb	r0, [r2, r1]
  20157e:	701e      	strb	r6, [r3, #0]
  201580:	4651      	mov	r1, sl
  201582:	ea45 0200 	orr.w	r2, r5, r0
  201586:	2008      	movs	r0, #8
  201588:	468a      	mov	sl, r1
  20158a:	e716      	b.n	2013ba <benchmark_picojpeg+0xde2>
  20158c:	eb09 0007 	add.w	r0, r9, r7
  201590:	f890 0040 	ldrb.w	r0, [r0, #64]	; 0x40
  201594:	f819 1017 	ldrb.w	r1, [r9, r7, lsl #1]
  201598:	4420      	add	r0, r4
  20159a:	1a40      	subs	r0, r0, r1
  20159c:	9905      	ldr	r1, [sp, #20]
  20159e:	b2c0      	uxtb	r0, r0
  2015a0:	5c0c      	ldrb	r4, [r1, r0]
  2015a2:	f014 000f 	ands.w	r0, r4, #15
  2015a6:	d012      	beq.n	2015ce <benchmark_picojpeg+0xff6>
  2015a8:	f002 fdb2 	bl	204110 <getBits>
  2015ac:	f640 1e14 	movw	lr, #2324	; 0x914
  2015b0:	f640 0c10 	movw	ip, #2064	; 0x810
  2015b4:	f6c2 0e20 	movt	lr, #10272	; 0x2820
  2015b8:	f6c2 0c20 	movt	ip, #10272	; 0x2820
  2015bc:	e008      	b.n	2015d0 <benchmark_picojpeg+0xff8>
  2015be:	bf00      	nop
  2015c0:	f240 43ea 	movw	r3, #1258	; 0x4ea
  2015c4:	9d09      	ldr	r5, [sp, #36]	; 0x24
  2015c6:	2000      	movs	r0, #0
  2015c8:	f6c2 0320 	movt	r3, #10272	; 0x2820
  2015cc:	e018      	b.n	201600 <benchmark_picojpeg+0x1028>
  2015ce:	2000      	movs	r0, #0
  2015d0:	1e61      	subs	r1, r4, #1
  2015d2:	f240 43ea 	movw	r3, #1258	; 0x4ea
  2015d6:	9d09      	ldr	r5, [sp, #36]	; 0x24
  2015d8:	b2c9      	uxtb	r1, r1
  2015da:	f6c2 0320 	movt	r3, #10272	; 0x2820
  2015de:	290e      	cmp	r1, #14
  2015e0:	d80e      	bhi.n	201600 <benchmark_picojpeg+0x1028>
  2015e2:	f247 1230 	movw	r2, #28976	; 0x7130
  2015e6:	f2c0 0220 	movt	r2, #32
  2015ea:	f832 2011 	ldrh.w	r2, [r2, r1, lsl #1]
  2015ee:	4282      	cmp	r2, r0
  2015f0:	d906      	bls.n	201600 <benchmark_picojpeg+0x1028>
  2015f2:	f247 124e 	movw	r2, #29006	; 0x714e
  2015f6:	f2c0 0220 	movt	r2, #32
  2015fa:	f832 1011 	ldrh.w	r1, [r2, r1, lsl #1]
  2015fe:	4408      	add	r0, r1
  201600:	f240 42e4 	movw	r2, #1252	; 0x4e4
  201604:	f6c2 0220 	movt	r2, #10272	; 0x2820
  201608:	f832 1015 	ldrh.w	r1, [r2, r5, lsl #1]
  20160c:	f240 546e 	movw	r4, #1390	; 0x56e
  201610:	4408      	add	r0, r1
  201612:	9908      	ldr	r1, [sp, #32]
  201614:	f822 0015 	strh.w	r0, [r2, r5, lsl #1]
  201618:	8809      	ldrh	r1, [r1, #0]
  20161a:	f6c2 0420 	movt	r4, #10272	; 0x2820
  20161e:	fb01 f000 	mul.w	r0, r1, r0
  201622:	f240 516a 	movw	r1, #1386	; 0x56a
  201626:	f6c2 0120 	movt	r1, #10272	; 0x2820
  20162a:	5d49      	ldrb	r1, [r1, r5]
  20162c:	8018      	strh	r0, [r3, #0]
  20162e:	f240 50be 	movw	r0, #1470	; 0x5be
  201632:	2900      	cmp	r1, #0
  201634:	f6c2 0020 	movt	r0, #10272	; 0x2820
  201638:	bf08      	it	eq
  20163a:	4604      	moveq	r4, r0
  20163c:	f240 610e 	movw	r1, #1550	; 0x60e
  201640:	f6c2 0120 	movt	r1, #10272	; 0x2820
  201644:	f240 700e 	movw	r0, #1806	; 0x70e
  201648:	f04f 0601 	mov.w	r6, #1
  20164c:	f04f 0301 	mov.w	r3, #1
  201650:	f6c2 0020 	movt	r0, #10272	; 0x2820
  201654:	bf08      	it	eq
  201656:	4601      	moveq	r1, r0
  201658:	9104      	str	r1, [sp, #16]
  20165a:	f640 1116 	movw	r1, #2326	; 0x916
  20165e:	f89c 0000 	ldrb.w	r0, [ip]
  201662:	f6c2 0120 	movt	r1, #10272	; 0x2820
  201666:	880d      	ldrh	r5, [r1, #0]
  201668:	9309      	str	r3, [sp, #36]	; 0x24
  20166a:	9605      	str	r6, [sp, #20]
  20166c:	b110      	cbz	r0, 201674 <benchmark_picojpeg+0x109c>
  20166e:	4629      	mov	r1, r5
  201670:	e00d      	b.n	20168e <benchmark_picojpeg+0x10b6>
  201672:	bf00      	nop
  201674:	f002 fd98 	bl	2041a8 <getOctet>
  201678:	f640 1e14 	movw	lr, #2324	; 0x914
  20167c:	f640 0c10 	movw	ip, #2064	; 0x810
  201680:	f6c2 0e20 	movt	lr, #10272	; 0x2820
  201684:	f6c2 0c20 	movt	ip, #10272	; 0x2820
  201688:	ea45 0100 	orr.w	r1, r5, r0
  20168c:	2008      	movs	r0, #8
  20168e:	ea4f 0941 	mov.w	r9, r1, lsl #1
  201692:	f640 1116 	movw	r1, #2326	; 0x916
  201696:	f6c2 0120 	movt	r1, #10272	; 0x2820
  20169a:	f8a1 9000 	strh.w	r9, [r1]
  20169e:	f640 1128 	movw	r1, #2344	; 0x928
  2016a2:	f6c2 0120 	movt	r1, #10272	; 0x2820
  2016a6:	f640 0311 	movw	r3, #2065	; 0x811
  2016aa:	680f      	ldr	r7, [r1, #0]
  2016ac:	f640 0112 	movw	r1, #2066	; 0x812
  2016b0:	f6c2 0320 	movt	r3, #10272	; 0x2820
  2016b4:	f6c2 0120 	movt	r1, #10272	; 0x2820
  2016b8:	ea4f 3bd5 	mov.w	fp, r5, lsr #15
  2016bc:	781e      	ldrb	r6, [r3, #0]
  2016be:	f89e 5000 	ldrb.w	r5, [lr]
  2016c2:	f891 a000 	ldrb.w	sl, [r1]
  2016c6:	3801      	subs	r0, #1
  2016c8:	f04f 0800 	mov.w	r8, #0
  2016cc:	f88c 0000 	strb.w	r0, [ip]
  2016d0:	e018      	b.n	201704 <benchmark_picojpeg+0x112c>
  2016d2:	bf00      	nop
  2016d4:	464a      	mov	r2, r9
  2016d6:	ea4f 4109 	mov.w	r1, r9, lsl #16
  2016da:	ea4f 0942 	mov.w	r9, r2, lsl #1
  2016de:	f640 1216 	movw	r2, #2326	; 0x916
  2016e2:	f6c2 0220 	movt	r2, #10272	; 0x2820
  2016e6:	f8a2 9000 	strh.w	r9, [r2]
  2016ea:	ea4f 024b 	mov.w	r2, fp, lsl #1
  2016ee:	f108 0801 	add.w	r8, r8, #1
  2016f2:	ea42 7bd1 	orr.w	fp, r2, r1, lsr #31
  2016f6:	3801      	subs	r0, #1
  2016f8:	f1b8 0f10 	cmp.w	r8, #16
  2016fc:	f88c 0000 	strb.w	r0, [ip]
  201700:	f000 824c 	beq.w	201b9c <benchmark_picojpeg+0x15c4>
  201704:	eb04 0148 	add.w	r1, r4, r8, lsl #1
  201708:	fa1f f28b 	uxth.w	r2, fp
  20170c:	8c09      	ldrh	r1, [r1, #32]
  20170e:	428a      	cmp	r2, r1
  201710:	d804      	bhi.n	20171c <benchmark_picojpeg+0x1144>
  201712:	f64f 72ff 	movw	r2, #65535	; 0xffff
  201716:	4291      	cmp	r1, r2
  201718:	f040 80bc 	bne.w	201894 <benchmark_picojpeg+0x12bc>
  20171c:	0601      	lsls	r1, r0, #24
  20171e:	d1d9      	bne.n	2016d4 <benchmark_picojpeg+0x10fc>
  201720:	0630      	lsls	r0, r6, #24
  201722:	d127      	bne.n	201774 <benchmark_picojpeg+0x119c>
  201724:	f240 203a 	movw	r0, #570	; 0x23a
  201728:	2504      	movs	r5, #4
  20172a:	1bc6      	subs	r6, r0, r7
  20172c:	20fc      	movs	r0, #252	; 0xfc
  20172e:	f88e 5000 	strb.w	r5, [lr]
  201732:	2efc      	cmp	r6, #252	; 0xfc
  201734:	bf28      	it	cs
  201736:	4606      	movcs	r6, r0
  201738:	f247 106c 	movw	r0, #29036	; 0x716c
  20173c:	f2c0 0020 	movt	r0, #32
  201740:	19c1      	adds	r1, r0, r7
  201742:	9807      	ldr	r0, [sp, #28]
  201744:	4632      	mov	r2, r6
  201746:	f7fe fead 	bl	2004a4 <__rt_memcpy>
  20174a:	0630      	lsls	r0, r6, #24
  20174c:	f640 0311 	movw	r3, #2065	; 0x811
  201750:	f640 1028 	movw	r0, #2344	; 0x928
  201754:	f6c2 0320 	movt	r3, #10272	; 0x2820
  201758:	4437      	add	r7, r6
  20175a:	f6c2 0020 	movt	r0, #10272	; 0x2820
  20175e:	701e      	strb	r6, [r3, #0]
  201760:	6007      	str	r7, [r0, #0]
  201762:	d017      	beq.n	201794 <benchmark_picojpeg+0x11bc>
  201764:	f640 0c10 	movw	ip, #2064	; 0x810
  201768:	f640 1e14 	movw	lr, #2324	; 0x914
  20176c:	f6c2 0c20 	movt	ip, #10272	; 0x2820
  201770:	f6c2 0e20 	movt	lr, #10272	; 0x2820
  201774:	f640 0114 	movw	r1, #2068	; 0x814
  201778:	b2e8      	uxtb	r0, r5
  20177a:	f6c2 0120 	movt	r1, #10272	; 0x2820
  20177e:	5c08      	ldrb	r0, [r1, r0]
  201780:	3e01      	subs	r6, #1
  201782:	3501      	adds	r5, #1
  201784:	28ff      	cmp	r0, #255	; 0xff
  201786:	701e      	strb	r6, [r3, #0]
  201788:	f88e 5000 	strb.w	r5, [lr]
  20178c:	d17c      	bne.n	201888 <benchmark_picojpeg+0x12b0>
  20178e:	0630      	lsls	r0, r6, #24
  201790:	d143      	bne.n	20181a <benchmark_picojpeg+0x1242>
  201792:	e01a      	b.n	2017ca <benchmark_picojpeg+0x11f2>
  201794:	f640 0012 	movw	r0, #2066	; 0x812
  201798:	f640 0c10 	movw	ip, #2064	; 0x810
  20179c:	f08a 01ff 	eor.w	r1, sl, #255	; 0xff
  2017a0:	f1ba 0fff 	cmp.w	sl, #255	; 0xff
  2017a4:	f6c2 0020 	movt	r0, #10272	; 0x2820
  2017a8:	f6c2 0c20 	movt	ip, #10272	; 0x2820
  2017ac:	7001      	strb	r1, [r0, #0]
  2017ae:	d107      	bne.n	2017c0 <benchmark_picojpeg+0x11e8>
  2017b0:	f640 1e14 	movw	lr, #2324	; 0x914
  2017b4:	20d9      	movs	r0, #217	; 0xd9
  2017b6:	2600      	movs	r6, #0
  2017b8:	2504      	movs	r5, #4
  2017ba:	f6c2 0e20 	movt	lr, #10272	; 0x2820
  2017be:	e064      	b.n	20188a <benchmark_picojpeg+0x12b2>
  2017c0:	f640 1e14 	movw	lr, #2324	; 0x914
  2017c4:	468a      	mov	sl, r1
  2017c6:	f6c2 0e20 	movt	lr, #10272	; 0x2820
  2017ca:	f240 203a 	movw	r0, #570	; 0x23a
  2017ce:	2504      	movs	r5, #4
  2017d0:	1bc6      	subs	r6, r0, r7
  2017d2:	20fc      	movs	r0, #252	; 0xfc
  2017d4:	f88e 5000 	strb.w	r5, [lr]
  2017d8:	2efc      	cmp	r6, #252	; 0xfc
  2017da:	bf28      	it	cs
  2017dc:	4606      	movcs	r6, r0
  2017de:	f247 106c 	movw	r0, #29036	; 0x716c
  2017e2:	f2c0 0020 	movt	r0, #32
  2017e6:	19c1      	adds	r1, r0, r7
  2017e8:	9807      	ldr	r0, [sp, #28]
  2017ea:	4632      	mov	r2, r6
  2017ec:	f7fe fe5a 	bl	2004a4 <__rt_memcpy>
  2017f0:	0630      	lsls	r0, r6, #24
  2017f2:	f640 0311 	movw	r3, #2065	; 0x811
  2017f6:	f640 1028 	movw	r0, #2344	; 0x928
  2017fa:	f6c2 0320 	movt	r3, #10272	; 0x2820
  2017fe:	4437      	add	r7, r6
  201800:	f6c2 0020 	movt	r0, #10272	; 0x2820
  201804:	701e      	strb	r6, [r3, #0]
  201806:	6007      	str	r7, [r0, #0]
  201808:	d015      	beq.n	201836 <benchmark_picojpeg+0x125e>
  20180a:	f640 0c10 	movw	ip, #2064	; 0x810
  20180e:	f640 1e14 	movw	lr, #2324	; 0x914
  201812:	f6c2 0c20 	movt	ip, #10272	; 0x2820
  201816:	f6c2 0e20 	movt	lr, #10272	; 0x2820
  20181a:	f640 0114 	movw	r1, #2068	; 0x814
  20181e:	b2e8      	uxtb	r0, r5
  201820:	f6c2 0120 	movt	r1, #10272	; 0x2820
  201824:	5c08      	ldrb	r0, [r1, r0]
  201826:	3e01      	subs	r6, #1
  201828:	3501      	adds	r5, #1
  20182a:	701e      	strb	r6, [r3, #0]
  20182c:	f88e 5000 	strb.w	r5, [lr]
  201830:	b9d8      	cbnz	r0, 20186a <benchmark_picojpeg+0x1292>
  201832:	20ff      	movs	r0, #255	; 0xff
  201834:	e028      	b.n	201888 <benchmark_picojpeg+0x12b0>
  201836:	f640 0012 	movw	r0, #2066	; 0x812
  20183a:	f1ba 0fff 	cmp.w	sl, #255	; 0xff
  20183e:	f08a 0aff 	eor.w	sl, sl, #255	; 0xff
  201842:	f6c2 0020 	movt	r0, #10272	; 0x2820
  201846:	f640 0c10 	movw	ip, #2064	; 0x810
  20184a:	f640 1e14 	movw	lr, #2324	; 0x914
  20184e:	f880 a000 	strb.w	sl, [r0]
  201852:	f04f 30ff 	mov.w	r0, #4294967295
  201856:	f04f 0504 	mov.w	r5, #4
  20185a:	bf08      	it	eq
  20185c:	f06f 0026 	mvneq.w	r0, #38	; 0x26
  201860:	2600      	movs	r6, #0
  201862:	f6c2 0c20 	movt	ip, #10272	; 0x2820
  201866:	f6c2 0e20 	movt	lr, #10272	; 0x2820
  20186a:	1e69      	subs	r1, r5, #1
  20186c:	f640 0214 	movw	r2, #2068	; 0x814
  201870:	b2c9      	uxtb	r1, r1
  201872:	f6c2 0220 	movt	r2, #10272	; 0x2820
  201876:	3d02      	subs	r5, #2
  201878:	5450      	strb	r0, [r2, r1]
  20187a:	b2e9      	uxtb	r1, r5
  20187c:	20ff      	movs	r0, #255	; 0xff
  20187e:	3602      	adds	r6, #2
  201880:	f88e 5000 	strb.w	r5, [lr]
  201884:	5450      	strb	r0, [r2, r1]
  201886:	701e      	strb	r6, [r3, #0]
  201888:	4651      	mov	r1, sl
  20188a:	ea49 0200 	orr.w	r2, r9, r0
  20188e:	2008      	movs	r0, #8
  201890:	468a      	mov	sl, r1
  201892:	e720      	b.n	2016d6 <benchmark_picojpeg+0x10fe>
  201894:	eb04 0008 	add.w	r0, r4, r8
  201898:	f890 0040 	ldrb.w	r0, [r0, #64]	; 0x40
  20189c:	f814 1018 	ldrb.w	r1, [r4, r8, lsl #1]
  2018a0:	4458      	add	r0, fp
  2018a2:	1a40      	subs	r0, r0, r1
  2018a4:	9904      	ldr	r1, [sp, #16]
  2018a6:	b2c0      	uxtb	r0, r0
  2018a8:	5c0d      	ldrb	r5, [r1, r0]
  2018aa:	f015 000f 	ands.w	r0, r5, #15
  2018ae:	f000 80e7 	beq.w	201a80 <benchmark_picojpeg+0x14a8>
  2018b2:	f002 fc2d 	bl	204110 <getBits>
  2018b6:	092a      	lsrs	r2, r5, #4
  2018b8:	f000 8136 	beq.w	201b28 <benchmark_picojpeg+0x1550>
  2018bc:	9905      	ldr	r1, [sp, #20]
  2018be:	f640 0c10 	movw	ip, #2064	; 0x810
  2018c2:	4411      	add	r1, r2
  2018c4:	f640 1e14 	movw	lr, #2324	; 0x914
  2018c8:	f640 0311 	movw	r3, #2065	; 0x811
  2018cc:	f8dd 8024 	ldr.w	r8, [sp, #36]	; 0x24
  2018d0:	293f      	cmp	r1, #63	; 0x3f
  2018d2:	f6c2 0c20 	movt	ip, #10272	; 0x2820
  2018d6:	f6c2 0e20 	movt	lr, #10272	; 0x2820
  2018da:	f6c2 0320 	movt	r3, #10272	; 0x2820
  2018de:	f04f 0a80 	mov.w	sl, #128	; 0x80
  2018e2:	f63f acaf 	bhi.w	201244 <benchmark_picojpeg+0xc6c>
  2018e6:	f247 06f0 	movw	r6, #28912	; 0x70f0
  2018ea:	fa5f f388 	uxtb.w	r3, r8
  2018ee:	f2c0 0620 	movt	r6, #32
  2018f2:	56f3      	ldrsb	r3, [r6, r3]
  2018f4:	f240 49ea 	movw	r9, #1258	; 0x4ea
  2018f8:	f108 0101 	add.w	r1, r8, #1
  2018fc:	2a01      	cmp	r2, #1
  2018fe:	f04f 0600 	mov.w	r6, #0
  201902:	f6c2 0920 	movt	r9, #10272	; 0x2820
  201906:	f829 6013 	strh.w	r6, [r9, r3, lsl #1]
  20190a:	f000 811c 	beq.w	201b46 <benchmark_picojpeg+0x156e>
  20190e:	f247 03f0 	movw	r3, #28912	; 0x70f0
  201912:	b2c9      	uxtb	r1, r1
  201914:	f2c0 0320 	movt	r3, #32
  201918:	5659      	ldrsb	r1, [r3, r1]
  20191a:	f108 0302 	add.w	r3, r8, #2
  20191e:	f829 6011 	strh.w	r6, [r9, r1, lsl #1]
  201922:	2a02      	cmp	r2, #2
  201924:	4619      	mov	r1, r3
  201926:	f000 810e 	beq.w	201b46 <benchmark_picojpeg+0x156e>
  20192a:	f247 07f0 	movw	r7, #28912	; 0x70f0
  20192e:	b2db      	uxtb	r3, r3
  201930:	f2c0 0720 	movt	r7, #32
  201934:	56fb      	ldrsb	r3, [r7, r3]
  201936:	f108 0103 	add.w	r1, r8, #3
  20193a:	2a03      	cmp	r2, #3
  20193c:	f829 6013 	strh.w	r6, [r9, r3, lsl #1]
  201940:	f000 8101 	beq.w	201b46 <benchmark_picojpeg+0x156e>
  201944:	f247 03f0 	movw	r3, #28912	; 0x70f0
  201948:	b2c9      	uxtb	r1, r1
  20194a:	f2c0 0320 	movt	r3, #32
  20194e:	5659      	ldrsb	r1, [r3, r1]
  201950:	f108 0304 	add.w	r3, r8, #4
  201954:	f829 6011 	strh.w	r6, [r9, r1, lsl #1]
  201958:	2a04      	cmp	r2, #4
  20195a:	4619      	mov	r1, r3
  20195c:	f000 80f3 	beq.w	201b46 <benchmark_picojpeg+0x156e>
  201960:	f247 07f0 	movw	r7, #28912	; 0x70f0
  201964:	b2db      	uxtb	r3, r3
  201966:	f2c0 0720 	movt	r7, #32
  20196a:	56fb      	ldrsb	r3, [r7, r3]
  20196c:	f108 0105 	add.w	r1, r8, #5
  201970:	2a05      	cmp	r2, #5
  201972:	f829 6013 	strh.w	r6, [r9, r3, lsl #1]
  201976:	f000 80e6 	beq.w	201b46 <benchmark_picojpeg+0x156e>
  20197a:	f247 03f0 	movw	r3, #28912	; 0x70f0
  20197e:	b2c9      	uxtb	r1, r1
  201980:	f2c0 0320 	movt	r3, #32
  201984:	5659      	ldrsb	r1, [r3, r1]
  201986:	f108 0306 	add.w	r3, r8, #6
  20198a:	f829 6011 	strh.w	r6, [r9, r1, lsl #1]
  20198e:	2a06      	cmp	r2, #6
  201990:	4619      	mov	r1, r3
  201992:	f000 80d8 	beq.w	201b46 <benchmark_picojpeg+0x156e>
  201996:	f247 07f0 	movw	r7, #28912	; 0x70f0
  20199a:	b2db      	uxtb	r3, r3
  20199c:	f2c0 0720 	movt	r7, #32
  2019a0:	56fb      	ldrsb	r3, [r7, r3]
  2019a2:	f108 0107 	add.w	r1, r8, #7
  2019a6:	2a07      	cmp	r2, #7
  2019a8:	f829 6013 	strh.w	r6, [r9, r3, lsl #1]
  2019ac:	f000 80cb 	beq.w	201b46 <benchmark_picojpeg+0x156e>
  2019b0:	f247 03f0 	movw	r3, #28912	; 0x70f0
  2019b4:	b2c9      	uxtb	r1, r1
  2019b6:	f2c0 0320 	movt	r3, #32
  2019ba:	5659      	ldrsb	r1, [r3, r1]
  2019bc:	f108 0308 	add.w	r3, r8, #8
  2019c0:	f829 6011 	strh.w	r6, [r9, r1, lsl #1]
  2019c4:	2a08      	cmp	r2, #8
  2019c6:	4619      	mov	r1, r3
  2019c8:	f000 80bd 	beq.w	201b46 <benchmark_picojpeg+0x156e>
  2019cc:	f247 07f0 	movw	r7, #28912	; 0x70f0
  2019d0:	b2db      	uxtb	r3, r3
  2019d2:	f2c0 0720 	movt	r7, #32
  2019d6:	56fb      	ldrsb	r3, [r7, r3]
  2019d8:	f108 0109 	add.w	r1, r8, #9
  2019dc:	2a09      	cmp	r2, #9
  2019de:	f829 6013 	strh.w	r6, [r9, r3, lsl #1]
  2019e2:	f000 80b0 	beq.w	201b46 <benchmark_picojpeg+0x156e>
  2019e6:	f247 03f0 	movw	r3, #28912	; 0x70f0
  2019ea:	b2c9      	uxtb	r1, r1
  2019ec:	f2c0 0320 	movt	r3, #32
  2019f0:	5659      	ldrsb	r1, [r3, r1]
  2019f2:	f108 030a 	add.w	r3, r8, #10
  2019f6:	f829 6011 	strh.w	r6, [r9, r1, lsl #1]
  2019fa:	2a0a      	cmp	r2, #10
  2019fc:	4619      	mov	r1, r3
  2019fe:	f000 80a2 	beq.w	201b46 <benchmark_picojpeg+0x156e>
  201a02:	f247 07f0 	movw	r7, #28912	; 0x70f0
  201a06:	b2db      	uxtb	r3, r3
  201a08:	f2c0 0720 	movt	r7, #32
  201a0c:	56fb      	ldrsb	r3, [r7, r3]
  201a0e:	f108 010b 	add.w	r1, r8, #11
  201a12:	2a0b      	cmp	r2, #11
  201a14:	f829 6013 	strh.w	r6, [r9, r3, lsl #1]
  201a18:	f000 8095 	beq.w	201b46 <benchmark_picojpeg+0x156e>
  201a1c:	f247 03f0 	movw	r3, #28912	; 0x70f0
  201a20:	b2c9      	uxtb	r1, r1
  201a22:	f2c0 0320 	movt	r3, #32
  201a26:	5659      	ldrsb	r1, [r3, r1]
  201a28:	f108 030c 	add.w	r3, r8, #12
  201a2c:	f829 6011 	strh.w	r6, [r9, r1, lsl #1]
  201a30:	2a0c      	cmp	r2, #12
  201a32:	4619      	mov	r1, r3
  201a34:	f000 8087 	beq.w	201b46 <benchmark_picojpeg+0x156e>
  201a38:	f247 07f0 	movw	r7, #28912	; 0x70f0
  201a3c:	b2db      	uxtb	r3, r3
  201a3e:	f2c0 0720 	movt	r7, #32
  201a42:	56fb      	ldrsb	r3, [r7, r3]
  201a44:	f108 010d 	add.w	r1, r8, #13
  201a48:	2a0d      	cmp	r2, #13
  201a4a:	f829 6013 	strh.w	r6, [r9, r3, lsl #1]
  201a4e:	d07a      	beq.n	201b46 <benchmark_picojpeg+0x156e>
  201a50:	f247 03f0 	movw	r3, #28912	; 0x70f0
  201a54:	b2c9      	uxtb	r1, r1
  201a56:	f2c0 0320 	movt	r3, #32
  201a5a:	5659      	ldrsb	r1, [r3, r1]
  201a5c:	f108 030e 	add.w	r3, r8, #14
  201a60:	f829 6011 	strh.w	r6, [r9, r1, lsl #1]
  201a64:	2a0e      	cmp	r2, #14
  201a66:	4619      	mov	r1, r3
  201a68:	d06d      	beq.n	201b46 <benchmark_picojpeg+0x156e>
  201a6a:	f247 02f0 	movw	r2, #28912	; 0x70f0
  201a6e:	b2d9      	uxtb	r1, r3
  201a70:	f2c0 0220 	movt	r2, #32
  201a74:	5652      	ldrsb	r2, [r2, r1]
  201a76:	f108 010f 	add.w	r1, r8, #15
  201a7a:	f829 6012 	strh.w	r6, [r9, r2, lsl #1]
  201a7e:	e062      	b.n	201b46 <benchmark_picojpeg+0x156e>
  201a80:	2df0      	cmp	r5, #240	; 0xf0
  201a82:	f0c0 808b 	bcc.w	201b9c <benchmark_picojpeg+0x15c4>
  201a86:	9e09      	ldr	r6, [sp, #36]	; 0x24
  201a88:	f04f 0a80 	mov.w	sl, #128	; 0x80
  201a8c:	b2f0      	uxtb	r0, r6
  201a8e:	2830      	cmp	r0, #48	; 0x30
  201a90:	f63f abd8 	bhi.w	201244 <benchmark_picojpeg+0xc6c>
  201a94:	f247 05f0 	movw	r5, #28912	; 0x70f0
  201a98:	f2c0 0520 	movt	r5, #32
  201a9c:	fa55 f186 	uxtab	r1, r5, r6
  201aa0:	562a      	ldrsb	r2, [r5, r0]
  201aa2:	f240 49ea 	movw	r9, #1258	; 0x4ea
  201aa6:	2000      	movs	r0, #0
  201aa8:	f6c2 0920 	movt	r9, #10272	; 0x2820
  201aac:	f991 3001 	ldrsb.w	r3, [r1, #1]
  201ab0:	f829 0012 	strh.w	r0, [r9, r2, lsl #1]
  201ab4:	f991 2002 	ldrsb.w	r2, [r1, #2]
  201ab8:	f829 0013 	strh.w	r0, [r9, r3, lsl #1]
  201abc:	f991 3003 	ldrsb.w	r3, [r1, #3]
  201ac0:	f829 0012 	strh.w	r0, [r9, r2, lsl #1]
  201ac4:	f991 2004 	ldrsb.w	r2, [r1, #4]
  201ac8:	f829 0013 	strh.w	r0, [r9, r3, lsl #1]
  201acc:	f991 3005 	ldrsb.w	r3, [r1, #5]
  201ad0:	f829 0012 	strh.w	r0, [r9, r2, lsl #1]
  201ad4:	f991 2006 	ldrsb.w	r2, [r1, #6]
  201ad8:	f829 0013 	strh.w	r0, [r9, r3, lsl #1]
  201adc:	f991 3007 	ldrsb.w	r3, [r1, #7]
  201ae0:	f829 0012 	strh.w	r0, [r9, r2, lsl #1]
  201ae4:	f991 2008 	ldrsb.w	r2, [r1, #8]
  201ae8:	f829 0013 	strh.w	r0, [r9, r3, lsl #1]
  201aec:	f991 3009 	ldrsb.w	r3, [r1, #9]
  201af0:	f829 0012 	strh.w	r0, [r9, r2, lsl #1]
  201af4:	f991 200a 	ldrsb.w	r2, [r1, #10]
  201af8:	f829 0013 	strh.w	r0, [r9, r3, lsl #1]
  201afc:	f991 300b 	ldrsb.w	r3, [r1, #11]
  201b00:	f829 0012 	strh.w	r0, [r9, r2, lsl #1]
  201b04:	f991 200c 	ldrsb.w	r2, [r1, #12]
  201b08:	f829 0013 	strh.w	r0, [r9, r3, lsl #1]
  201b0c:	f991 300d 	ldrsb.w	r3, [r1, #13]
  201b10:	f829 0012 	strh.w	r0, [r9, r2, lsl #1]
  201b14:	f991 200e 	ldrsb.w	r2, [r1, #14]
  201b18:	f106 010f 	add.w	r1, r6, #15
  201b1c:	f829 0013 	strh.w	r0, [r9, r3, lsl #1]
  201b20:	f829 0012 	strh.w	r0, [r9, r2, lsl #1]
  201b24:	b2ca      	uxtb	r2, r1
  201b26:	e030      	b.n	201b8a <benchmark_picojpeg+0x15b2>
  201b28:	9909      	ldr	r1, [sp, #36]	; 0x24
  201b2a:	f640 0c10 	movw	ip, #2064	; 0x810
  201b2e:	f640 1e14 	movw	lr, #2324	; 0x914
  201b32:	f240 49ea 	movw	r9, #1258	; 0x4ea
  201b36:	f6c2 0c20 	movt	ip, #10272	; 0x2820
  201b3a:	f6c2 0e20 	movt	lr, #10272	; 0x2820
  201b3e:	f04f 0a80 	mov.w	sl, #128	; 0x80
  201b42:	f6c2 0920 	movt	r9, #10272	; 0x2820
  201b46:	f64f 73ff 	movw	r3, #65535	; 0xffff
  201b4a:	f5a3 7380 	sub.w	r3, r3, #256	; 0x100
  201b4e:	f085 0208 	eor.w	r2, r5, #8
  201b52:	b29b      	uxth	r3, r3
  201b54:	f002 020f 	and.w	r2, r2, #15
  201b58:	40d3      	lsrs	r3, r2
  201b5a:	07db      	lsls	r3, r3, #31
  201b5c:	d102      	bne.n	201b64 <benchmark_picojpeg+0x158c>
  201b5e:	f247 05f0 	movw	r5, #28912	; 0x70f0
  201b62:	e00a      	b.n	201b7a <benchmark_picojpeg+0x15a2>
  201b64:	a3df      	add	r3, pc, #892	; (adr r3, 201ee4 <benchmark_picojpeg+0x190c>)
  201b66:	f833 3012 	ldrh.w	r3, [r3, r2, lsl #1]
  201b6a:	f247 05f0 	movw	r5, #28912	; 0x70f0
  201b6e:	4283      	cmp	r3, r0
  201b70:	bf82      	ittt	hi
  201b72:	a3e4      	addhi	r3, pc, #912	; (adr r3, 201f04 <benchmark_picojpeg+0x192c>)
  201b74:	f833 2012 	ldrhhi.w	r2, [r3, r2, lsl #1]
  201b78:	4410      	addhi	r0, r2
  201b7a:	f2c0 0520 	movt	r5, #32
  201b7e:	9b08      	ldr	r3, [sp, #32]
  201b80:	b2ca      	uxtb	r2, r1
  201b82:	f833 3012 	ldrh.w	r3, [r3, r2, lsl #1]
  201b86:	fb03 f000 	mul.w	r0, r3, r0
  201b8a:	1c4b      	adds	r3, r1, #1
  201b8c:	56aa      	ldrsb	r2, [r5, r2]
  201b8e:	b2de      	uxtb	r6, r3
  201b90:	2e40      	cmp	r6, #64	; 0x40
  201b92:	f829 0012 	strh.w	r0, [r9, r2, lsl #1]
  201b96:	f4ff ad60 	bcc.w	20165a <benchmark_picojpeg+0x1082>
  201b9a:	e047      	b.n	201c2c <benchmark_picojpeg+0x1654>
  201b9c:	9d09      	ldr	r5, [sp, #36]	; 0x24
  201b9e:	4268      	negs	r0, r5
  201ba0:	f010 0203 	ands.w	r2, r0, #3
  201ba4:	b2e9      	uxtb	r1, r5
  201ba6:	d01b      	beq.n	201be0 <benchmark_picojpeg+0x1608>
  201ba8:	f247 06f0 	movw	r6, #28912	; 0x70f0
  201bac:	f2c0 0620 	movt	r6, #32
  201bb0:	5673      	ldrsb	r3, [r6, r1]
  201bb2:	f240 49ea 	movw	r9, #1258	; 0x4ea
  201bb6:	1c48      	adds	r0, r1, #1
  201bb8:	2a01      	cmp	r2, #1
  201bba:	f04f 0700 	mov.w	r7, #0
  201bbe:	f6c2 0920 	movt	r9, #10272	; 0x2820
  201bc2:	f829 7013 	strh.w	r7, [r9, r3, lsl #1]
  201bc6:	d015      	beq.n	201bf4 <benchmark_picojpeg+0x161c>
  201bc8:	5630      	ldrsb	r0, [r6, r0]
  201bca:	1c8b      	adds	r3, r1, #2
  201bcc:	f829 7010 	strh.w	r7, [r9, r0, lsl #1]
  201bd0:	2a02      	cmp	r2, #2
  201bd2:	4618      	mov	r0, r3
  201bd4:	d00e      	beq.n	201bf4 <benchmark_picojpeg+0x161c>
  201bd6:	56f2      	ldrsb	r2, [r6, r3]
  201bd8:	1cc8      	adds	r0, r1, #3
  201bda:	f829 7012 	strh.w	r7, [r9, r2, lsl #1]
  201bde:	e009      	b.n	201bf4 <benchmark_picojpeg+0x161c>
  201be0:	f240 49ea 	movw	r9, #1258	; 0x4ea
  201be4:	f247 06f0 	movw	r6, #28912	; 0x70f0
  201be8:	4608      	mov	r0, r1
  201bea:	2700      	movs	r7, #0
  201bec:	f6c2 0920 	movt	r9, #10272	; 0x2820
  201bf0:	f2c0 0620 	movt	r6, #32
  201bf4:	f1a5 013d 	sub.w	r1, r5, #61	; 0x3d
  201bf8:	b2c9      	uxtb	r1, r1
  201bfa:	2903      	cmp	r1, #3
  201bfc:	f04f 0a80 	mov.w	sl, #128	; 0x80
  201c00:	d314      	bcc.n	201c2c <benchmark_picojpeg+0x1654>
  201c02:	bf00      	nop
  201c04:	5631      	ldrsb	r1, [r6, r0]
  201c06:	1832      	adds	r2, r6, r0
  201c08:	f829 7011 	strh.w	r7, [r9, r1, lsl #1]
  201c0c:	f992 1001 	ldrsb.w	r1, [r2, #1]
  201c10:	3004      	adds	r0, #4
  201c12:	f992 3002 	ldrsb.w	r3, [r2, #2]
  201c16:	f829 7011 	strh.w	r7, [r9, r1, lsl #1]
  201c1a:	f992 1003 	ldrsb.w	r1, [r2, #3]
  201c1e:	b2c2      	uxtb	r2, r0
  201c20:	2a40      	cmp	r2, #64	; 0x40
  201c22:	f829 7013 	strh.w	r7, [r9, r3, lsl #1]
  201c26:	f829 7011 	strh.w	r7, [r9, r1, lsl #1]
  201c2a:	d1eb      	bne.n	201c04 <benchmark_picojpeg+0x162c>
  201c2c:	f04f 0c00 	mov.w	ip, #0
  201c30:	4649      	mov	r1, r9
  201c32:	e04f      	b.n	201cd4 <benchmark_picojpeg+0x16fc>
  201c34:	eba4 0a05 	sub.w	sl, r4, r5
  201c38:	442c      	add	r4, r5
  201c3a:	19c5      	adds	r5, r0, r7
  201c3c:	1a38      	subs	r0, r7, r0
  201c3e:	f04f 0b80 	mov.w	fp, #128	; 0x80
  201c42:	ebaa 0700 	sub.w	r7, sl, r0
  201c46:	22c4      	movs	r2, #196	; 0xc4
  201c48:	fb12 b707 	smlabb	r7, r2, r7, fp
  201c4c:	eba5 0804 	sub.w	r8, r5, r4
  201c50:	442c      	add	r4, r5
  201c52:	f240 1215 	movw	r2, #277	; 0x115
  201c56:	0a3d      	lsrs	r5, r7, #8
  201c58:	fb12 b000 	smlabb	r0, r2, r0, fp
  201c5c:	eb04 2717 	add.w	r7, r4, r7, lsr #8
  201c60:	f240 229d 	movw	r2, #669	; 0x29d
  201c64:	fb12 b20a 	smlabb	r2, r2, sl, fp
  201c68:	f44f 7ab5 	mov.w	sl, #362	; 0x16a
  201c6c:	ebc7 2010 	rsb	r0, r7, r0, lsr #8
  201c70:	fb1a b708 	smlabb	r7, sl, r8, fp
  201c74:	eba5 2212 	sub.w	r2, r5, r2, lsr #8
  201c78:	ebc0 2517 	rsb	r5, r0, r7, lsr #8
  201c7c:	880f      	ldrh	r7, [r1, #0]
  201c7e:	eb05 0802 	add.w	r8, r5, r2
  201c82:	18fa      	adds	r2, r7, r3
  201c84:	1afb      	subs	r3, r7, r3
  201c86:	ebae 0706 	sub.w	r7, lr, r6
  201c8a:	fb1a b707 	smlabb	r7, sl, r7, fp
  201c8e:	4476      	add	r6, lr
  201c90:	ebc6 2717 	rsb	r7, r6, r7, lsr #8
  201c94:	eb02 0e06 	add.w	lr, r2, r6
  201c98:	1b92      	subs	r2, r2, r6
  201c9a:	19de      	adds	r6, r3, r7
  201c9c:	1bdb      	subs	r3, r3, r7
  201c9e:	eb0e 0704 	add.w	r7, lr, r4
  201ca2:	800f      	strh	r7, [r1, #0]
  201ca4:	1837      	adds	r7, r6, r0
  201ca6:	804f      	strh	r7, [r1, #2]
  201ca8:	195f      	adds	r7, r3, r5
  201caa:	808f      	strh	r7, [r1, #4]
  201cac:	eba2 0708 	sub.w	r7, r2, r8
  201cb0:	4442      	add	r2, r8
  201cb2:	810a      	strh	r2, [r1, #8]
  201cb4:	1b5a      	subs	r2, r3, r5
  201cb6:	f04f 0a80 	mov.w	sl, #128	; 0x80
  201cba:	814a      	strh	r2, [r1, #10]
  201cbc:	1a30      	subs	r0, r6, r0
  201cbe:	ebae 0204 	sub.w	r2, lr, r4
  201cc2:	80cf      	strh	r7, [r1, #6]
  201cc4:	8188      	strh	r0, [r1, #12]
  201cc6:	81ca      	strh	r2, [r1, #14]
  201cc8:	3110      	adds	r1, #16
  201cca:	f1bc 0f07 	cmp.w	ip, #7
  201cce:	f10c 0c01 	add.w	ip, ip, #1
  201cd2:	d219      	bcs.n	201d08 <benchmark_picojpeg+0x1730>
  201cd4:	884f      	ldrh	r7, [r1, #2]
  201cd6:	f8b1 e004 	ldrh.w	lr, [r1, #4]
  201cda:	88cd      	ldrh	r5, [r1, #6]
  201cdc:	ea4e 0007 	orr.w	r0, lr, r7
  201ce0:	890b      	ldrh	r3, [r1, #8]
  201ce2:	4328      	orrs	r0, r5
  201ce4:	894c      	ldrh	r4, [r1, #10]
  201ce6:	4318      	orrs	r0, r3
  201ce8:	898e      	ldrh	r6, [r1, #12]
  201cea:	ea40 0204 	orr.w	r2, r0, r4
  201cee:	89c8      	ldrh	r0, [r1, #14]
  201cf0:	4332      	orrs	r2, r6
  201cf2:	4302      	orrs	r2, r0
  201cf4:	0412      	lsls	r2, r2, #16
  201cf6:	d19d      	bne.n	201c34 <benchmark_picojpeg+0x165c>
  201cf8:	880a      	ldrh	r2, [r1, #0]
  201cfa:	804a      	strh	r2, [r1, #2]
  201cfc:	808a      	strh	r2, [r1, #4]
  201cfe:	80ca      	strh	r2, [r1, #6]
  201d00:	810a      	strh	r2, [r1, #8]
  201d02:	814a      	strh	r2, [r1, #10]
  201d04:	818a      	strh	r2, [r1, #12]
  201d06:	e7de      	b.n	201cc6 <benchmark_picojpeg+0x16ee>
  201d08:	f04f 0b00 	mov.w	fp, #0
  201d0c:	4649      	mov	r1, r9
  201d0e:	e0b8      	b.n	201e82 <benchmark_picojpeg+0x18aa>
  201d10:	1bc2      	subs	r2, r0, r7
  201d12:	eb00 0c07 	add.w	ip, r0, r7
  201d16:	1b9f      	subs	r7, r3, r6
  201d18:	1bd0      	subs	r0, r2, r7
  201d1a:	24c4      	movs	r4, #196	; 0xc4
  201d1c:	fb14 a000 	smlabb	r0, r4, r0, sl
  201d20:	f240 249d 	movw	r4, #669	; 0x29d
  201d24:	fb14 a202 	smlabb	r2, r4, r2, sl
  201d28:	4433      	add	r3, r6
  201d2a:	0a06      	lsrs	r6, r0, #8
  201d2c:	f240 1415 	movw	r4, #277	; 0x115
  201d30:	eba6 2212 	sub.w	r2, r6, r2, lsr #8
  201d34:	eb03 060c 	add.w	r6, r3, ip
  201d38:	fb14 a707 	smlabb	r7, r4, r7, sl
  201d3c:	eb06 2010 	add.w	r0, r6, r0, lsr #8
  201d40:	eba3 030c 	sub.w	r3, r3, ip
  201d44:	f44f 78b5 	mov.w	r8, #362	; 0x16a
  201d48:	ebc0 2017 	rsb	r0, r0, r7, lsr #8
  201d4c:	fb18 a303 	smlabb	r3, r8, r3, sl
  201d50:	fa0f fc86 	sxth.w	ip, r6
  201d54:	ebc0 2713 	rsb	r7, r0, r3, lsr #8
  201d58:	b206      	sxth	r6, r0
  201d5a:	b238      	sxth	r0, r7
  201d5c:	443a      	add	r2, r7
  201d5e:	9008      	str	r0, [sp, #32]
  201d60:	8808      	ldrh	r0, [r1, #0]
  201d62:	9209      	str	r2, [sp, #36]	; 0x24
  201d64:	eb00 020e 	add.w	r2, r0, lr
  201d68:	eba9 0405 	sub.w	r4, r9, r5
  201d6c:	444d      	add	r5, r9
  201d6e:	eb02 0905 	add.w	r9, r2, r5
  201d72:	f04f 0a80 	mov.w	sl, #128	; 0x80
  201d76:	fa0c f389 	sxtah	r3, ip, r9
  201d7a:	fb18 a404 	smlabb	r4, r8, r4, sl
  201d7e:	3340      	adds	r3, #64	; 0x40
  201d80:	ebc5 2414 	rsb	r4, r5, r4, lsr #8
  201d84:	eb0a 13d3 	add.w	r3, sl, r3, lsr #7
  201d88:	eba0 000e 	sub.w	r0, r0, lr
  201d8c:	eb00 0e04 	add.w	lr, r0, r4
  201d90:	1b04      	subs	r4, r0, r4
  201d92:	b298      	uxth	r0, r3
  201d94:	b21f      	sxth	r7, r3
  201d96:	28ff      	cmp	r0, #255	; 0xff
  201d98:	bf88      	it	hi
  201d9a:	ea6f 33d7 	mvnhi.w	r3, r7, lsr #15
  201d9e:	fa06 f08e 	sxtah	r0, r6, lr
  201da2:	b2db      	uxtb	r3, r3
  201da4:	3040      	adds	r0, #64	; 0x40
  201da6:	eb0a 10d0 	add.w	r0, sl, r0, lsr #7
  201daa:	800b      	strh	r3, [r1, #0]
  201dac:	b283      	uxth	r3, r0
  201dae:	1b52      	subs	r2, r2, r5
  201db0:	b207      	sxth	r7, r0
  201db2:	2bff      	cmp	r3, #255	; 0xff
  201db4:	bf88      	it	hi
  201db6:	ea6f 30d7 	mvnhi.w	r0, r7, lsr #15
  201dba:	9d08      	ldr	r5, [sp, #32]
  201dbc:	b2c0      	uxtb	r0, r0
  201dbe:	fa05 f384 	sxtah	r3, r5, r4
  201dc2:	8208      	strh	r0, [r1, #16]
  201dc4:	3340      	adds	r3, #64	; 0x40
  201dc6:	eb0a 13d3 	add.w	r3, sl, r3, lsr #7
  201dca:	46b0      	mov	r8, r6
  201dcc:	b298      	uxth	r0, r3
  201dce:	b21f      	sxth	r7, r3
  201dd0:	28ff      	cmp	r0, #255	; 0xff
  201dd2:	bf88      	it	hi
  201dd4:	ea6f 33d7 	mvnhi.w	r3, r7, lsr #15
  201dd8:	9e09      	ldr	r6, [sp, #36]	; 0x24
  201dda:	b210      	sxth	r0, r2
  201ddc:	b237      	sxth	r7, r6
  201dde:	b2db      	uxtb	r3, r3
  201de0:	1bc0      	subs	r0, r0, r7
  201de2:	3040      	adds	r0, #64	; 0x40
  201de4:	eb0a 10d0 	add.w	r0, sl, r0, lsr #7
  201de8:	fa07 f282 	sxtah	r2, r7, r2
  201dec:	840b      	strh	r3, [r1, #32]
  201dee:	b283      	uxth	r3, r0
  201df0:	3240      	adds	r2, #64	; 0x40
  201df2:	b206      	sxth	r6, r0
  201df4:	2bff      	cmp	r3, #255	; 0xff
  201df6:	bf88      	it	hi
  201df8:	ea6f 30d6 	mvnhi.w	r0, r6, lsr #15
  201dfc:	eb0a 12d2 	add.w	r2, sl, r2, lsr #7
  201e00:	b2c0      	uxtb	r0, r0
  201e02:	8608      	strh	r0, [r1, #48]	; 0x30
  201e04:	b290      	uxth	r0, r2
  201e06:	f04f 0a80 	mov.w	sl, #128	; 0x80
  201e0a:	28ff      	cmp	r0, #255	; 0xff
  201e0c:	b220      	sxth	r0, r4
  201e0e:	b213      	sxth	r3, r2
  201e10:	bf88      	it	hi
  201e12:	ea6f 32d3 	mvnhi.w	r2, r3, lsr #15
  201e16:	1b40      	subs	r0, r0, r5
  201e18:	3040      	adds	r0, #64	; 0x40
  201e1a:	eb0a 10d0 	add.w	r0, sl, r0, lsr #7
  201e1e:	b2d2      	uxtb	r2, r2
  201e20:	f8a1 2040 	strh.w	r2, [r1, #64]	; 0x40
  201e24:	b282      	uxth	r2, r0
  201e26:	b203      	sxth	r3, r0
  201e28:	2aff      	cmp	r2, #255	; 0xff
  201e2a:	bf88      	it	hi
  201e2c:	ea6f 30d3 	mvnhi.w	r0, r3, lsr #15
  201e30:	fa0f f28e 	sxth.w	r2, lr
  201e34:	b2c0      	uxtb	r0, r0
  201e36:	eba2 0208 	sub.w	r2, r2, r8
  201e3a:	3240      	adds	r2, #64	; 0x40
  201e3c:	eb0a 12d2 	add.w	r2, sl, r2, lsr #7
  201e40:	f8a1 0050 	strh.w	r0, [r1, #80]	; 0x50
  201e44:	b290      	uxth	r0, r2
  201e46:	b213      	sxth	r3, r2
  201e48:	28ff      	cmp	r0, #255	; 0xff
  201e4a:	bf88      	it	hi
  201e4c:	ea6f 32d3 	mvnhi.w	r2, r3, lsr #15
  201e50:	fa0f f089 	sxth.w	r0, r9
  201e54:	b2d2      	uxtb	r2, r2
  201e56:	eba0 000c 	sub.w	r0, r0, ip
  201e5a:	3040      	adds	r0, #64	; 0x40
  201e5c:	eb0a 10d0 	add.w	r0, sl, r0, lsr #7
  201e60:	f8a1 2060 	strh.w	r2, [r1, #96]	; 0x60
  201e64:	b282      	uxth	r2, r0
  201e66:	b203      	sxth	r3, r0
  201e68:	2aff      	cmp	r2, #255	; 0xff
  201e6a:	bf88      	it	hi
  201e6c:	ea6f 30d3 	mvnhi.w	r0, r3, lsr #15
  201e70:	b2c2      	uxtb	r2, r0
  201e72:	f8a1 2070 	strh.w	r2, [r1, #112]	; 0x70
  201e76:	3102      	adds	r1, #2
  201e78:	f1bb 0f07 	cmp.w	fp, #7
  201e7c:	f10b 0b01 	add.w	fp, fp, #1
  201e80:	d250      	bcs.n	201f24 <benchmark_picojpeg+0x194c>
  201e82:	8a0b      	ldrh	r3, [r1, #16]
  201e84:	f8b1 9020 	ldrh.w	r9, [r1, #32]
  201e88:	8e0f      	ldrh	r7, [r1, #48]	; 0x30
  201e8a:	ea49 0003 	orr.w	r0, r9, r3
  201e8e:	f8b1 e040 	ldrh.w	lr, [r1, #64]	; 0x40
  201e92:	ea40 0607 	orr.w	r6, r0, r7
  201e96:	f8b1 0050 	ldrh.w	r0, [r1, #80]	; 0x50
  201e9a:	ea46 060e 	orr.w	r6, r6, lr
  201e9e:	f8b1 5060 	ldrh.w	r5, [r1, #96]	; 0x60
  201ea2:	ea46 0200 	orr.w	r2, r6, r0
  201ea6:	f8b1 6070 	ldrh.w	r6, [r1, #112]	; 0x70
  201eaa:	432a      	orrs	r2, r5
  201eac:	4332      	orrs	r2, r6
  201eae:	0412      	lsls	r2, r2, #16
  201eb0:	f47f af2e 	bne.w	201d10 <benchmark_picojpeg+0x1738>
  201eb4:	f9b1 0000 	ldrsh.w	r0, [r1]
  201eb8:	3040      	adds	r0, #64	; 0x40
  201eba:	eb0a 10d0 	add.w	r0, sl, r0, lsr #7
  201ebe:	b282      	uxth	r2, r0
  201ec0:	b203      	sxth	r3, r0
  201ec2:	2aff      	cmp	r2, #255	; 0xff
  201ec4:	bf88      	it	hi
  201ec6:	ea6f 30d3 	mvnhi.w	r0, r3, lsr #15
  201eca:	b2c2      	uxtb	r2, r0
  201ecc:	800a      	strh	r2, [r1, #0]
  201ece:	820a      	strh	r2, [r1, #16]
  201ed0:	840a      	strh	r2, [r1, #32]
  201ed2:	860a      	strh	r2, [r1, #48]	; 0x30
  201ed4:	f8a1 2040 	strh.w	r2, [r1, #64]	; 0x40
  201ed8:	f8a1 2050 	strh.w	r2, [r1, #80]	; 0x50
  201edc:	f8a1 2060 	strh.w	r2, [r1, #96]	; 0x60
  201ee0:	e7c7      	b.n	201e72 <benchmark_picojpeg+0x189a>
  201ee2:	bf00      	nop
  201ee4:	01000080 	.word	0x01000080
  201ee8:	04000200 	.word	0x04000200
  201eec:	10000800 	.word	0x10000800
  201ef0:	40002000 	.word	0x40002000
  201ef4:	00014000 	.word	0x00014000
  201ef8:	00040002 	.word	0x00040002
  201efc:	00100008 	.word	0x00100008
  201f00:	00400020 	.word	0x00400020
  201f04:	fe01ff01 	.word	0xfe01ff01
  201f08:	f801fc01 	.word	0xf801fc01
  201f0c:	e001f001 	.word	0xe001f001
  201f10:	8001c001 	.word	0x8001c001
  201f14:	ffff0000 	.word	0xffff0000
  201f18:	fff9fffd 	.word	0xfff9fffd
  201f1c:	ffe1fff1 	.word	0xffe1fff1
  201f20:	ff81ffc1 	.word	0xff81ffc1
  201f24:	f240 0007 	movw	r0, #7
  201f28:	f6c2 0020 	movt	r0, #10272	; 0x2820
  201f2c:	7800      	ldrb	r0, [r0, #0]
  201f2e:	2804      	cmp	r0, #4
  201f30:	f63f a9c4 	bhi.w	2012bc <benchmark_picojpeg+0xce4>
  201f34:	e8df f010 	tbh	[pc, r0, lsl #1]
  201f38:	02c60005 	.word	0x02c60005
  201f3c:	0216015c 	.word	0x0216015c
  201f40:	00aa      	.short	0x00aa
  201f42:	f240 40ea 	movw	r0, #1258	; 0x4ea
  201f46:	af01      	add	r7, sp, #4
  201f48:	f6c2 0020 	movt	r0, #10272	; 0x2820
  201f4c:	cf8c      	ldmia	r7, {r2, r3, r7}
  201f4e:	3840      	subs	r0, #64	; 0x40
  201f50:	f04f 0c40 	mov.w	ip, #64	; 0x40
  201f54:	f810 6f40 	ldrb.w	r6, [r0, #64]!
  201f58:	f1ac 0c20 	sub.w	ip, ip, #32
  201f5c:	f802 6f20 	strb.w	r6, [r2, #32]!
  201f60:	f803 6f20 	strb.w	r6, [r3, #32]!
  201f64:	f807 6f20 	strb.w	r6, [r7, #32]!
  201f68:	7a01      	ldrb	r1, [r0, #8]
  201f6a:	7886      	ldrb	r6, [r0, #2]
  201f6c:	7111      	strb	r1, [r2, #4]
  201f6e:	7119      	strb	r1, [r3, #4]
  201f70:	7139      	strb	r1, [r7, #4]
  201f72:	7a81      	ldrb	r1, [r0, #10]
  201f74:	7056      	strb	r6, [r2, #1]
  201f76:	7151      	strb	r1, [r2, #5]
  201f78:	7159      	strb	r1, [r3, #5]
  201f7a:	7179      	strb	r1, [r7, #5]
  201f7c:	7c81      	ldrb	r1, [r0, #18]
  201f7e:	705e      	strb	r6, [r3, #1]
  201f80:	707e      	strb	r6, [r7, #1]
  201f82:	7b06      	ldrb	r6, [r0, #12]
  201f84:	7251      	strb	r1, [r2, #9]
  201f86:	7259      	strb	r1, [r3, #9]
  201f88:	7279      	strb	r1, [r7, #9]
  201f8a:	7d01      	ldrb	r1, [r0, #20]
  201f8c:	7196      	strb	r6, [r2, #6]
  201f8e:	719e      	strb	r6, [r3, #6]
  201f90:	71be      	strb	r6, [r7, #6]
  201f92:	7d86      	ldrb	r6, [r0, #22]
  201f94:	7291      	strb	r1, [r2, #10]
  201f96:	7299      	strb	r1, [r3, #10]
  201f98:	72b9      	strb	r1, [r7, #10]
  201f9a:	7f01      	ldrb	r1, [r0, #28]
  201f9c:	72d6      	strb	r6, [r2, #11]
  201f9e:	72de      	strb	r6, [r3, #11]
  201fa0:	72fe      	strb	r6, [r7, #11]
  201fa2:	7f86      	ldrb	r6, [r0, #30]
  201fa4:	7391      	strb	r1, [r2, #14]
  201fa6:	7399      	strb	r1, [r3, #14]
  201fa8:	73b9      	strb	r1, [r7, #14]
  201faa:	f890 1020 	ldrb.w	r1, [r0, #32]
  201fae:	73d6      	strb	r6, [r2, #15]
  201fb0:	73de      	strb	r6, [r3, #15]
  201fb2:	73fe      	strb	r6, [r7, #15]
  201fb4:	f890 6022 	ldrb.w	r6, [r0, #34]	; 0x22
  201fb8:	7411      	strb	r1, [r2, #16]
  201fba:	7419      	strb	r1, [r3, #16]
  201fbc:	7439      	strb	r1, [r7, #16]
  201fbe:	f890 1024 	ldrb.w	r1, [r0, #36]	; 0x24
  201fc2:	7456      	strb	r6, [r2, #17]
  201fc4:	745e      	strb	r6, [r3, #17]
  201fc6:	747e      	strb	r6, [r7, #17]
  201fc8:	f890 6026 	ldrb.w	r6, [r0, #38]	; 0x26
  201fcc:	7491      	strb	r1, [r2, #18]
  201fce:	7499      	strb	r1, [r3, #18]
  201fd0:	74b9      	strb	r1, [r7, #18]
  201fd2:	f890 1028 	ldrb.w	r1, [r0, #40]	; 0x28
  201fd6:	74d6      	strb	r6, [r2, #19]
  201fd8:	74de      	strb	r6, [r3, #19]
  201fda:	74fe      	strb	r6, [r7, #19]
  201fdc:	f890 602a 	ldrb.w	r6, [r0, #42]	; 0x2a
  201fe0:	7511      	strb	r1, [r2, #20]
  201fe2:	7519      	strb	r1, [r3, #20]
  201fe4:	7539      	strb	r1, [r7, #20]
  201fe6:	f890 102c 	ldrb.w	r1, [r0, #44]	; 0x2c
  201fea:	7556      	strb	r6, [r2, #21]
  201fec:	755e      	strb	r6, [r3, #21]
  201fee:	757e      	strb	r6, [r7, #21]
  201ff0:	f890 602e 	ldrb.w	r6, [r0, #46]	; 0x2e
  201ff4:	7591      	strb	r1, [r2, #22]
  201ff6:	7599      	strb	r1, [r3, #22]
  201ff8:	75b9      	strb	r1, [r7, #22]
  201ffa:	f890 1030 	ldrb.w	r1, [r0, #48]	; 0x30
  201ffe:	75d6      	strb	r6, [r2, #23]
  202000:	75de      	strb	r6, [r3, #23]
  202002:	75fe      	strb	r6, [r7, #23]
  202004:	f890 6032 	ldrb.w	r6, [r0, #50]	; 0x32
  202008:	7611      	strb	r1, [r2, #24]
  20200a:	7619      	strb	r1, [r3, #24]
  20200c:	7639      	strb	r1, [r7, #24]
  20200e:	f890 1034 	ldrb.w	r1, [r0, #52]	; 0x34
  202012:	7905      	ldrb	r5, [r0, #4]
  202014:	7984      	ldrb	r4, [r0, #6]
  202016:	7656      	strb	r6, [r2, #25]
  202018:	765e      	strb	r6, [r3, #25]
  20201a:	767e      	strb	r6, [r7, #25]
  20201c:	f890 6036 	ldrb.w	r6, [r0, #54]	; 0x36
  202020:	7691      	strb	r1, [r2, #26]
  202022:	7699      	strb	r1, [r3, #26]
  202024:	76b9      	strb	r1, [r7, #26]
  202026:	f890 1038 	ldrb.w	r1, [r0, #56]	; 0x38
  20202a:	7095      	strb	r5, [r2, #2]
  20202c:	709d      	strb	r5, [r3, #2]
  20202e:	70bd      	strb	r5, [r7, #2]
  202030:	70d4      	strb	r4, [r2, #3]
  202032:	70dc      	strb	r4, [r3, #3]
  202034:	70fc      	strb	r4, [r7, #3]
  202036:	7b85      	ldrb	r5, [r0, #14]
  202038:	7c04      	ldrb	r4, [r0, #16]
  20203a:	76d6      	strb	r6, [r2, #27]
  20203c:	76de      	strb	r6, [r3, #27]
  20203e:	76fe      	strb	r6, [r7, #27]
  202040:	f890 603a 	ldrb.w	r6, [r0, #58]	; 0x3a
  202044:	7711      	strb	r1, [r2, #28]
  202046:	7719      	strb	r1, [r3, #28]
  202048:	7739      	strb	r1, [r7, #28]
  20204a:	f890 103c 	ldrb.w	r1, [r0, #60]	; 0x3c
  20204e:	71d5      	strb	r5, [r2, #7]
  202050:	71dd      	strb	r5, [r3, #7]
  202052:	71fd      	strb	r5, [r7, #7]
  202054:	7214      	strb	r4, [r2, #8]
  202056:	721c      	strb	r4, [r3, #8]
  202058:	723c      	strb	r4, [r7, #8]
  20205a:	7e05      	ldrb	r5, [r0, #24]
  20205c:	7e84      	ldrb	r4, [r0, #26]
  20205e:	7756      	strb	r6, [r2, #29]
  202060:	775e      	strb	r6, [r3, #29]
  202062:	777e      	strb	r6, [r7, #29]
  202064:	f890 603e 	ldrb.w	r6, [r0, #62]	; 0x3e
  202068:	7791      	strb	r1, [r2, #30]
  20206a:	7799      	strb	r1, [r3, #30]
  20206c:	77b9      	strb	r1, [r7, #30]
  20206e:	ea5f 610c 	movs.w	r1, ip, lsl #24
  202072:	7315      	strb	r5, [r2, #12]
  202074:	731d      	strb	r5, [r3, #12]
  202076:	733d      	strb	r5, [r7, #12]
  202078:	7354      	strb	r4, [r2, #13]
  20207a:	735c      	strb	r4, [r3, #13]
  20207c:	737c      	strb	r4, [r7, #13]
  20207e:	77d6      	strb	r6, [r2, #31]
  202080:	77de      	strb	r6, [r3, #31]
  202082:	77fe      	strb	r6, [r7, #31]
  202084:	f47f af66 	bne.w	201f54 <benchmark_picojpeg+0x197c>
  202088:	f7ff b918 	b.w	2012bc <benchmark_picojpeg+0xce4>
  20208c:	9806      	ldr	r0, [sp, #24]
  20208e:	b2c0      	uxtb	r0, r0
  202090:	2805      	cmp	r0, #5
  202092:	f63f a913 	bhi.w	2012bc <benchmark_picojpeg+0xce4>
  202096:	e8df f010 	tbh	[pc, r0, lsl #1]
  20209a:	0006      	.short	0x0006
  20209c:	056506c9 	.word	0x056506c9
  2020a0:	05530617 	.word	0x05530617
  2020a4:	077b      	.short	0x077b
  2020a6:	f240 40ea 	movw	r0, #1258	; 0x4ea
  2020aa:	af01      	add	r7, sp, #4
  2020ac:	f6c2 0020 	movt	r0, #10272	; 0x2820
  2020b0:	cf8c      	ldmia	r7, {r2, r3, r7}
  2020b2:	3840      	subs	r0, #64	; 0x40
  2020b4:	f04f 0c40 	mov.w	ip, #64	; 0x40
  2020b8:	f810 6f40 	ldrb.w	r6, [r0, #64]!
  2020bc:	f1ac 0c20 	sub.w	ip, ip, #32
  2020c0:	f802 6f20 	strb.w	r6, [r2, #32]!
  2020c4:	f803 6f20 	strb.w	r6, [r3, #32]!
  2020c8:	f807 6f20 	strb.w	r6, [r7, #32]!
  2020cc:	7a01      	ldrb	r1, [r0, #8]
  2020ce:	7886      	ldrb	r6, [r0, #2]
  2020d0:	7111      	strb	r1, [r2, #4]
  2020d2:	7119      	strb	r1, [r3, #4]
  2020d4:	7139      	strb	r1, [r7, #4]
  2020d6:	7a81      	ldrb	r1, [r0, #10]
  2020d8:	7056      	strb	r6, [r2, #1]
  2020da:	7151      	strb	r1, [r2, #5]
  2020dc:	7159      	strb	r1, [r3, #5]
  2020de:	7179      	strb	r1, [r7, #5]
  2020e0:	7c81      	ldrb	r1, [r0, #18]
  2020e2:	705e      	strb	r6, [r3, #1]
  2020e4:	707e      	strb	r6, [r7, #1]
  2020e6:	7b06      	ldrb	r6, [r0, #12]
  2020e8:	7251      	strb	r1, [r2, #9]
  2020ea:	7259      	strb	r1, [r3, #9]
  2020ec:	7279      	strb	r1, [r7, #9]
  2020ee:	7d01      	ldrb	r1, [r0, #20]
  2020f0:	7196      	strb	r6, [r2, #6]
  2020f2:	719e      	strb	r6, [r3, #6]
  2020f4:	71be      	strb	r6, [r7, #6]
  2020f6:	7d86      	ldrb	r6, [r0, #22]
  2020f8:	7291      	strb	r1, [r2, #10]
  2020fa:	7299      	strb	r1, [r3, #10]
  2020fc:	72b9      	strb	r1, [r7, #10]
  2020fe:	7f01      	ldrb	r1, [r0, #28]
  202100:	72d6      	strb	r6, [r2, #11]
  202102:	72de      	strb	r6, [r3, #11]
  202104:	72fe      	strb	r6, [r7, #11]
  202106:	7f86      	ldrb	r6, [r0, #30]
  202108:	7391      	strb	r1, [r2, #14]
  20210a:	7399      	strb	r1, [r3, #14]
  20210c:	73b9      	strb	r1, [r7, #14]
  20210e:	f890 1020 	ldrb.w	r1, [r0, #32]
  202112:	73d6      	strb	r6, [r2, #15]
  202114:	73de      	strb	r6, [r3, #15]
  202116:	73fe      	strb	r6, [r7, #15]
  202118:	f890 6022 	ldrb.w	r6, [r0, #34]	; 0x22
  20211c:	7411      	strb	r1, [r2, #16]
  20211e:	7419      	strb	r1, [r3, #16]
  202120:	7439      	strb	r1, [r7, #16]
  202122:	f890 1024 	ldrb.w	r1, [r0, #36]	; 0x24
  202126:	7456      	strb	r6, [r2, #17]
  202128:	745e      	strb	r6, [r3, #17]
  20212a:	747e      	strb	r6, [r7, #17]
  20212c:	f890 6026 	ldrb.w	r6, [r0, #38]	; 0x26
  202130:	7491      	strb	r1, [r2, #18]
  202132:	7499      	strb	r1, [r3, #18]
  202134:	74b9      	strb	r1, [r7, #18]
  202136:	f890 1028 	ldrb.w	r1, [r0, #40]	; 0x28
  20213a:	74d6      	strb	r6, [r2, #19]
  20213c:	74de      	strb	r6, [r3, #19]
  20213e:	74fe      	strb	r6, [r7, #19]
  202140:	f890 602a 	ldrb.w	r6, [r0, #42]	; 0x2a
  202144:	7511      	strb	r1, [r2, #20]
  202146:	7519      	strb	r1, [r3, #20]
  202148:	7539      	strb	r1, [r7, #20]
  20214a:	f890 102c 	ldrb.w	r1, [r0, #44]	; 0x2c
  20214e:	7556      	strb	r6, [r2, #21]
  202150:	755e      	strb	r6, [r3, #21]
  202152:	757e      	strb	r6, [r7, #21]
  202154:	f890 602e 	ldrb.w	r6, [r0, #46]	; 0x2e
  202158:	7591      	strb	r1, [r2, #22]
  20215a:	7599      	strb	r1, [r3, #22]
  20215c:	75b9      	strb	r1, [r7, #22]
  20215e:	f890 1030 	ldrb.w	r1, [r0, #48]	; 0x30
  202162:	75d6      	strb	r6, [r2, #23]
  202164:	75de      	strb	r6, [r3, #23]
  202166:	75fe      	strb	r6, [r7, #23]
  202168:	f890 6032 	ldrb.w	r6, [r0, #50]	; 0x32
  20216c:	7611      	strb	r1, [r2, #24]
  20216e:	7619      	strb	r1, [r3, #24]
  202170:	7639      	strb	r1, [r7, #24]
  202172:	f890 1034 	ldrb.w	r1, [r0, #52]	; 0x34
  202176:	7905      	ldrb	r5, [r0, #4]
  202178:	7984      	ldrb	r4, [r0, #6]
  20217a:	7656      	strb	r6, [r2, #25]
  20217c:	765e      	strb	r6, [r3, #25]
  20217e:	767e      	strb	r6, [r7, #25]
  202180:	f890 6036 	ldrb.w	r6, [r0, #54]	; 0x36
  202184:	7691      	strb	r1, [r2, #26]
  202186:	7699      	strb	r1, [r3, #26]
  202188:	76b9      	strb	r1, [r7, #26]
  20218a:	f890 1038 	ldrb.w	r1, [r0, #56]	; 0x38
  20218e:	7095      	strb	r5, [r2, #2]
  202190:	709d      	strb	r5, [r3, #2]
  202192:	70bd      	strb	r5, [r7, #2]
  202194:	70d4      	strb	r4, [r2, #3]
  202196:	70dc      	strb	r4, [r3, #3]
  202198:	70fc      	strb	r4, [r7, #3]
  20219a:	7b85      	ldrb	r5, [r0, #14]
  20219c:	7c04      	ldrb	r4, [r0, #16]
  20219e:	76d6      	strb	r6, [r2, #27]
  2021a0:	76de      	strb	r6, [r3, #27]
  2021a2:	76fe      	strb	r6, [r7, #27]
  2021a4:	f890 603a 	ldrb.w	r6, [r0, #58]	; 0x3a
  2021a8:	7711      	strb	r1, [r2, #28]
  2021aa:	7719      	strb	r1, [r3, #28]
  2021ac:	7739      	strb	r1, [r7, #28]
  2021ae:	f890 103c 	ldrb.w	r1, [r0, #60]	; 0x3c
  2021b2:	71d5      	strb	r5, [r2, #7]
  2021b4:	71dd      	strb	r5, [r3, #7]
  2021b6:	71fd      	strb	r5, [r7, #7]
  2021b8:	7214      	strb	r4, [r2, #8]
  2021ba:	721c      	strb	r4, [r3, #8]
  2021bc:	723c      	strb	r4, [r7, #8]
  2021be:	7e05      	ldrb	r5, [r0, #24]
  2021c0:	7e84      	ldrb	r4, [r0, #26]
  2021c2:	7756      	strb	r6, [r2, #29]
  2021c4:	775e      	strb	r6, [r3, #29]
  2021c6:	777e      	strb	r6, [r7, #29]
  2021c8:	f890 603e 	ldrb.w	r6, [r0, #62]	; 0x3e
  2021cc:	7791      	strb	r1, [r2, #30]
  2021ce:	7799      	strb	r1, [r3, #30]
  2021d0:	77b9      	strb	r1, [r7, #30]
  2021d2:	ea5f 610c 	movs.w	r1, ip, lsl #24
  2021d6:	7315      	strb	r5, [r2, #12]
  2021d8:	731d      	strb	r5, [r3, #12]
  2021da:	733d      	strb	r5, [r7, #12]
  2021dc:	7354      	strb	r4, [r2, #13]
  2021de:	735c      	strb	r4, [r3, #13]
  2021e0:	737c      	strb	r4, [r7, #13]
  2021e2:	77d6      	strb	r6, [r2, #31]
  2021e4:	77de      	strb	r6, [r3, #31]
  2021e6:	77fe      	strb	r6, [r7, #31]
  2021e8:	f47f af66 	bne.w	2020b8 <benchmark_picojpeg+0x1ae0>
  2021ec:	f7ff b866 	b.w	2012bc <benchmark_picojpeg+0xce4>
  2021f0:	9806      	ldr	r0, [sp, #24]
  2021f2:	b2c0      	uxtb	r0, r0
  2021f4:	2803      	cmp	r0, #3
  2021f6:	f63f a861 	bhi.w	2012bc <benchmark_picojpeg+0xce4>
  2021fa:	e8df f010 	tbh	[pc, r0, lsl #1]
  2021fe:	000e      	.short	0x000e
  202200:	00040333 	.word	0x00040333
  202204:	031f      	.short	0x031f
  202206:	2000      	movs	r0, #0
  202208:	2100      	movs	r1, #0
  20220a:	f004 f9c5 	bl	206598 <upsampleCbH>
  20220e:	2004      	movs	r0, #4
  202210:	2140      	movs	r1, #64	; 0x40
  202212:	f004 f9c1 	bl	206598 <upsampleCbH>
  202216:	f7ff b851 	b.w	2012bc <benchmark_picojpeg+0xce4>
  20221a:	f240 40ea 	movw	r0, #1258	; 0x4ea
  20221e:	af01      	add	r7, sp, #4
  202220:	f6c2 0020 	movt	r0, #10272	; 0x2820
  202224:	cf8c      	ldmia	r7, {r2, r3, r7}
  202226:	3840      	subs	r0, #64	; 0x40
  202228:	f04f 0c40 	mov.w	ip, #64	; 0x40
  20222c:	f810 6f40 	ldrb.w	r6, [r0, #64]!
  202230:	f1ac 0c20 	sub.w	ip, ip, #32
  202234:	f802 6f20 	strb.w	r6, [r2, #32]!
  202238:	f803 6f20 	strb.w	r6, [r3, #32]!
  20223c:	f807 6f20 	strb.w	r6, [r7, #32]!
  202240:	7a01      	ldrb	r1, [r0, #8]
  202242:	7886      	ldrb	r6, [r0, #2]
  202244:	7111      	strb	r1, [r2, #4]
  202246:	7119      	strb	r1, [r3, #4]
  202248:	7139      	strb	r1, [r7, #4]
  20224a:	7a81      	ldrb	r1, [r0, #10]
  20224c:	7056      	strb	r6, [r2, #1]
  20224e:	7151      	strb	r1, [r2, #5]
  202250:	7159      	strb	r1, [r3, #5]
  202252:	7179      	strb	r1, [r7, #5]
  202254:	7c81      	ldrb	r1, [r0, #18]
  202256:	705e      	strb	r6, [r3, #1]
  202258:	707e      	strb	r6, [r7, #1]
  20225a:	7b06      	ldrb	r6, [r0, #12]
  20225c:	7251      	strb	r1, [r2, #9]
  20225e:	7259      	strb	r1, [r3, #9]
  202260:	7279      	strb	r1, [r7, #9]
  202262:	7d01      	ldrb	r1, [r0, #20]
  202264:	7196      	strb	r6, [r2, #6]
  202266:	719e      	strb	r6, [r3, #6]
  202268:	71be      	strb	r6, [r7, #6]
  20226a:	7d86      	ldrb	r6, [r0, #22]
  20226c:	7291      	strb	r1, [r2, #10]
  20226e:	7299      	strb	r1, [r3, #10]
  202270:	72b9      	strb	r1, [r7, #10]
  202272:	7f01      	ldrb	r1, [r0, #28]
  202274:	72d6      	strb	r6, [r2, #11]
  202276:	72de      	strb	r6, [r3, #11]
  202278:	72fe      	strb	r6, [r7, #11]
  20227a:	7f86      	ldrb	r6, [r0, #30]
  20227c:	7391      	strb	r1, [r2, #14]
  20227e:	7399      	strb	r1, [r3, #14]
  202280:	73b9      	strb	r1, [r7, #14]
  202282:	f890 1020 	ldrb.w	r1, [r0, #32]
  202286:	73d6      	strb	r6, [r2, #15]
  202288:	73de      	strb	r6, [r3, #15]
  20228a:	73fe      	strb	r6, [r7, #15]
  20228c:	f890 6022 	ldrb.w	r6, [r0, #34]	; 0x22
  202290:	7411      	strb	r1, [r2, #16]
  202292:	7419      	strb	r1, [r3, #16]
  202294:	7439      	strb	r1, [r7, #16]
  202296:	f890 1024 	ldrb.w	r1, [r0, #36]	; 0x24
  20229a:	7456      	strb	r6, [r2, #17]
  20229c:	745e      	strb	r6, [r3, #17]
  20229e:	747e      	strb	r6, [r7, #17]
  2022a0:	f890 6026 	ldrb.w	r6, [r0, #38]	; 0x26
  2022a4:	7491      	strb	r1, [r2, #18]
  2022a6:	7499      	strb	r1, [r3, #18]
  2022a8:	74b9      	strb	r1, [r7, #18]
  2022aa:	f890 1028 	ldrb.w	r1, [r0, #40]	; 0x28
  2022ae:	74d6      	strb	r6, [r2, #19]
  2022b0:	74de      	strb	r6, [r3, #19]
  2022b2:	74fe      	strb	r6, [r7, #19]
  2022b4:	f890 602a 	ldrb.w	r6, [r0, #42]	; 0x2a
  2022b8:	7511      	strb	r1, [r2, #20]
  2022ba:	7519      	strb	r1, [r3, #20]
  2022bc:	7539      	strb	r1, [r7, #20]
  2022be:	f890 102c 	ldrb.w	r1, [r0, #44]	; 0x2c
  2022c2:	7556      	strb	r6, [r2, #21]
  2022c4:	755e      	strb	r6, [r3, #21]
  2022c6:	757e      	strb	r6, [r7, #21]
  2022c8:	f890 602e 	ldrb.w	r6, [r0, #46]	; 0x2e
  2022cc:	7591      	strb	r1, [r2, #22]
  2022ce:	7599      	strb	r1, [r3, #22]
  2022d0:	75b9      	strb	r1, [r7, #22]
  2022d2:	f890 1030 	ldrb.w	r1, [r0, #48]	; 0x30
  2022d6:	75d6      	strb	r6, [r2, #23]
  2022d8:	75de      	strb	r6, [r3, #23]
  2022da:	75fe      	strb	r6, [r7, #23]
  2022dc:	f890 6032 	ldrb.w	r6, [r0, #50]	; 0x32
  2022e0:	7611      	strb	r1, [r2, #24]
  2022e2:	7619      	strb	r1, [r3, #24]
  2022e4:	7639      	strb	r1, [r7, #24]
  2022e6:	f890 1034 	ldrb.w	r1, [r0, #52]	; 0x34
  2022ea:	7905      	ldrb	r5, [r0, #4]
  2022ec:	7984      	ldrb	r4, [r0, #6]
  2022ee:	7656      	strb	r6, [r2, #25]
  2022f0:	765e      	strb	r6, [r3, #25]
  2022f2:	767e      	strb	r6, [r7, #25]
  2022f4:	f890 6036 	ldrb.w	r6, [r0, #54]	; 0x36
  2022f8:	7691      	strb	r1, [r2, #26]
  2022fa:	7699      	strb	r1, [r3, #26]
  2022fc:	76b9      	strb	r1, [r7, #26]
  2022fe:	f890 1038 	ldrb.w	r1, [r0, #56]	; 0x38
  202302:	7095      	strb	r5, [r2, #2]
  202304:	709d      	strb	r5, [r3, #2]
  202306:	70bd      	strb	r5, [r7, #2]
  202308:	70d4      	strb	r4, [r2, #3]
  20230a:	70dc      	strb	r4, [r3, #3]
  20230c:	70fc      	strb	r4, [r7, #3]
  20230e:	7b85      	ldrb	r5, [r0, #14]
  202310:	7c04      	ldrb	r4, [r0, #16]
  202312:	76d6      	strb	r6, [r2, #27]
  202314:	76de      	strb	r6, [r3, #27]
  202316:	76fe      	strb	r6, [r7, #27]
  202318:	f890 603a 	ldrb.w	r6, [r0, #58]	; 0x3a
  20231c:	7711      	strb	r1, [r2, #28]
  20231e:	7719      	strb	r1, [r3, #28]
  202320:	7739      	strb	r1, [r7, #28]
  202322:	f890 103c 	ldrb.w	r1, [r0, #60]	; 0x3c
  202326:	71d5      	strb	r5, [r2, #7]
  202328:	71dd      	strb	r5, [r3, #7]
  20232a:	71fd      	strb	r5, [r7, #7]
  20232c:	7214      	strb	r4, [r2, #8]
  20232e:	721c      	strb	r4, [r3, #8]
  202330:	723c      	strb	r4, [r7, #8]
  202332:	7e05      	ldrb	r5, [r0, #24]
  202334:	7e84      	ldrb	r4, [r0, #26]
  202336:	7756      	strb	r6, [r2, #29]
  202338:	775e      	strb	r6, [r3, #29]
  20233a:	777e      	strb	r6, [r7, #29]
  20233c:	f890 603e 	ldrb.w	r6, [r0, #62]	; 0x3e
  202340:	7791      	strb	r1, [r2, #30]
  202342:	7799      	strb	r1, [r3, #30]
  202344:	77b9      	strb	r1, [r7, #30]
  202346:	ea5f 610c 	movs.w	r1, ip, lsl #24
  20234a:	7315      	strb	r5, [r2, #12]
  20234c:	731d      	strb	r5, [r3, #12]
  20234e:	733d      	strb	r5, [r7, #12]
  202350:	7354      	strb	r4, [r2, #13]
  202352:	735c      	strb	r4, [r3, #13]
  202354:	737c      	strb	r4, [r7, #13]
  202356:	77d6      	strb	r6, [r2, #31]
  202358:	77de      	strb	r6, [r3, #31]
  20235a:	77fe      	strb	r6, [r7, #31]
  20235c:	f47f af66 	bne.w	20222c <benchmark_picojpeg+0x1c54>
  202360:	f7fe bfac 	b.w	2012bc <benchmark_picojpeg+0xce4>
  202364:	9806      	ldr	r0, [sp, #24]
  202366:	b2c0      	uxtb	r0, r0
  202368:	2803      	cmp	r0, #3
  20236a:	f63e afa7 	bhi.w	2012bc <benchmark_picojpeg+0xce4>
  20236e:	e8df f010 	tbh	[pc, r0, lsl #1]
  202372:	0004      	.short	0x0004
  202374:	026f0335 	.word	0x026f0335
  202378:	032b      	.short	0x032b
  20237a:	f240 40ea 	movw	r0, #1258	; 0x4ea
  20237e:	af01      	add	r7, sp, #4
  202380:	f6c2 0020 	movt	r0, #10272	; 0x2820
  202384:	cf8c      	ldmia	r7, {r2, r3, r7}
  202386:	3840      	subs	r0, #64	; 0x40
  202388:	f04f 0c40 	mov.w	ip, #64	; 0x40
  20238c:	f810 6f40 	ldrb.w	r6, [r0, #64]!
  202390:	f1ac 0c20 	sub.w	ip, ip, #32
  202394:	f802 6f20 	strb.w	r6, [r2, #32]!
  202398:	f803 6f20 	strb.w	r6, [r3, #32]!
  20239c:	f807 6f20 	strb.w	r6, [r7, #32]!
  2023a0:	7a01      	ldrb	r1, [r0, #8]
  2023a2:	7886      	ldrb	r6, [r0, #2]
  2023a4:	7111      	strb	r1, [r2, #4]
  2023a6:	7119      	strb	r1, [r3, #4]
  2023a8:	7139      	strb	r1, [r7, #4]
  2023aa:	7a81      	ldrb	r1, [r0, #10]
  2023ac:	7056      	strb	r6, [r2, #1]
  2023ae:	7151      	strb	r1, [r2, #5]
  2023b0:	7159      	strb	r1, [r3, #5]
  2023b2:	7179      	strb	r1, [r7, #5]
  2023b4:	7c81      	ldrb	r1, [r0, #18]
  2023b6:	705e      	strb	r6, [r3, #1]
  2023b8:	707e      	strb	r6, [r7, #1]
  2023ba:	7b06      	ldrb	r6, [r0, #12]
  2023bc:	7251      	strb	r1, [r2, #9]
  2023be:	7259      	strb	r1, [r3, #9]
  2023c0:	7279      	strb	r1, [r7, #9]
  2023c2:	7d01      	ldrb	r1, [r0, #20]
  2023c4:	7196      	strb	r6, [r2, #6]
  2023c6:	719e      	strb	r6, [r3, #6]
  2023c8:	71be      	strb	r6, [r7, #6]
  2023ca:	7d86      	ldrb	r6, [r0, #22]
  2023cc:	7291      	strb	r1, [r2, #10]
  2023ce:	7299      	strb	r1, [r3, #10]
  2023d0:	72b9      	strb	r1, [r7, #10]
  2023d2:	7f01      	ldrb	r1, [r0, #28]
  2023d4:	72d6      	strb	r6, [r2, #11]
  2023d6:	72de      	strb	r6, [r3, #11]
  2023d8:	72fe      	strb	r6, [r7, #11]
  2023da:	7f86      	ldrb	r6, [r0, #30]
  2023dc:	7391      	strb	r1, [r2, #14]
  2023de:	7399      	strb	r1, [r3, #14]
  2023e0:	73b9      	strb	r1, [r7, #14]
  2023e2:	f890 1020 	ldrb.w	r1, [r0, #32]
  2023e6:	73d6      	strb	r6, [r2, #15]
  2023e8:	73de      	strb	r6, [r3, #15]
  2023ea:	73fe      	strb	r6, [r7, #15]
  2023ec:	f890 6022 	ldrb.w	r6, [r0, #34]	; 0x22
  2023f0:	7411      	strb	r1, [r2, #16]
  2023f2:	7419      	strb	r1, [r3, #16]
  2023f4:	7439      	strb	r1, [r7, #16]
  2023f6:	f890 1024 	ldrb.w	r1, [r0, #36]	; 0x24
  2023fa:	7456      	strb	r6, [r2, #17]
  2023fc:	745e      	strb	r6, [r3, #17]
  2023fe:	747e      	strb	r6, [r7, #17]
  202400:	f890 6026 	ldrb.w	r6, [r0, #38]	; 0x26
  202404:	7491      	strb	r1, [r2, #18]
  202406:	7499      	strb	r1, [r3, #18]
  202408:	74b9      	strb	r1, [r7, #18]
  20240a:	f890 1028 	ldrb.w	r1, [r0, #40]	; 0x28
  20240e:	74d6      	strb	r6, [r2, #19]
  202410:	74de      	strb	r6, [r3, #19]
  202412:	74fe      	strb	r6, [r7, #19]
  202414:	f890 602a 	ldrb.w	r6, [r0, #42]	; 0x2a
  202418:	7511      	strb	r1, [r2, #20]
  20241a:	7519      	strb	r1, [r3, #20]
  20241c:	7539      	strb	r1, [r7, #20]
  20241e:	f890 102c 	ldrb.w	r1, [r0, #44]	; 0x2c
  202422:	7556      	strb	r6, [r2, #21]
  202424:	755e      	strb	r6, [r3, #21]
  202426:	757e      	strb	r6, [r7, #21]
  202428:	f890 602e 	ldrb.w	r6, [r0, #46]	; 0x2e
  20242c:	7591      	strb	r1, [r2, #22]
  20242e:	7599      	strb	r1, [r3, #22]
  202430:	75b9      	strb	r1, [r7, #22]
  202432:	f890 1030 	ldrb.w	r1, [r0, #48]	; 0x30
  202436:	75d6      	strb	r6, [r2, #23]
  202438:	75de      	strb	r6, [r3, #23]
  20243a:	75fe      	strb	r6, [r7, #23]
  20243c:	f890 6032 	ldrb.w	r6, [r0, #50]	; 0x32
  202440:	7611      	strb	r1, [r2, #24]
  202442:	7619      	strb	r1, [r3, #24]
  202444:	7639      	strb	r1, [r7, #24]
  202446:	f890 1034 	ldrb.w	r1, [r0, #52]	; 0x34
  20244a:	7905      	ldrb	r5, [r0, #4]
  20244c:	7984      	ldrb	r4, [r0, #6]
  20244e:	7656      	strb	r6, [r2, #25]
  202450:	765e      	strb	r6, [r3, #25]
  202452:	767e      	strb	r6, [r7, #25]
  202454:	f890 6036 	ldrb.w	r6, [r0, #54]	; 0x36
  202458:	7691      	strb	r1, [r2, #26]
  20245a:	7699      	strb	r1, [r3, #26]
  20245c:	76b9      	strb	r1, [r7, #26]
  20245e:	f890 1038 	ldrb.w	r1, [r0, #56]	; 0x38
  202462:	7095      	strb	r5, [r2, #2]
  202464:	709d      	strb	r5, [r3, #2]
  202466:	70bd      	strb	r5, [r7, #2]
  202468:	70d4      	strb	r4, [r2, #3]
  20246a:	70dc      	strb	r4, [r3, #3]
  20246c:	70fc      	strb	r4, [r7, #3]
  20246e:	7b85      	ldrb	r5, [r0, #14]
  202470:	7c04      	ldrb	r4, [r0, #16]
  202472:	76d6      	strb	r6, [r2, #27]
  202474:	76de      	strb	r6, [r3, #27]
  202476:	76fe      	strb	r6, [r7, #27]
  202478:	f890 603a 	ldrb.w	r6, [r0, #58]	; 0x3a
  20247c:	7711      	strb	r1, [r2, #28]
  20247e:	7719      	strb	r1, [r3, #28]
  202480:	7739      	strb	r1, [r7, #28]
  202482:	f890 103c 	ldrb.w	r1, [r0, #60]	; 0x3c
  202486:	71d5      	strb	r5, [r2, #7]
  202488:	71dd      	strb	r5, [r3, #7]
  20248a:	71fd      	strb	r5, [r7, #7]
  20248c:	7214      	strb	r4, [r2, #8]
  20248e:	721c      	strb	r4, [r3, #8]
  202490:	723c      	strb	r4, [r7, #8]
  202492:	7e05      	ldrb	r5, [r0, #24]
  202494:	7e84      	ldrb	r4, [r0, #26]
  202496:	7756      	strb	r6, [r2, #29]
  202498:	775e      	strb	r6, [r3, #29]
  20249a:	777e      	strb	r6, [r7, #29]
  20249c:	f890 603e 	ldrb.w	r6, [r0, #62]	; 0x3e
  2024a0:	7791      	strb	r1, [r2, #30]
  2024a2:	7799      	strb	r1, [r3, #30]
  2024a4:	77b9      	strb	r1, [r7, #30]
  2024a6:	ea5f 610c 	movs.w	r1, ip, lsl #24
  2024aa:	7315      	strb	r5, [r2, #12]
  2024ac:	731d      	strb	r5, [r3, #12]
  2024ae:	733d      	strb	r5, [r7, #12]
  2024b0:	7354      	strb	r4, [r2, #13]
  2024b2:	735c      	strb	r4, [r3, #13]
  2024b4:	737c      	strb	r4, [r7, #13]
  2024b6:	77d6      	strb	r6, [r2, #31]
  2024b8:	77de      	strb	r6, [r3, #31]
  2024ba:	77fe      	strb	r6, [r7, #31]
  2024bc:	f47f af66 	bne.w	20238c <benchmark_picojpeg+0x1db4>
  2024c0:	f7fe befc 	b.w	2012bc <benchmark_picojpeg+0xce4>
  2024c4:	9806      	ldr	r0, [sp, #24]
  2024c6:	b2c0      	uxtb	r0, r0
  2024c8:	2800      	cmp	r0, #0
  2024ca:	f000 8111 	beq.w	2026f0 <benchmark_picojpeg+0x2118>
  2024ce:	2801      	cmp	r0, #1
  2024d0:	f000 808b 	beq.w	2025ea <benchmark_picojpeg+0x2012>
  2024d4:	2802      	cmp	r0, #2
  2024d6:	f47e aef1 	bne.w	2012bc <benchmark_picojpeg+0xce4>
  2024da:	f240 000e 	movw	r0, #14
  2024de:	f240 110e 	movw	r1, #270	; 0x10e
  2024e2:	f240 42ea 	movw	r2, #1258	; 0x4ea
  2024e6:	f6c2 0020 	movt	r0, #10272	; 0x2820
  2024ea:	f6c2 0120 	movt	r1, #10272	; 0x2820
  2024ee:	f6c2 0220 	movt	r2, #10272	; 0x2820
  2024f2:	3804      	subs	r0, #4
  2024f4:	3904      	subs	r1, #4
  2024f6:	3a08      	subs	r2, #8
  2024f8:	f04f 0c40 	mov.w	ip, #64	; 0x40
  2024fc:	f812 7f08 	ldrb.w	r7, [r2, #8]!
  202500:	f810 6f04 	ldrb.w	r6, [r0, #4]!
  202504:	f04f 0a67 	mov.w	sl, #103	; 0x67
  202508:	fb07 f50a 	mul.w	r5, r7, sl
  20250c:	443e      	add	r6, r7
  20250e:	f04f 0bb7 	mov.w	fp, #183	; 0xb7
  202512:	eb06 2615 	add.w	r6, r6, r5, lsr #8
  202516:	fb07 f70b 	mul.w	r7, r7, fp
  20251a:	f811 5f04 	ldrb.w	r5, [r1, #4]!
  20251e:	3eb3      	subs	r6, #179	; 0xb3
  202520:	eba5 2717 	sub.w	r7, r5, r7, lsr #8
  202524:	2eff      	cmp	r6, #255	; 0xff
  202526:	bf88      	it	hi
  202528:	ea6f 36d6 	mvnhi.w	r6, r6, lsr #15
  20252c:	375b      	adds	r7, #91	; 0x5b
  20252e:	7006      	strb	r6, [r0, #0]
  202530:	2fff      	cmp	r7, #255	; 0xff
  202532:	bf88      	it	hi
  202534:	ea6f 37d7 	mvnhi.w	r7, r7, lsr #15
  202538:	7894      	ldrb	r4, [r2, #2]
  20253a:	7843      	ldrb	r3, [r0, #1]
  20253c:	fb04 f60a 	mul.w	r6, r4, sl
  202540:	4423      	add	r3, r4
  202542:	eb03 2316 	add.w	r3, r3, r6, lsr #8
  202546:	700f      	strb	r7, [r1, #0]
  202548:	3bb3      	subs	r3, #179	; 0xb3
  20254a:	7915      	ldrb	r5, [r2, #4]
  20254c:	7997      	ldrb	r7, [r2, #6]
  20254e:	f890 e002 	ldrb.w	lr, [r0, #2]
  202552:	f890 8003 	ldrb.w	r8, [r0, #3]
  202556:	2bff      	cmp	r3, #255	; 0xff
  202558:	bf88      	it	hi
  20255a:	ea6f 33d3 	mvnhi.w	r3, r3, lsr #15
  20255e:	fb04 f40b 	mul.w	r4, r4, fp
  202562:	784e      	ldrb	r6, [r1, #1]
  202564:	7043      	strb	r3, [r0, #1]
  202566:	eba6 2314 	sub.w	r3, r6, r4, lsr #8
  20256a:	fb05 f60a 	mul.w	r6, r5, sl
  20256e:	eb05 040e 	add.w	r4, r5, lr
  202572:	335b      	adds	r3, #91	; 0x5b
  202574:	eb04 2616 	add.w	r6, r4, r6, lsr #8
  202578:	f891 9002 	ldrb.w	r9, [r1, #2]
  20257c:	2bff      	cmp	r3, #255	; 0xff
  20257e:	bf88      	it	hi
  202580:	ea6f 33d3 	mvnhi.w	r3, r3, lsr #15
  202584:	704b      	strb	r3, [r1, #1]
  202586:	f1a6 03b3 	sub.w	r3, r6, #179	; 0xb3
  20258a:	fb05 f60b 	mul.w	r6, r5, fp
  20258e:	2bff      	cmp	r3, #255	; 0xff
  202590:	bf88      	it	hi
  202592:	ea6f 33d3 	mvnhi.w	r3, r3, lsr #15
  202596:	eba9 2616 	sub.w	r6, r9, r6, lsr #8
  20259a:	7083      	strb	r3, [r0, #2]
  20259c:	f106 035b 	add.w	r3, r6, #91	; 0x5b
  2025a0:	fb07 f60a 	mul.w	r6, r7, sl
  2025a4:	eb07 0508 	add.w	r5, r7, r8
  2025a8:	eb05 2616 	add.w	r6, r5, r6, lsr #8
  2025ac:	2bff      	cmp	r3, #255	; 0xff
  2025ae:	bf88      	it	hi
  2025b0:	ea6f 33d3 	mvnhi.w	r3, r3, lsr #15
  2025b4:	708b      	strb	r3, [r1, #2]
  2025b6:	f1a6 03b3 	sub.w	r3, r6, #179	; 0xb3
  2025ba:	fb07 f70b 	mul.w	r7, r7, fp
  2025be:	78ce      	ldrb	r6, [r1, #3]
  2025c0:	2bff      	cmp	r3, #255	; 0xff
  2025c2:	bf88      	it	hi
  2025c4:	ea6f 33d3 	mvnhi.w	r3, r3, lsr #15
  2025c8:	eba6 2717 	sub.w	r7, r6, r7, lsr #8
  2025cc:	70c3      	strb	r3, [r0, #3]
  2025ce:	f107 035b 	add.w	r3, r7, #91	; 0x5b
  2025d2:	2bff      	cmp	r3, #255	; 0xff
  2025d4:	bf88      	it	hi
  2025d6:	ea6f 33d3 	mvnhi.w	r3, r3, lsr #15
  2025da:	f1ac 0c04 	sub.w	ip, ip, #4
  2025de:	ea5f 670c 	movs.w	r7, ip, lsl #24
  2025e2:	70cb      	strb	r3, [r1, #3]
  2025e4:	d18a      	bne.n	2024fc <benchmark_picojpeg+0x1f24>
  2025e6:	f7fe be69 	b.w	2012bc <benchmark_picojpeg+0xce4>
  2025ea:	f240 100e 	movw	r0, #270	; 0x10e
  2025ee:	f240 210e 	movw	r1, #526	; 0x20e
  2025f2:	f240 42ea 	movw	r2, #1258	; 0x4ea
  2025f6:	f6c2 0020 	movt	r0, #10272	; 0x2820
  2025fa:	f6c2 0120 	movt	r1, #10272	; 0x2820
  2025fe:	f6c2 0220 	movt	r2, #10272	; 0x2820
  202602:	3804      	subs	r0, #4
  202604:	3904      	subs	r1, #4
  202606:	3a08      	subs	r2, #8
  202608:	f04f 0c40 	mov.w	ip, #64	; 0x40
  20260c:	f812 7f08 	ldrb.w	r7, [r2, #8]!
  202610:	f04f 0958 	mov.w	r9, #88	; 0x58
  202614:	fb07 f609 	mul.w	r6, r7, r9
  202618:	f810 5f04 	ldrb.w	r5, [r0, #4]!
  20261c:	f04f 0ac6 	mov.w	sl, #198	; 0xc6
  202620:	eba5 2616 	sub.w	r6, r5, r6, lsr #8
  202624:	fb07 f50a 	mul.w	r5, r7, sl
  202628:	362c      	adds	r6, #44	; 0x2c
  20262a:	2eff      	cmp	r6, #255	; 0xff
  20262c:	bf88      	it	hi
  20262e:	ea6f 36d6 	mvnhi.w	r6, r6, lsr #15
  202632:	f811 4f04 	ldrb.w	r4, [r1, #4]!
  202636:	eb07 2715 	add.w	r7, r7, r5, lsr #8
  20263a:	7006      	strb	r6, [r0, #0]
  20263c:	4427      	add	r7, r4
  20263e:	3fe3      	subs	r7, #227	; 0xe3
  202640:	2fff      	cmp	r7, #255	; 0xff
  202642:	bf88      	it	hi
  202644:	ea6f 37d7 	mvnhi.w	r7, r7, lsr #15
  202648:	7894      	ldrb	r4, [r2, #2]
  20264a:	7843      	ldrb	r3, [r0, #1]
  20264c:	fb04 f609 	mul.w	r6, r4, r9
  202650:	700f      	strb	r7, [r1, #0]
  202652:	eba3 2316 	sub.w	r3, r3, r6, lsr #8
  202656:	fb04 f60a 	mul.w	r6, r4, sl
  20265a:	332c      	adds	r3, #44	; 0x2c
  20265c:	7915      	ldrb	r5, [r2, #4]
  20265e:	7997      	ldrb	r7, [r2, #6]
  202660:	f890 e002 	ldrb.w	lr, [r0, #2]
  202664:	f890 8003 	ldrb.w	r8, [r0, #3]
  202668:	2bff      	cmp	r3, #255	; 0xff
  20266a:	bf88      	it	hi
  20266c:	ea6f 33d3 	mvnhi.w	r3, r3, lsr #15
  202670:	7043      	strb	r3, [r0, #1]
  202672:	eb04 2316 	add.w	r3, r4, r6, lsr #8
  202676:	784c      	ldrb	r4, [r1, #1]
  202678:	788e      	ldrb	r6, [r1, #2]
  20267a:	4423      	add	r3, r4
  20267c:	fb05 f409 	mul.w	r4, r5, r9
  202680:	3be3      	subs	r3, #227	; 0xe3
  202682:	ebae 2414 	sub.w	r4, lr, r4, lsr #8
  202686:	2bff      	cmp	r3, #255	; 0xff
  202688:	bf88      	it	hi
  20268a:	ea6f 33d3 	mvnhi.w	r3, r3, lsr #15
  20268e:	704b      	strb	r3, [r1, #1]
  202690:	f104 032c 	add.w	r3, r4, #44	; 0x2c
  202694:	fb05 f40a 	mul.w	r4, r5, sl
  202698:	2bff      	cmp	r3, #255	; 0xff
  20269a:	bf88      	it	hi
  20269c:	ea6f 33d3 	mvnhi.w	r3, r3, lsr #15
  2026a0:	eb05 2514 	add.w	r5, r5, r4, lsr #8
  2026a4:	7083      	strb	r3, [r0, #2]
  2026a6:	19ab      	adds	r3, r5, r6
  2026a8:	fb07 f609 	mul.w	r6, r7, r9
  2026ac:	3be3      	subs	r3, #227	; 0xe3
  2026ae:	eba8 2616 	sub.w	r6, r8, r6, lsr #8
  2026b2:	2bff      	cmp	r3, #255	; 0xff
  2026b4:	bf88      	it	hi
  2026b6:	ea6f 33d3 	mvnhi.w	r3, r3, lsr #15
  2026ba:	708b      	strb	r3, [r1, #2]
  2026bc:	f106 032c 	add.w	r3, r6, #44	; 0x2c
  2026c0:	fb07 f60a 	mul.w	r6, r7, sl
  2026c4:	2bff      	cmp	r3, #255	; 0xff
  2026c6:	bf88      	it	hi
  2026c8:	ea6f 33d3 	mvnhi.w	r3, r3, lsr #15
  2026cc:	78cd      	ldrb	r5, [r1, #3]
  2026ce:	eb07 2716 	add.w	r7, r7, r6, lsr #8
  2026d2:	70c3      	strb	r3, [r0, #3]
  2026d4:	197b      	adds	r3, r7, r5
  2026d6:	3be3      	subs	r3, #227	; 0xe3
  2026d8:	2bff      	cmp	r3, #255	; 0xff
  2026da:	bf88      	it	hi
  2026dc:	ea6f 33d3 	mvnhi.w	r3, r3, lsr #15
  2026e0:	f1ac 0c04 	sub.w	ip, ip, #4
  2026e4:	ea5f 670c 	movs.w	r7, ip, lsl #24
  2026e8:	70cb      	strb	r3, [r1, #3]
  2026ea:	d18f      	bne.n	20260c <benchmark_picojpeg+0x2034>
  2026ec:	f7fe bde6 	b.w	2012bc <benchmark_picojpeg+0xce4>
  2026f0:	f240 40ea 	movw	r0, #1258	; 0x4ea
  2026f4:	af01      	add	r7, sp, #4
  2026f6:	f6c2 0020 	movt	r0, #10272	; 0x2820
  2026fa:	cf8c      	ldmia	r7, {r2, r3, r7}
  2026fc:	3840      	subs	r0, #64	; 0x40
  2026fe:	f04f 0c40 	mov.w	ip, #64	; 0x40
  202702:	bf00      	nop
  202704:	f810 6f40 	ldrb.w	r6, [r0, #64]!
  202708:	f1ac 0c20 	sub.w	ip, ip, #32
  20270c:	f802 6f20 	strb.w	r6, [r2, #32]!
  202710:	f803 6f20 	strb.w	r6, [r3, #32]!
  202714:	f807 6f20 	strb.w	r6, [r7, #32]!
  202718:	7a01      	ldrb	r1, [r0, #8]
  20271a:	7886      	ldrb	r6, [r0, #2]
  20271c:	7111      	strb	r1, [r2, #4]
  20271e:	7119      	strb	r1, [r3, #4]
  202720:	7139      	strb	r1, [r7, #4]
  202722:	7a81      	ldrb	r1, [r0, #10]
  202724:	7056      	strb	r6, [r2, #1]
  202726:	7151      	strb	r1, [r2, #5]
  202728:	7159      	strb	r1, [r3, #5]
  20272a:	7179      	strb	r1, [r7, #5]
  20272c:	7c81      	ldrb	r1, [r0, #18]
  20272e:	705e      	strb	r6, [r3, #1]
  202730:	707e      	strb	r6, [r7, #1]
  202732:	7b06      	ldrb	r6, [r0, #12]
  202734:	7251      	strb	r1, [r2, #9]
  202736:	7259      	strb	r1, [r3, #9]
  202738:	7279      	strb	r1, [r7, #9]
  20273a:	7d01      	ldrb	r1, [r0, #20]
  20273c:	7196      	strb	r6, [r2, #6]
  20273e:	719e      	strb	r6, [r3, #6]
  202740:	71be      	strb	r6, [r7, #6]
  202742:	7d86      	ldrb	r6, [r0, #22]
  202744:	7291      	strb	r1, [r2, #10]
  202746:	7299      	strb	r1, [r3, #10]
  202748:	72b9      	strb	r1, [r7, #10]
  20274a:	7f01      	ldrb	r1, [r0, #28]
  20274c:	72d6      	strb	r6, [r2, #11]
  20274e:	72de      	strb	r6, [r3, #11]
  202750:	72fe      	strb	r6, [r7, #11]
  202752:	7f86      	ldrb	r6, [r0, #30]
  202754:	7391      	strb	r1, [r2, #14]
  202756:	7399      	strb	r1, [r3, #14]
  202758:	73b9      	strb	r1, [r7, #14]
  20275a:	f890 1020 	ldrb.w	r1, [r0, #32]
  20275e:	73d6      	strb	r6, [r2, #15]
  202760:	73de      	strb	r6, [r3, #15]
  202762:	73fe      	strb	r6, [r7, #15]
  202764:	f890 6022 	ldrb.w	r6, [r0, #34]	; 0x22
  202768:	7411      	strb	r1, [r2, #16]
  20276a:	7419      	strb	r1, [r3, #16]
  20276c:	7439      	strb	r1, [r7, #16]
  20276e:	f890 1024 	ldrb.w	r1, [r0, #36]	; 0x24
  202772:	7456      	strb	r6, [r2, #17]
  202774:	745e      	strb	r6, [r3, #17]
  202776:	747e      	strb	r6, [r7, #17]
  202778:	f890 6026 	ldrb.w	r6, [r0, #38]	; 0x26
  20277c:	7491      	strb	r1, [r2, #18]
  20277e:	7499      	strb	r1, [r3, #18]
  202780:	74b9      	strb	r1, [r7, #18]
  202782:	f890 1028 	ldrb.w	r1, [r0, #40]	; 0x28
  202786:	74d6      	strb	r6, [r2, #19]
  202788:	74de      	strb	r6, [r3, #19]
  20278a:	74fe      	strb	r6, [r7, #19]
  20278c:	f890 602a 	ldrb.w	r6, [r0, #42]	; 0x2a
  202790:	7511      	strb	r1, [r2, #20]
  202792:	7519      	strb	r1, [r3, #20]
  202794:	7539      	strb	r1, [r7, #20]
  202796:	f890 102c 	ldrb.w	r1, [r0, #44]	; 0x2c
  20279a:	7556      	strb	r6, [r2, #21]
  20279c:	755e      	strb	r6, [r3, #21]
  20279e:	757e      	strb	r6, [r7, #21]
  2027a0:	f890 602e 	ldrb.w	r6, [r0, #46]	; 0x2e
  2027a4:	7591      	strb	r1, [r2, #22]
  2027a6:	7599      	strb	r1, [r3, #22]
  2027a8:	75b9      	strb	r1, [r7, #22]
  2027aa:	f890 1030 	ldrb.w	r1, [r0, #48]	; 0x30
  2027ae:	75d6      	strb	r6, [r2, #23]
  2027b0:	75de      	strb	r6, [r3, #23]
  2027b2:	75fe      	strb	r6, [r7, #23]
  2027b4:	f890 6032 	ldrb.w	r6, [r0, #50]	; 0x32
  2027b8:	7611      	strb	r1, [r2, #24]
  2027ba:	7619      	strb	r1, [r3, #24]
  2027bc:	7639      	strb	r1, [r7, #24]
  2027be:	f890 1034 	ldrb.w	r1, [r0, #52]	; 0x34
  2027c2:	7905      	ldrb	r5, [r0, #4]
  2027c4:	7984      	ldrb	r4, [r0, #6]
  2027c6:	7656      	strb	r6, [r2, #25]
  2027c8:	765e      	strb	r6, [r3, #25]
  2027ca:	767e      	strb	r6, [r7, #25]
  2027cc:	f890 6036 	ldrb.w	r6, [r0, #54]	; 0x36
  2027d0:	7691      	strb	r1, [r2, #26]
  2027d2:	7699      	strb	r1, [r3, #26]
  2027d4:	76b9      	strb	r1, [r7, #26]
  2027d6:	f890 1038 	ldrb.w	r1, [r0, #56]	; 0x38
  2027da:	7095      	strb	r5, [r2, #2]
  2027dc:	709d      	strb	r5, [r3, #2]
  2027de:	70bd      	strb	r5, [r7, #2]
  2027e0:	70d4      	strb	r4, [r2, #3]
  2027e2:	70dc      	strb	r4, [r3, #3]
  2027e4:	70fc      	strb	r4, [r7, #3]
  2027e6:	7b85      	ldrb	r5, [r0, #14]
  2027e8:	7c04      	ldrb	r4, [r0, #16]
  2027ea:	76d6      	strb	r6, [r2, #27]
  2027ec:	76de      	strb	r6, [r3, #27]
  2027ee:	76fe      	strb	r6, [r7, #27]
  2027f0:	f890 603a 	ldrb.w	r6, [r0, #58]	; 0x3a
  2027f4:	7711      	strb	r1, [r2, #28]
  2027f6:	7719      	strb	r1, [r3, #28]
  2027f8:	7739      	strb	r1, [r7, #28]
  2027fa:	f890 103c 	ldrb.w	r1, [r0, #60]	; 0x3c
  2027fe:	71d5      	strb	r5, [r2, #7]
  202800:	71dd      	strb	r5, [r3, #7]
  202802:	71fd      	strb	r5, [r7, #7]
  202804:	7214      	strb	r4, [r2, #8]
  202806:	721c      	strb	r4, [r3, #8]
  202808:	723c      	strb	r4, [r7, #8]
  20280a:	7e05      	ldrb	r5, [r0, #24]
  20280c:	7e84      	ldrb	r4, [r0, #26]
  20280e:	7756      	strb	r6, [r2, #29]
  202810:	775e      	strb	r6, [r3, #29]
  202812:	777e      	strb	r6, [r7, #29]
  202814:	f890 603e 	ldrb.w	r6, [r0, #62]	; 0x3e
  202818:	7791      	strb	r1, [r2, #30]
  20281a:	7799      	strb	r1, [r3, #30]
  20281c:	77b9      	strb	r1, [r7, #30]
  20281e:	ea5f 610c 	movs.w	r1, ip, lsl #24
  202822:	7315      	strb	r5, [r2, #12]
  202824:	731d      	strb	r5, [r3, #12]
  202826:	733d      	strb	r5, [r7, #12]
  202828:	7354      	strb	r4, [r2, #13]
  20282a:	735c      	strb	r4, [r3, #13]
  20282c:	737c      	strb	r4, [r7, #13]
  20282e:	77d6      	strb	r6, [r2, #31]
  202830:	77de      	strb	r6, [r3, #31]
  202832:	77fe      	strb	r6, [r7, #31]
  202834:	f47f af66 	bne.w	202704 <benchmark_picojpeg+0x212c>
  202838:	f7fe bd40 	b.w	2012bc <benchmark_picojpeg+0xce4>
  20283c:	2000      	movs	r0, #0
  20283e:	2100      	movs	r1, #0
  202840:	f004 fa00 	bl	206c44 <upsampleCrH>
  202844:	2004      	movs	r0, #4
  202846:	2140      	movs	r1, #64	; 0x40
  202848:	f004 f9fc 	bl	206c44 <upsampleCrH>
  20284c:	f7fe bd36 	b.w	2012bc <benchmark_picojpeg+0xce4>
  202850:	2000      	movs	r0, #0
  202852:	2100      	movs	r1, #0
  202854:	f003 ff64 	bl	206720 <upsampleCbV>
  202858:	2020      	movs	r0, #32
  20285a:	2180      	movs	r1, #128	; 0x80
  20285c:	f003 ff60 	bl	206720 <upsampleCbV>
  202860:	f7fe bd2c 	b.w	2012bc <benchmark_picojpeg+0xce4>
  202864:	f240 40ea 	movw	r0, #1258	; 0x4ea
  202868:	f240 210e 	movw	r1, #526	; 0x20e
  20286c:	f240 120e 	movw	r2, #270	; 0x10e
  202870:	f240 030e 	movw	r3, #14
  202874:	f6c2 0020 	movt	r0, #10272	; 0x2820
  202878:	f6c2 0120 	movt	r1, #10272	; 0x2820
  20287c:	f6c2 0220 	movt	r2, #10272	; 0x2820
  202880:	f6c2 0320 	movt	r3, #10272	; 0x2820
  202884:	3840      	subs	r0, #64	; 0x40
  202886:	3120      	adds	r1, #32
  202888:	3220      	adds	r2, #32
  20288a:	3320      	adds	r3, #32
  20288c:	f04f 0c40 	mov.w	ip, #64	; 0x40
  202890:	f810 6f40 	ldrb.w	r6, [r0, #64]!
  202894:	f1ac 0c20 	sub.w	ip, ip, #32
  202898:	f803 6f20 	strb.w	r6, [r3, #32]!
  20289c:	f802 6f20 	strb.w	r6, [r2, #32]!
  2028a0:	f801 6f20 	strb.w	r6, [r1, #32]!
  2028a4:	7a07      	ldrb	r7, [r0, #8]
  2028a6:	7886      	ldrb	r6, [r0, #2]
  2028a8:	711f      	strb	r7, [r3, #4]
  2028aa:	7117      	strb	r7, [r2, #4]
  2028ac:	710f      	strb	r7, [r1, #4]
  2028ae:	7a87      	ldrb	r7, [r0, #10]
  2028b0:	705e      	strb	r6, [r3, #1]
  2028b2:	715f      	strb	r7, [r3, #5]
  2028b4:	7157      	strb	r7, [r2, #5]
  2028b6:	714f      	strb	r7, [r1, #5]
  2028b8:	7c87      	ldrb	r7, [r0, #18]
  2028ba:	7056      	strb	r6, [r2, #1]
  2028bc:	704e      	strb	r6, [r1, #1]
  2028be:	7b06      	ldrb	r6, [r0, #12]
  2028c0:	725f      	strb	r7, [r3, #9]
  2028c2:	7257      	strb	r7, [r2, #9]
  2028c4:	724f      	strb	r7, [r1, #9]
  2028c6:	7d07      	ldrb	r7, [r0, #20]
  2028c8:	719e      	strb	r6, [r3, #6]
  2028ca:	7196      	strb	r6, [r2, #6]
  2028cc:	718e      	strb	r6, [r1, #6]
  2028ce:	7d86      	ldrb	r6, [r0, #22]
  2028d0:	729f      	strb	r7, [r3, #10]
  2028d2:	7297      	strb	r7, [r2, #10]
  2028d4:	728f      	strb	r7, [r1, #10]
  2028d6:	7f07      	ldrb	r7, [r0, #28]
  2028d8:	72de      	strb	r6, [r3, #11]
  2028da:	72d6      	strb	r6, [r2, #11]
  2028dc:	72ce      	strb	r6, [r1, #11]
  2028de:	7f86      	ldrb	r6, [r0, #30]
  2028e0:	739f      	strb	r7, [r3, #14]
  2028e2:	7397      	strb	r7, [r2, #14]
  2028e4:	738f      	strb	r7, [r1, #14]
  2028e6:	f890 7020 	ldrb.w	r7, [r0, #32]
  2028ea:	73de      	strb	r6, [r3, #15]
  2028ec:	73d6      	strb	r6, [r2, #15]
  2028ee:	73ce      	strb	r6, [r1, #15]
  2028f0:	f890 6022 	ldrb.w	r6, [r0, #34]	; 0x22
  2028f4:	741f      	strb	r7, [r3, #16]
  2028f6:	7417      	strb	r7, [r2, #16]
  2028f8:	740f      	strb	r7, [r1, #16]
  2028fa:	f890 7024 	ldrb.w	r7, [r0, #36]	; 0x24
  2028fe:	745e      	strb	r6, [r3, #17]
  202900:	7456      	strb	r6, [r2, #17]
  202902:	744e      	strb	r6, [r1, #17]
  202904:	f890 6026 	ldrb.w	r6, [r0, #38]	; 0x26
  202908:	749f      	strb	r7, [r3, #18]
  20290a:	7497      	strb	r7, [r2, #18]
  20290c:	748f      	strb	r7, [r1, #18]
  20290e:	f890 7028 	ldrb.w	r7, [r0, #40]	; 0x28
  202912:	74de      	strb	r6, [r3, #19]
  202914:	74d6      	strb	r6, [r2, #19]
  202916:	74ce      	strb	r6, [r1, #19]
  202918:	f890 602a 	ldrb.w	r6, [r0, #42]	; 0x2a
  20291c:	751f      	strb	r7, [r3, #20]
  20291e:	7517      	strb	r7, [r2, #20]
  202920:	750f      	strb	r7, [r1, #20]
  202922:	f890 702c 	ldrb.w	r7, [r0, #44]	; 0x2c
  202926:	755e      	strb	r6, [r3, #21]
  202928:	7556      	strb	r6, [r2, #21]
  20292a:	754e      	strb	r6, [r1, #21]
  20292c:	f890 602e 	ldrb.w	r6, [r0, #46]	; 0x2e
  202930:	759f      	strb	r7, [r3, #22]
  202932:	7597      	strb	r7, [r2, #22]
  202934:	758f      	strb	r7, [r1, #22]
  202936:	f890 7030 	ldrb.w	r7, [r0, #48]	; 0x30
  20293a:	75de      	strb	r6, [r3, #23]
  20293c:	75d6      	strb	r6, [r2, #23]
  20293e:	75ce      	strb	r6, [r1, #23]
  202940:	f890 6032 	ldrb.w	r6, [r0, #50]	; 0x32
  202944:	761f      	strb	r7, [r3, #24]
  202946:	7617      	strb	r7, [r2, #24]
  202948:	760f      	strb	r7, [r1, #24]
  20294a:	f890 7034 	ldrb.w	r7, [r0, #52]	; 0x34
  20294e:	7905      	ldrb	r5, [r0, #4]
  202950:	7984      	ldrb	r4, [r0, #6]
  202952:	765e      	strb	r6, [r3, #25]
  202954:	7656      	strb	r6, [r2, #25]
  202956:	764e      	strb	r6, [r1, #25]
  202958:	f890 6036 	ldrb.w	r6, [r0, #54]	; 0x36
  20295c:	769f      	strb	r7, [r3, #26]
  20295e:	7697      	strb	r7, [r2, #26]
  202960:	768f      	strb	r7, [r1, #26]
  202962:	f890 7038 	ldrb.w	r7, [r0, #56]	; 0x38
  202966:	709d      	strb	r5, [r3, #2]
  202968:	7095      	strb	r5, [r2, #2]
  20296a:	708d      	strb	r5, [r1, #2]
  20296c:	70dc      	strb	r4, [r3, #3]
  20296e:	70d4      	strb	r4, [r2, #3]
  202970:	70cc      	strb	r4, [r1, #3]
  202972:	7b85      	ldrb	r5, [r0, #14]
  202974:	7c04      	ldrb	r4, [r0, #16]
  202976:	76de      	strb	r6, [r3, #27]
  202978:	76d6      	strb	r6, [r2, #27]
  20297a:	76ce      	strb	r6, [r1, #27]
  20297c:	f890 603a 	ldrb.w	r6, [r0, #58]	; 0x3a
  202980:	771f      	strb	r7, [r3, #28]
  202982:	7717      	strb	r7, [r2, #28]
  202984:	770f      	strb	r7, [r1, #28]
  202986:	f890 703c 	ldrb.w	r7, [r0, #60]	; 0x3c
  20298a:	71dd      	strb	r5, [r3, #7]
  20298c:	71d5      	strb	r5, [r2, #7]
  20298e:	71cd      	strb	r5, [r1, #7]
  202990:	721c      	strb	r4, [r3, #8]
  202992:	7214      	strb	r4, [r2, #8]
  202994:	720c      	strb	r4, [r1, #8]
  202996:	7e05      	ldrb	r5, [r0, #24]
  202998:	7e84      	ldrb	r4, [r0, #26]
  20299a:	775e      	strb	r6, [r3, #29]
  20299c:	7756      	strb	r6, [r2, #29]
  20299e:	774e      	strb	r6, [r1, #29]
  2029a0:	f890 603e 	ldrb.w	r6, [r0, #62]	; 0x3e
  2029a4:	779f      	strb	r7, [r3, #30]
  2029a6:	7797      	strb	r7, [r2, #30]
  2029a8:	778f      	strb	r7, [r1, #30]
  2029aa:	ea5f 670c 	movs.w	r7, ip, lsl #24
  2029ae:	731d      	strb	r5, [r3, #12]
  2029b0:	7315      	strb	r5, [r2, #12]
  2029b2:	730d      	strb	r5, [r1, #12]
  2029b4:	735c      	strb	r4, [r3, #13]
  2029b6:	7354      	strb	r4, [r2, #13]
  2029b8:	734c      	strb	r4, [r1, #13]
  2029ba:	77de      	strb	r6, [r3, #31]
  2029bc:	77d6      	strb	r6, [r2, #31]
  2029be:	77ce      	strb	r6, [r1, #31]
  2029c0:	f47f af66 	bne.w	202890 <benchmark_picojpeg+0x22b8>
  2029c4:	f7fe bc7a 	b.w	2012bc <benchmark_picojpeg+0xce4>
  2029c8:	2000      	movs	r0, #0
  2029ca:	2100      	movs	r1, #0
  2029cc:	f004 f9fe 	bl	206dcc <upsampleCrV>
  2029d0:	2020      	movs	r0, #32
  2029d2:	2180      	movs	r1, #128	; 0x80
  2029d4:	f004 f9fa 	bl	206dcc <upsampleCrV>
  2029d8:	f7fe bc70 	b.w	2012bc <benchmark_picojpeg+0xce4>
  2029dc:	f240 40ea 	movw	r0, #1258	; 0x4ea
  2029e0:	f240 210e 	movw	r1, #526	; 0x20e
  2029e4:	f240 120e 	movw	r2, #270	; 0x10e
  2029e8:	f240 030e 	movw	r3, #14
  2029ec:	f6c2 0020 	movt	r0, #10272	; 0x2820
  2029f0:	f6c2 0120 	movt	r1, #10272	; 0x2820
  2029f4:	f6c2 0220 	movt	r2, #10272	; 0x2820
  2029f8:	f6c2 0320 	movt	r3, #10272	; 0x2820
  2029fc:	3840      	subs	r0, #64	; 0x40
  2029fe:	3160      	adds	r1, #96	; 0x60
  202a00:	3260      	adds	r2, #96	; 0x60
  202a02:	3360      	adds	r3, #96	; 0x60
  202a04:	f04f 0c40 	mov.w	ip, #64	; 0x40
  202a08:	f810 6f40 	ldrb.w	r6, [r0, #64]!
  202a0c:	f1ac 0c20 	sub.w	ip, ip, #32
  202a10:	f803 6f20 	strb.w	r6, [r3, #32]!
  202a14:	f802 6f20 	strb.w	r6, [r2, #32]!
  202a18:	f801 6f20 	strb.w	r6, [r1, #32]!
  202a1c:	7a07      	ldrb	r7, [r0, #8]
  202a1e:	7886      	ldrb	r6, [r0, #2]
  202a20:	711f      	strb	r7, [r3, #4]
  202a22:	7117      	strb	r7, [r2, #4]
  202a24:	710f      	strb	r7, [r1, #4]
  202a26:	7a87      	ldrb	r7, [r0, #10]
  202a28:	705e      	strb	r6, [r3, #1]
  202a2a:	715f      	strb	r7, [r3, #5]
  202a2c:	7157      	strb	r7, [r2, #5]
  202a2e:	714f      	strb	r7, [r1, #5]
  202a30:	7c87      	ldrb	r7, [r0, #18]
  202a32:	7056      	strb	r6, [r2, #1]
  202a34:	704e      	strb	r6, [r1, #1]
  202a36:	7b06      	ldrb	r6, [r0, #12]
  202a38:	725f      	strb	r7, [r3, #9]
  202a3a:	7257      	strb	r7, [r2, #9]
  202a3c:	724f      	strb	r7, [r1, #9]
  202a3e:	7d07      	ldrb	r7, [r0, #20]
  202a40:	719e      	strb	r6, [r3, #6]
  202a42:	7196      	strb	r6, [r2, #6]
  202a44:	718e      	strb	r6, [r1, #6]
  202a46:	7d86      	ldrb	r6, [r0, #22]
  202a48:	729f      	strb	r7, [r3, #10]
  202a4a:	7297      	strb	r7, [r2, #10]
  202a4c:	728f      	strb	r7, [r1, #10]
  202a4e:	7f07      	ldrb	r7, [r0, #28]
  202a50:	72de      	strb	r6, [r3, #11]
  202a52:	72d6      	strb	r6, [r2, #11]
  202a54:	72ce      	strb	r6, [r1, #11]
  202a56:	7f86      	ldrb	r6, [r0, #30]
  202a58:	739f      	strb	r7, [r3, #14]
  202a5a:	7397      	strb	r7, [r2, #14]
  202a5c:	738f      	strb	r7, [r1, #14]
  202a5e:	f890 7020 	ldrb.w	r7, [r0, #32]
  202a62:	73de      	strb	r6, [r3, #15]
  202a64:	73d6      	strb	r6, [r2, #15]
  202a66:	73ce      	strb	r6, [r1, #15]
  202a68:	f890 6022 	ldrb.w	r6, [r0, #34]	; 0x22
  202a6c:	741f      	strb	r7, [r3, #16]
  202a6e:	7417      	strb	r7, [r2, #16]
  202a70:	740f      	strb	r7, [r1, #16]
  202a72:	f890 7024 	ldrb.w	r7, [r0, #36]	; 0x24
  202a76:	745e      	strb	r6, [r3, #17]
  202a78:	7456      	strb	r6, [r2, #17]
  202a7a:	744e      	strb	r6, [r1, #17]
  202a7c:	f890 6026 	ldrb.w	r6, [r0, #38]	; 0x26
  202a80:	749f      	strb	r7, [r3, #18]
  202a82:	7497      	strb	r7, [r2, #18]
  202a84:	748f      	strb	r7, [r1, #18]
  202a86:	f890 7028 	ldrb.w	r7, [r0, #40]	; 0x28
  202a8a:	74de      	strb	r6, [r3, #19]
  202a8c:	74d6      	strb	r6, [r2, #19]
  202a8e:	74ce      	strb	r6, [r1, #19]
  202a90:	f890 602a 	ldrb.w	r6, [r0, #42]	; 0x2a
  202a94:	751f      	strb	r7, [r3, #20]
  202a96:	7517      	strb	r7, [r2, #20]
  202a98:	750f      	strb	r7, [r1, #20]
  202a9a:	f890 702c 	ldrb.w	r7, [r0, #44]	; 0x2c
  202a9e:	755e      	strb	r6, [r3, #21]
  202aa0:	7556      	strb	r6, [r2, #21]
  202aa2:	754e      	strb	r6, [r1, #21]
  202aa4:	f890 602e 	ldrb.w	r6, [r0, #46]	; 0x2e
  202aa8:	759f      	strb	r7, [r3, #22]
  202aaa:	7597      	strb	r7, [r2, #22]
  202aac:	758f      	strb	r7, [r1, #22]
  202aae:	f890 7030 	ldrb.w	r7, [r0, #48]	; 0x30
  202ab2:	75de      	strb	r6, [r3, #23]
  202ab4:	75d6      	strb	r6, [r2, #23]
  202ab6:	75ce      	strb	r6, [r1, #23]
  202ab8:	f890 6032 	ldrb.w	r6, [r0, #50]	; 0x32
  202abc:	761f      	strb	r7, [r3, #24]
  202abe:	7617      	strb	r7, [r2, #24]
  202ac0:	760f      	strb	r7, [r1, #24]
  202ac2:	f890 7034 	ldrb.w	r7, [r0, #52]	; 0x34
  202ac6:	7905      	ldrb	r5, [r0, #4]
  202ac8:	7984      	ldrb	r4, [r0, #6]
  202aca:	765e      	strb	r6, [r3, #25]
  202acc:	7656      	strb	r6, [r2, #25]
  202ace:	764e      	strb	r6, [r1, #25]
  202ad0:	f890 6036 	ldrb.w	r6, [r0, #54]	; 0x36
  202ad4:	769f      	strb	r7, [r3, #26]
  202ad6:	7697      	strb	r7, [r2, #26]
  202ad8:	768f      	strb	r7, [r1, #26]
  202ada:	f890 7038 	ldrb.w	r7, [r0, #56]	; 0x38
  202ade:	709d      	strb	r5, [r3, #2]
  202ae0:	7095      	strb	r5, [r2, #2]
  202ae2:	708d      	strb	r5, [r1, #2]
  202ae4:	70dc      	strb	r4, [r3, #3]
  202ae6:	70d4      	strb	r4, [r2, #3]
  202ae8:	70cc      	strb	r4, [r1, #3]
  202aea:	7b85      	ldrb	r5, [r0, #14]
  202aec:	7c04      	ldrb	r4, [r0, #16]
  202aee:	76de      	strb	r6, [r3, #27]
  202af0:	76d6      	strb	r6, [r2, #27]
  202af2:	76ce      	strb	r6, [r1, #27]
  202af4:	f890 603a 	ldrb.w	r6, [r0, #58]	; 0x3a
  202af8:	771f      	strb	r7, [r3, #28]
  202afa:	7717      	strb	r7, [r2, #28]
  202afc:	770f      	strb	r7, [r1, #28]
  202afe:	f890 703c 	ldrb.w	r7, [r0, #60]	; 0x3c
  202b02:	71dd      	strb	r5, [r3, #7]
  202b04:	71d5      	strb	r5, [r2, #7]
  202b06:	71cd      	strb	r5, [r1, #7]
  202b08:	721c      	strb	r4, [r3, #8]
  202b0a:	7214      	strb	r4, [r2, #8]
  202b0c:	720c      	strb	r4, [r1, #8]
  202b0e:	7e05      	ldrb	r5, [r0, #24]
  202b10:	7e84      	ldrb	r4, [r0, #26]
  202b12:	775e      	strb	r6, [r3, #29]
  202b14:	7756      	strb	r6, [r2, #29]
  202b16:	774e      	strb	r6, [r1, #29]
  202b18:	f890 603e 	ldrb.w	r6, [r0, #62]	; 0x3e
  202b1c:	779f      	strb	r7, [r3, #30]
  202b1e:	7797      	strb	r7, [r2, #30]
  202b20:	778f      	strb	r7, [r1, #30]
  202b22:	ea5f 670c 	movs.w	r7, ip, lsl #24
  202b26:	731d      	strb	r5, [r3, #12]
  202b28:	7315      	strb	r5, [r2, #12]
  202b2a:	730d      	strb	r5, [r1, #12]
  202b2c:	735c      	strb	r4, [r3, #13]
  202b2e:	7354      	strb	r4, [r2, #13]
  202b30:	734c      	strb	r4, [r1, #13]
  202b32:	77de      	strb	r6, [r3, #31]
  202b34:	77d6      	strb	r6, [r2, #31]
  202b36:	77ce      	strb	r6, [r1, #31]
  202b38:	f47f af66 	bne.w	202a08 <benchmark_picojpeg+0x2430>
  202b3c:	f7fe bbbe 	b.w	2012bc <benchmark_picojpeg+0xce4>
  202b40:	2000      	movs	r0, #0
  202b42:	2100      	movs	r1, #0
  202b44:	f003 fbf4 	bl	206330 <upsampleCb>
  202b48:	2004      	movs	r0, #4
  202b4a:	2140      	movs	r1, #64	; 0x40
  202b4c:	f003 fbf0 	bl	206330 <upsampleCb>
  202b50:	2020      	movs	r0, #32
  202b52:	2180      	movs	r1, #128	; 0x80
  202b54:	f003 fbec 	bl	206330 <upsampleCb>
  202b58:	2024      	movs	r0, #36	; 0x24
  202b5a:	21c0      	movs	r1, #192	; 0xc0
  202b5c:	f003 fbe8 	bl	206330 <upsampleCb>
  202b60:	f7fe bbac 	b.w	2012bc <benchmark_picojpeg+0xce4>
  202b64:	f240 40ea 	movw	r0, #1258	; 0x4ea
  202b68:	f240 210e 	movw	r1, #526	; 0x20e
  202b6c:	f240 120e 	movw	r2, #270	; 0x10e
  202b70:	f240 030e 	movw	r3, #14
  202b74:	f6c2 0020 	movt	r0, #10272	; 0x2820
  202b78:	f6c2 0120 	movt	r1, #10272	; 0x2820
  202b7c:	f6c2 0220 	movt	r2, #10272	; 0x2820
  202b80:	f6c2 0320 	movt	r3, #10272	; 0x2820
  202b84:	3840      	subs	r0, #64	; 0x40
  202b86:	3160      	adds	r1, #96	; 0x60
  202b88:	3260      	adds	r2, #96	; 0x60
  202b8a:	3360      	adds	r3, #96	; 0x60
  202b8c:	f04f 0c40 	mov.w	ip, #64	; 0x40
  202b90:	f810 6f40 	ldrb.w	r6, [r0, #64]!
  202b94:	f1ac 0c20 	sub.w	ip, ip, #32
  202b98:	f803 6f20 	strb.w	r6, [r3, #32]!
  202b9c:	f802 6f20 	strb.w	r6, [r2, #32]!
  202ba0:	f801 6f20 	strb.w	r6, [r1, #32]!
  202ba4:	7a07      	ldrb	r7, [r0, #8]
  202ba6:	7886      	ldrb	r6, [r0, #2]
  202ba8:	711f      	strb	r7, [r3, #4]
  202baa:	7117      	strb	r7, [r2, #4]
  202bac:	710f      	strb	r7, [r1, #4]
  202bae:	7a87      	ldrb	r7, [r0, #10]
  202bb0:	705e      	strb	r6, [r3, #1]
  202bb2:	715f      	strb	r7, [r3, #5]
  202bb4:	7157      	strb	r7, [r2, #5]
  202bb6:	714f      	strb	r7, [r1, #5]
  202bb8:	7c87      	ldrb	r7, [r0, #18]
  202bba:	7056      	strb	r6, [r2, #1]
  202bbc:	704e      	strb	r6, [r1, #1]
  202bbe:	7b06      	ldrb	r6, [r0, #12]
  202bc0:	725f      	strb	r7, [r3, #9]
  202bc2:	7257      	strb	r7, [r2, #9]
  202bc4:	724f      	strb	r7, [r1, #9]
  202bc6:	7d07      	ldrb	r7, [r0, #20]
  202bc8:	719e      	strb	r6, [r3, #6]
  202bca:	7196      	strb	r6, [r2, #6]
  202bcc:	718e      	strb	r6, [r1, #6]
  202bce:	7d86      	ldrb	r6, [r0, #22]
  202bd0:	729f      	strb	r7, [r3, #10]
  202bd2:	7297      	strb	r7, [r2, #10]
  202bd4:	728f      	strb	r7, [r1, #10]
  202bd6:	7f07      	ldrb	r7, [r0, #28]
  202bd8:	72de      	strb	r6, [r3, #11]
  202bda:	72d6      	strb	r6, [r2, #11]
  202bdc:	72ce      	strb	r6, [r1, #11]
  202bde:	7f86      	ldrb	r6, [r0, #30]
  202be0:	739f      	strb	r7, [r3, #14]
  202be2:	7397      	strb	r7, [r2, #14]
  202be4:	738f      	strb	r7, [r1, #14]
  202be6:	f890 7020 	ldrb.w	r7, [r0, #32]
  202bea:	73de      	strb	r6, [r3, #15]
  202bec:	73d6      	strb	r6, [r2, #15]
  202bee:	73ce      	strb	r6, [r1, #15]
  202bf0:	f890 6022 	ldrb.w	r6, [r0, #34]	; 0x22
  202bf4:	741f      	strb	r7, [r3, #16]
  202bf6:	7417      	strb	r7, [r2, #16]
  202bf8:	740f      	strb	r7, [r1, #16]
  202bfa:	f890 7024 	ldrb.w	r7, [r0, #36]	; 0x24
  202bfe:	745e      	strb	r6, [r3, #17]
  202c00:	7456      	strb	r6, [r2, #17]
  202c02:	744e      	strb	r6, [r1, #17]
  202c04:	f890 6026 	ldrb.w	r6, [r0, #38]	; 0x26
  202c08:	749f      	strb	r7, [r3, #18]
  202c0a:	7497      	strb	r7, [r2, #18]
  202c0c:	748f      	strb	r7, [r1, #18]
  202c0e:	f890 7028 	ldrb.w	r7, [r0, #40]	; 0x28
  202c12:	74de      	strb	r6, [r3, #19]
  202c14:	74d6      	strb	r6, [r2, #19]
  202c16:	74ce      	strb	r6, [r1, #19]
  202c18:	f890 602a 	ldrb.w	r6, [r0, #42]	; 0x2a
  202c1c:	751f      	strb	r7, [r3, #20]
  202c1e:	7517      	strb	r7, [r2, #20]
  202c20:	750f      	strb	r7, [r1, #20]
  202c22:	f890 702c 	ldrb.w	r7, [r0, #44]	; 0x2c
  202c26:	755e      	strb	r6, [r3, #21]
  202c28:	7556      	strb	r6, [r2, #21]
  202c2a:	754e      	strb	r6, [r1, #21]
  202c2c:	f890 602e 	ldrb.w	r6, [r0, #46]	; 0x2e
  202c30:	759f      	strb	r7, [r3, #22]
  202c32:	7597      	strb	r7, [r2, #22]
  202c34:	758f      	strb	r7, [r1, #22]
  202c36:	f890 7030 	ldrb.w	r7, [r0, #48]	; 0x30
  202c3a:	75de      	strb	r6, [r3, #23]
  202c3c:	75d6      	strb	r6, [r2, #23]
  202c3e:	75ce      	strb	r6, [r1, #23]
  202c40:	f890 6032 	ldrb.w	r6, [r0, #50]	; 0x32
  202c44:	761f      	strb	r7, [r3, #24]
  202c46:	7617      	strb	r7, [r2, #24]
  202c48:	760f      	strb	r7, [r1, #24]
  202c4a:	f890 7034 	ldrb.w	r7, [r0, #52]	; 0x34
  202c4e:	7905      	ldrb	r5, [r0, #4]
  202c50:	7984      	ldrb	r4, [r0, #6]
  202c52:	765e      	strb	r6, [r3, #25]
  202c54:	7656      	strb	r6, [r2, #25]
  202c56:	764e      	strb	r6, [r1, #25]
  202c58:	f890 6036 	ldrb.w	r6, [r0, #54]	; 0x36
  202c5c:	769f      	strb	r7, [r3, #26]
  202c5e:	7697      	strb	r7, [r2, #26]
  202c60:	768f      	strb	r7, [r1, #26]
  202c62:	f890 7038 	ldrb.w	r7, [r0, #56]	; 0x38
  202c66:	709d      	strb	r5, [r3, #2]
  202c68:	7095      	strb	r5, [r2, #2]
  202c6a:	708d      	strb	r5, [r1, #2]
  202c6c:	70dc      	strb	r4, [r3, #3]
  202c6e:	70d4      	strb	r4, [r2, #3]
  202c70:	70cc      	strb	r4, [r1, #3]
  202c72:	7b85      	ldrb	r5, [r0, #14]
  202c74:	7c04      	ldrb	r4, [r0, #16]
  202c76:	76de      	strb	r6, [r3, #27]
  202c78:	76d6      	strb	r6, [r2, #27]
  202c7a:	76ce      	strb	r6, [r1, #27]
  202c7c:	f890 603a 	ldrb.w	r6, [r0, #58]	; 0x3a
  202c80:	771f      	strb	r7, [r3, #28]
  202c82:	7717      	strb	r7, [r2, #28]
  202c84:	770f      	strb	r7, [r1, #28]
  202c86:	f890 703c 	ldrb.w	r7, [r0, #60]	; 0x3c
  202c8a:	71dd      	strb	r5, [r3, #7]
  202c8c:	71d5      	strb	r5, [r2, #7]
  202c8e:	71cd      	strb	r5, [r1, #7]
  202c90:	721c      	strb	r4, [r3, #8]
  202c92:	7214      	strb	r4, [r2, #8]
  202c94:	720c      	strb	r4, [r1, #8]
  202c96:	7e05      	ldrb	r5, [r0, #24]
  202c98:	7e84      	ldrb	r4, [r0, #26]
  202c9a:	775e      	strb	r6, [r3, #29]
  202c9c:	7756      	strb	r6, [r2, #29]
  202c9e:	774e      	strb	r6, [r1, #29]
  202ca0:	f890 603e 	ldrb.w	r6, [r0, #62]	; 0x3e
  202ca4:	779f      	strb	r7, [r3, #30]
  202ca6:	7797      	strb	r7, [r2, #30]
  202ca8:	778f      	strb	r7, [r1, #30]
  202caa:	ea5f 670c 	movs.w	r7, ip, lsl #24
  202cae:	731d      	strb	r5, [r3, #12]
  202cb0:	7315      	strb	r5, [r2, #12]
  202cb2:	730d      	strb	r5, [r1, #12]
  202cb4:	735c      	strb	r4, [r3, #13]
  202cb6:	7354      	strb	r4, [r2, #13]
  202cb8:	734c      	strb	r4, [r1, #13]
  202cba:	77de      	strb	r6, [r3, #31]
  202cbc:	77d6      	strb	r6, [r2, #31]
  202cbe:	77ce      	strb	r6, [r1, #31]
  202cc0:	f47f af66 	bne.w	202b90 <benchmark_picojpeg+0x25b8>
  202cc4:	f7fe bafa 	b.w	2012bc <benchmark_picojpeg+0xce4>
  202cc8:	f240 40ea 	movw	r0, #1258	; 0x4ea
  202ccc:	f240 210e 	movw	r1, #526	; 0x20e
  202cd0:	f240 120e 	movw	r2, #270	; 0x10e
  202cd4:	f240 030e 	movw	r3, #14
  202cd8:	f6c2 0020 	movt	r0, #10272	; 0x2820
  202cdc:	f6c2 0120 	movt	r1, #10272	; 0x2820
  202ce0:	f6c2 0220 	movt	r2, #10272	; 0x2820
  202ce4:	f6c2 0320 	movt	r3, #10272	; 0x2820
  202ce8:	3840      	subs	r0, #64	; 0x40
  202cea:	31a0      	adds	r1, #160	; 0xa0
  202cec:	32a0      	adds	r2, #160	; 0xa0
  202cee:	33a0      	adds	r3, #160	; 0xa0
  202cf0:	f04f 0c40 	mov.w	ip, #64	; 0x40
  202cf4:	f810 6f40 	ldrb.w	r6, [r0, #64]!
  202cf8:	f1ac 0c20 	sub.w	ip, ip, #32
  202cfc:	f803 6f20 	strb.w	r6, [r3, #32]!
  202d00:	f802 6f20 	strb.w	r6, [r2, #32]!
  202d04:	f801 6f20 	strb.w	r6, [r1, #32]!
  202d08:	7a07      	ldrb	r7, [r0, #8]
  202d0a:	7886      	ldrb	r6, [r0, #2]
  202d0c:	711f      	strb	r7, [r3, #4]
  202d0e:	7117      	strb	r7, [r2, #4]
  202d10:	710f      	strb	r7, [r1, #4]
  202d12:	7a87      	ldrb	r7, [r0, #10]
  202d14:	705e      	strb	r6, [r3, #1]
  202d16:	715f      	strb	r7, [r3, #5]
  202d18:	7157      	strb	r7, [r2, #5]
  202d1a:	714f      	strb	r7, [r1, #5]
  202d1c:	7c87      	ldrb	r7, [r0, #18]
  202d1e:	7056      	strb	r6, [r2, #1]
  202d20:	704e      	strb	r6, [r1, #1]
  202d22:	7b06      	ldrb	r6, [r0, #12]
  202d24:	725f      	strb	r7, [r3, #9]
  202d26:	7257      	strb	r7, [r2, #9]
  202d28:	724f      	strb	r7, [r1, #9]
  202d2a:	7d07      	ldrb	r7, [r0, #20]
  202d2c:	719e      	strb	r6, [r3, #6]
  202d2e:	7196      	strb	r6, [r2, #6]
  202d30:	718e      	strb	r6, [r1, #6]
  202d32:	7d86      	ldrb	r6, [r0, #22]
  202d34:	729f      	strb	r7, [r3, #10]
  202d36:	7297      	strb	r7, [r2, #10]
  202d38:	728f      	strb	r7, [r1, #10]
  202d3a:	7f07      	ldrb	r7, [r0, #28]
  202d3c:	72de      	strb	r6, [r3, #11]
  202d3e:	72d6      	strb	r6, [r2, #11]
  202d40:	72ce      	strb	r6, [r1, #11]
  202d42:	7f86      	ldrb	r6, [r0, #30]
  202d44:	739f      	strb	r7, [r3, #14]
  202d46:	7397      	strb	r7, [r2, #14]
  202d48:	738f      	strb	r7, [r1, #14]
  202d4a:	f890 7020 	ldrb.w	r7, [r0, #32]
  202d4e:	73de      	strb	r6, [r3, #15]
  202d50:	73d6      	strb	r6, [r2, #15]
  202d52:	73ce      	strb	r6, [r1, #15]
  202d54:	f890 6022 	ldrb.w	r6, [r0, #34]	; 0x22
  202d58:	741f      	strb	r7, [r3, #16]
  202d5a:	7417      	strb	r7, [r2, #16]
  202d5c:	740f      	strb	r7, [r1, #16]
  202d5e:	f890 7024 	ldrb.w	r7, [r0, #36]	; 0x24
  202d62:	745e      	strb	r6, [r3, #17]
  202d64:	7456      	strb	r6, [r2, #17]
  202d66:	744e      	strb	r6, [r1, #17]
  202d68:	f890 6026 	ldrb.w	r6, [r0, #38]	; 0x26
  202d6c:	749f      	strb	r7, [r3, #18]
  202d6e:	7497      	strb	r7, [r2, #18]
  202d70:	748f      	strb	r7, [r1, #18]
  202d72:	f890 7028 	ldrb.w	r7, [r0, #40]	; 0x28
  202d76:	74de      	strb	r6, [r3, #19]
  202d78:	74d6      	strb	r6, [r2, #19]
  202d7a:	74ce      	strb	r6, [r1, #19]
  202d7c:	f890 602a 	ldrb.w	r6, [r0, #42]	; 0x2a
  202d80:	751f      	strb	r7, [r3, #20]
  202d82:	7517      	strb	r7, [r2, #20]
  202d84:	750f      	strb	r7, [r1, #20]
  202d86:	f890 702c 	ldrb.w	r7, [r0, #44]	; 0x2c
  202d8a:	755e      	strb	r6, [r3, #21]
  202d8c:	7556      	strb	r6, [r2, #21]
  202d8e:	754e      	strb	r6, [r1, #21]
  202d90:	f890 602e 	ldrb.w	r6, [r0, #46]	; 0x2e
  202d94:	759f      	strb	r7, [r3, #22]
  202d96:	7597      	strb	r7, [r2, #22]
  202d98:	758f      	strb	r7, [r1, #22]
  202d9a:	f890 7030 	ldrb.w	r7, [r0, #48]	; 0x30
  202d9e:	75de      	strb	r6, [r3, #23]
  202da0:	75d6      	strb	r6, [r2, #23]
  202da2:	75ce      	strb	r6, [r1, #23]
  202da4:	f890 6032 	ldrb.w	r6, [r0, #50]	; 0x32
  202da8:	761f      	strb	r7, [r3, #24]
  202daa:	7617      	strb	r7, [r2, #24]
  202dac:	760f      	strb	r7, [r1, #24]
  202dae:	f890 7034 	ldrb.w	r7, [r0, #52]	; 0x34
  202db2:	7905      	ldrb	r5, [r0, #4]
  202db4:	7984      	ldrb	r4, [r0, #6]
  202db6:	765e      	strb	r6, [r3, #25]
  202db8:	7656      	strb	r6, [r2, #25]
  202dba:	764e      	strb	r6, [r1, #25]
  202dbc:	f890 6036 	ldrb.w	r6, [r0, #54]	; 0x36
  202dc0:	769f      	strb	r7, [r3, #26]
  202dc2:	7697      	strb	r7, [r2, #26]
  202dc4:	768f      	strb	r7, [r1, #26]
  202dc6:	f890 7038 	ldrb.w	r7, [r0, #56]	; 0x38
  202dca:	709d      	strb	r5, [r3, #2]
  202dcc:	7095      	strb	r5, [r2, #2]
  202dce:	708d      	strb	r5, [r1, #2]
  202dd0:	70dc      	strb	r4, [r3, #3]
  202dd2:	70d4      	strb	r4, [r2, #3]
  202dd4:	70cc      	strb	r4, [r1, #3]
  202dd6:	7b85      	ldrb	r5, [r0, #14]
  202dd8:	7c04      	ldrb	r4, [r0, #16]
  202dda:	76de      	strb	r6, [r3, #27]
  202ddc:	76d6      	strb	r6, [r2, #27]
  202dde:	76ce      	strb	r6, [r1, #27]
  202de0:	f890 603a 	ldrb.w	r6, [r0, #58]	; 0x3a
  202de4:	771f      	strb	r7, [r3, #28]
  202de6:	7717      	strb	r7, [r2, #28]
  202de8:	770f      	strb	r7, [r1, #28]
  202dea:	f890 703c 	ldrb.w	r7, [r0, #60]	; 0x3c
  202dee:	71dd      	strb	r5, [r3, #7]
  202df0:	71d5      	strb	r5, [r2, #7]
  202df2:	71cd      	strb	r5, [r1, #7]
  202df4:	721c      	strb	r4, [r3, #8]
  202df6:	7214      	strb	r4, [r2, #8]
  202df8:	720c      	strb	r4, [r1, #8]
  202dfa:	7e05      	ldrb	r5, [r0, #24]
  202dfc:	7e84      	ldrb	r4, [r0, #26]
  202dfe:	775e      	strb	r6, [r3, #29]
  202e00:	7756      	strb	r6, [r2, #29]
  202e02:	774e      	strb	r6, [r1, #29]
  202e04:	f890 603e 	ldrb.w	r6, [r0, #62]	; 0x3e
  202e08:	779f      	strb	r7, [r3, #30]
  202e0a:	7797      	strb	r7, [r2, #30]
  202e0c:	778f      	strb	r7, [r1, #30]
  202e0e:	ea5f 670c 	movs.w	r7, ip, lsl #24
  202e12:	731d      	strb	r5, [r3, #12]
  202e14:	7315      	strb	r5, [r2, #12]
  202e16:	730d      	strb	r5, [r1, #12]
  202e18:	735c      	strb	r4, [r3, #13]
  202e1a:	7354      	strb	r4, [r2, #13]
  202e1c:	734c      	strb	r4, [r1, #13]
  202e1e:	77de      	strb	r6, [r3, #31]
  202e20:	77d6      	strb	r6, [r2, #31]
  202e22:	77ce      	strb	r6, [r1, #31]
  202e24:	f47f af66 	bne.w	202cf4 <benchmark_picojpeg+0x271c>
  202e28:	f7fe ba48 	b.w	2012bc <benchmark_picojpeg+0xce4>
  202e2c:	f240 40ea 	movw	r0, #1258	; 0x4ea
  202e30:	f240 210e 	movw	r1, #526	; 0x20e
  202e34:	f240 120e 	movw	r2, #270	; 0x10e
  202e38:	f240 030e 	movw	r3, #14
  202e3c:	f6c2 0020 	movt	r0, #10272	; 0x2820
  202e40:	f6c2 0120 	movt	r1, #10272	; 0x2820
  202e44:	f6c2 0220 	movt	r2, #10272	; 0x2820
  202e48:	f6c2 0320 	movt	r3, #10272	; 0x2820
  202e4c:	3840      	subs	r0, #64	; 0x40
  202e4e:	3120      	adds	r1, #32
  202e50:	3220      	adds	r2, #32
  202e52:	3320      	adds	r3, #32
  202e54:	f04f 0c40 	mov.w	ip, #64	; 0x40
  202e58:	f810 6f40 	ldrb.w	r6, [r0, #64]!
  202e5c:	f1ac 0c20 	sub.w	ip, ip, #32
  202e60:	f803 6f20 	strb.w	r6, [r3, #32]!
  202e64:	f802 6f20 	strb.w	r6, [r2, #32]!
  202e68:	f801 6f20 	strb.w	r6, [r1, #32]!
  202e6c:	7a07      	ldrb	r7, [r0, #8]
  202e6e:	7886      	ldrb	r6, [r0, #2]
  202e70:	711f      	strb	r7, [r3, #4]
  202e72:	7117      	strb	r7, [r2, #4]
  202e74:	710f      	strb	r7, [r1, #4]
  202e76:	7a87      	ldrb	r7, [r0, #10]
  202e78:	705e      	strb	r6, [r3, #1]
  202e7a:	715f      	strb	r7, [r3, #5]
  202e7c:	7157      	strb	r7, [r2, #5]
  202e7e:	714f      	strb	r7, [r1, #5]
  202e80:	7c87      	ldrb	r7, [r0, #18]
  202e82:	7056      	strb	r6, [r2, #1]
  202e84:	704e      	strb	r6, [r1, #1]
  202e86:	7b06      	ldrb	r6, [r0, #12]
  202e88:	725f      	strb	r7, [r3, #9]
  202e8a:	7257      	strb	r7, [r2, #9]
  202e8c:	724f      	strb	r7, [r1, #9]
  202e8e:	7d07      	ldrb	r7, [r0, #20]
  202e90:	719e      	strb	r6, [r3, #6]
  202e92:	7196      	strb	r6, [r2, #6]
  202e94:	718e      	strb	r6, [r1, #6]
  202e96:	7d86      	ldrb	r6, [r0, #22]
  202e98:	729f      	strb	r7, [r3, #10]
  202e9a:	7297      	strb	r7, [r2, #10]
  202e9c:	728f      	strb	r7, [r1, #10]
  202e9e:	7f07      	ldrb	r7, [r0, #28]
  202ea0:	72de      	strb	r6, [r3, #11]
  202ea2:	72d6      	strb	r6, [r2, #11]
  202ea4:	72ce      	strb	r6, [r1, #11]
  202ea6:	7f86      	ldrb	r6, [r0, #30]
  202ea8:	739f      	strb	r7, [r3, #14]
  202eaa:	7397      	strb	r7, [r2, #14]
  202eac:	738f      	strb	r7, [r1, #14]
  202eae:	f890 7020 	ldrb.w	r7, [r0, #32]
  202eb2:	73de      	strb	r6, [r3, #15]
  202eb4:	73d6      	strb	r6, [r2, #15]
  202eb6:	73ce      	strb	r6, [r1, #15]
  202eb8:	f890 6022 	ldrb.w	r6, [r0, #34]	; 0x22
  202ebc:	741f      	strb	r7, [r3, #16]
  202ebe:	7417      	strb	r7, [r2, #16]
  202ec0:	740f      	strb	r7, [r1, #16]
  202ec2:	f890 7024 	ldrb.w	r7, [r0, #36]	; 0x24
  202ec6:	745e      	strb	r6, [r3, #17]
  202ec8:	7456      	strb	r6, [r2, #17]
  202eca:	744e      	strb	r6, [r1, #17]
  202ecc:	f890 6026 	ldrb.w	r6, [r0, #38]	; 0x26
  202ed0:	749f      	strb	r7, [r3, #18]
  202ed2:	7497      	strb	r7, [r2, #18]
  202ed4:	748f      	strb	r7, [r1, #18]
  202ed6:	f890 7028 	ldrb.w	r7, [r0, #40]	; 0x28
  202eda:	74de      	strb	r6, [r3, #19]
  202edc:	74d6      	strb	r6, [r2, #19]
  202ede:	74ce      	strb	r6, [r1, #19]
  202ee0:	f890 602a 	ldrb.w	r6, [r0, #42]	; 0x2a
  202ee4:	751f      	strb	r7, [r3, #20]
  202ee6:	7517      	strb	r7, [r2, #20]
  202ee8:	750f      	strb	r7, [r1, #20]
  202eea:	f890 702c 	ldrb.w	r7, [r0, #44]	; 0x2c
  202eee:	755e      	strb	r6, [r3, #21]
  202ef0:	7556      	strb	r6, [r2, #21]
  202ef2:	754e      	strb	r6, [r1, #21]
  202ef4:	f890 602e 	ldrb.w	r6, [r0, #46]	; 0x2e
  202ef8:	759f      	strb	r7, [r3, #22]
  202efa:	7597      	strb	r7, [r2, #22]
  202efc:	758f      	strb	r7, [r1, #22]
  202efe:	f890 7030 	ldrb.w	r7, [r0, #48]	; 0x30
  202f02:	75de      	strb	r6, [r3, #23]
  202f04:	75d6      	strb	r6, [r2, #23]
  202f06:	75ce      	strb	r6, [r1, #23]
  202f08:	f890 6032 	ldrb.w	r6, [r0, #50]	; 0x32
  202f0c:	761f      	strb	r7, [r3, #24]
  202f0e:	7617      	strb	r7, [r2, #24]
  202f10:	760f      	strb	r7, [r1, #24]
  202f12:	f890 7034 	ldrb.w	r7, [r0, #52]	; 0x34
  202f16:	7905      	ldrb	r5, [r0, #4]
  202f18:	7984      	ldrb	r4, [r0, #6]
  202f1a:	765e      	strb	r6, [r3, #25]
  202f1c:	7656      	strb	r6, [r2, #25]
  202f1e:	764e      	strb	r6, [r1, #25]
  202f20:	f890 6036 	ldrb.w	r6, [r0, #54]	; 0x36
  202f24:	769f      	strb	r7, [r3, #26]
  202f26:	7697      	strb	r7, [r2, #26]
  202f28:	768f      	strb	r7, [r1, #26]
  202f2a:	f890 7038 	ldrb.w	r7, [r0, #56]	; 0x38
  202f2e:	709d      	strb	r5, [r3, #2]
  202f30:	7095      	strb	r5, [r2, #2]
  202f32:	708d      	strb	r5, [r1, #2]
  202f34:	70dc      	strb	r4, [r3, #3]
  202f36:	70d4      	strb	r4, [r2, #3]
  202f38:	70cc      	strb	r4, [r1, #3]
  202f3a:	7b85      	ldrb	r5, [r0, #14]
  202f3c:	7c04      	ldrb	r4, [r0, #16]
  202f3e:	76de      	strb	r6, [r3, #27]
  202f40:	76d6      	strb	r6, [r2, #27]
  202f42:	76ce      	strb	r6, [r1, #27]
  202f44:	f890 603a 	ldrb.w	r6, [r0, #58]	; 0x3a
  202f48:	771f      	strb	r7, [r3, #28]
  202f4a:	7717      	strb	r7, [r2, #28]
  202f4c:	770f      	strb	r7, [r1, #28]
  202f4e:	f890 703c 	ldrb.w	r7, [r0, #60]	; 0x3c
  202f52:	71dd      	strb	r5, [r3, #7]
  202f54:	71d5      	strb	r5, [r2, #7]
  202f56:	71cd      	strb	r5, [r1, #7]
  202f58:	721c      	strb	r4, [r3, #8]
  202f5a:	7214      	strb	r4, [r2, #8]
  202f5c:	720c      	strb	r4, [r1, #8]
  202f5e:	7e05      	ldrb	r5, [r0, #24]
  202f60:	7e84      	ldrb	r4, [r0, #26]
  202f62:	775e      	strb	r6, [r3, #29]
  202f64:	7756      	strb	r6, [r2, #29]
  202f66:	774e      	strb	r6, [r1, #29]
  202f68:	f890 603e 	ldrb.w	r6, [r0, #62]	; 0x3e
  202f6c:	779f      	strb	r7, [r3, #30]
  202f6e:	7797      	strb	r7, [r2, #30]
  202f70:	778f      	strb	r7, [r1, #30]
  202f72:	ea5f 670c 	movs.w	r7, ip, lsl #24
  202f76:	731d      	strb	r5, [r3, #12]
  202f78:	7315      	strb	r5, [r2, #12]
  202f7a:	730d      	strb	r5, [r1, #12]
  202f7c:	735c      	strb	r4, [r3, #13]
  202f7e:	7354      	strb	r4, [r2, #13]
  202f80:	734c      	strb	r4, [r1, #13]
  202f82:	77de      	strb	r6, [r3, #31]
  202f84:	77d6      	strb	r6, [r2, #31]
  202f86:	77ce      	strb	r6, [r1, #31]
  202f88:	f47f af66 	bne.w	202e58 <benchmark_picojpeg+0x2880>
  202f8c:	f7fe b996 	b.w	2012bc <benchmark_picojpeg+0xce4>
  202f90:	2000      	movs	r0, #0
  202f92:	2100      	movs	r1, #0
  202f94:	f003 fd20 	bl	2069d8 <upsampleCr>
  202f98:	2004      	movs	r0, #4
  202f9a:	2140      	movs	r1, #64	; 0x40
  202f9c:	f003 fd1c 	bl	2069d8 <upsampleCr>
  202fa0:	2020      	movs	r0, #32
  202fa2:	2180      	movs	r1, #128	; 0x80
  202fa4:	f003 fd18 	bl	2069d8 <upsampleCr>
  202fa8:	2024      	movs	r0, #36	; 0x24
  202faa:	21c0      	movs	r1, #192	; 0xc0
  202fac:	f003 fd14 	bl	2069d8 <upsampleCr>
  202fb0:	f7fe b984 	b.w	2012bc <benchmark_picojpeg+0xce4>
  202fb4:	f640 1028 	movw	r0, #2344	; 0x928
  202fb8:	f6c2 0020 	movt	r0, #10272	; 0x2820
  202fbc:	6807      	ldr	r7, [r0, #0]
  202fbe:	f640 0012 	movw	r0, #2066	; 0x812
  202fc2:	f6c2 0020 	movt	r0, #10272	; 0x2820
  202fc6:	781e      	ldrb	r6, [r3, #0]
  202fc8:	f89e 4000 	ldrb.w	r4, [lr]
  202fcc:	f890 a000 	ldrb.w	sl, [r0]
  202fd0:	f44f 65c0 	mov.w	r5, #1536	; 0x600
  202fd4:	e019      	b.n	20300a <benchmark_picojpeg+0x2a32>
  202fd6:	bf00      	nop
  202fd8:	f640 0c10 	movw	ip, #2064	; 0x810
  202fdc:	f640 1e14 	movw	lr, #2324	; 0x914
  202fe0:	f6c2 0c20 	movt	ip, #10272	; 0x2820
  202fe4:	f6c2 0e20 	movt	lr, #10272	; 0x2820
  202fe8:	f640 0114 	movw	r1, #2068	; 0x814
  202fec:	b2e0      	uxtb	r0, r4
  202fee:	f6c2 0120 	movt	r1, #10272	; 0x2820
  202ff2:	5c08      	ldrb	r0, [r1, r0]
  202ff4:	3e01      	subs	r6, #1
  202ff6:	3401      	adds	r4, #1
  202ff8:	28ff      	cmp	r0, #255	; 0xff
  202ffa:	701e      	strb	r6, [r3, #0]
  202ffc:	f88e 4000 	strb.w	r4, [lr]
  203000:	d057      	beq.n	2030b2 <benchmark_picojpeg+0x2ada>
  203002:	3d01      	subs	r5, #1
  203004:	0428      	lsls	r0, r5, #16
  203006:	f43e a91d 	beq.w	201244 <benchmark_picojpeg+0xc6c>
  20300a:	0630      	lsls	r0, r6, #24
  20300c:	d1ec      	bne.n	202fe8 <benchmark_picojpeg+0x2a10>
  20300e:	f240 203a 	movw	r0, #570	; 0x23a
  203012:	2404      	movs	r4, #4
  203014:	1bc6      	subs	r6, r0, r7
  203016:	20fc      	movs	r0, #252	; 0xfc
  203018:	f88e 4000 	strb.w	r4, [lr]
  20301c:	2efc      	cmp	r6, #252	; 0xfc
  20301e:	bf28      	it	cs
  203020:	4606      	movcs	r6, r0
  203022:	f247 106c 	movw	r0, #29036	; 0x716c
  203026:	f2c0 0020 	movt	r0, #32
  20302a:	19c1      	adds	r1, r0, r7
  20302c:	9807      	ldr	r0, [sp, #28]
  20302e:	4632      	mov	r2, r6
  203030:	f7fd fa38 	bl	2004a4 <__rt_memcpy>
  203034:	0630      	lsls	r0, r6, #24
  203036:	f640 0311 	movw	r3, #2065	; 0x811
  20303a:	f640 1028 	movw	r0, #2344	; 0x928
  20303e:	f6c2 0320 	movt	r3, #10272	; 0x2820
  203042:	4437      	add	r7, r6
  203044:	f6c2 0020 	movt	r0, #10272	; 0x2820
  203048:	701e      	strb	r6, [r3, #0]
  20304a:	6007      	str	r7, [r0, #0]
  20304c:	d1c4      	bne.n	202fd8 <benchmark_picojpeg+0x2a00>
  20304e:	f640 0012 	movw	r0, #2066	; 0x812
  203052:	f640 0c10 	movw	ip, #2064	; 0x810
  203056:	f640 1e14 	movw	lr, #2324	; 0x914
  20305a:	f1ba 0fff 	cmp.w	sl, #255	; 0xff
  20305e:	f08a 0aff 	eor.w	sl, sl, #255	; 0xff
  203062:	f6c2 0020 	movt	r0, #10272	; 0x2820
  203066:	f04f 0600 	mov.w	r6, #0
  20306a:	f04f 0404 	mov.w	r4, #4
  20306e:	f6c2 0c20 	movt	ip, #10272	; 0x2820
  203072:	f6c2 0e20 	movt	lr, #10272	; 0x2820
  203076:	f880 a000 	strb.w	sl, [r0]
  20307a:	d0c2      	beq.n	203002 <benchmark_picojpeg+0x2a2a>
  20307c:	e019      	b.n	2030b2 <benchmark_picojpeg+0x2ada>
  20307e:	bf00      	nop
  203080:	f640 0c10 	movw	ip, #2064	; 0x810
  203084:	f640 1e14 	movw	lr, #2324	; 0x914
  203088:	f6c2 0c20 	movt	ip, #10272	; 0x2820
  20308c:	f6c2 0e20 	movt	lr, #10272	; 0x2820
  203090:	f640 0114 	movw	r1, #2068	; 0x814
  203094:	b2e0      	uxtb	r0, r4
  203096:	f6c2 0120 	movt	r1, #10272	; 0x2820
  20309a:	5c08      	ldrb	r0, [r1, r0]
  20309c:	3e01      	subs	r6, #1
  20309e:	3401      	adds	r4, #1
  2030a0:	28ff      	cmp	r0, #255	; 0xff
  2030a2:	701e      	strb	r6, [r3, #0]
  2030a4:	f88e 4000 	strb.w	r4, [lr]
  2030a8:	d144      	bne.n	203134 <benchmark_picojpeg+0x2b5c>
  2030aa:	3d01      	subs	r5, #1
  2030ac:	0428      	lsls	r0, r5, #16
  2030ae:	f43e a8c9 	beq.w	201244 <benchmark_picojpeg+0xc6c>
  2030b2:	0630      	lsls	r0, r6, #24
  2030b4:	d1ec      	bne.n	203090 <benchmark_picojpeg+0x2ab8>
  2030b6:	f240 203a 	movw	r0, #570	; 0x23a
  2030ba:	2404      	movs	r4, #4
  2030bc:	1bc6      	subs	r6, r0, r7
  2030be:	20fc      	movs	r0, #252	; 0xfc
  2030c0:	f88e 4000 	strb.w	r4, [lr]
  2030c4:	2efc      	cmp	r6, #252	; 0xfc
  2030c6:	bf28      	it	cs
  2030c8:	4606      	movcs	r6, r0
  2030ca:	f247 106c 	movw	r0, #29036	; 0x716c
  2030ce:	f2c0 0020 	movt	r0, #32
  2030d2:	19c1      	adds	r1, r0, r7
  2030d4:	9807      	ldr	r0, [sp, #28]
  2030d6:	4632      	mov	r2, r6
  2030d8:	f7fd f9e4 	bl	2004a4 <__rt_memcpy>
  2030dc:	0630      	lsls	r0, r6, #24
  2030de:	f640 0311 	movw	r3, #2065	; 0x811
  2030e2:	f640 1028 	movw	r0, #2344	; 0x928
  2030e6:	f6c2 0320 	movt	r3, #10272	; 0x2820
  2030ea:	4437      	add	r7, r6
  2030ec:	f6c2 0020 	movt	r0, #10272	; 0x2820
  2030f0:	701e      	strb	r6, [r3, #0]
  2030f2:	6007      	str	r7, [r0, #0]
  2030f4:	d1c4      	bne.n	203080 <benchmark_picojpeg+0x2aa8>
  2030f6:	f640 0112 	movw	r1, #2066	; 0x812
  2030fa:	f08a 00ff 	eor.w	r0, sl, #255	; 0xff
  2030fe:	f1ba 0fff 	cmp.w	sl, #255	; 0xff
  203102:	f6c2 0120 	movt	r1, #10272	; 0x2820
  203106:	7008      	strb	r0, [r1, #0]
  203108:	d00b      	beq.n	203122 <benchmark_picojpeg+0x2b4a>
  20310a:	f640 0c10 	movw	ip, #2064	; 0x810
  20310e:	f640 1e14 	movw	lr, #2324	; 0x914
  203112:	2600      	movs	r6, #0
  203114:	2404      	movs	r4, #4
  203116:	4682      	mov	sl, r0
  203118:	f6c2 0c20 	movt	ip, #10272	; 0x2820
  20311c:	f6c2 0e20 	movt	lr, #10272	; 0x2820
  203120:	e7c3      	b.n	2030aa <benchmark_picojpeg+0x2ad2>
  203122:	f640 0c10 	movw	ip, #2064	; 0x810
  203126:	f640 1e14 	movw	lr, #2324	; 0x914
  20312a:	20d9      	movs	r0, #217	; 0xd9
  20312c:	f6c2 0c20 	movt	ip, #10272	; 0x2820
  203130:	f6c2 0e20 	movt	lr, #10272	; 0x2820
  203134:	f640 010e 	movw	r1, #2062	; 0x80e
  203138:	f6c2 0120 	movt	r1, #10272	; 0x2820
  20313c:	8809      	ldrh	r1, [r1, #0]
  20313e:	f101 02d0 	add.w	r2, r1, #208	; 0xd0
  203142:	4282      	cmp	r2, r0
  203144:	f47e a87e 	bne.w	201244 <benchmark_picojpeg+0xc6c>
  203148:	f240 40e4 	movw	r0, #1252	; 0x4e4
  20314c:	f6c2 0020 	movt	r0, #10272	; 0x2820
  203150:	2200      	movs	r2, #0
  203152:	6002      	str	r2, [r0, #0]
  203154:	8082      	strh	r2, [r0, #4]
  203156:	1c48      	adds	r0, r1, #1
  203158:	f640 010e 	movw	r1, #2062	; 0x80e
  20315c:	f000 0007 	and.w	r0, r0, #7
  203160:	f6c2 0120 	movt	r1, #10272	; 0x2820
  203164:	8008      	strh	r0, [r1, #0]
  203166:	f88c 2000 	strb.w	r2, [ip]
  20316a:	f001 f81d 	bl	2041a8 <getOctet>
  20316e:	f640 1116 	movw	r1, #2326	; 0x916
  203172:	0200      	lsls	r0, r0, #8
  203174:	f6c2 0120 	movt	r1, #10272	; 0x2820
  203178:	f640 0311 	movw	r3, #2065	; 0x811
  20317c:	f640 1e14 	movw	lr, #2324	; 0x914
  203180:	f640 0c10 	movw	ip, #2064	; 0x810
  203184:	8008      	strh	r0, [r1, #0]
  203186:	f240 3114 	movw	r1, #788	; 0x314
  20318a:	f6c2 0320 	movt	r3, #10272	; 0x2820
  20318e:	f6c2 0e20 	movt	lr, #10272	; 0x2820
  203192:	f6c2 0c20 	movt	ip, #10272	; 0x2820
  203196:	4640      	mov	r0, r8
  203198:	f6c2 0120 	movt	r1, #10272	; 0x2820
  20319c:	f7fe b883 	b.w	2012a6 <benchmark_picojpeg+0xcce>
  2031a0:	9900      	ldr	r1, [sp, #0]
  2031a2:	f640 1016 	movw	r0, #2326	; 0x916
  2031a6:	2903      	cmp	r1, #3
  2031a8:	f6c2 0020 	movt	r0, #10272	; 0x2820
  2031ac:	8003      	strh	r3, [r0, #0]
  2031ae:	d03e      	beq.n	20322e <benchmark_picojpeg+0x2c56>
  2031b0:	f640 101e 	movw	r0, #2334	; 0x91e
  2031b4:	2901      	cmp	r1, #1
  2031b6:	f6c2 0020 	movt	r0, #10272	; 0x2820
  2031ba:	f47e a82c 	bne.w	201216 <benchmark_picojpeg+0xc3e>
  2031be:	7800      	ldrb	r0, [r0, #0]
  2031c0:	2801      	cmp	r0, #1
  2031c2:	f47e a828 	bne.w	201216 <benchmark_picojpeg+0xc3e>
  2031c6:	f640 1021 	movw	r0, #2337	; 0x921
  2031ca:	f6c2 0020 	movt	r0, #10272	; 0x2820
  2031ce:	7800      	ldrb	r0, [r0, #0]
  2031d0:	2801      	cmp	r0, #1
  2031d2:	f47e a820 	bne.w	201216 <benchmark_picojpeg+0xc3e>
  2031d6:	f240 0107 	movw	r1, #7
  2031da:	2000      	movs	r0, #0
  2031dc:	f6c2 0120 	movt	r1, #10272	; 0x2820
  2031e0:	f240 3216 	movw	r2, #790	; 0x316
  2031e4:	7008      	strb	r0, [r1, #0]
  2031e6:	2101      	movs	r1, #1
  2031e8:	f6c2 0220 	movt	r2, #10272	; 0x2820
  2031ec:	7011      	strb	r1, [r2, #0]
  2031ee:	f240 3118 	movw	r1, #792	; 0x318
  2031f2:	f8dd 9000 	ldr.w	r9, [sp]
  2031f6:	f6c2 0120 	movt	r1, #10272	; 0x2820
  2031fa:	7008      	strb	r0, [r1, #0]
  2031fc:	2107      	movs	r1, #7
  2031fe:	2003      	movs	r0, #3
  203200:	e07f      	b.n	203302 <benchmark_picojpeg+0x2d2a>
  203202:	f640 0212 	movw	r2, #2066	; 0x812
  203206:	f6c2 0220 	movt	r2, #10272	; 0x2820
  20320a:	7810      	ldrb	r0, [r2, #0]
  20320c:	f640 0c10 	movw	ip, #2064	; 0x810
  203210:	43c1      	mvns	r1, r0
  203212:	7011      	strb	r1, [r2, #0]
  203214:	f04f 31ff 	mov.w	r1, #4294967295
  203218:	28ff      	cmp	r0, #255	; 0xff
  20321a:	bf08      	it	eq
  20321c:	f06f 0126 	mvneq.w	r1, #38	; 0x26
  203220:	9f01      	ldr	r7, [sp, #4]
  203222:	2600      	movs	r6, #0
  203224:	2004      	movs	r0, #4
  203226:	f6c2 0c20 	movt	ip, #10272	; 0x2820
  20322a:	f7fd bd0f 	b.w	200c4c <benchmark_picojpeg+0x674>
  20322e:	f640 111e 	movw	r1, #2334	; 0x91e
  203232:	f6c2 0120 	movt	r1, #10272	; 0x2820
  203236:	7848      	ldrb	r0, [r1, #1]
  203238:	2801      	cmp	r0, #1
  20323a:	f47d afec 	bne.w	201216 <benchmark_picojpeg+0xc3e>
  20323e:	f640 1021 	movw	r0, #2337	; 0x921
  203242:	f6c2 0020 	movt	r0, #10272	; 0x2820
  203246:	7840      	ldrb	r0, [r0, #1]
  203248:	2801      	cmp	r0, #1
  20324a:	f47d afe4 	bne.w	201216 <benchmark_picojpeg+0xc3e>
  20324e:	7888      	ldrb	r0, [r1, #2]
  203250:	2801      	cmp	r0, #1
  203252:	f47d afe0 	bne.w	201216 <benchmark_picojpeg+0xc3e>
  203256:	f640 1021 	movw	r0, #2337	; 0x921
  20325a:	f6c2 0020 	movt	r0, #10272	; 0x2820
  20325e:	7880      	ldrb	r0, [r0, #2]
  203260:	2801      	cmp	r0, #1
  203262:	f47d afd8 	bne.w	201216 <benchmark_picojpeg+0xc3e>
  203266:	f640 1021 	movw	r0, #2337	; 0x921
  20326a:	7809      	ldrb	r1, [r1, #0]
  20326c:	f6c2 0020 	movt	r0, #10272	; 0x2820
  203270:	7800      	ldrb	r0, [r0, #0]
  203272:	2901      	cmp	r1, #1
  203274:	bf08      	it	eq
  203276:	2801      	cmpeq	r0, #1
  203278:	d02b      	beq.n	2032d2 <benchmark_picojpeg+0x2cfa>
  20327a:	2901      	cmp	r1, #1
  20327c:	bf08      	it	eq
  20327e:	2802      	cmpeq	r0, #2
  203280:	f000 808f 	beq.w	2033a2 <benchmark_picojpeg+0x2dca>
  203284:	2902      	cmp	r1, #2
  203286:	bf08      	it	eq
  203288:	2801      	cmpeq	r0, #1
  20328a:	f000 80a5 	beq.w	2033d8 <benchmark_picojpeg+0x2e00>
  20328e:	2902      	cmp	r1, #2
  203290:	bf08      	it	eq
  203292:	2802      	cmpeq	r0, #2
  203294:	f47d afbf 	bne.w	201216 <benchmark_picojpeg+0xc3e>
  203298:	f240 0107 	movw	r1, #7
  20329c:	2004      	movs	r0, #4
  20329e:	f6c2 0120 	movt	r1, #10272	; 0x2820
  2032a2:	f240 3216 	movw	r2, #790	; 0x316
  2032a6:	7008      	strb	r0, [r1, #0]
  2032a8:	2106      	movs	r1, #6
  2032aa:	f6c2 0220 	movt	r2, #10272	; 0x2820
  2032ae:	7011      	strb	r1, [r2, #0]
  2032b0:	f240 3218 	movw	r2, #792	; 0x318
  2032b4:	2100      	movs	r1, #0
  2032b6:	f6c2 0220 	movt	r2, #10272	; 0x2820
  2032ba:	f8dd 9000 	ldr.w	r9, [sp]
  2032be:	6011      	str	r1, [r2, #0]
  2032c0:	f240 2101 	movw	r1, #513	; 0x201
  2032c4:	8091      	strh	r1, [r2, #4]
  2032c6:	210f      	movs	r1, #15
  2032c8:	2310      	movs	r3, #16
  2032ca:	2610      	movs	r6, #16
  2032cc:	2204      	movs	r2, #4
  2032ce:	270f      	movs	r7, #15
  2032d0:	e01b      	b.n	20330a <benchmark_picojpeg+0x2d32>
  2032d2:	f240 0107 	movw	r1, #7
  2032d6:	2001      	movs	r0, #1
  2032d8:	f6c2 0120 	movt	r1, #10272	; 0x2820
  2032dc:	7008      	strb	r0, [r1, #0]
  2032de:	f240 3116 	movw	r1, #790	; 0x316
  2032e2:	2003      	movs	r0, #3
  2032e4:	f6c2 0120 	movt	r1, #10272	; 0x2820
  2032e8:	f240 3218 	movw	r2, #792	; 0x318
  2032ec:	7008      	strb	r0, [r1, #0]
  2032ee:	f44f 7180 	mov.w	r1, #256	; 0x100
  2032f2:	f6c2 0220 	movt	r2, #10272	; 0x2820
  2032f6:	f8dd 9000 	ldr.w	r9, [sp]
  2032fa:	8011      	strh	r1, [r2, #0]
  2032fc:	2102      	movs	r1, #2
  2032fe:	7091      	strb	r1, [r2, #2]
  203300:	2107      	movs	r1, #7
  203302:	2308      	movs	r3, #8
  203304:	2608      	movs	r6, #8
  203306:	2203      	movs	r2, #3
  203308:	2707      	movs	r7, #7
  20330a:	f240 050c 	movw	r5, #12
  20330e:	f6c2 0520 	movt	r5, #10272	; 0x2820
  203312:	702b      	strb	r3, [r5, #0]
  203314:	f240 030d 	movw	r3, #13
  203318:	f6c2 0320 	movt	r3, #10272	; 0x2820
  20331c:	701e      	strb	r6, [r3, #0]
  20331e:	9b01      	ldr	r3, [sp, #4]
  203320:	443b      	add	r3, r7
  203322:	fa23 f202 	lsr.w	r2, r3, r2
  203326:	f240 0308 	movw	r3, #8
  20332a:	f6c2 0320 	movt	r3, #10272	; 0x2820
  20332e:	801a      	strh	r2, [r3, #0]
  203330:	9b03      	ldr	r3, [sp, #12]
  203332:	4419      	add	r1, r3
  203334:	fa21 f000 	lsr.w	r0, r1, r0
  203338:	f240 010a 	movw	r1, #10
  20333c:	f6c2 0120 	movt	r1, #10272	; 0x2820
  203340:	fb00 f202 	mul.w	r2, r0, r2
  203344:	8008      	strh	r0, [r1, #0]
  203346:	f240 0000 	movw	r0, #0
  20334a:	f6c2 0020 	movt	r0, #10272	; 0x2820
  20334e:	8002      	strh	r2, [r0, #0]
  203350:	f10d 002b 	add.w	r0, sp, #43	; 0x2b
  203354:	f001 f812 	bl	20437c <processMarkers>
  203358:	f640 0c10 	movw	ip, #2064	; 0x810
  20335c:	f640 1e14 	movw	lr, #2324	; 0x914
  203360:	2800      	cmp	r0, #0
  203362:	f6c2 0c20 	movt	ip, #10272	; 0x2820
  203366:	f6c2 0e20 	movt	lr, #10272	; 0x2820
  20336a:	f47d af54 	bne.w	201216 <benchmark_picojpeg+0xc3e>
  20336e:	f89d 002b 	ldrb.w	r0, [sp, #43]	; 0x2b
  203372:	28d9      	cmp	r0, #217	; 0xd9
  203374:	f43d af4f 	beq.w	201216 <benchmark_picojpeg+0xc3e>
  203378:	28da      	cmp	r0, #218	; 0xda
  20337a:	f47d af4c 	bne.w	201216 <benchmark_picojpeg+0xc3e>
  20337e:	f640 1016 	movw	r0, #2326	; 0x916
  203382:	f640 0311 	movw	r3, #2065	; 0x811
  203386:	f6c2 0020 	movt	r0, #10272	; 0x2820
  20338a:	f6c2 0320 	movt	r3, #10272	; 0x2820
  20338e:	8804      	ldrh	r4, [r0, #0]
  203390:	781e      	ldrb	r6, [r3, #0]
  203392:	f89c 8000 	ldrb.w	r8, [ip]
  203396:	fa04 fa08 	lsl.w	sl, r4, r8
  20339a:	b3ce      	cbz	r6, 203410 <benchmark_picojpeg+0x2e38>
  20339c:	f89e 7000 	ldrb.w	r7, [lr]
  2033a0:	e05d      	b.n	20345e <benchmark_picojpeg+0x2e86>
  2033a2:	f240 0007 	movw	r0, #7
  2033a6:	2203      	movs	r2, #3
  2033a8:	f6c2 0020 	movt	r0, #10272	; 0x2820
  2033ac:	f240 3116 	movw	r1, #790	; 0x316
  2033b0:	7002      	strb	r2, [r0, #0]
  2033b2:	2004      	movs	r0, #4
  2033b4:	f6c2 0120 	movt	r1, #10272	; 0x2820
  2033b8:	7008      	strb	r0, [r1, #0]
  2033ba:	2100      	movs	r1, #0
  2033bc:	f240 3318 	movw	r3, #792	; 0x318
  2033c0:	f8dd 9000 	ldr.w	r9, [sp]
  2033c4:	f2c0 2101 	movt	r1, #513	; 0x201
  2033c8:	f6c2 0320 	movt	r3, #10272	; 0x2820
  2033cc:	6019      	str	r1, [r3, #0]
  2033ce:	2707      	movs	r7, #7
  2033d0:	210f      	movs	r1, #15
  2033d2:	2610      	movs	r6, #16
  2033d4:	2308      	movs	r3, #8
  2033d6:	e798      	b.n	20330a <benchmark_picojpeg+0x2d32>
  2033d8:	f240 0107 	movw	r1, #7
  2033dc:	2002      	movs	r0, #2
  2033de:	f6c2 0120 	movt	r1, #10272	; 0x2820
  2033e2:	7008      	strb	r0, [r1, #0]
  2033e4:	f240 3016 	movw	r0, #790	; 0x316
  2033e8:	2204      	movs	r2, #4
  2033ea:	f6c2 0020 	movt	r0, #10272	; 0x2820
  2033ee:	7002      	strb	r2, [r0, #0]
  2033f0:	2000      	movs	r0, #0
  2033f2:	f240 3118 	movw	r1, #792	; 0x318
  2033f6:	f8dd 9000 	ldr.w	r9, [sp]
  2033fa:	f2c0 2001 	movt	r0, #513	; 0x201
  2033fe:	f6c2 0120 	movt	r1, #10272	; 0x2820
  203402:	6008      	str	r0, [r1, #0]
  203404:	270f      	movs	r7, #15
  203406:	2107      	movs	r1, #7
  203408:	2003      	movs	r0, #3
  20340a:	2608      	movs	r6, #8
  20340c:	2310      	movs	r3, #16
  20340e:	e77c      	b.n	20330a <benchmark_picojpeg+0x2d32>
  203410:	f640 1b28 	movw	fp, #2344	; 0x928
  203414:	f6c2 0b20 	movt	fp, #10272	; 0x2820
  203418:	f8db 5000 	ldr.w	r5, [fp]
  20341c:	f240 203a 	movw	r0, #570	; 0x23a
  203420:	1b46      	subs	r6, r0, r5
  203422:	f247 106c 	movw	r0, #29036	; 0x716c
  203426:	2704      	movs	r7, #4
  203428:	f2c0 0020 	movt	r0, #32
  20342c:	f88e 7000 	strb.w	r7, [lr]
  203430:	2efc      	cmp	r6, #252	; 0xfc
  203432:	bf28      	it	cs
  203434:	26fc      	movcs	r6, #252	; 0xfc
  203436:	1941      	adds	r1, r0, r5
  203438:	9807      	ldr	r0, [sp, #28]
  20343a:	4632      	mov	r2, r6
  20343c:	f7fd f832 	bl	2004a4 <__rt_memcpy>
  203440:	f640 0311 	movw	r3, #2065	; 0x811
  203444:	f6c2 0320 	movt	r3, #10272	; 0x2820
  203448:	19a8      	adds	r0, r5, r6
  20344a:	0631      	lsls	r1, r6, #24
  20344c:	701e      	strb	r6, [r3, #0]
  20344e:	f8cb 0000 	str.w	r0, [fp]
  203452:	f000 822f 	beq.w	2038b4 <benchmark_picojpeg+0x32dc>
  203456:	f640 1e14 	movw	lr, #2324	; 0x914
  20345a:	f6c2 0e20 	movt	lr, #10272	; 0x2820
  20345e:	f640 0014 	movw	r0, #2068	; 0x814
  203462:	f6c2 0020 	movt	r0, #10272	; 0x2820
  203466:	3e01      	subs	r6, #1
  203468:	1c7a      	adds	r2, r7, #1
  20346a:	5dc0      	ldrb	r0, [r0, r7]
  20346c:	701e      	strb	r6, [r3, #0]
  20346e:	f88e 2000 	strb.w	r2, [lr]
  203472:	fa1f f18a 	uxth.w	r1, sl
  203476:	b2c0      	uxtb	r0, r0
  203478:	f1c8 0508 	rsb	r5, r8, #8
  20347c:	4308      	orrs	r0, r1
  20347e:	40a8      	lsls	r0, r5
  203480:	ea4f 2b10 	mov.w	fp, r0, lsr #8
  203484:	0a21      	lsrs	r1, r4, #8
  203486:	f1b8 0f07 	cmp.w	r8, #7
  20348a:	f361 2b1f 	bfi	fp, r1, #8, #24
  20348e:	d84b      	bhi.n	203528 <benchmark_picojpeg+0x2f50>
  203490:	fa00 fa08 	lsl.w	sl, r0, r8
  203494:	0630      	lsls	r0, r6, #24
  203496:	f640 1016 	movw	r0, #2326	; 0x916
  20349a:	f6c2 0020 	movt	r0, #10272	; 0x2820
  20349e:	f8a0 a000 	strh.w	sl, [r0]
  2034a2:	d12b      	bne.n	2034fc <benchmark_picojpeg+0x2f24>
  2034a4:	2004      	movs	r0, #4
  2034a6:	f88e 0000 	strb.w	r0, [lr]
  2034aa:	f640 1028 	movw	r0, #2344	; 0x928
  2034ae:	f6c2 0020 	movt	r0, #10272	; 0x2820
  2034b2:	6804      	ldr	r4, [r0, #0]
  2034b4:	f240 203a 	movw	r0, #570	; 0x23a
  2034b8:	1b06      	subs	r6, r0, r4
  2034ba:	f247 106c 	movw	r0, #29036	; 0x716c
  2034be:	f2c0 0020 	movt	r0, #32
  2034c2:	2efc      	cmp	r6, #252	; 0xfc
  2034c4:	bf28      	it	cs
  2034c6:	26fc      	movcs	r6, #252	; 0xfc
  2034c8:	1901      	adds	r1, r0, r4
  2034ca:	9807      	ldr	r0, [sp, #28]
  2034cc:	4632      	mov	r2, r6
  2034ce:	461f      	mov	r7, r3
  2034d0:	f7fc ffe8 	bl	2004a4 <__rt_memcpy>
  2034d4:	0631      	lsls	r1, r6, #24
  2034d6:	f640 1128 	movw	r1, #2344	; 0x928
  2034da:	eb04 0006 	add.w	r0, r4, r6
  2034de:	f6c2 0120 	movt	r1, #10272	; 0x2820
  2034e2:	703e      	strb	r6, [r7, #0]
  2034e4:	6008      	str	r0, [r1, #0]
  2034e6:	f000 8211 	beq.w	20390c <benchmark_picojpeg+0x3334>
  2034ea:	f640 1e14 	movw	lr, #2324	; 0x914
  2034ee:	f640 0311 	movw	r3, #2065	; 0x811
  2034f2:	f6c2 0e20 	movt	lr, #10272	; 0x2820
  2034f6:	f6c2 0320 	movt	r3, #10272	; 0x2820
  2034fa:	2204      	movs	r2, #4
  2034fc:	1c50      	adds	r0, r2, #1
  2034fe:	b2d1      	uxtb	r1, r2
  203500:	f640 0214 	movw	r2, #2068	; 0x814
  203504:	f6c2 0220 	movt	r2, #10272	; 0x2820
  203508:	3e01      	subs	r6, #1
  20350a:	5c51      	ldrb	r1, [r2, r1]
  20350c:	701e      	strb	r6, [r3, #0]
  20350e:	f88e 0000 	strb.w	r0, [lr]
  203512:	b2c9      	uxtb	r1, r1
  203514:	ea41 010a 	orr.w	r1, r1, sl
  203518:	f640 0c10 	movw	ip, #2064	; 0x810
  20351c:	fa01 f505 	lsl.w	r5, r1, r5
  203520:	4602      	mov	r2, r0
  203522:	f6c2 0c20 	movt	ip, #10272	; 0x2820
  203526:	e00d      	b.n	203544 <benchmark_picojpeg+0x2f6c>
  203528:	f1a8 0808 	sub.w	r8, r8, #8
  20352c:	fa5f f188 	uxtb.w	r1, r8
  203530:	f640 0c10 	movw	ip, #2064	; 0x810
  203534:	f6c2 0c20 	movt	ip, #10272	; 0x2820
  203538:	2907      	cmp	r1, #7
  20353a:	ea4f 2500 	mov.w	r5, r0, lsl #8
  20353e:	f88c 8000 	strb.w	r8, [ip]
  203542:	d84d      	bhi.n	2035e0 <benchmark_picojpeg+0x3008>
  203544:	b2a8      	uxth	r0, r5
  203546:	fa5f f488 	uxtb.w	r4, r8
  20354a:	0631      	lsls	r1, r6, #24
  20354c:	fa00 fa04 	lsl.w	sl, r0, r4
  203550:	d12e      	bne.n	2035b0 <benchmark_picojpeg+0x2fd8>
  203552:	2004      	movs	r0, #4
  203554:	f88e 0000 	strb.w	r0, [lr]
  203558:	f640 1028 	movw	r0, #2344	; 0x928
  20355c:	f6c2 0020 	movt	r0, #10272	; 0x2820
  203560:	6807      	ldr	r7, [r0, #0]
  203562:	f240 203a 	movw	r0, #570	; 0x23a
  203566:	1bc6      	subs	r6, r0, r7
  203568:	f247 106c 	movw	r0, #29036	; 0x716c
  20356c:	f2c0 0020 	movt	r0, #32
  203570:	2efc      	cmp	r6, #252	; 0xfc
  203572:	bf28      	it	cs
  203574:	26fc      	movcs	r6, #252	; 0xfc
  203576:	19c1      	adds	r1, r0, r7
  203578:	9807      	ldr	r0, [sp, #28]
  20357a:	4632      	mov	r2, r6
  20357c:	f7fc ff92 	bl	2004a4 <__rt_memcpy>
  203580:	f640 0011 	movw	r0, #2065	; 0x811
  203584:	0631      	lsls	r1, r6, #24
  203586:	f6c2 0020 	movt	r0, #10272	; 0x2820
  20358a:	f640 1128 	movw	r1, #2344	; 0x928
  20358e:	7006      	strb	r6, [r0, #0]
  203590:	eb07 0006 	add.w	r0, r7, r6
  203594:	f6c2 0120 	movt	r1, #10272	; 0x2820
  203598:	6008      	str	r0, [r1, #0]
  20359a:	f000 819f 	beq.w	2038dc <benchmark_picojpeg+0x3304>
  20359e:	f640 0c10 	movw	ip, #2064	; 0x810
  2035a2:	f640 1e14 	movw	lr, #2324	; 0x914
  2035a6:	f6c2 0c20 	movt	ip, #10272	; 0x2820
  2035aa:	f6c2 0e20 	movt	lr, #10272	; 0x2820
  2035ae:	2204      	movs	r2, #4
  2035b0:	f640 0011 	movw	r0, #2065	; 0x811
  2035b4:	3e01      	subs	r6, #1
  2035b6:	f6c2 0020 	movt	r0, #10272	; 0x2820
  2035ba:	7006      	strb	r6, [r0, #0]
  2035bc:	1c50      	adds	r0, r2, #1
  2035be:	b2d1      	uxtb	r1, r2
  2035c0:	f640 0214 	movw	r2, #2068	; 0x814
  2035c4:	f6c2 0220 	movt	r2, #10272	; 0x2820
  2035c8:	5c51      	ldrb	r1, [r2, r1]
  2035ca:	f88e 0000 	strb.w	r0, [lr]
  2035ce:	b2c9      	uxtb	r1, r1
  2035d0:	f1c4 0208 	rsb	r2, r4, #8
  2035d4:	ea41 010a 	orr.w	r1, r1, sl
  2035d8:	fa01 f402 	lsl.w	r4, r1, r2
  2035dc:	9009      	str	r0, [sp, #36]	; 0x24
  2035de:	e005      	b.n	2035ec <benchmark_picojpeg+0x3014>
  2035e0:	f1a8 0808 	sub.w	r8, r8, #8
  2035e4:	022c      	lsls	r4, r5, #8
  2035e6:	9209      	str	r2, [sp, #36]	; 0x24
  2035e8:	f88c 8000 	strb.w	r8, [ip]
  2035ec:	f3c5 2207 	ubfx	r2, r5, #8, #8
  2035f0:	f1ab 0303 	sub.w	r3, fp, #3
  2035f4:	2103      	movs	r1, #3
  2035f6:	b298      	uxth	r0, r3
  2035f8:	eb01 0142 	add.w	r1, r1, r2, lsl #1
  2035fc:	4281      	cmp	r1, r0
  2035fe:	f640 1016 	movw	r0, #2326	; 0x916
  203602:	f6c2 0020 	movt	r0, #10272	; 0x2820
  203606:	f640 1118 	movw	r1, #2328	; 0x918
  20360a:	8004      	strh	r4, [r0, #0]
  20360c:	ea4f 2015 	mov.w	r0, r5, lsr #8
  203610:	f6c2 0120 	movt	r1, #10272	; 0x2820
  203614:	7008      	strb	r0, [r1, #0]
  203616:	f47d adfe 	bne.w	201216 <benchmark_picojpeg+0xc3e>
  20361a:	b2a8      	uxth	r0, r5
  20361c:	f5b0 7f80 	cmp.w	r0, #256	; 0x100
  203620:	f4fd adf9 	bcc.w	201216 <benchmark_picojpeg+0xc3e>
  203624:	2100      	movs	r1, #0
  203626:	ebb1 2f90 	cmp.w	r1, r0, lsr #10
  20362a:	f47d adf4 	bne.w	201216 <benchmark_picojpeg+0xc3e>
  20362e:	2a00      	cmp	r2, #0
  203630:	9408      	str	r4, [sp, #32]
  203632:	9306      	str	r3, [sp, #24]
  203634:	9205      	str	r2, [sp, #20]
  203636:	f000 8183 	beq.w	203940 <benchmark_picojpeg+0x3368>
  20363a:	f640 1028 	movw	r0, #2344	; 0x928
  20363e:	f6c2 0020 	movt	r0, #10272	; 0x2820
  203642:	f8d0 c000 	ldr.w	ip, [r0]
  203646:	f64f 70ff 	movw	r0, #65535	; 0xffff
  20364a:	3801      	subs	r0, #1
  20364c:	f640 0112 	movw	r1, #2066	; 0x812
  203650:	fb02 b000 	mla	r0, r2, r0, fp
  203654:	f6c2 0120 	movt	r1, #10272	; 0x2820
  203658:	f891 b000 	ldrb.w	fp, [r1]
  20365c:	3803      	subs	r0, #3
  20365e:	f1c9 0700 	rsb	r7, r9, #0
  203662:	f04f 0900 	mov.w	r9, #0
  203666:	9006      	str	r0, [sp, #24]
  203668:	fa5f f588 	uxtb.w	r5, r8
  20366c:	2d07      	cmp	r5, #7
  20366e:	d84c      	bhi.n	20370a <benchmark_picojpeg+0x3132>
  203670:	0630      	lsls	r0, r6, #24
  203672:	d129      	bne.n	2036c8 <benchmark_picojpeg+0x30f0>
  203674:	f640 1014 	movw	r0, #2324	; 0x914
  203678:	2204      	movs	r2, #4
  20367a:	f6c2 0020 	movt	r0, #10272	; 0x2820
  20367e:	7002      	strb	r2, [r0, #0]
  203680:	f240 203a 	movw	r0, #570	; 0x23a
  203684:	2104      	movs	r1, #4
  203686:	eba0 060c 	sub.w	r6, r0, ip
  20368a:	20fc      	movs	r0, #252	; 0xfc
  20368c:	9109      	str	r1, [sp, #36]	; 0x24
  20368e:	2efc      	cmp	r6, #252	; 0xfc
  203690:	bf28      	it	cs
  203692:	4606      	movcs	r6, r0
  203694:	f247 106c 	movw	r0, #29036	; 0x716c
  203698:	f2c0 0020 	movt	r0, #32
  20369c:	eb00 010c 	add.w	r1, r0, ip
  2036a0:	9807      	ldr	r0, [sp, #28]
  2036a2:	4632      	mov	r2, r6
  2036a4:	4664      	mov	r4, ip
  2036a6:	f7fc fefd 	bl	2004a4 <__rt_memcpy>
  2036aa:	f640 0011 	movw	r0, #2065	; 0x811
  2036ae:	f6c2 0020 	movt	r0, #10272	; 0x2820
  2036b2:	7006      	strb	r6, [r0, #0]
  2036b4:	0630      	lsls	r0, r6, #24
  2036b6:	4434      	add	r4, r6
  2036b8:	f640 1028 	movw	r0, #2344	; 0x928
  2036bc:	f6c2 0020 	movt	r0, #10272	; 0x2820
  2036c0:	46a4      	mov	ip, r4
  2036c2:	6004      	str	r4, [r0, #0]
  2036c4:	f000 80d7 	beq.w	203876 <benchmark_picojpeg+0x329e>
  2036c8:	f640 0011 	movw	r0, #2065	; 0x811
  2036cc:	9909      	ldr	r1, [sp, #36]	; 0x24
  2036ce:	3e01      	subs	r6, #1
  2036d0:	f6c2 0020 	movt	r0, #10272	; 0x2820
  2036d4:	f640 0214 	movw	r2, #2068	; 0x814
  2036d8:	7006      	strb	r6, [r0, #0]
  2036da:	1c48      	adds	r0, r1, #1
  2036dc:	b2c9      	uxtb	r1, r1
  2036de:	f6c2 0220 	movt	r2, #10272	; 0x2820
  2036e2:	5c51      	ldrb	r1, [r2, r1]
  2036e4:	f640 1214 	movw	r2, #2324	; 0x914
  2036e8:	f6c2 0220 	movt	r2, #10272	; 0x2820
  2036ec:	7010      	strb	r0, [r2, #0]
  2036ee:	9a08      	ldr	r2, [sp, #32]
  2036f0:	b2c9      	uxtb	r1, r1
  2036f2:	b292      	uxth	r2, r2
  2036f4:	9009      	str	r0, [sp, #36]	; 0x24
  2036f6:	fa02 f305 	lsl.w	r3, r2, r5
  2036fa:	f1c5 0508 	rsb	r5, r5, #8
  2036fe:	4319      	orrs	r1, r3
  203700:	fa01 f405 	lsl.w	r4, r1, r5
  203704:	ea4f 2a12 	mov.w	sl, r2, lsr #8
  203708:	e010      	b.n	20372c <benchmark_picojpeg+0x3154>
  20370a:	f640 0110 	movw	r1, #2064	; 0x810
  20370e:	f1a8 0808 	sub.w	r8, r8, #8
  203712:	f6c2 0120 	movt	r1, #10272	; 0x2820
  203716:	f881 8000 	strb.w	r8, [r1]
  20371a:	9908      	ldr	r1, [sp, #32]
  20371c:	fa5f f088 	uxtb.w	r0, r8
  203720:	020c      	lsls	r4, r1, #8
  203722:	b289      	uxth	r1, r1
  203724:	2807      	cmp	r0, #7
  203726:	ea4f 2a11 	mov.w	sl, r1, lsr #8
  20372a:	d849      	bhi.n	2037c0 <benchmark_picojpeg+0x31e8>
  20372c:	0630      	lsls	r0, r6, #24
  20372e:	d128      	bne.n	203782 <benchmark_picojpeg+0x31aa>
  203730:	f640 1014 	movw	r0, #2324	; 0x914
  203734:	2204      	movs	r2, #4
  203736:	f6c2 0020 	movt	r0, #10272	; 0x2820
  20373a:	7002      	strb	r2, [r0, #0]
  20373c:	f240 203a 	movw	r0, #570	; 0x23a
  203740:	2104      	movs	r1, #4
  203742:	eba0 060c 	sub.w	r6, r0, ip
  203746:	20fc      	movs	r0, #252	; 0xfc
  203748:	9109      	str	r1, [sp, #36]	; 0x24
  20374a:	2efc      	cmp	r6, #252	; 0xfc
  20374c:	bf28      	it	cs
  20374e:	4606      	movcs	r6, r0
  203750:	f247 106c 	movw	r0, #29036	; 0x716c
  203754:	f2c0 0020 	movt	r0, #32
  203758:	eb00 010c 	add.w	r1, r0, ip
  20375c:	9807      	ldr	r0, [sp, #28]
  20375e:	4632      	mov	r2, r6
  203760:	4665      	mov	r5, ip
  203762:	f7fc fe9f 	bl	2004a4 <__rt_memcpy>
  203766:	f640 0011 	movw	r0, #2065	; 0x811
  20376a:	f6c2 0020 	movt	r0, #10272	; 0x2820
  20376e:	7006      	strb	r6, [r0, #0]
  203770:	0630      	lsls	r0, r6, #24
  203772:	4435      	add	r5, r6
  203774:	f640 1028 	movw	r0, #2344	; 0x928
  203778:	f6c2 0020 	movt	r0, #10272	; 0x2820
  20377c:	46ac      	mov	ip, r5
  20377e:	6005      	str	r5, [r0, #0]
  203780:	d066      	beq.n	203850 <benchmark_picojpeg+0x3278>
  203782:	f640 0011 	movw	r0, #2065	; 0x811
  203786:	9909      	ldr	r1, [sp, #36]	; 0x24
  203788:	3e01      	subs	r6, #1
  20378a:	f6c2 0020 	movt	r0, #10272	; 0x2820
  20378e:	f640 0214 	movw	r2, #2068	; 0x814
  203792:	7006      	strb	r6, [r0, #0]
  203794:	1c48      	adds	r0, r1, #1
  203796:	b2c9      	uxtb	r1, r1
  203798:	f6c2 0220 	movt	r2, #10272	; 0x2820
  20379c:	5c51      	ldrb	r1, [r2, r1]
  20379e:	f640 1214 	movw	r2, #2324	; 0x914
  2037a2:	f6c2 0220 	movt	r2, #10272	; 0x2820
  2037a6:	7010      	strb	r0, [r2, #0]
  2037a8:	b2a2      	uxth	r2, r4
  2037aa:	fa5f f388 	uxtb.w	r3, r8
  2037ae:	409a      	lsls	r2, r3
  2037b0:	b2c9      	uxtb	r1, r1
  2037b2:	f1c3 0308 	rsb	r3, r3, #8
  2037b6:	4311      	orrs	r1, r2
  2037b8:	4099      	lsls	r1, r3
  2037ba:	e9cd 1008 	strd	r1, r0, [sp, #32]
  2037be:	e009      	b.n	2037d4 <benchmark_picojpeg+0x31fc>
  2037c0:	f640 0010 	movw	r0, #2064	; 0x810
  2037c4:	f1a8 0808 	sub.w	r8, r8, #8
  2037c8:	f6c2 0020 	movt	r0, #10272	; 0x2820
  2037cc:	f880 8000 	strb.w	r8, [r0]
  2037d0:	0220      	lsls	r0, r4, #8
  2037d2:	9008      	str	r0, [sp, #32]
  2037d4:	b2a0      	uxth	r0, r4
  2037d6:	f640 141b 	movw	r4, #2331	; 0x91b
  2037da:	0a01      	lsrs	r1, r0, #8
  2037dc:	2000      	movs	r0, #0
  2037de:	f6c2 0420 	movt	r4, #10272	; 0x2820
  2037e2:	5c22      	ldrb	r2, [r4, r0]
  2037e4:	4552      	cmp	r2, sl
  2037e6:	d019      	beq.n	20381c <benchmark_picojpeg+0x3244>
  2037e8:	183a      	adds	r2, r7, r0
  2037ea:	1c53      	adds	r3, r2, #1
  2037ec:	d056      	beq.n	20389c <benchmark_picojpeg+0x32c4>
  2037ee:	1823      	adds	r3, r4, r0
  2037f0:	785d      	ldrb	r5, [r3, #1]
  2037f2:	4555      	cmp	r5, sl
  2037f4:	d00d      	beq.n	203812 <benchmark_picojpeg+0x323a>
  2037f6:	1c95      	adds	r5, r2, #2
  2037f8:	d050      	beq.n	20389c <benchmark_picojpeg+0x32c4>
  2037fa:	789d      	ldrb	r5, [r3, #2]
  2037fc:	4555      	cmp	r5, sl
  2037fe:	d00a      	beq.n	203816 <benchmark_picojpeg+0x323e>
  203800:	3203      	adds	r2, #3
  203802:	d04b      	beq.n	20389c <benchmark_picojpeg+0x32c4>
  203804:	78da      	ldrb	r2, [r3, #3]
  203806:	4552      	cmp	r2, sl
  203808:	d007      	beq.n	20381a <benchmark_picojpeg+0x3242>
  20380a:	3004      	adds	r0, #4
  20380c:	183a      	adds	r2, r7, r0
  20380e:	d1e8      	bne.n	2037e2 <benchmark_picojpeg+0x320a>
  203810:	e044      	b.n	20389c <benchmark_picojpeg+0x32c4>
  203812:	3001      	adds	r0, #1
  203814:	e002      	b.n	20381c <benchmark_picojpeg+0x3244>
  203816:	3002      	adds	r0, #2
  203818:	e000      	b.n	20381c <benchmark_picojpeg+0x3244>
  20381a:	3003      	adds	r0, #3
  20381c:	f640 1224 	movw	r2, #2340	; 0x924
  203820:	f6c2 0220 	movt	r2, #10272	; 0x2820
  203824:	f240 3321 	movw	r3, #801	; 0x321
  203828:	f802 0009 	strb.w	r0, [r2, r9]
  20382c:	090a      	lsrs	r2, r1, #4
  20382e:	f6c2 0320 	movt	r3, #10272	; 0x2820
  203832:	541a      	strb	r2, [r3, r0]
  203834:	9a05      	ldr	r2, [sp, #20]
  203836:	f109 0901 	add.w	r9, r9, #1
  20383a:	4591      	cmp	r9, r2
  20383c:	f240 526a 	movw	r2, #1386	; 0x56a
  203840:	f001 010f 	and.w	r1, r1, #15
  203844:	f6c2 0220 	movt	r2, #10272	; 0x2820
  203848:	5411      	strb	r1, [r2, r0]
  20384a:	f47f af0d 	bne.w	203668 <benchmark_picojpeg+0x3090>
  20384e:	e071      	b.n	203934 <benchmark_picojpeg+0x335c>
  203850:	f640 0012 	movw	r0, #2066	; 0x812
  203854:	f1bb 0fff 	cmp.w	fp, #255	; 0xff
  203858:	f08b 0bff 	eor.w	fp, fp, #255	; 0xff
  20385c:	f6c2 0020 	movt	r0, #10272	; 0x2820
  203860:	f880 b000 	strb.w	fp, [r0]
  203864:	f04f 31ff 	mov.w	r1, #4294967295
  203868:	f04f 0600 	mov.w	r6, #0
  20386c:	bf08      	it	eq
  20386e:	f06f 0126 	mvneq.w	r1, #38	; 0x26
  203872:	2004      	movs	r0, #4
  203874:	e798      	b.n	2037a8 <benchmark_picojpeg+0x31d0>
  203876:	f640 0012 	movw	r0, #2066	; 0x812
  20387a:	f1bb 0fff 	cmp.w	fp, #255	; 0xff
  20387e:	f08b 0bff 	eor.w	fp, fp, #255	; 0xff
  203882:	f6c2 0020 	movt	r0, #10272	; 0x2820
  203886:	f880 b000 	strb.w	fp, [r0]
  20388a:	f04f 31ff 	mov.w	r1, #4294967295
  20388e:	f04f 0600 	mov.w	r6, #0
  203892:	bf08      	it	eq
  203894:	f06f 0126 	mvneq.w	r1, #38	; 0x26
  203898:	2004      	movs	r0, #4
  20389a:	e728      	b.n	2036ee <benchmark_picojpeg+0x3116>
  20389c:	f640 1016 	movw	r0, #2326	; 0x916
  2038a0:	9908      	ldr	r1, [sp, #32]
  2038a2:	f640 0c10 	movw	ip, #2064	; 0x810
  2038a6:	f6c2 0020 	movt	r0, #10272	; 0x2820
  2038aa:	f6c2 0c20 	movt	ip, #10272	; 0x2820
  2038ae:	8001      	strh	r1, [r0, #0]
  2038b0:	f7fd bcad 	b.w	20120e <benchmark_picojpeg+0xc36>
  2038b4:	f640 0212 	movw	r2, #2066	; 0x812
  2038b8:	f6c2 0220 	movt	r2, #10272	; 0x2820
  2038bc:	7811      	ldrb	r1, [r2, #0]
  2038be:	f640 1e14 	movw	lr, #2324	; 0x914
  2038c2:	43c8      	mvns	r0, r1
  2038c4:	7010      	strb	r0, [r2, #0]
  2038c6:	f04f 30ff 	mov.w	r0, #4294967295
  2038ca:	2600      	movs	r6, #0
  2038cc:	2204      	movs	r2, #4
  2038ce:	f6c2 0e20 	movt	lr, #10272	; 0x2820
  2038d2:	29ff      	cmp	r1, #255	; 0xff
  2038d4:	bf08      	it	eq
  2038d6:	f06f 0026 	mvneq.w	r0, #38	; 0x26
  2038da:	e5ca      	b.n	203472 <benchmark_picojpeg+0x2e9a>
  2038dc:	f640 0212 	movw	r2, #2066	; 0x812
  2038e0:	f6c2 0220 	movt	r2, #10272	; 0x2820
  2038e4:	7810      	ldrb	r0, [r2, #0]
  2038e6:	f640 0c10 	movw	ip, #2064	; 0x810
  2038ea:	43c1      	mvns	r1, r0
  2038ec:	f640 1e14 	movw	lr, #2324	; 0x914
  2038f0:	7011      	strb	r1, [r2, #0]
  2038f2:	f04f 31ff 	mov.w	r1, #4294967295
  2038f6:	28ff      	cmp	r0, #255	; 0xff
  2038f8:	bf08      	it	eq
  2038fa:	f06f 0126 	mvneq.w	r1, #38	; 0x26
  2038fe:	2600      	movs	r6, #0
  203900:	2004      	movs	r0, #4
  203902:	f6c2 0c20 	movt	ip, #10272	; 0x2820
  203906:	f6c2 0e20 	movt	lr, #10272	; 0x2820
  20390a:	e660      	b.n	2035ce <benchmark_picojpeg+0x2ff6>
  20390c:	f640 0212 	movw	r2, #2066	; 0x812
  203910:	f6c2 0220 	movt	r2, #10272	; 0x2820
  203914:	7810      	ldrb	r0, [r2, #0]
  203916:	f640 1e14 	movw	lr, #2324	; 0x914
  20391a:	43c1      	mvns	r1, r0
  20391c:	7011      	strb	r1, [r2, #0]
  20391e:	f04f 31ff 	mov.w	r1, #4294967295
  203922:	28ff      	cmp	r0, #255	; 0xff
  203924:	bf08      	it	eq
  203926:	f06f 0126 	mvneq.w	r1, #38	; 0x26
  20392a:	2600      	movs	r6, #0
  20392c:	2004      	movs	r0, #4
  20392e:	f6c2 0e20 	movt	lr, #10272	; 0x2820
  203932:	e5ee      	b.n	203512 <benchmark_picojpeg+0x2f3a>
  203934:	f640 1016 	movw	r0, #2326	; 0x916
  203938:	9908      	ldr	r1, [sp, #32]
  20393a:	f6c2 0020 	movt	r0, #10272	; 0x2820
  20393e:	8001      	strh	r1, [r0, #0]
  203940:	fa5f f488 	uxtb.w	r4, r8
  203944:	f240 3a0e 	movw	sl, #782	; 0x30e
  203948:	2c07      	cmp	r4, #7
  20394a:	f6c2 0a20 	movt	sl, #10272	; 0x2820
  20394e:	d84c      	bhi.n	2039ea <benchmark_picojpeg+0x3412>
  203950:	9808      	ldr	r0, [sp, #32]
  203952:	0631      	lsls	r1, r6, #24
  203954:	b280      	uxth	r0, r0
  203956:	fa00 f504 	lsl.w	r5, r0, r4
  20395a:	d127      	bne.n	2039ac <benchmark_picojpeg+0x33d4>
  20395c:	f640 1b28 	movw	fp, #2344	; 0x928
  203960:	f640 1014 	movw	r0, #2324	; 0x914
  203964:	f6c2 0b20 	movt	fp, #10272	; 0x2820
  203968:	2204      	movs	r2, #4
  20396a:	f6c2 0020 	movt	r0, #10272	; 0x2820
  20396e:	f8db 7000 	ldr.w	r7, [fp]
  203972:	7002      	strb	r2, [r0, #0]
  203974:	f240 203a 	movw	r0, #570	; 0x23a
  203978:	1bc6      	subs	r6, r0, r7
  20397a:	f247 106c 	movw	r0, #29036	; 0x716c
  20397e:	2104      	movs	r1, #4
  203980:	f2c0 0020 	movt	r0, #32
  203984:	9109      	str	r1, [sp, #36]	; 0x24
  203986:	2efc      	cmp	r6, #252	; 0xfc
  203988:	bf28      	it	cs
  20398a:	26fc      	movcs	r6, #252	; 0xfc
  20398c:	19c1      	adds	r1, r0, r7
  20398e:	9807      	ldr	r0, [sp, #28]
  203990:	4632      	mov	r2, r6
  203992:	f7fc fd87 	bl	2004a4 <__rt_memcpy>
  203996:	f640 0011 	movw	r0, #2065	; 0x811
  20399a:	f6c2 0020 	movt	r0, #10272	; 0x2820
  20399e:	7006      	strb	r6, [r0, #0]
  2039a0:	19b8      	adds	r0, r7, r6
  2039a2:	0631      	lsls	r1, r6, #24
  2039a4:	f8cb 0000 	str.w	r0, [fp]
  2039a8:	f000 836d 	beq.w	204086 <benchmark_picojpeg+0x3aae>
  2039ac:	f640 0011 	movw	r0, #2065	; 0x811
  2039b0:	9909      	ldr	r1, [sp, #36]	; 0x24
  2039b2:	3e01      	subs	r6, #1
  2039b4:	f6c2 0020 	movt	r0, #10272	; 0x2820
  2039b8:	f640 0214 	movw	r2, #2068	; 0x814
  2039bc:	7006      	strb	r6, [r0, #0]
  2039be:	1c48      	adds	r0, r1, #1
  2039c0:	b2c9      	uxtb	r1, r1
  2039c2:	f6c2 0220 	movt	r2, #10272	; 0x2820
  2039c6:	5c51      	ldrb	r1, [r2, r1]
  2039c8:	f640 1214 	movw	r2, #2324	; 0x914
  2039cc:	f6c2 0220 	movt	r2, #10272	; 0x2820
  2039d0:	7010      	strb	r0, [r2, #0]
  2039d2:	b2c9      	uxtb	r1, r1
  2039d4:	f1c4 0208 	rsb	r2, r4, #8
  2039d8:	4329      	orrs	r1, r5
  2039da:	fa01 fb02 	lsl.w	fp, r1, r2
  2039de:	9908      	ldr	r1, [sp, #32]
  2039e0:	0a09      	lsrs	r1, r1, #8
  2039e2:	f88a 1000 	strb.w	r1, [sl]
  2039e6:	9009      	str	r0, [sp, #36]	; 0x24
  2039e8:	e00b      	b.n	203a02 <benchmark_picojpeg+0x342a>
  2039ea:	f1a8 0808 	sub.w	r8, r8, #8
  2039ee:	9908      	ldr	r1, [sp, #32]
  2039f0:	fa5f f088 	uxtb.w	r0, r8
  2039f4:	ea4f 2b01 	mov.w	fp, r1, lsl #8
  2039f8:	0a09      	lsrs	r1, r1, #8
  2039fa:	2807      	cmp	r0, #7
  2039fc:	f88a 1000 	strb.w	r1, [sl]
  203a00:	d84e      	bhi.n	203aa0 <benchmark_picojpeg+0x34c8>
  203a02:	fa1f f08b 	uxth.w	r0, fp
  203a06:	fa5f f788 	uxtb.w	r7, r8
  203a0a:	fa00 f407 	lsl.w	r4, r0, r7
  203a0e:	0630      	lsls	r0, r6, #24
  203a10:	f640 1016 	movw	r0, #2326	; 0x916
  203a14:	f6c2 0020 	movt	r0, #10272	; 0x2820
  203a18:	8004      	strh	r4, [r0, #0]
  203a1a:	d127      	bne.n	203a6c <benchmark_picojpeg+0x3494>
  203a1c:	f640 1a28 	movw	sl, #2344	; 0x928
  203a20:	f640 1014 	movw	r0, #2324	; 0x914
  203a24:	f6c2 0a20 	movt	sl, #10272	; 0x2820
  203a28:	2204      	movs	r2, #4
  203a2a:	f6c2 0020 	movt	r0, #10272	; 0x2820
  203a2e:	f8da 5000 	ldr.w	r5, [sl]
  203a32:	7002      	strb	r2, [r0, #0]
  203a34:	f240 203a 	movw	r0, #570	; 0x23a
  203a38:	1b46      	subs	r6, r0, r5
  203a3a:	f247 106c 	movw	r0, #29036	; 0x716c
  203a3e:	2104      	movs	r1, #4
  203a40:	f2c0 0020 	movt	r0, #32
  203a44:	9109      	str	r1, [sp, #36]	; 0x24
  203a46:	2efc      	cmp	r6, #252	; 0xfc
  203a48:	bf28      	it	cs
  203a4a:	26fc      	movcs	r6, #252	; 0xfc
  203a4c:	1941      	adds	r1, r0, r5
  203a4e:	9807      	ldr	r0, [sp, #28]
  203a50:	4632      	mov	r2, r6
  203a52:	f7fc fd27 	bl	2004a4 <__rt_memcpy>
  203a56:	f640 0011 	movw	r0, #2065	; 0x811
  203a5a:	f6c2 0020 	movt	r0, #10272	; 0x2820
  203a5e:	7006      	strb	r6, [r0, #0]
  203a60:	19a8      	adds	r0, r5, r6
  203a62:	0631      	lsls	r1, r6, #24
  203a64:	f8ca 0000 	str.w	r0, [sl]
  203a68:	f000 82fd 	beq.w	204066 <benchmark_picojpeg+0x3a8e>
  203a6c:	f640 0011 	movw	r0, #2065	; 0x811
  203a70:	3e01      	subs	r6, #1
  203a72:	f6c2 0020 	movt	r0, #10272	; 0x2820
  203a76:	7006      	strb	r6, [r0, #0]
  203a78:	9809      	ldr	r0, [sp, #36]	; 0x24
  203a7a:	f640 0214 	movw	r2, #2068	; 0x814
  203a7e:	1c41      	adds	r1, r0, #1
  203a80:	b2c0      	uxtb	r0, r0
  203a82:	f6c2 0220 	movt	r2, #10272	; 0x2820
  203a86:	5c10      	ldrb	r0, [r2, r0]
  203a88:	f640 1214 	movw	r2, #2324	; 0x914
  203a8c:	f6c2 0220 	movt	r2, #10272	; 0x2820
  203a90:	7011      	strb	r1, [r2, #0]
  203a92:	b2c0      	uxtb	r0, r0
  203a94:	f1c7 0208 	rsb	r2, r7, #8
  203a98:	4320      	orrs	r0, r4
  203a9a:	4090      	lsls	r0, r2
  203a9c:	9109      	str	r1, [sp, #36]	; 0x24
  203a9e:	e009      	b.n	203ab4 <benchmark_picojpeg+0x34dc>
  203aa0:	f640 0010 	movw	r0, #2064	; 0x810
  203aa4:	f1a8 0808 	sub.w	r8, r8, #8
  203aa8:	f6c2 0020 	movt	r0, #10272	; 0x2820
  203aac:	f880 8000 	strb.w	r8, [r0]
  203ab0:	ea4f 200b 	mov.w	r0, fp, lsl #8
  203ab4:	fa5f f488 	uxtb.w	r4, r8
  203ab8:	f240 320f 	movw	r2, #783	; 0x30f
  203abc:	f240 3a10 	movw	sl, #784	; 0x310
  203ac0:	ea4f 211b 	mov.w	r1, fp, lsr #8
  203ac4:	f6c2 0220 	movt	r2, #10272	; 0x2820
  203ac8:	2c03      	cmp	r4, #3
  203aca:	f6c2 0a20 	movt	sl, #10272	; 0x2820
  203ace:	7011      	strb	r1, [r2, #0]
  203ad0:	d84d      	bhi.n	203b6e <benchmark_picojpeg+0x3596>
  203ad2:	b287      	uxth	r7, r0
  203ad4:	0630      	lsls	r0, r6, #24
  203ad6:	fa07 fb04 	lsl.w	fp, r7, r4
  203ada:	d127      	bne.n	203b2c <benchmark_picojpeg+0x3554>
  203adc:	f640 1928 	movw	r9, #2344	; 0x928
  203ae0:	f640 1014 	movw	r0, #2324	; 0x914
  203ae4:	f6c2 0920 	movt	r9, #10272	; 0x2820
  203ae8:	2204      	movs	r2, #4
  203aea:	f6c2 0020 	movt	r0, #10272	; 0x2820
  203aee:	f8d9 5000 	ldr.w	r5, [r9]
  203af2:	7002      	strb	r2, [r0, #0]
  203af4:	f240 203a 	movw	r0, #570	; 0x23a
  203af8:	1b46      	subs	r6, r0, r5
  203afa:	f247 106c 	movw	r0, #29036	; 0x716c
  203afe:	2104      	movs	r1, #4
  203b00:	f2c0 0020 	movt	r0, #32
  203b04:	9109      	str	r1, [sp, #36]	; 0x24
  203b06:	2efc      	cmp	r6, #252	; 0xfc
  203b08:	bf28      	it	cs
  203b0a:	26fc      	movcs	r6, #252	; 0xfc
  203b0c:	1941      	adds	r1, r0, r5
  203b0e:	9807      	ldr	r0, [sp, #28]
  203b10:	4632      	mov	r2, r6
  203b12:	f7fc fcc7 	bl	2004a4 <__rt_memcpy>
  203b16:	f640 0011 	movw	r0, #2065	; 0x811
  203b1a:	f6c2 0020 	movt	r0, #10272	; 0x2820
  203b1e:	7006      	strb	r6, [r0, #0]
  203b20:	19a8      	adds	r0, r5, r6
  203b22:	0631      	lsls	r1, r6, #24
  203b24:	f8c9 0000 	str.w	r0, [r9]
  203b28:	f000 82bd 	beq.w	2040a6 <benchmark_picojpeg+0x3ace>
  203b2c:	f640 0011 	movw	r0, #2065	; 0x811
  203b30:	9909      	ldr	r1, [sp, #36]	; 0x24
  203b32:	3e01      	subs	r6, #1
  203b34:	f6c2 0020 	movt	r0, #10272	; 0x2820
  203b38:	f640 0214 	movw	r2, #2068	; 0x814
  203b3c:	7006      	strb	r6, [r0, #0]
  203b3e:	1c48      	adds	r0, r1, #1
  203b40:	b2c9      	uxtb	r1, r1
  203b42:	f6c2 0220 	movt	r2, #10272	; 0x2820
  203b46:	5c51      	ldrb	r1, [r2, r1]
  203b48:	f640 1214 	movw	r2, #2324	; 0x914
  203b4c:	f6c2 0220 	movt	r2, #10272	; 0x2820
  203b50:	7010      	strb	r0, [r2, #0]
  203b52:	b2c9      	uxtb	r1, r1
  203b54:	f1c4 0204 	rsb	r2, r4, #4
  203b58:	ea41 010b 	orr.w	r1, r1, fp
  203b5c:	fa01 f402 	lsl.w	r4, r1, r2
  203b60:	f108 0504 	add.w	r5, r8, #4
  203b64:	0b39      	lsrs	r1, r7, #12
  203b66:	f88a 1000 	strb.w	r1, [sl]
  203b6a:	9009      	str	r0, [sp, #36]	; 0x24
  203b6c:	e064      	b.n	203c38 <benchmark_picojpeg+0x3660>
  203b6e:	f1a8 0504 	sub.w	r5, r8, #4
  203b72:	b281      	uxth	r1, r0
  203b74:	b2ef      	uxtb	r7, r5
  203b76:	0104      	lsls	r4, r0, #4
  203b78:	0b08      	lsrs	r0, r1, #12
  203b7a:	2f03      	cmp	r7, #3
  203b7c:	f88a 0000 	strb.w	r0, [sl]
  203b80:	d85a      	bhi.n	203c38 <benchmark_picojpeg+0x3660>
  203b82:	b2a0      	uxth	r0, r4
  203b84:	0631      	lsls	r1, r6, #24
  203b86:	fa00 fa07 	lsl.w	sl, r0, r7
  203b8a:	d12a      	bne.n	203be2 <benchmark_picojpeg+0x360a>
  203b8c:	f640 1b28 	movw	fp, #2344	; 0x928
  203b90:	f640 1014 	movw	r0, #2324	; 0x914
  203b94:	f6c2 0b20 	movt	fp, #10272	; 0x2820
  203b98:	2204      	movs	r2, #4
  203b9a:	f6c2 0020 	movt	r0, #10272	; 0x2820
  203b9e:	f8db 8000 	ldr.w	r8, [fp]
  203ba2:	7002      	strb	r2, [r0, #0]
  203ba4:	f240 203a 	movw	r0, #570	; 0x23a
  203ba8:	eba0 0608 	sub.w	r6, r0, r8
  203bac:	f247 106c 	movw	r0, #29036	; 0x716c
  203bb0:	2104      	movs	r1, #4
  203bb2:	f2c0 0020 	movt	r0, #32
  203bb6:	9109      	str	r1, [sp, #36]	; 0x24
  203bb8:	2efc      	cmp	r6, #252	; 0xfc
  203bba:	bf28      	it	cs
  203bbc:	26fc      	movcs	r6, #252	; 0xfc
  203bbe:	eb00 0108 	add.w	r1, r0, r8
  203bc2:	9807      	ldr	r0, [sp, #28]
  203bc4:	4632      	mov	r2, r6
  203bc6:	f7fc fc6d 	bl	2004a4 <__rt_memcpy>
  203bca:	f640 0011 	movw	r0, #2065	; 0x811
  203bce:	f6c2 0020 	movt	r0, #10272	; 0x2820
  203bd2:	7006      	strb	r6, [r0, #0]
  203bd4:	eb08 0006 	add.w	r0, r8, r6
  203bd8:	0631      	lsls	r1, r6, #24
  203bda:	f8cb 0000 	str.w	r0, [fp]
  203bde:	f000 8272 	beq.w	2040c6 <benchmark_picojpeg+0x3aee>
  203be2:	f640 0011 	movw	r0, #2065	; 0x811
  203be6:	3e01      	subs	r6, #1
  203be8:	f6c2 0020 	movt	r0, #10272	; 0x2820
  203bec:	7006      	strb	r6, [r0, #0]
  203bee:	9809      	ldr	r0, [sp, #36]	; 0x24
  203bf0:	f640 0114 	movw	r1, #2068	; 0x814
  203bf4:	f100 0801 	add.w	r8, r0, #1
  203bf8:	b2c0      	uxtb	r0, r0
  203bfa:	f6c2 0120 	movt	r1, #10272	; 0x2820
  203bfe:	5c08      	ldrb	r0, [r1, r0]
  203c00:	f640 1114 	movw	r1, #2324	; 0x914
  203c04:	f6c2 0120 	movt	r1, #10272	; 0x2820
  203c08:	f881 8000 	strb.w	r8, [r1]
  203c0c:	b2c0      	uxtb	r0, r0
  203c0e:	f1c7 0104 	rsb	r1, r7, #4
  203c12:	ea40 000a 	orr.w	r0, r0, sl
  203c16:	fa00 fb01 	lsl.w	fp, r0, r1
  203c1a:	f640 1016 	movw	r0, #2326	; 0x916
  203c1e:	f6c2 0020 	movt	r0, #10272	; 0x2820
  203c22:	f8a0 b000 	strh.w	fp, [r0]
  203c26:	f640 0010 	movw	r0, #2064	; 0x810
  203c2a:	f105 0a04 	add.w	sl, r5, #4
  203c2e:	f6c2 0020 	movt	r0, #10272	; 0x2820
  203c32:	f880 a000 	strb.w	sl, [r0]
  203c36:	e011      	b.n	203c5c <benchmark_picojpeg+0x3684>
  203c38:	f640 0010 	movw	r0, #2064	; 0x810
  203c3c:	f1a5 0a04 	sub.w	sl, r5, #4
  203c40:	f6c2 0020 	movt	r0, #10272	; 0x2820
  203c44:	f880 a000 	strb.w	sl, [r0]
  203c48:	f640 1016 	movw	r0, #2326	; 0x916
  203c4c:	ea4f 1b04 	mov.w	fp, r4, lsl #4
  203c50:	f6c2 0020 	movt	r0, #10272	; 0x2820
  203c54:	f8dd 8024 	ldr.w	r8, [sp, #36]	; 0x24
  203c58:	f8a0 b000 	strh.w	fp, [r0]
  203c5c:	b2a0      	uxth	r0, r4
  203c5e:	f240 3211 	movw	r2, #785	; 0x311
  203c62:	0b01      	lsrs	r1, r0, #12
  203c64:	9806      	ldr	r0, [sp, #24]
  203c66:	f6c2 0220 	movt	r2, #10272	; 0x2820
  203c6a:	1ec4      	subs	r4, r0, #3
  203c6c:	fa1f f08b 	uxth.w	r0, fp
  203c70:	0423      	lsls	r3, r4, #16
  203c72:	7011      	strb	r1, [r2, #0]
  203c74:	d07a      	beq.n	203d6c <benchmark_picojpeg+0x3794>
  203c76:	f640 1128 	movw	r1, #2344	; 0x928
  203c7a:	f6c2 0120 	movt	r1, #10272	; 0x2820
  203c7e:	f8d1 9000 	ldr.w	r9, [r1]
  203c82:	f640 0112 	movw	r1, #2066	; 0x812
  203c86:	f6c2 0120 	movt	r1, #10272	; 0x2820
  203c8a:	7809      	ldrb	r1, [r1, #0]
  203c8c:	9109      	str	r1, [sp, #36]	; 0x24
  203c8e:	07e1      	lsls	r1, r4, #31
  203c90:	d057      	beq.n	203d42 <benchmark_picojpeg+0x376a>
  203c92:	fa5f f48a 	uxtb.w	r4, sl
  203c96:	2c08      	cmp	r4, #8
  203c98:	d247      	bcs.n	203d2a <benchmark_picojpeg+0x3752>
  203c9a:	0631      	lsls	r1, r6, #24
  203c9c:	fa00 f504 	lsl.w	r5, r0, r4
  203ca0:	d127      	bne.n	203cf2 <benchmark_picojpeg+0x371a>
  203ca2:	f640 1014 	movw	r0, #2324	; 0x914
  203ca6:	f04f 0804 	mov.w	r8, #4
  203caa:	f6c2 0020 	movt	r0, #10272	; 0x2820
  203cae:	f880 8000 	strb.w	r8, [r0]
  203cb2:	f240 203a 	movw	r0, #570	; 0x23a
  203cb6:	eba0 0609 	sub.w	r6, r0, r9
  203cba:	f247 106c 	movw	r0, #29036	; 0x716c
  203cbe:	f2c0 0020 	movt	r0, #32
  203cc2:	2efc      	cmp	r6, #252	; 0xfc
  203cc4:	bf28      	it	cs
  203cc6:	26fc      	movcs	r6, #252	; 0xfc
  203cc8:	eb00 0109 	add.w	r1, r0, r9
  203ccc:	9807      	ldr	r0, [sp, #28]
  203cce:	4632      	mov	r2, r6
  203cd0:	f7fc fbe8 	bl	2004a4 <__rt_memcpy>
  203cd4:	f640 0011 	movw	r0, #2065	; 0x811
  203cd8:	f6c2 0020 	movt	r0, #10272	; 0x2820
  203cdc:	7006      	strb	r6, [r0, #0]
  203cde:	0630      	lsls	r0, r6, #24
  203ce0:	f640 1028 	movw	r0, #2344	; 0x928
  203ce4:	44b1      	add	r9, r6
  203ce6:	f6c2 0020 	movt	r0, #10272	; 0x2820
  203cea:	f8c0 9000 	str.w	r9, [r0]
  203cee:	f000 81fb 	beq.w	2040e8 <benchmark_picojpeg+0x3b10>
  203cf2:	f640 0214 	movw	r2, #2068	; 0x814
  203cf6:	f640 0011 	movw	r0, #2065	; 0x811
  203cfa:	fa5f f188 	uxtb.w	r1, r8
  203cfe:	f6c2 0220 	movt	r2, #10272	; 0x2820
  203d02:	3e01      	subs	r6, #1
  203d04:	f6c2 0020 	movt	r0, #10272	; 0x2820
  203d08:	5c51      	ldrb	r1, [r2, r1]
  203d0a:	f640 1214 	movw	r2, #2324	; 0x914
  203d0e:	7006      	strb	r6, [r0, #0]
  203d10:	f108 0001 	add.w	r0, r8, #1
  203d14:	f6c2 0220 	movt	r2, #10272	; 0x2820
  203d18:	7010      	strb	r0, [r2, #0]
  203d1a:	b2c9      	uxtb	r1, r1
  203d1c:	f1c4 0208 	rsb	r2, r4, #8
  203d20:	4329      	orrs	r1, r5
  203d22:	fa01 fb02 	lsl.w	fp, r1, r2
  203d26:	4680      	mov	r8, r0
  203d28:	e009      	b.n	203d3e <benchmark_picojpeg+0x3766>
  203d2a:	f640 0010 	movw	r0, #2064	; 0x810
  203d2e:	f1aa 0a08 	sub.w	sl, sl, #8
  203d32:	f6c2 0020 	movt	r0, #10272	; 0x2820
  203d36:	f880 a000 	strb.w	sl, [r0]
  203d3a:	ea4f 2b0b 	mov.w	fp, fp, lsl #8
  203d3e:	9806      	ldr	r0, [sp, #24]
  203d40:	1f04      	subs	r4, r0, #4
  203d42:	9806      	ldr	r0, [sp, #24]
  203d44:	f640 0c10 	movw	ip, #2064	; 0x810
  203d48:	b280      	uxth	r0, r0
  203d4a:	f640 1714 	movw	r7, #2324	; 0x914
  203d4e:	2804      	cmp	r0, #4
  203d50:	f6c2 0c20 	movt	ip, #10272	; 0x2820
  203d54:	f6c2 0720 	movt	r7, #10272	; 0x2820
  203d58:	f040 80a8 	bne.w	203eac <benchmark_picojpeg+0x38d4>
  203d5c:	fa1f f08b 	uxth.w	r0, fp
  203d60:	f640 1116 	movw	r1, #2326	; 0x916
  203d64:	f6c2 0120 	movt	r1, #10272	; 0x2820
  203d68:	f8a1 b000 	strh.w	fp, [r1]
  203d6c:	9f05      	ldr	r7, [sp, #20]
  203d6e:	f640 0c10 	movw	ip, #2064	; 0x810
  203d72:	f640 1e14 	movw	lr, #2324	; 0x914
  203d76:	0a00      	lsrs	r0, r0, #8
  203d78:	2f00      	cmp	r7, #0
  203d7a:	f6c2 0c20 	movt	ip, #10272	; 0x2820
  203d7e:	f6c2 0e20 	movt	lr, #10272	; 0x2820
  203d82:	d03f      	beq.n	203e04 <benchmark_picojpeg+0x382c>
  203d84:	f640 1119 	movw	r1, #2329	; 0x919
  203d88:	f6c2 0120 	movt	r1, #10272	; 0x2820
  203d8c:	7809      	ldrb	r1, [r1, #0]
  203d8e:	f640 1224 	movw	r2, #2340	; 0x924
  203d92:	f6c2 0220 	movt	r2, #10272	; 0x2820
  203d96:	463b      	mov	r3, r7
  203d98:	7815      	ldrb	r5, [r2, #0]
  203d9a:	f240 3421 	movw	r4, #801	; 0x321
  203d9e:	f6c2 0420 	movt	r4, #10272	; 0x2820
  203da2:	5d64      	ldrb	r4, [r4, r5]
  203da4:	fa21 f404 	lsr.w	r4, r1, r4
  203da8:	07e4      	lsls	r4, r4, #31
  203daa:	f43d aa34 	beq.w	201216 <benchmark_picojpeg+0xc3e>
  203dae:	f240 546a 	movw	r4, #1386	; 0x56a
  203db2:	f6c2 0420 	movt	r4, #10272	; 0x2820
  203db6:	5d65      	ldrb	r5, [r4, r5]
  203db8:	3502      	adds	r5, #2
  203dba:	b2ed      	uxtb	r5, r5
  203dbc:	fa21 f505 	lsr.w	r5, r1, r5
  203dc0:	07ed      	lsls	r5, r5, #31
  203dc2:	f43d aa28 	beq.w	201216 <benchmark_picojpeg+0xc3e>
  203dc6:	3b01      	subs	r3, #1
  203dc8:	f102 0201 	add.w	r2, r2, #1
  203dcc:	d1e4      	bne.n	203d98 <benchmark_picojpeg+0x37c0>
  203dce:	f640 111a 	movw	r1, #2330	; 0x91a
  203dd2:	f6c2 0120 	movt	r1, #10272	; 0x2820
  203dd6:	7809      	ldrb	r1, [r1, #0]
  203dd8:	f640 1224 	movw	r2, #2340	; 0x924
  203ddc:	f240 341e 	movw	r4, #798	; 0x31e
  203de0:	f6c2 0220 	movt	r2, #10272	; 0x2820
  203de4:	f6c2 0420 	movt	r4, #10272	; 0x2820
  203de8:	7813      	ldrb	r3, [r2, #0]
  203dea:	5ce3      	ldrb	r3, [r4, r3]
  203dec:	2b00      	cmp	r3, #0
  203dee:	f04f 0302 	mov.w	r3, #2
  203df2:	bf08      	it	eq
  203df4:	2301      	moveq	r3, #1
  203df6:	420b      	tst	r3, r1
  203df8:	f43d aa0d 	beq.w	201216 <benchmark_picojpeg+0xc3e>
  203dfc:	3f01      	subs	r7, #1
  203dfe:	f102 0201 	add.w	r2, r2, #1
  203e02:	d1f1      	bne.n	203de8 <benchmark_picojpeg+0x3810>
  203e04:	f240 3212 	movw	r2, #786	; 0x312
  203e08:	f6c2 0220 	movt	r2, #10272	; 0x2820
  203e0c:	8812      	ldrh	r2, [r2, #0]
  203e0e:	f240 43e4 	movw	r3, #1252	; 0x4e4
  203e12:	2100      	movs	r1, #0
  203e14:	f6c2 0320 	movt	r3, #10272	; 0x2820
  203e18:	6019      	str	r1, [r3, #0]
  203e1a:	8099      	strh	r1, [r3, #4]
  203e1c:	b14a      	cbz	r2, 203e32 <benchmark_picojpeg+0x385a>
  203e1e:	f240 3314 	movw	r3, #788	; 0x314
  203e22:	f6c2 0320 	movt	r3, #10272	; 0x2820
  203e26:	801a      	strh	r2, [r3, #0]
  203e28:	f640 020e 	movw	r2, #2062	; 0x80e
  203e2c:	f6c2 0220 	movt	r2, #10272	; 0x2820
  203e30:	8011      	strh	r1, [r2, #0]
  203e32:	ea5f 610a 	movs.w	r1, sl, lsl #24
  203e36:	d00a      	beq.n	203e4e <benchmark_picojpeg+0x3876>
  203e38:	f1a8 0801 	sub.w	r8, r8, #1
  203e3c:	f640 0214 	movw	r2, #2068	; 0x814
  203e40:	fa5f f188 	uxtb.w	r1, r8
  203e44:	f6c2 0220 	movt	r2, #10272	; 0x2820
  203e48:	3601      	adds	r6, #1
  203e4a:	f802 b001 	strb.w	fp, [r2, r1]
  203e4e:	f640 1514 	movw	r5, #2324	; 0x914
  203e52:	f1a8 0101 	sub.w	r1, r8, #1
  203e56:	f6c2 0520 	movt	r5, #10272	; 0x2820
  203e5a:	f640 0214 	movw	r2, #2068	; 0x814
  203e5e:	7029      	strb	r1, [r5, #0]
  203e60:	b2c9      	uxtb	r1, r1
  203e62:	f6c2 0220 	movt	r2, #10272	; 0x2820
  203e66:	5450      	strb	r0, [r2, r1]
  203e68:	f640 0111 	movw	r1, #2065	; 0x811
  203e6c:	1c70      	adds	r0, r6, #1
  203e6e:	f6c2 0120 	movt	r1, #10272	; 0x2820
  203e72:	f640 0410 	movw	r4, #2064	; 0x810
  203e76:	7008      	strb	r0, [r1, #0]
  203e78:	2000      	movs	r0, #0
  203e7a:	f6c2 0420 	movt	r4, #10272	; 0x2820
  203e7e:	7020      	strb	r0, [r4, #0]
  203e80:	f000 f992 	bl	2041a8 <getOctet>
  203e84:	f640 1116 	movw	r1, #2326	; 0x916
  203e88:	46ae      	mov	lr, r5
  203e8a:	46a4      	mov	ip, r4
  203e8c:	0200      	lsls	r0, r0, #8
  203e8e:	f6c2 0120 	movt	r1, #10272	; 0x2820
  203e92:	8008      	strh	r0, [r1, #0]
  203e94:	f7fd b9bf 	b.w	201216 <benchmark_picojpeg+0xc3e>
  203e98:	f1aa 0a08 	sub.w	sl, sl, #8
  203e9c:	f88c a000 	strb.w	sl, [ip]
  203ea0:	ea4f 2b05 	mov.w	fp, r5, lsl #8
  203ea4:	3c02      	subs	r4, #2
  203ea6:	0420      	lsls	r0, r4, #16
  203ea8:	f43f af58 	beq.w	203d5c <benchmark_picojpeg+0x3784>
  203eac:	fa5f f58a 	uxtb.w	r5, sl
  203eb0:	2d07      	cmp	r5, #7
  203eb2:	d849      	bhi.n	203f48 <benchmark_picojpeg+0x3970>
  203eb4:	0630      	lsls	r0, r6, #24
  203eb6:	d12c      	bne.n	203f12 <benchmark_picojpeg+0x393a>
  203eb8:	f240 203a 	movw	r0, #570	; 0x23a
  203ebc:	f04f 0804 	mov.w	r8, #4
  203ec0:	eba0 0609 	sub.w	r6, r0, r9
  203ec4:	20fc      	movs	r0, #252	; 0xfc
  203ec6:	f887 8000 	strb.w	r8, [r7]
  203eca:	2efc      	cmp	r6, #252	; 0xfc
  203ecc:	bf28      	it	cs
  203ece:	4606      	movcs	r6, r0
  203ed0:	f247 106c 	movw	r0, #29036	; 0x716c
  203ed4:	f2c0 0020 	movt	r0, #32
  203ed8:	eb00 0109 	add.w	r1, r0, r9
  203edc:	9807      	ldr	r0, [sp, #28]
  203ede:	4632      	mov	r2, r6
  203ee0:	f7fc fae0 	bl	2004a4 <__rt_memcpy>
  203ee4:	f640 0011 	movw	r0, #2065	; 0x811
  203ee8:	f6c2 0020 	movt	r0, #10272	; 0x2820
  203eec:	7006      	strb	r6, [r0, #0]
  203eee:	0630      	lsls	r0, r6, #24
  203ef0:	f640 1028 	movw	r0, #2344	; 0x928
  203ef4:	44b1      	add	r9, r6
  203ef6:	f6c2 0020 	movt	r0, #10272	; 0x2820
  203efa:	f8c0 9000 	str.w	r9, [r0]
  203efe:	f000 8095 	beq.w	20402c <benchmark_picojpeg+0x3a54>
  203f02:	f640 0c10 	movw	ip, #2064	; 0x810
  203f06:	f640 1714 	movw	r7, #2324	; 0x914
  203f0a:	f6c2 0c20 	movt	ip, #10272	; 0x2820
  203f0e:	f6c2 0720 	movt	r7, #10272	; 0x2820
  203f12:	f640 0011 	movw	r0, #2065	; 0x811
  203f16:	f640 0214 	movw	r2, #2068	; 0x814
  203f1a:	f6c2 0020 	movt	r0, #10272	; 0x2820
  203f1e:	3e01      	subs	r6, #1
  203f20:	fa5f f188 	uxtb.w	r1, r8
  203f24:	f6c2 0220 	movt	r2, #10272	; 0x2820
  203f28:	7006      	strb	r6, [r0, #0]
  203f2a:	f108 0001 	add.w	r0, r8, #1
  203f2e:	5c51      	ldrb	r1, [r2, r1]
  203f30:	7038      	strb	r0, [r7, #0]
  203f32:	fa1f f28b 	uxth.w	r2, fp
  203f36:	b2c9      	uxtb	r1, r1
  203f38:	40aa      	lsls	r2, r5
  203f3a:	f1c5 0308 	rsb	r3, r5, #8
  203f3e:	4311      	orrs	r1, r2
  203f40:	fa01 f503 	lsl.w	r5, r1, r3
  203f44:	4680      	mov	r8, r0
  203f46:	e009      	b.n	203f5c <benchmark_picojpeg+0x3984>
  203f48:	f1aa 0a08 	sub.w	sl, sl, #8
  203f4c:	fa5f f08a 	uxtb.w	r0, sl
  203f50:	2808      	cmp	r0, #8
  203f52:	ea4f 250b 	mov.w	r5, fp, lsl #8
  203f56:	f88c a000 	strb.w	sl, [ip]
  203f5a:	d29d      	bcs.n	203e98 <benchmark_picojpeg+0x38c0>
  203f5c:	0630      	lsls	r0, r6, #24
  203f5e:	d004      	beq.n	203f6a <benchmark_picojpeg+0x3992>
  203f60:	f640 0111 	movw	r1, #2065	; 0x811
  203f64:	f6c2 0120 	movt	r1, #10272	; 0x2820
  203f68:	e02b      	b.n	203fc2 <benchmark_picojpeg+0x39ea>
  203f6a:	f240 203a 	movw	r0, #570	; 0x23a
  203f6e:	f04f 0804 	mov.w	r8, #4
  203f72:	eba0 0609 	sub.w	r6, r0, r9
  203f76:	20fc      	movs	r0, #252	; 0xfc
  203f78:	f887 8000 	strb.w	r8, [r7]
  203f7c:	2efc      	cmp	r6, #252	; 0xfc
  203f7e:	bf28      	it	cs
  203f80:	4606      	movcs	r6, r0
  203f82:	f247 106c 	movw	r0, #29036	; 0x716c
  203f86:	f2c0 0020 	movt	r0, #32
  203f8a:	eb00 0109 	add.w	r1, r0, r9
  203f8e:	9807      	ldr	r0, [sp, #28]
  203f90:	4632      	mov	r2, r6
  203f92:	f7fc fa87 	bl	2004a4 <__rt_memcpy>
  203f96:	0630      	lsls	r0, r6, #24
  203f98:	f640 0111 	movw	r1, #2065	; 0x811
  203f9c:	f640 1028 	movw	r0, #2344	; 0x928
  203fa0:	f6c2 0120 	movt	r1, #10272	; 0x2820
  203fa4:	44b1      	add	r9, r6
  203fa6:	f6c2 0020 	movt	r0, #10272	; 0x2820
  203faa:	700e      	strb	r6, [r1, #0]
  203fac:	f8c0 9000 	str.w	r9, [r0]
  203fb0:	d01f      	beq.n	203ff2 <benchmark_picojpeg+0x3a1a>
  203fb2:	f640 0c10 	movw	ip, #2064	; 0x810
  203fb6:	f640 1714 	movw	r7, #2324	; 0x914
  203fba:	f6c2 0c20 	movt	ip, #10272	; 0x2820
  203fbe:	f6c2 0720 	movt	r7, #10272	; 0x2820
  203fc2:	3e01      	subs	r6, #1
  203fc4:	f640 0214 	movw	r2, #2068	; 0x814
  203fc8:	700e      	strb	r6, [r1, #0]
  203fca:	fa5f f188 	uxtb.w	r1, r8
  203fce:	f6c2 0220 	movt	r2, #10272	; 0x2820
  203fd2:	f108 0001 	add.w	r0, r8, #1
  203fd6:	5c51      	ldrb	r1, [r2, r1]
  203fd8:	7038      	strb	r0, [r7, #0]
  203fda:	b2aa      	uxth	r2, r5
  203fdc:	fa5f f38a 	uxtb.w	r3, sl
  203fe0:	409a      	lsls	r2, r3
  203fe2:	b2c9      	uxtb	r1, r1
  203fe4:	f1c3 0308 	rsb	r3, r3, #8
  203fe8:	4311      	orrs	r1, r2
  203fea:	fa01 fb03 	lsl.w	fp, r1, r3
  203fee:	4680      	mov	r8, r0
  203ff0:	e758      	b.n	203ea4 <benchmark_picojpeg+0x38cc>
  203ff2:	9809      	ldr	r0, [sp, #36]	; 0x24
  203ff4:	f640 0c10 	movw	ip, #2064	; 0x810
  203ff8:	28ff      	cmp	r0, #255	; 0xff
  203ffa:	f080 08ff 	eor.w	r8, r0, #255	; 0xff
  203ffe:	f640 0012 	movw	r0, #2066	; 0x812
  204002:	f6c2 0020 	movt	r0, #10272	; 0x2820
  204006:	f640 1714 	movw	r7, #2324	; 0x914
  20400a:	f880 8000 	strb.w	r8, [r0]
  20400e:	f04f 31ff 	mov.w	r1, #4294967295
  204012:	f04f 0600 	mov.w	r6, #0
  204016:	bf08      	it	eq
  204018:	f06f 0126 	mvneq.w	r1, #38	; 0x26
  20401c:	2004      	movs	r0, #4
  20401e:	f6c2 0c20 	movt	ip, #10272	; 0x2820
  204022:	f6c2 0720 	movt	r7, #10272	; 0x2820
  204026:	f8cd 8024 	str.w	r8, [sp, #36]	; 0x24
  20402a:	e7d6      	b.n	203fda <benchmark_picojpeg+0x3a02>
  20402c:	9809      	ldr	r0, [sp, #36]	; 0x24
  20402e:	f640 0c10 	movw	ip, #2064	; 0x810
  204032:	28ff      	cmp	r0, #255	; 0xff
  204034:	f080 08ff 	eor.w	r8, r0, #255	; 0xff
  204038:	f640 0012 	movw	r0, #2066	; 0x812
  20403c:	f6c2 0020 	movt	r0, #10272	; 0x2820
  204040:	f640 1714 	movw	r7, #2324	; 0x914
  204044:	f880 8000 	strb.w	r8, [r0]
  204048:	f04f 31ff 	mov.w	r1, #4294967295
  20404c:	f04f 0600 	mov.w	r6, #0
  204050:	bf08      	it	eq
  204052:	f06f 0126 	mvneq.w	r1, #38	; 0x26
  204056:	2004      	movs	r0, #4
  204058:	f6c2 0c20 	movt	ip, #10272	; 0x2820
  20405c:	f6c2 0720 	movt	r7, #10272	; 0x2820
  204060:	f8cd 8024 	str.w	r8, [sp, #36]	; 0x24
  204064:	e765      	b.n	203f32 <benchmark_picojpeg+0x395a>
  204066:	f640 0212 	movw	r2, #2066	; 0x812
  20406a:	f6c2 0220 	movt	r2, #10272	; 0x2820
  20406e:	7811      	ldrb	r1, [r2, #0]
  204070:	2600      	movs	r6, #0
  204072:	43c8      	mvns	r0, r1
  204074:	7010      	strb	r0, [r2, #0]
  204076:	f04f 30ff 	mov.w	r0, #4294967295
  20407a:	29ff      	cmp	r1, #255	; 0xff
  20407c:	bf08      	it	eq
  20407e:	f06f 0026 	mvneq.w	r0, #38	; 0x26
  204082:	2104      	movs	r1, #4
  204084:	e505      	b.n	203a92 <benchmark_picojpeg+0x34ba>
  204086:	f640 0212 	movw	r2, #2066	; 0x812
  20408a:	f6c2 0220 	movt	r2, #10272	; 0x2820
  20408e:	7810      	ldrb	r0, [r2, #0]
  204090:	2600      	movs	r6, #0
  204092:	43c1      	mvns	r1, r0
  204094:	7011      	strb	r1, [r2, #0]
  204096:	f04f 31ff 	mov.w	r1, #4294967295
  20409a:	28ff      	cmp	r0, #255	; 0xff
  20409c:	bf08      	it	eq
  20409e:	f06f 0126 	mvneq.w	r1, #38	; 0x26
  2040a2:	2004      	movs	r0, #4
  2040a4:	e495      	b.n	2039d2 <benchmark_picojpeg+0x33fa>
  2040a6:	f640 0212 	movw	r2, #2066	; 0x812
  2040aa:	f6c2 0220 	movt	r2, #10272	; 0x2820
  2040ae:	7810      	ldrb	r0, [r2, #0]
  2040b0:	2600      	movs	r6, #0
  2040b2:	43c1      	mvns	r1, r0
  2040b4:	7011      	strb	r1, [r2, #0]
  2040b6:	f04f 31ff 	mov.w	r1, #4294967295
  2040ba:	28ff      	cmp	r0, #255	; 0xff
  2040bc:	bf08      	it	eq
  2040be:	f06f 0126 	mvneq.w	r1, #38	; 0x26
  2040c2:	2004      	movs	r0, #4
  2040c4:	e545      	b.n	203b52 <benchmark_picojpeg+0x357a>
  2040c6:	f640 0212 	movw	r2, #2066	; 0x812
  2040ca:	f6c2 0220 	movt	r2, #10272	; 0x2820
  2040ce:	7811      	ldrb	r1, [r2, #0]
  2040d0:	2600      	movs	r6, #0
  2040d2:	43c8      	mvns	r0, r1
  2040d4:	7010      	strb	r0, [r2, #0]
  2040d6:	f04f 30ff 	mov.w	r0, #4294967295
  2040da:	f04f 0804 	mov.w	r8, #4
  2040de:	29ff      	cmp	r1, #255	; 0xff
  2040e0:	bf08      	it	eq
  2040e2:	f06f 0026 	mvneq.w	r0, #38	; 0x26
  2040e6:	e591      	b.n	203c0c <benchmark_picojpeg+0x3634>
  2040e8:	9809      	ldr	r0, [sp, #36]	; 0x24
  2040ea:	f04f 31ff 	mov.w	r1, #4294967295
  2040ee:	28ff      	cmp	r0, #255	; 0xff
  2040f0:	f080 08ff 	eor.w	r8, r0, #255	; 0xff
  2040f4:	f640 0012 	movw	r0, #2066	; 0x812
  2040f8:	f6c2 0020 	movt	r0, #10272	; 0x2820
  2040fc:	f880 8000 	strb.w	r8, [r0]
  204100:	bf08      	it	eq
  204102:	f06f 0126 	mvneq.w	r1, #38	; 0x26
  204106:	2600      	movs	r6, #0
  204108:	2004      	movs	r0, #4
  20410a:	f8cd 8024 	str.w	r8, [sp, #36]	; 0x24
  20410e:	e604      	b.n	203d1a <benchmark_picojpeg+0x3742>

00204110 <getBits>:
  204110:	e92d 4ff0 	stmdb	sp!, {r4, r5, r6, r7, r8, r9, sl, fp, lr}
  204114:	b081      	sub	sp, #4
  204116:	f640 1816 	movw	r8, #2326	; 0x916
  20411a:	f6c2 0820 	movt	r8, #10272	; 0x2820
  20411e:	f8b8 5000 	ldrh.w	r5, [r8]
  204122:	f640 0910 	movw	r9, #2064	; 0x810
  204126:	4682      	mov	sl, r0
  204128:	2808      	cmp	r0, #8
  20412a:	f6c2 0920 	movt	r9, #10272	; 0x2820
  20412e:	d912      	bls.n	204156 <getBits+0x46>
  204130:	f899 7000 	ldrb.w	r7, [r9]
  204134:	f1aa 0b08 	sub.w	fp, sl, #8
  204138:	fa05 f407 	lsl.w	r4, r5, r7
  20413c:	f000 f834 	bl	2041a8 <getOctet>
  204140:	b2a1      	uxth	r1, r4
  204142:	f1c7 0208 	rsb	r2, r7, #8
  204146:	4308      	orrs	r0, r1
  204148:	0a29      	lsrs	r1, r5, #8
  20414a:	fa00 f502 	lsl.w	r5, r0, r2
  20414e:	0a2e      	lsrs	r6, r5, #8
  204150:	f361 261f 	bfi	r6, r1, #8, #24
  204154:	e003      	b.n	20415e <getBits+0x4e>
  204156:	f899 7000 	ldrb.w	r7, [r9]
  20415a:	46d3      	mov	fp, sl
  20415c:	462e      	mov	r6, r5
  20415e:	fa5f f48b 	uxtb.w	r4, fp
  204162:	42a7      	cmp	r7, r4
  204164:	d20f      	bcs.n	204186 <getBits+0x76>
  204166:	b2a8      	uxth	r0, r5
  204168:	fa00 f507 	lsl.w	r5, r0, r7
  20416c:	f000 f81c 	bl	2041a8 <getOctet>
  204170:	1be1      	subs	r1, r4, r7
  204172:	4328      	orrs	r0, r5
  204174:	4088      	lsls	r0, r1
  204176:	f8a8 0000 	strh.w	r0, [r8]
  20417a:	eba7 000b 	sub.w	r0, r7, fp
  20417e:	3008      	adds	r0, #8
  204180:	f889 0000 	strb.w	r0, [r9]
  204184:	e008      	b.n	204198 <getBits+0x88>
  204186:	b2a9      	uxth	r1, r5
  204188:	eba7 000b 	sub.w	r0, r7, fp
  20418c:	f889 0000 	strb.w	r0, [r9]
  204190:	fa01 f004 	lsl.w	r0, r1, r4
  204194:	f8a8 0000 	strh.w	r0, [r8]
  204198:	b2b0      	uxth	r0, r6
  20419a:	f1ca 0110 	rsb	r1, sl, #16
  20419e:	40c8      	lsrs	r0, r1
  2041a0:	b001      	add	sp, #4
  2041a2:	e8bd 8ff0 	ldmia.w	sp!, {r4, r5, r6, r7, r8, r9, sl, fp, pc}
	...

002041a8 <getOctet>:
  2041a8:	e92d 47f0 	stmdb	sp!, {r4, r5, r6, r7, r8, r9, sl, lr}
  2041ac:	f640 0a11 	movw	sl, #2065	; 0x811
  2041b0:	f6c2 0a20 	movt	sl, #10272	; 0x2820
  2041b4:	f89a 4000 	ldrb.w	r4, [sl]
  2041b8:	f640 1914 	movw	r9, #2324	; 0x914
  2041bc:	f640 0814 	movw	r8, #2068	; 0x814
  2041c0:	f6c2 0920 	movt	r9, #10272	; 0x2820
  2041c4:	f6c2 0820 	movt	r8, #10272	; 0x2820
  2041c8:	b114      	cbz	r4, 2041d0 <getOctet+0x28>
  2041ca:	f899 6000 	ldrb.w	r6, [r9]
  2041ce:	e01d      	b.n	20420c <getOctet+0x64>
  2041d0:	f640 1528 	movw	r5, #2344	; 0x928
  2041d4:	f6c2 0520 	movt	r5, #10272	; 0x2820
  2041d8:	682f      	ldr	r7, [r5, #0]
  2041da:	f240 203a 	movw	r0, #570	; 0x23a
  2041de:	1bc4      	subs	r4, r0, r7
  2041e0:	f247 106c 	movw	r0, #29036	; 0x716c
  2041e4:	2604      	movs	r6, #4
  2041e6:	f2c0 0020 	movt	r0, #32
  2041ea:	f889 6000 	strb.w	r6, [r9]
  2041ee:	2cfc      	cmp	r4, #252	; 0xfc
  2041f0:	bf28      	it	cs
  2041f2:	24fc      	movcs	r4, #252	; 0xfc
  2041f4:	19c1      	adds	r1, r0, r7
  2041f6:	f108 0004 	add.w	r0, r8, #4
  2041fa:	4622      	mov	r2, r4
  2041fc:	f7fc f952 	bl	2004a4 <__rt_memcpy>
  204200:	4427      	add	r7, r4
  204202:	0620      	lsls	r0, r4, #24
  204204:	f88a 4000 	strb.w	r4, [sl]
  204208:	602f      	str	r7, [r5, #0]
  20420a:	d011      	beq.n	204230 <getOctet+0x88>
  20420c:	f818 0006 	ldrb.w	r0, [r8, r6]
  204210:	3c01      	subs	r4, #1
  204212:	1c72      	adds	r2, r6, #1
  204214:	28ff      	cmp	r0, #255	; 0xff
  204216:	f88a 4000 	strb.w	r4, [sl]
  20421a:	f889 2000 	strb.w	r2, [r9]
  20421e:	d159      	bne.n	2042d4 <getOctet+0x12c>
  204220:	0620      	lsls	r0, r4, #24
  204222:	d12b      	bne.n	20427c <getOctet+0xd4>
  204224:	f640 1028 	movw	r0, #2344	; 0x928
  204228:	f6c2 0020 	movt	r0, #10272	; 0x2820
  20422c:	6807      	ldr	r7, [r0, #0]
  20422e:	e00c      	b.n	20424a <getOctet+0xa2>
  204230:	f640 0012 	movw	r0, #2066	; 0x812
  204234:	f6c2 0020 	movt	r0, #10272	; 0x2820
  204238:	7801      	ldrb	r1, [r0, #0]
  20423a:	43ca      	mvns	r2, r1
  20423c:	7002      	strb	r2, [r0, #0]
  20423e:	20ff      	movs	r0, #255	; 0xff
  204240:	29ff      	cmp	r1, #255	; 0xff
  204242:	bf04      	itt	eq
  204244:	20d9      	moveq	r0, #217	; 0xd9
  204246:	e8bd 87f0 	ldmiaeq.w	sp!, {r4, r5, r6, r7, r8, r9, sl, pc}
  20424a:	f240 203a 	movw	r0, #570	; 0x23a
  20424e:	1bc4      	subs	r4, r0, r7
  204250:	f247 106c 	movw	r0, #29036	; 0x716c
  204254:	f2c0 0020 	movt	r0, #32
  204258:	2cfc      	cmp	r4, #252	; 0xfc
  20425a:	bf28      	it	cs
  20425c:	24fc      	movcs	r4, #252	; 0xfc
  20425e:	19c1      	adds	r1, r0, r7
  204260:	f108 0004 	add.w	r0, r8, #4
  204264:	4622      	mov	r2, r4
  204266:	f7fc f91d 	bl	2004a4 <__rt_memcpy>
  20426a:	f640 1128 	movw	r1, #2344	; 0x928
  20426e:	1938      	adds	r0, r7, r4
  204270:	f6c2 0120 	movt	r1, #10272	; 0x2820
  204274:	0622      	lsls	r2, r4, #24
  204276:	6008      	str	r0, [r1, #0]
  204278:	d00f      	beq.n	20429a <getOctet+0xf2>
  20427a:	2204      	movs	r2, #4
  20427c:	b2d0      	uxtb	r0, r2
  20427e:	f818 0000 	ldrb.w	r0, [r8, r0]
  204282:	1e61      	subs	r1, r4, #1
  204284:	3201      	adds	r2, #1
  204286:	2800      	cmp	r0, #0
  204288:	f88a 1000 	strb.w	r1, [sl]
  20428c:	f889 2000 	strb.w	r2, [r9]
  204290:	bf04      	itt	eq
  204292:	20ff      	moveq	r0, #255	; 0xff
  204294:	e8bd 87f0 	ldmiaeq.w	sp!, {r4, r5, r6, r7, r8, r9, sl, pc}
  204298:	e00e      	b.n	2042b8 <getOctet+0x110>
  20429a:	f640 0012 	movw	r0, #2066	; 0x812
  20429e:	f6c2 0020 	movt	r0, #10272	; 0x2820
  2042a2:	7801      	ldrb	r1, [r0, #0]
  2042a4:	43ca      	mvns	r2, r1
  2042a6:	7002      	strb	r2, [r0, #0]
  2042a8:	f04f 30ff 	mov.w	r0, #4294967295
  2042ac:	29ff      	cmp	r1, #255	; 0xff
  2042ae:	bf08      	it	eq
  2042b0:	f06f 0026 	mvneq.w	r0, #38	; 0x26
  2042b4:	2204      	movs	r2, #4
  2042b6:	2100      	movs	r1, #0
  2042b8:	1e53      	subs	r3, r2, #1
  2042ba:	b2db      	uxtb	r3, r3
  2042bc:	f808 0003 	strb.w	r0, [r8, r3]
  2042c0:	1e90      	subs	r0, r2, #2
  2042c2:	f889 0000 	strb.w	r0, [r9]
  2042c6:	b2c2      	uxtb	r2, r0
  2042c8:	20ff      	movs	r0, #255	; 0xff
  2042ca:	3102      	adds	r1, #2
  2042cc:	f808 0002 	strb.w	r0, [r8, r2]
  2042d0:	f88a 1000 	strb.w	r1, [sl]
  2042d4:	e8bd 87f0 	ldmia.w	sp!, {r4, r5, r6, r7, r8, r9, sl, pc}

002042d8 <main>:
  2042d8:	b082      	sub	sp, #8
  2042da:	2500      	movs	r5, #0
  2042dc:	f241 0404 	movw	r4, #4100	; 0x1004
  2042e0:	f44f 3080 	mov.w	r0, #65536	; 0x10000
  2042e4:	f2ce 0400 	movt	r4, #57344	; 0xe000
  2042e8:	9501      	str	r5, [sp, #4]
  2042ea:	f002 feca 	bl	207082 <upsampleCrV+0x2b6>
  2042ee:	f44f 7680 	mov.w	r6, #256	; 0x100
  2042f2:	6025      	str	r5, [r4, #0]
  2042f4:	9801      	ldr	r0, [sp, #4]
  2042f6:	f7fc f96f 	bl	2005d8 <benchmark_picojpeg>
  2042fa:	9501      	str	r5, [sp, #4]
  2042fc:	9801      	ldr	r0, [sp, #4]
  2042fe:	3e01      	subs	r6, #1
  204300:	d1f8      	bne.n	2042f4 <main+0x1c>
  204302:	6820      	ldr	r0, [r4, #0]
  204304:	f002 fec2 	bl	20708c <upsampleCrV+0x2c0>
  204308:	2500      	movs	r5, #0
  20430a:	f44f 7680 	mov.w	r6, #256	; 0x100
  20430e:	6025      	str	r5, [r4, #0]
  204310:	9801      	ldr	r0, [sp, #4]
  204312:	f7fc f961 	bl	2005d8 <benchmark_picojpeg>
  204316:	9501      	str	r5, [sp, #4]
  204318:	9801      	ldr	r0, [sp, #4]
  20431a:	3e01      	subs	r6, #1
  20431c:	d1f8      	bne.n	204310 <main+0x38>
  20431e:	6820      	ldr	r0, [r4, #0]
  204320:	f002 feb4 	bl	20708c <upsampleCrV+0x2c0>
  204324:	2500      	movs	r5, #0
  204326:	f44f 7680 	mov.w	r6, #256	; 0x100
  20432a:	6025      	str	r5, [r4, #0]
  20432c:	9801      	ldr	r0, [sp, #4]
  20432e:	f7fc f953 	bl	2005d8 <benchmark_picojpeg>
  204332:	9501      	str	r5, [sp, #4]
  204334:	9801      	ldr	r0, [sp, #4]
  204336:	3e01      	subs	r6, #1
  204338:	d1f8      	bne.n	20432c <main+0x54>
  20433a:	6820      	ldr	r0, [r4, #0]
  20433c:	f002 fea6 	bl	20708c <upsampleCrV+0x2c0>
  204340:	2500      	movs	r5, #0
  204342:	f44f 7680 	mov.w	r6, #256	; 0x100
  204346:	6025      	str	r5, [r4, #0]
  204348:	9801      	ldr	r0, [sp, #4]
  20434a:	f7fc f945 	bl	2005d8 <benchmark_picojpeg>
  20434e:	9501      	str	r5, [sp, #4]
  204350:	9801      	ldr	r0, [sp, #4]
  204352:	3e01      	subs	r6, #1
  204354:	d1f8      	bne.n	204348 <main+0x70>
  204356:	6820      	ldr	r0, [r4, #0]
  204358:	f002 fe98 	bl	20708c <upsampleCrV+0x2c0>
  20435c:	2500      	movs	r5, #0
  20435e:	f44f 7680 	mov.w	r6, #256	; 0x100
  204362:	6025      	str	r5, [r4, #0]
  204364:	9801      	ldr	r0, [sp, #4]
  204366:	f7fc f937 	bl	2005d8 <benchmark_picojpeg>
  20436a:	9501      	str	r5, [sp, #4]
  20436c:	9801      	ldr	r0, [sp, #4]
  20436e:	3e01      	subs	r6, #1
  204370:	d1f8      	bne.n	204364 <main+0x8c>
  204372:	6820      	ldr	r0, [r4, #0]
  204374:	f002 fe8a 	bl	20708c <upsampleCrV+0x2c0>
  204378:	e7fe      	b.n	204378 <main+0xa0>
	...

0020437c <processMarkers>:
  20437c:	e92d 4ff0 	stmdb	sp!, {r4, r5, r6, r7, r8, r9, sl, fp, lr}
  204380:	b091      	sub	sp, #68	; 0x44
  204382:	9005      	str	r0, [sp, #20]
  204384:	f640 1016 	movw	r0, #2326	; 0x916
  204388:	f640 0c10 	movw	ip, #2064	; 0x810
  20438c:	f6c2 0020 	movt	r0, #10272	; 0x2820
  204390:	f6c2 0c20 	movt	ip, #10272	; 0x2820
  204394:	f640 0e14 	movw	lr, #2068	; 0x814
  204398:	f8b0 9000 	ldrh.w	r9, [r0]
  20439c:	f89c a000 	ldrb.w	sl, [ip]
  2043a0:	f6c2 0e20 	movt	lr, #10272	; 0x2820
  2043a4:	f640 0311 	movw	r3, #2065	; 0x811
  2043a8:	f10e 0004 	add.w	r0, lr, #4
  2043ac:	f6c2 0320 	movt	r3, #10272	; 0x2820
  2043b0:	900a      	str	r0, [sp, #40]	; 0x28
  2043b2:	fa5f f48a 	uxtb.w	r4, sl
  2043b6:	2c07      	cmp	r4, #7
  2043b8:	d808      	bhi.n	2043cc <processMarkers+0x50>
  2043ba:	781e      	ldrb	r6, [r3, #0]
  2043bc:	b16e      	cbz	r6, 2043da <processMarkers+0x5e>
  2043be:	f640 1214 	movw	r2, #2324	; 0x914
  2043c2:	f6c2 0220 	movt	r2, #10272	; 0x2820
  2043c6:	7815      	ldrb	r5, [r2, #0]
  2043c8:	e03a      	b.n	204440 <processMarkers+0xc4>
  2043ca:	bf00      	nop
  2043cc:	f1aa 0a08 	sub.w	sl, sl, #8
  2043d0:	ea4f 2009 	mov.w	r0, r9, lsl #8
  2043d4:	f88c a000 	strb.w	sl, [ip]
  2043d8:	e042      	b.n	204460 <processMarkers+0xe4>
  2043da:	f640 1828 	movw	r8, #2344	; 0x928
  2043de:	f6c2 0820 	movt	r8, #10272	; 0x2820
  2043e2:	f640 1014 	movw	r0, #2324	; 0x914
  2043e6:	2504      	movs	r5, #4
  2043e8:	f8d8 7000 	ldr.w	r7, [r8]
  2043ec:	f6c2 0020 	movt	r0, #10272	; 0x2820
  2043f0:	7005      	strb	r5, [r0, #0]
  2043f2:	f240 203a 	movw	r0, #570	; 0x23a
  2043f6:	1bc6      	subs	r6, r0, r7
  2043f8:	20fc      	movs	r0, #252	; 0xfc
  2043fa:	2efc      	cmp	r6, #252	; 0xfc
  2043fc:	bf28      	it	cs
  2043fe:	4606      	movcs	r6, r0
  204400:	f247 106c 	movw	r0, #29036	; 0x716c
  204404:	f2c0 0020 	movt	r0, #32
  204408:	19c1      	adds	r1, r0, r7
  20440a:	980a      	ldr	r0, [sp, #40]	; 0x28
  20440c:	4632      	mov	r2, r6
  20440e:	f7fc f849 	bl	2004a4 <__rt_memcpy>
  204412:	f640 0311 	movw	r3, #2065	; 0x811
  204416:	f6c2 0320 	movt	r3, #10272	; 0x2820
  20441a:	19b8      	adds	r0, r7, r6
  20441c:	0631      	lsls	r1, r6, #24
  20441e:	701e      	strb	r6, [r3, #0]
  204420:	f8c8 0000 	str.w	r0, [r8]
  204424:	f000 81bc 	beq.w	2047a0 <processMarkers+0x424>
  204428:	f640 0c10 	movw	ip, #2064	; 0x810
  20442c:	f640 0e14 	movw	lr, #2068	; 0x814
  204430:	f640 1214 	movw	r2, #2324	; 0x914
  204434:	f6c2 0c20 	movt	ip, #10272	; 0x2820
  204438:	f6c2 0e20 	movt	lr, #10272	; 0x2820
  20443c:	f6c2 0220 	movt	r2, #10272	; 0x2820
  204440:	1e70      	subs	r0, r6, #1
  204442:	7018      	strb	r0, [r3, #0]
  204444:	1c69      	adds	r1, r5, #1
  204446:	f81e 0005 	ldrb.w	r0, [lr, r5]
  20444a:	7011      	strb	r1, [r2, #0]
  20444c:	fa1f f189 	uxth.w	r1, r9
  204450:	f89c a000 	ldrb.w	sl, [ip]
  204454:	40a1      	lsls	r1, r4
  204456:	b2c0      	uxtb	r0, r0
  204458:	f1ca 0208 	rsb	r2, sl, #8
  20445c:	4308      	orrs	r0, r1
  20445e:	4090      	lsls	r0, r2
  204460:	f64f 71ff 	movw	r1, #65535	; 0xffff
  204464:	f5a1 7180 	sub.w	r1, r1, #256	; 0x100
  204468:	f640 1316 	movw	r3, #2326	; 0x916
  20446c:	b289      	uxth	r1, r1
  20446e:	fa1f f289 	uxth.w	r2, r9
  204472:	f6c2 0320 	movt	r3, #10272	; 0x2820
  204476:	8018      	strh	r0, [r3, #0]
  204478:	f640 0311 	movw	r3, #2065	; 0x811
  20447c:	428a      	cmp	r2, r1
  20447e:	4681      	mov	r9, r0
  204480:	f6c2 0320 	movt	r3, #10272	; 0x2820
  204484:	d995      	bls.n	2043b2 <processMarkers+0x36>
  204486:	f640 1114 	movw	r1, #2324	; 0x914
  20448a:	f6c2 0120 	movt	r1, #10272	; 0x2820
  20448e:	f891 8000 	ldrb.w	r8, [r1]
  204492:	f640 1128 	movw	r1, #2344	; 0x928
  204496:	f6c2 0120 	movt	r1, #10272	; 0x2820
  20449a:	6809      	ldr	r1, [r1, #0]
  20449c:	781e      	ldrb	r6, [r3, #0]
  20449e:	910b      	str	r1, [sp, #44]	; 0x2c
  2044a0:	f640 0112 	movw	r1, #2066	; 0x812
  2044a4:	f6c2 0120 	movt	r1, #10272	; 0x2820
  2044a8:	7809      	ldrb	r1, [r1, #0]
  2044aa:	9109      	str	r1, [sp, #36]	; 0x24
  2044ac:	fa5f f58a 	uxtb.w	r5, sl
  2044b0:	2d07      	cmp	r5, #7
  2044b2:	4604      	mov	r4, r0
  2044b4:	d84c      	bhi.n	204550 <processMarkers+0x1d4>
  2044b6:	0630      	lsls	r0, r6, #24
  2044b8:	d12f      	bne.n	20451a <processMarkers+0x19e>
  2044ba:	f640 1014 	movw	r0, #2324	; 0x914
  2044be:	f04f 0804 	mov.w	r8, #4
  2044c2:	f6c2 0020 	movt	r0, #10272	; 0x2820
  2044c6:	9f0b      	ldr	r7, [sp, #44]	; 0x2c
  2044c8:	f880 8000 	strb.w	r8, [r0]
  2044cc:	f240 203a 	movw	r0, #570	; 0x23a
  2044d0:	1bc6      	subs	r6, r0, r7
  2044d2:	20fc      	movs	r0, #252	; 0xfc
  2044d4:	2efc      	cmp	r6, #252	; 0xfc
  2044d6:	bf28      	it	cs
  2044d8:	4606      	movcs	r6, r0
  2044da:	f247 106c 	movw	r0, #29036	; 0x716c
  2044de:	f2c0 0020 	movt	r0, #32
  2044e2:	19c1      	adds	r1, r0, r7
  2044e4:	980a      	ldr	r0, [sp, #40]	; 0x28
  2044e6:	4632      	mov	r2, r6
  2044e8:	f7fb ffdc 	bl	2004a4 <__rt_memcpy>
  2044ec:	0630      	lsls	r0, r6, #24
  2044ee:	f640 0311 	movw	r3, #2065	; 0x811
  2044f2:	f640 1028 	movw	r0, #2344	; 0x928
  2044f6:	f6c2 0320 	movt	r3, #10272	; 0x2820
  2044fa:	4437      	add	r7, r6
  2044fc:	f6c2 0020 	movt	r0, #10272	; 0x2820
  204500:	701e      	strb	r6, [r3, #0]
  204502:	970b      	str	r7, [sp, #44]	; 0x2c
  204504:	6007      	str	r7, [r0, #0]
  204506:	f000 8130 	beq.w	20476a <processMarkers+0x3ee>
  20450a:	f640 0c10 	movw	ip, #2064	; 0x810
  20450e:	f640 0e14 	movw	lr, #2068	; 0x814
  204512:	f6c2 0c20 	movt	ip, #10272	; 0x2820
  204516:	f6c2 0e20 	movt	lr, #10272	; 0x2820
  20451a:	fa5f f088 	uxtb.w	r0, r8
  20451e:	f640 1214 	movw	r2, #2324	; 0x914
  204522:	3e01      	subs	r6, #1
  204524:	f108 0101 	add.w	r1, r8, #1
  204528:	f81e 0000 	ldrb.w	r0, [lr, r0]
  20452c:	f6c2 0220 	movt	r2, #10272	; 0x2820
  204530:	701e      	strb	r6, [r3, #0]
  204532:	7011      	strb	r1, [r2, #0]
  204534:	b2a2      	uxth	r2, r4
  204536:	b2c0      	uxtb	r0, r0
  204538:	40aa      	lsls	r2, r5
  20453a:	f1c5 0308 	rsb	r3, r5, #8
  20453e:	4310      	orrs	r0, r2
  204540:	4098      	lsls	r0, r3
  204542:	f640 0311 	movw	r3, #2065	; 0x811
  204546:	4688      	mov	r8, r1
  204548:	f6c2 0320 	movt	r3, #10272	; 0x2820
  20454c:	e005      	b.n	20455a <processMarkers+0x1de>
  20454e:	bf00      	nop
  204550:	f1aa 0a08 	sub.w	sl, sl, #8
  204554:	0220      	lsls	r0, r4, #8
  204556:	f88c a000 	strb.w	sl, [ip]
  20455a:	f3c4 2107 	ubfx	r1, r4, #8, #8
  20455e:	29ff      	cmp	r1, #255	; 0xff
  204560:	f200 813b 	bhi.w	2047da <processMarkers+0x45e>
  204564:	e8df f011 	tbh	[pc, r1, lsl #1]
  204568:	0ec10132 	.word	0x0ec10132
  20456c:	01390139 	.word	0x01390139
  204570:	01390139 	.word	0x01390139
  204574:	01390139 	.word	0x01390139
  204578:	01390139 	.word	0x01390139
  20457c:	01390139 	.word	0x01390139
  204580:	01390139 	.word	0x01390139
  204584:	01390139 	.word	0x01390139
  204588:	01390139 	.word	0x01390139
  20458c:	01390139 	.word	0x01390139
  204590:	01390139 	.word	0x01390139
  204594:	01390139 	.word	0x01390139
  204598:	01390139 	.word	0x01390139
  20459c:	01390139 	.word	0x01390139
  2045a0:	01390139 	.word	0x01390139
  2045a4:	01390139 	.word	0x01390139
  2045a8:	01390139 	.word	0x01390139
  2045ac:	01390139 	.word	0x01390139
  2045b0:	01390139 	.word	0x01390139
  2045b4:	01390139 	.word	0x01390139
  2045b8:	01390139 	.word	0x01390139
  2045bc:	01390139 	.word	0x01390139
  2045c0:	01390139 	.word	0x01390139
  2045c4:	01390139 	.word	0x01390139
  2045c8:	01390139 	.word	0x01390139
  2045cc:	01390139 	.word	0x01390139
  2045d0:	01390139 	.word	0x01390139
  2045d4:	01390139 	.word	0x01390139
  2045d8:	01390139 	.word	0x01390139
  2045dc:	01390139 	.word	0x01390139
  2045e0:	01390139 	.word	0x01390139
  2045e4:	01390139 	.word	0x01390139
  2045e8:	01390139 	.word	0x01390139
  2045ec:	01390139 	.word	0x01390139
  2045f0:	01390139 	.word	0x01390139
  2045f4:	01390139 	.word	0x01390139
  2045f8:	01390139 	.word	0x01390139
  2045fc:	01390139 	.word	0x01390139
  204600:	01390139 	.word	0x01390139
  204604:	01390139 	.word	0x01390139
  204608:	01390139 	.word	0x01390139
  20460c:	01390139 	.word	0x01390139
  204610:	01390139 	.word	0x01390139
  204614:	01390139 	.word	0x01390139
  204618:	01390139 	.word	0x01390139
  20461c:	01390139 	.word	0x01390139
  204620:	01390139 	.word	0x01390139
  204624:	01390139 	.word	0x01390139
  204628:	01390139 	.word	0x01390139
  20462c:	01390139 	.word	0x01390139
  204630:	01390139 	.word	0x01390139
  204634:	01390139 	.word	0x01390139
  204638:	01390139 	.word	0x01390139
  20463c:	01390139 	.word	0x01390139
  204640:	01390139 	.word	0x01390139
  204644:	01390139 	.word	0x01390139
  204648:	01390139 	.word	0x01390139
  20464c:	01390139 	.word	0x01390139
  204650:	01390139 	.word	0x01390139
  204654:	01390139 	.word	0x01390139
  204658:	01390139 	.word	0x01390139
  20465c:	01390139 	.word	0x01390139
  204660:	01390139 	.word	0x01390139
  204664:	01390139 	.word	0x01390139
  204668:	01390139 	.word	0x01390139
  20466c:	01390139 	.word	0x01390139
  204670:	01390139 	.word	0x01390139
  204674:	01390139 	.word	0x01390139
  204678:	01390139 	.word	0x01390139
  20467c:	01390139 	.word	0x01390139
  204680:	01390139 	.word	0x01390139
  204684:	01390139 	.word	0x01390139
  204688:	01390139 	.word	0x01390139
  20468c:	01390139 	.word	0x01390139
  204690:	01390139 	.word	0x01390139
  204694:	01390139 	.word	0x01390139
  204698:	01390139 	.word	0x01390139
  20469c:	01390139 	.word	0x01390139
  2046a0:	01390139 	.word	0x01390139
  2046a4:	01390139 	.word	0x01390139
  2046a8:	01390139 	.word	0x01390139
  2046ac:	01390139 	.word	0x01390139
  2046b0:	01390139 	.word	0x01390139
  2046b4:	01390139 	.word	0x01390139
  2046b8:	01390139 	.word	0x01390139
  2046bc:	01390139 	.word	0x01390139
  2046c0:	01390139 	.word	0x01390139
  2046c4:	01390139 	.word	0x01390139
  2046c8:	01390139 	.word	0x01390139
  2046cc:	01390139 	.word	0x01390139
  2046d0:	01390139 	.word	0x01390139
  2046d4:	01390139 	.word	0x01390139
  2046d8:	01390139 	.word	0x01390139
  2046dc:	01390139 	.word	0x01390139
  2046e0:	01390139 	.word	0x01390139
  2046e4:	01390139 	.word	0x01390139
  2046e8:	0eb60eb6 	.word	0x0eb60eb6
  2046ec:	0eb60eb6 	.word	0x0eb60eb6
  2046f0:	0eb601da 	.word	0x0eb601da
  2046f4:	0eb60eb6 	.word	0x0eb60eb6
  2046f8:	0eb60ec1 	.word	0x0eb60ec1
  2046fc:	0eb60eb6 	.word	0x0eb60eb6
  204700:	0eb60eca 	.word	0x0eb60eca
  204704:	0eb60eb6 	.word	0x0eb60eb6
  204708:	0ec10ec1 	.word	0x0ec10ec1
  20470c:	0ec10ec1 	.word	0x0ec10ec1
  204710:	0ec10ec1 	.word	0x0ec10ec1
  204714:	0ec10ec1 	.word	0x0ec10ec1
  204718:	0eb60eb6 	.word	0x0eb60eb6
  20471c:	02820eb6 	.word	0x02820eb6
  204720:	03230139 	.word	0x03230139
  204724:	01390139 	.word	0x01390139
  204728:	01390139 	.word	0x01390139
  20472c:	01390139 	.word	0x01390139
  204730:	01390139 	.word	0x01390139
  204734:	01390139 	.word	0x01390139
  204738:	01390139 	.word	0x01390139
  20473c:	01390139 	.word	0x01390139
  204740:	01390139 	.word	0x01390139
  204744:	01390139 	.word	0x01390139
  204748:	01390139 	.word	0x01390139
  20474c:	01390139 	.word	0x01390139
  204750:	01390139 	.word	0x01390139
  204754:	01390139 	.word	0x01390139
  204758:	01390139 	.word	0x01390139
  20475c:	01390139 	.word	0x01390139
  204760:	01390139 	.word	0x01390139
  204764:	01000139 	.word	0x01000139
  204768:	e6a0      	b.n	2044ac <processMarkers+0x130>
  20476a:	9809      	ldr	r0, [sp, #36]	; 0x24
  20476c:	f640 0c10 	movw	ip, #2064	; 0x810
  204770:	28ff      	cmp	r0, #255	; 0xff
  204772:	f080 02ff 	eor.w	r2, r0, #255	; 0xff
  204776:	f640 0012 	movw	r0, #2066	; 0x812
  20477a:	f6c2 0020 	movt	r0, #10272	; 0x2820
  20477e:	f640 0e14 	movw	lr, #2068	; 0x814
  204782:	7002      	strb	r2, [r0, #0]
  204784:	f04f 30ff 	mov.w	r0, #4294967295
  204788:	f04f 0104 	mov.w	r1, #4
  20478c:	bf08      	it	eq
  20478e:	f06f 0026 	mvneq.w	r0, #38	; 0x26
  204792:	2600      	movs	r6, #0
  204794:	f6c2 0c20 	movt	ip, #10272	; 0x2820
  204798:	f6c2 0e20 	movt	lr, #10272	; 0x2820
  20479c:	9209      	str	r2, [sp, #36]	; 0x24
  20479e:	e6c9      	b.n	204534 <processMarkers+0x1b8>
  2047a0:	f640 0212 	movw	r2, #2066	; 0x812
  2047a4:	f6c2 0220 	movt	r2, #10272	; 0x2820
  2047a8:	7810      	ldrb	r0, [r2, #0]
  2047aa:	f640 0c10 	movw	ip, #2064	; 0x810
  2047ae:	f640 0e14 	movw	lr, #2068	; 0x814
  2047b2:	43c1      	mvns	r1, r0
  2047b4:	28ff      	cmp	r0, #255	; 0xff
  2047b6:	f04f 30ff 	mov.w	r0, #4294967295
  2047ba:	f6c2 0c20 	movt	ip, #10272	; 0x2820
  2047be:	f6c2 0e20 	movt	lr, #10272	; 0x2820
  2047c2:	7011      	strb	r1, [r2, #0]
  2047c4:	bf08      	it	eq
  2047c6:	f06f 0026 	mvneq.w	r0, #38	; 0x26
  2047ca:	e63f      	b.n	20444c <processMarkers+0xd0>
  2047cc:	f640 1116 	movw	r1, #2326	; 0x916
  2047d0:	f6c2 0120 	movt	r1, #10272	; 0x2820
  2047d4:	8008      	strh	r0, [r1, #0]
  2047d6:	4681      	mov	r9, r0
  2047d8:	e5eb      	b.n	2043b2 <processMarkers+0x36>
  2047da:	b284      	uxth	r4, r0
  2047dc:	0630      	lsls	r0, r6, #24
  2047de:	f8cd a030 	str.w	sl, [sp, #48]	; 0x30
  2047e2:	fa5f fa8a 	uxtb.w	sl, sl
  2047e6:	f640 1016 	movw	r0, #2326	; 0x916
  2047ea:	fa04 f50a 	lsl.w	r5, r4, sl
  2047ee:	f6c2 0020 	movt	r0, #10272	; 0x2820
  2047f2:	8005      	strh	r5, [r0, #0]
  2047f4:	d131      	bne.n	20485a <processMarkers+0x4de>
  2047f6:	f640 1014 	movw	r0, #2324	; 0x914
  2047fa:	4627      	mov	r7, r4
  2047fc:	f04f 0804 	mov.w	r8, #4
  204800:	f6c2 0020 	movt	r0, #10272	; 0x2820
  204804:	9c0b      	ldr	r4, [sp, #44]	; 0x2c
  204806:	f880 8000 	strb.w	r8, [r0]
  20480a:	f240 203a 	movw	r0, #570	; 0x23a
  20480e:	1b06      	subs	r6, r0, r4
  204810:	20fc      	movs	r0, #252	; 0xfc
  204812:	2efc      	cmp	r6, #252	; 0xfc
  204814:	bf28      	it	cs
  204816:	4606      	movcs	r6, r0
  204818:	f247 106c 	movw	r0, #29036	; 0x716c
  20481c:	f2c0 0020 	movt	r0, #32
  204820:	1901      	adds	r1, r0, r4
  204822:	980a      	ldr	r0, [sp, #40]	; 0x28
  204824:	4632      	mov	r2, r6
  204826:	f7fb fe3d 	bl	2004a4 <__rt_memcpy>
  20482a:	0630      	lsls	r0, r6, #24
  20482c:	f640 0311 	movw	r3, #2065	; 0x811
  204830:	f640 1028 	movw	r0, #2344	; 0x928
  204834:	f6c2 0320 	movt	r3, #10272	; 0x2820
  204838:	4434      	add	r4, r6
  20483a:	f6c2 0020 	movt	r0, #10272	; 0x2820
  20483e:	701e      	strb	r6, [r3, #0]
  204840:	940b      	str	r4, [sp, #44]	; 0x2c
  204842:	6004      	str	r4, [r0, #0]
  204844:	f001 8312 	beq.w	205e6c <processMarkers+0x1af0>
  204848:	f640 0c10 	movw	ip, #2064	; 0x810
  20484c:	f640 0e14 	movw	lr, #2068	; 0x814
  204850:	f6c2 0c20 	movt	ip, #10272	; 0x2820
  204854:	f6c2 0e20 	movt	lr, #10272	; 0x2820
  204858:	463c      	mov	r4, r7
  20485a:	fa5f f088 	uxtb.w	r0, r8
  20485e:	f640 1114 	movw	r1, #2324	; 0x914
  204862:	3e01      	subs	r6, #1
  204864:	f108 0b01 	add.w	fp, r8, #1
  204868:	f81e 0000 	ldrb.w	r0, [lr, r0]
  20486c:	f6c2 0120 	movt	r1, #10272	; 0x2820
  204870:	701e      	strb	r6, [r3, #0]
  204872:	f881 b000 	strb.w	fp, [r1]
  204876:	b2a9      	uxth	r1, r5
  204878:	b2c0      	uxtb	r0, r0
  20487a:	f1ca 0708 	rsb	r7, sl, #8
  20487e:	4308      	orrs	r0, r1
  204880:	f1ba 0f07 	cmp.w	sl, #7
  204884:	fa00 f907 	lsl.w	r9, r0, r7
  204888:	f200 822d 	bhi.w	204ce6 <processMarkers+0x96a>
  20488c:	0630      	lsls	r0, r6, #24
  20488e:	d12f      	bne.n	2048f0 <processMarkers+0x574>
  204890:	f640 1014 	movw	r0, #2324	; 0x914
  204894:	f04f 0b04 	mov.w	fp, #4
  204898:	f6c2 0020 	movt	r0, #10272	; 0x2820
  20489c:	9d0b      	ldr	r5, [sp, #44]	; 0x2c
  20489e:	f880 b000 	strb.w	fp, [r0]
  2048a2:	f240 203a 	movw	r0, #570	; 0x23a
  2048a6:	1b46      	subs	r6, r0, r5
  2048a8:	20fc      	movs	r0, #252	; 0xfc
  2048aa:	2efc      	cmp	r6, #252	; 0xfc
  2048ac:	bf28      	it	cs
  2048ae:	4606      	movcs	r6, r0
  2048b0:	f247 106c 	movw	r0, #29036	; 0x716c
  2048b4:	f2c0 0020 	movt	r0, #32
  2048b8:	1941      	adds	r1, r0, r5
  2048ba:	980a      	ldr	r0, [sp, #40]	; 0x28
  2048bc:	4632      	mov	r2, r6
  2048be:	f7fb fdf1 	bl	2004a4 <__rt_memcpy>
  2048c2:	0630      	lsls	r0, r6, #24
  2048c4:	f640 0311 	movw	r3, #2065	; 0x811
  2048c8:	f640 1028 	movw	r0, #2344	; 0x928
  2048cc:	f6c2 0320 	movt	r3, #10272	; 0x2820
  2048d0:	4435      	add	r5, r6
  2048d2:	f6c2 0020 	movt	r0, #10272	; 0x2820
  2048d6:	701e      	strb	r6, [r3, #0]
  2048d8:	950b      	str	r5, [sp, #44]	; 0x2c
  2048da:	6005      	str	r5, [r0, #0]
  2048dc:	f001 8458 	beq.w	206190 <processMarkers+0x1e14>
  2048e0:	f640 0c10 	movw	ip, #2064	; 0x810
  2048e4:	f640 0e14 	movw	lr, #2068	; 0x814
  2048e8:	f6c2 0c20 	movt	ip, #10272	; 0x2820
  2048ec:	f6c2 0e20 	movt	lr, #10272	; 0x2820
  2048f0:	fa5f f18b 	uxtb.w	r1, fp
  2048f4:	f640 1214 	movw	r2, #2324	; 0x914
  2048f8:	3e01      	subs	r6, #1
  2048fa:	f10b 0001 	add.w	r0, fp, #1
  2048fe:	f81e 1001 	ldrb.w	r1, [lr, r1]
  204902:	f6c2 0220 	movt	r2, #10272	; 0x2820
  204906:	701e      	strb	r6, [r3, #0]
  204908:	7010      	strb	r0, [r2, #0]
  20490a:	fa09 f20a 	lsl.w	r2, r9, sl
  20490e:	b2c9      	uxtb	r1, r1
  204910:	4311      	orrs	r1, r2
  204912:	f8dd a030 	ldr.w	sl, [sp, #48]	; 0x30
  204916:	40b9      	lsls	r1, r7
  204918:	4683      	mov	fp, r0
  20491a:	e1ec      	b.n	204cf6 <processMarkers+0x97a>
  20491c:	fa1f fb80 	uxth.w	fp, r0
  204920:	0630      	lsls	r0, r6, #24
  204922:	fa5f f58a 	uxtb.w	r5, sl
  204926:	f640 1016 	movw	r0, #2326	; 0x916
  20492a:	fa0b f405 	lsl.w	r4, fp, r5
  20492e:	f6c2 0020 	movt	r0, #10272	; 0x2820
  204932:	8004      	strh	r4, [r0, #0]
  204934:	f8cd a030 	str.w	sl, [sp, #48]	; 0x30
  204938:	d12f      	bne.n	20499a <processMarkers+0x61e>
  20493a:	f640 1014 	movw	r0, #2324	; 0x914
  20493e:	f04f 0804 	mov.w	r8, #4
  204942:	f6c2 0020 	movt	r0, #10272	; 0x2820
  204946:	9f0b      	ldr	r7, [sp, #44]	; 0x2c
  204948:	f880 8000 	strb.w	r8, [r0]
  20494c:	f240 203a 	movw	r0, #570	; 0x23a
  204950:	1bc6      	subs	r6, r0, r7
  204952:	20fc      	movs	r0, #252	; 0xfc
  204954:	2efc      	cmp	r6, #252	; 0xfc
  204956:	bf28      	it	cs
  204958:	4606      	movcs	r6, r0
  20495a:	f247 106c 	movw	r0, #29036	; 0x716c
  20495e:	f2c0 0020 	movt	r0, #32
  204962:	19c1      	adds	r1, r0, r7
  204964:	980a      	ldr	r0, [sp, #40]	; 0x28
  204966:	4632      	mov	r2, r6
  204968:	f7fb fd9c 	bl	2004a4 <__rt_memcpy>
  20496c:	0630      	lsls	r0, r6, #24
  20496e:	f640 0311 	movw	r3, #2065	; 0x811
  204972:	f640 1028 	movw	r0, #2344	; 0x928
  204976:	f6c2 0320 	movt	r3, #10272	; 0x2820
  20497a:	4437      	add	r7, r6
  20497c:	f6c2 0020 	movt	r0, #10272	; 0x2820
  204980:	701e      	strb	r6, [r3, #0]
  204982:	970b      	str	r7, [sp, #44]	; 0x2c
  204984:	6007      	str	r7, [r0, #0]
  204986:	f001 828f 	beq.w	205ea8 <processMarkers+0x1b2c>
  20498a:	f640 0c10 	movw	ip, #2064	; 0x810
  20498e:	f640 0e14 	movw	lr, #2068	; 0x814
  204992:	f6c2 0c20 	movt	ip, #10272	; 0x2820
  204996:	f6c2 0e20 	movt	lr, #10272	; 0x2820
  20499a:	f640 0111 	movw	r1, #2065	; 0x811
  20499e:	1e70      	subs	r0, r6, #1
  2049a0:	f6c2 0120 	movt	r1, #10272	; 0x2820
  2049a4:	4603      	mov	r3, r0
  2049a6:	7008      	strb	r0, [r1, #0]
  2049a8:	fa5f f088 	uxtb.w	r0, r8
  2049ac:	f640 1114 	movw	r1, #2324	; 0x914
  2049b0:	f108 0201 	add.w	r2, r8, #1
  2049b4:	f81e 0000 	ldrb.w	r0, [lr, r0]
  2049b8:	f6c2 0120 	movt	r1, #10272	; 0x2820
  2049bc:	4690      	mov	r8, r2
  2049be:	700a      	strb	r2, [r1, #0]
  2049c0:	b2a1      	uxth	r1, r4
  2049c2:	b2c0      	uxtb	r0, r0
  2049c4:	f1c5 0708 	rsb	r7, r5, #8
  2049c8:	4308      	orrs	r0, r1
  2049ca:	2d07      	cmp	r5, #7
  2049cc:	fa00 f907 	lsl.w	r9, r0, r7
  2049d0:	f200 81a8 	bhi.w	204d24 <processMarkers+0x9a8>
  2049d4:	0618      	lsls	r0, r3, #24
  2049d6:	d130      	bne.n	204a3a <processMarkers+0x6be>
  2049d8:	f640 1014 	movw	r0, #2324	; 0x914
  2049dc:	2104      	movs	r1, #4
  2049de:	f6c2 0020 	movt	r0, #10272	; 0x2820
  2049e2:	9c0b      	ldr	r4, [sp, #44]	; 0x2c
  2049e4:	7001      	strb	r1, [r0, #0]
  2049e6:	f240 203a 	movw	r0, #570	; 0x23a
  2049ea:	1b06      	subs	r6, r0, r4
  2049ec:	20fc      	movs	r0, #252	; 0xfc
  2049ee:	2efc      	cmp	r6, #252	; 0xfc
  2049f0:	bf28      	it	cs
  2049f2:	4606      	movcs	r6, r0
  2049f4:	f247 106c 	movw	r0, #29036	; 0x716c
  2049f8:	f2c0 0020 	movt	r0, #32
  2049fc:	1901      	adds	r1, r0, r4
  2049fe:	980a      	ldr	r0, [sp, #40]	; 0x28
  204a00:	4632      	mov	r2, r6
  204a02:	f04f 0804 	mov.w	r8, #4
  204a06:	f7fb fd4d 	bl	2004a4 <__rt_memcpy>
  204a0a:	0630      	lsls	r0, r6, #24
  204a0c:	f640 0311 	movw	r3, #2065	; 0x811
  204a10:	f640 1028 	movw	r0, #2344	; 0x928
  204a14:	f6c2 0320 	movt	r3, #10272	; 0x2820
  204a18:	4434      	add	r4, r6
  204a1a:	f6c2 0020 	movt	r0, #10272	; 0x2820
  204a1e:	701e      	strb	r6, [r3, #0]
  204a20:	940b      	str	r4, [sp, #44]	; 0x2c
  204a22:	6004      	str	r4, [r0, #0]
  204a24:	f001 83d0 	beq.w	2061c8 <processMarkers+0x1e4c>
  204a28:	f640 0c10 	movw	ip, #2064	; 0x810
  204a2c:	f640 0e14 	movw	lr, #2068	; 0x814
  204a30:	4633      	mov	r3, r6
  204a32:	f6c2 0c20 	movt	ip, #10272	; 0x2820
  204a36:	f6c2 0e20 	movt	lr, #10272	; 0x2820
  204a3a:	f640 0011 	movw	r0, #2065	; 0x811
  204a3e:	3b01      	subs	r3, #1
  204a40:	f6c2 0020 	movt	r0, #10272	; 0x2820
  204a44:	fa5f f188 	uxtb.w	r1, r8
  204a48:	f640 1214 	movw	r2, #2324	; 0x914
  204a4c:	7003      	strb	r3, [r0, #0]
  204a4e:	f108 0001 	add.w	r0, r8, #1
  204a52:	f81e 1001 	ldrb.w	r1, [lr, r1]
  204a56:	f6c2 0220 	movt	r2, #10272	; 0x2820
  204a5a:	7010      	strb	r0, [r2, #0]
  204a5c:	fa09 f205 	lsl.w	r2, r9, r5
  204a60:	b2c9      	uxtb	r1, r1
  204a62:	4311      	orrs	r1, r2
  204a64:	fa01 f207 	lsl.w	r2, r1, r7
  204a68:	4605      	mov	r5, r0
  204a6a:	e163      	b.n	204d34 <processMarkers+0x9b8>
  204a6c:	b285      	uxth	r5, r0
  204a6e:	0630      	lsls	r0, r6, #24
  204a70:	fa5f f28a 	uxtb.w	r2, sl
  204a74:	f640 1016 	movw	r0, #2326	; 0x916
  204a78:	fa05 f402 	lsl.w	r4, r5, r2
  204a7c:	f6c2 0020 	movt	r0, #10272	; 0x2820
  204a80:	8004      	strh	r4, [r0, #0]
  204a82:	9508      	str	r5, [sp, #32]
  204a84:	d131      	bne.n	204aea <processMarkers+0x76e>
  204a86:	f640 1014 	movw	r0, #2324	; 0x914
  204a8a:	f04f 0804 	mov.w	r8, #4
  204a8e:	f6c2 0020 	movt	r0, #10272	; 0x2820
  204a92:	9f0b      	ldr	r7, [sp, #44]	; 0x2c
  204a94:	f880 8000 	strb.w	r8, [r0]
  204a98:	f240 203a 	movw	r0, #570	; 0x23a
  204a9c:	1bc6      	subs	r6, r0, r7
  204a9e:	20fc      	movs	r0, #252	; 0xfc
  204aa0:	9207      	str	r2, [sp, #28]
  204aa2:	2efc      	cmp	r6, #252	; 0xfc
  204aa4:	bf28      	it	cs
  204aa6:	4606      	movcs	r6, r0
  204aa8:	f247 106c 	movw	r0, #29036	; 0x716c
  204aac:	f2c0 0020 	movt	r0, #32
  204ab0:	19c1      	adds	r1, r0, r7
  204ab2:	980a      	ldr	r0, [sp, #40]	; 0x28
  204ab4:	4632      	mov	r2, r6
  204ab6:	f7fb fcf5 	bl	2004a4 <__rt_memcpy>
  204aba:	0630      	lsls	r0, r6, #24
  204abc:	f640 0311 	movw	r3, #2065	; 0x811
  204ac0:	f640 1028 	movw	r0, #2344	; 0x928
  204ac4:	f6c2 0320 	movt	r3, #10272	; 0x2820
  204ac8:	4437      	add	r7, r6
  204aca:	f6c2 0020 	movt	r0, #10272	; 0x2820
  204ace:	701e      	strb	r6, [r3, #0]
  204ad0:	970b      	str	r7, [sp, #44]	; 0x2c
  204ad2:	6007      	str	r7, [r0, #0]
  204ad4:	f001 81a8 	beq.w	205e28 <processMarkers+0x1aac>
  204ad8:	f640 0c10 	movw	ip, #2064	; 0x810
  204adc:	f640 0e14 	movw	lr, #2068	; 0x814
  204ae0:	9a07      	ldr	r2, [sp, #28]
  204ae2:	f6c2 0c20 	movt	ip, #10272	; 0x2820
  204ae6:	f6c2 0e20 	movt	lr, #10272	; 0x2820
  204aea:	f1a6 0b01 	sub.w	fp, r6, #1
  204aee:	fa5f f088 	uxtb.w	r0, r8
  204af2:	f640 1614 	movw	r6, #2324	; 0x914
  204af6:	f108 0101 	add.w	r1, r8, #1
  204afa:	f81e 0000 	ldrb.w	r0, [lr, r0]
  204afe:	f6c2 0620 	movt	r6, #10272	; 0x2820
  204b02:	f883 b000 	strb.w	fp, [r3]
  204b06:	4689      	mov	r9, r1
  204b08:	7031      	strb	r1, [r6, #0]
  204b0a:	b2a1      	uxth	r1, r4
  204b0c:	b2c0      	uxtb	r0, r0
  204b0e:	f1c2 0708 	rsb	r7, r2, #8
  204b12:	4308      	orrs	r0, r1
  204b14:	2a07      	cmp	r2, #7
  204b16:	fa00 f807 	lsl.w	r8, r0, r7
  204b1a:	f200 8124 	bhi.w	204d66 <processMarkers+0x9ea>
  204b1e:	ea5f 600b 	movs.w	r0, fp, lsl #24
  204b22:	d131      	bne.n	204b88 <processMarkers+0x80c>
  204b24:	2004      	movs	r0, #4
  204b26:	9c0b      	ldr	r4, [sp, #44]	; 0x2c
  204b28:	7030      	strb	r0, [r6, #0]
  204b2a:	f240 203a 	movw	r0, #570	; 0x23a
  204b2e:	eba0 0b04 	sub.w	fp, r0, r4
  204b32:	20fc      	movs	r0, #252	; 0xfc
  204b34:	f1bb 0ffc 	cmp.w	fp, #252	; 0xfc
  204b38:	bf28      	it	cs
  204b3a:	4683      	movcs	fp, r0
  204b3c:	f247 106c 	movw	r0, #29036	; 0x716c
  204b40:	f2c0 0020 	movt	r0, #32
  204b44:	1901      	adds	r1, r0, r4
  204b46:	980a      	ldr	r0, [sp, #40]	; 0x28
  204b48:	4615      	mov	r5, r2
  204b4a:	465a      	mov	r2, fp
  204b4c:	f04f 0904 	mov.w	r9, #4
  204b50:	f7fb fca8 	bl	2004a4 <__rt_memcpy>
  204b54:	ea5f 600b 	movs.w	r0, fp, lsl #24
  204b58:	f640 0311 	movw	r3, #2065	; 0x811
  204b5c:	f640 1028 	movw	r0, #2344	; 0x928
  204b60:	f6c2 0320 	movt	r3, #10272	; 0x2820
  204b64:	445c      	add	r4, fp
  204b66:	f6c2 0020 	movt	r0, #10272	; 0x2820
  204b6a:	f883 b000 	strb.w	fp, [r3]
  204b6e:	940b      	str	r4, [sp, #44]	; 0x2c
  204b70:	6004      	str	r4, [r0, #0]
  204b72:	f001 82f0 	beq.w	206156 <processMarkers+0x1dda>
  204b76:	f640 0c10 	movw	ip, #2064	; 0x810
  204b7a:	f640 0e14 	movw	lr, #2068	; 0x814
  204b7e:	f6c2 0c20 	movt	ip, #10272	; 0x2820
  204b82:	f6c2 0e20 	movt	lr, #10272	; 0x2820
  204b86:	462a      	mov	r2, r5
  204b88:	fa5f f189 	uxtb.w	r1, r9
  204b8c:	f1ab 0b01 	sub.w	fp, fp, #1
  204b90:	f109 0001 	add.w	r0, r9, #1
  204b94:	f81e 1001 	ldrb.w	r1, [lr, r1]
  204b98:	f883 b000 	strb.w	fp, [r3]
  204b9c:	7030      	strb	r0, [r6, #0]
  204b9e:	fa08 f202 	lsl.w	r2, r8, r2
  204ba2:	b2c9      	uxtb	r1, r1
  204ba4:	4311      	orrs	r1, r2
  204ba6:	fa01 f207 	lsl.w	r2, r1, r7
  204baa:	4604      	mov	r4, r0
  204bac:	e0e2      	b.n	204d74 <processMarkers+0x9f8>
  204bae:	fa1f fb80 	uxth.w	fp, r0
  204bb2:	0630      	lsls	r0, r6, #24
  204bb4:	f8cd a030 	str.w	sl, [sp, #48]	; 0x30
  204bb8:	fa5f fa8a 	uxtb.w	sl, sl
  204bbc:	f640 1016 	movw	r0, #2326	; 0x916
  204bc0:	fa0b f50a 	lsl.w	r5, fp, sl
  204bc4:	f6c2 0020 	movt	r0, #10272	; 0x2820
  204bc8:	8005      	strh	r5, [r0, #0]
  204bca:	d12f      	bne.n	204c2c <processMarkers+0x8b0>
  204bcc:	f640 1014 	movw	r0, #2324	; 0x914
  204bd0:	f04f 0804 	mov.w	r8, #4
  204bd4:	f6c2 0020 	movt	r0, #10272	; 0x2820
  204bd8:	9c0b      	ldr	r4, [sp, #44]	; 0x2c
  204bda:	f880 8000 	strb.w	r8, [r0]
  204bde:	f240 203a 	movw	r0, #570	; 0x23a
  204be2:	1b06      	subs	r6, r0, r4
  204be4:	20fc      	movs	r0, #252	; 0xfc
  204be6:	2efc      	cmp	r6, #252	; 0xfc
  204be8:	bf28      	it	cs
  204bea:	4606      	movcs	r6, r0
  204bec:	f247 106c 	movw	r0, #29036	; 0x716c
  204bf0:	f2c0 0020 	movt	r0, #32
  204bf4:	1901      	adds	r1, r0, r4
  204bf6:	980a      	ldr	r0, [sp, #40]	; 0x28
  204bf8:	4632      	mov	r2, r6
  204bfa:	f7fb fc53 	bl	2004a4 <__rt_memcpy>
  204bfe:	0630      	lsls	r0, r6, #24
  204c00:	f640 0311 	movw	r3, #2065	; 0x811
  204c04:	f640 1028 	movw	r0, #2344	; 0x928
  204c08:	f6c2 0320 	movt	r3, #10272	; 0x2820
  204c0c:	4434      	add	r4, r6
  204c0e:	f6c2 0020 	movt	r0, #10272	; 0x2820
  204c12:	701e      	strb	r6, [r3, #0]
  204c14:	940b      	str	r4, [sp, #44]	; 0x2c
  204c16:	6004      	str	r4, [r0, #0]
  204c18:	f001 8163 	beq.w	205ee2 <processMarkers+0x1b66>
  204c1c:	f640 0c10 	movw	ip, #2064	; 0x810
  204c20:	f640 0e14 	movw	lr, #2068	; 0x814
  204c24:	f6c2 0c20 	movt	ip, #10272	; 0x2820
  204c28:	f6c2 0e20 	movt	lr, #10272	; 0x2820
  204c2c:	fa5f f088 	uxtb.w	r0, r8
  204c30:	f640 1114 	movw	r1, #2324	; 0x914
  204c34:	3e01      	subs	r6, #1
  204c36:	f108 0401 	add.w	r4, r8, #1
  204c3a:	f81e 0000 	ldrb.w	r0, [lr, r0]
  204c3e:	f6c2 0120 	movt	r1, #10272	; 0x2820
  204c42:	701e      	strb	r6, [r3, #0]
  204c44:	700c      	strb	r4, [r1, #0]
  204c46:	b2a9      	uxth	r1, r5
  204c48:	b2c0      	uxtb	r0, r0
  204c4a:	f1ca 0708 	rsb	r7, sl, #8
  204c4e:	4308      	orrs	r0, r1
  204c50:	f1ba 0f07 	cmp.w	sl, #7
  204c54:	fa00 f907 	lsl.w	r9, r0, r7
  204c58:	f200 8309 	bhi.w	20526e <processMarkers+0xef2>
  204c5c:	0630      	lsls	r0, r6, #24
  204c5e:	d12d      	bne.n	204cbc <processMarkers+0x940>
  204c60:	f640 1014 	movw	r0, #2324	; 0x914
  204c64:	2404      	movs	r4, #4
  204c66:	f6c2 0020 	movt	r0, #10272	; 0x2820
  204c6a:	9d0b      	ldr	r5, [sp, #44]	; 0x2c
  204c6c:	7004      	strb	r4, [r0, #0]
  204c6e:	f240 203a 	movw	r0, #570	; 0x23a
  204c72:	1b46      	subs	r6, r0, r5
  204c74:	20fc      	movs	r0, #252	; 0xfc
  204c76:	2efc      	cmp	r6, #252	; 0xfc
  204c78:	bf28      	it	cs
  204c7a:	4606      	movcs	r6, r0
  204c7c:	f247 106c 	movw	r0, #29036	; 0x716c
  204c80:	f2c0 0020 	movt	r0, #32
  204c84:	1941      	adds	r1, r0, r5
  204c86:	980a      	ldr	r0, [sp, #40]	; 0x28
  204c88:	4632      	mov	r2, r6
  204c8a:	f7fb fc0b 	bl	2004a4 <__rt_memcpy>
  204c8e:	0630      	lsls	r0, r6, #24
  204c90:	f640 0311 	movw	r3, #2065	; 0x811
  204c94:	f640 1028 	movw	r0, #2344	; 0x928
  204c98:	f6c2 0320 	movt	r3, #10272	; 0x2820
  204c9c:	4435      	add	r5, r6
  204c9e:	f6c2 0020 	movt	r0, #10272	; 0x2820
  204ca2:	701e      	strb	r6, [r3, #0]
  204ca4:	950b      	str	r5, [sp, #44]	; 0x2c
  204ca6:	6005      	str	r5, [r0, #0]
  204ca8:	f001 82aa 	beq.w	206200 <processMarkers+0x1e84>
  204cac:	f640 0c10 	movw	ip, #2064	; 0x810
  204cb0:	f640 0e14 	movw	lr, #2068	; 0x814
  204cb4:	f6c2 0c20 	movt	ip, #10272	; 0x2820
  204cb8:	f6c2 0e20 	movt	lr, #10272	; 0x2820
  204cbc:	b2e1      	uxtb	r1, r4
  204cbe:	f640 1214 	movw	r2, #2324	; 0x914
  204cc2:	3e01      	subs	r6, #1
  204cc4:	1c60      	adds	r0, r4, #1
  204cc6:	f81e 1001 	ldrb.w	r1, [lr, r1]
  204cca:	f6c2 0220 	movt	r2, #10272	; 0x2820
  204cce:	701e      	strb	r6, [r3, #0]
  204cd0:	7010      	strb	r0, [r2, #0]
  204cd2:	fa09 f20a 	lsl.w	r2, r9, sl
  204cd6:	b2c9      	uxtb	r1, r1
  204cd8:	4311      	orrs	r1, r2
  204cda:	f8dd a030 	ldr.w	sl, [sp, #48]	; 0x30
  204cde:	fa01 f207 	lsl.w	r2, r1, r7
  204ce2:	4604      	mov	r4, r0
  204ce4:	e2cb      	b.n	20527e <processMarkers+0xf02>
  204ce6:	f8dd a030 	ldr.w	sl, [sp, #48]	; 0x30
  204cea:	ea4f 2109 	mov.w	r1, r9, lsl #8
  204cee:	f1aa 0a08 	sub.w	sl, sl, #8
  204cf2:	f88c a000 	strb.w	sl, [ip]
  204cf6:	ea4f 2519 	mov.w	r5, r9, lsr #8
  204cfa:	0a20      	lsrs	r0, r4, #8
  204cfc:	f360 251f 	bfi	r5, r0, #8, #24
  204d00:	fa1f f885 	uxth.w	r8, r5
  204d04:	f640 1016 	movw	r0, #2326	; 0x916
  204d08:	f1b8 0f03 	cmp.w	r8, #3
  204d0c:	f6c2 0020 	movt	r0, #10272	; 0x2820
  204d10:	4689      	mov	r9, r1
  204d12:	8001      	strh	r1, [r0, #0]
  204d14:	f4ff ab4d 	bcc.w	2043b2 <processMarkers+0x36>
  204d18:	07e8      	lsls	r0, r5, #31
  204d1a:	f041 8016 	bne.w	205d4a <processMarkers+0x19ce>
  204d1e:	3d02      	subs	r5, #2
  204d20:	f001 b90d 	b.w	205f3e <processMarkers+0x1bc2>
  204d24:	980c      	ldr	r0, [sp, #48]	; 0x30
  204d26:	ea4f 2209 	mov.w	r2, r9, lsl #8
  204d2a:	3808      	subs	r0, #8
  204d2c:	4645      	mov	r5, r8
  204d2e:	900c      	str	r0, [sp, #48]	; 0x30
  204d30:	f88c 0000 	strb.w	r0, [ip]
  204d34:	ea4f 2019 	mov.w	r0, r9, lsr #8
  204d38:	ea4f 211b 	mov.w	r1, fp, lsr #8
  204d3c:	f361 201f 	bfi	r0, r1, #8, #24
  204d40:	b281      	uxth	r1, r0
  204d42:	4616      	mov	r6, r2
  204d44:	2903      	cmp	r1, #3
  204d46:	f640 1116 	movw	r1, #2326	; 0x916
  204d4a:	f6c2 0120 	movt	r1, #10272	; 0x2820
  204d4e:	800a      	strh	r2, [r1, #0]
  204d50:	f080 833d 	bcs.w	2053ce <processMarkers+0x1052>
  204d54:	f640 0311 	movw	r3, #2065	; 0x811
  204d58:	f8dd a030 	ldr.w	sl, [sp, #48]	; 0x30
  204d5c:	46b1      	mov	r9, r6
  204d5e:	f6c2 0320 	movt	r3, #10272	; 0x2820
  204d62:	f7ff bb26 	b.w	2043b2 <processMarkers+0x36>
  204d66:	f1aa 0a08 	sub.w	sl, sl, #8
  204d6a:	ea4f 2208 	mov.w	r2, r8, lsl #8
  204d6e:	464c      	mov	r4, r9
  204d70:	f88c a000 	strb.w	sl, [ip]
  204d74:	9908      	ldr	r1, [sp, #32]
  204d76:	ea4f 2018 	mov.w	r0, r8, lsr #8
  204d7a:	0a09      	lsrs	r1, r1, #8
  204d7c:	f361 201f 	bfi	r0, r1, #8, #24
  204d80:	b281      	uxth	r1, r0
  204d82:	4691      	mov	r9, r2
  204d84:	2903      	cmp	r1, #3
  204d86:	f640 1116 	movw	r1, #2326	; 0x916
  204d8a:	f6c2 0120 	movt	r1, #10272	; 0x2820
  204d8e:	800a      	strh	r2, [r1, #0]
  204d90:	f4ff ab0f 	bcc.w	2043b2 <processMarkers+0x36>
  204d94:	f640 111a 	movw	r1, #2330	; 0x91a
  204d98:	f6c2 0120 	movt	r1, #10272	; 0x2820
  204d9c:	9406      	str	r4, [sp, #24]
  204d9e:	780c      	ldrb	r4, [r1, #0]
  204da0:	1e82      	subs	r2, r0, #2
  204da2:	464e      	mov	r6, r9
  204da4:	fa5f f88a 	uxtb.w	r8, sl
  204da8:	f1b8 0f07 	cmp.w	r8, #7
  204dac:	9204      	str	r2, [sp, #16]
  204dae:	d850      	bhi.n	204e52 <processMarkers+0xad6>
  204db0:	ea5f 600b 	movs.w	r0, fp, lsl #24
  204db4:	d133      	bne.n	204e1e <processMarkers+0xaa2>
  204db6:	2004      	movs	r0, #4
  204db8:	9006      	str	r0, [sp, #24]
  204dba:	f640 1014 	movw	r0, #2324	; 0x914
  204dbe:	2104      	movs	r1, #4
  204dc0:	f6c2 0020 	movt	r0, #10272	; 0x2820
  204dc4:	9d0b      	ldr	r5, [sp, #44]	; 0x2c
  204dc6:	7001      	strb	r1, [r0, #0]
  204dc8:	f240 203a 	movw	r0, #570	; 0x23a
  204dcc:	eba0 0b05 	sub.w	fp, r0, r5
  204dd0:	20fc      	movs	r0, #252	; 0xfc
  204dd2:	f1bb 0ffc 	cmp.w	fp, #252	; 0xfc
  204dd6:	bf28      	it	cs
  204dd8:	4683      	movcs	fp, r0
  204dda:	f247 106c 	movw	r0, #29036	; 0x716c
  204dde:	f2c0 0020 	movt	r0, #32
  204de2:	1941      	adds	r1, r0, r5
  204de4:	980a      	ldr	r0, [sp, #40]	; 0x28
  204de6:	465a      	mov	r2, fp
  204de8:	f7fb fb5c 	bl	2004a4 <__rt_memcpy>
  204dec:	ea5f 600b 	movs.w	r0, fp, lsl #24
  204df0:	f640 0311 	movw	r3, #2065	; 0x811
  204df4:	f640 1028 	movw	r0, #2344	; 0x928
  204df8:	f6c2 0320 	movt	r3, #10272	; 0x2820
  204dfc:	445d      	add	r5, fp
  204dfe:	f6c2 0020 	movt	r0, #10272	; 0x2820
  204e02:	f883 b000 	strb.w	fp, [r3]
  204e06:	950b      	str	r5, [sp, #44]	; 0x2c
  204e08:	6005      	str	r5, [r0, #0]
  204e0a:	f000 8215 	beq.w	205238 <processMarkers+0xebc>
  204e0e:	f640 0c10 	movw	ip, #2064	; 0x810
  204e12:	f640 0e14 	movw	lr, #2068	; 0x814
  204e16:	f6c2 0c20 	movt	ip, #10272	; 0x2820
  204e1a:	f6c2 0e20 	movt	lr, #10272	; 0x2820
  204e1e:	9806      	ldr	r0, [sp, #24]
  204e20:	f640 1214 	movw	r2, #2324	; 0x914
  204e24:	1c41      	adds	r1, r0, #1
  204e26:	b2c0      	uxtb	r0, r0
  204e28:	f1ab 0b01 	sub.w	fp, fp, #1
  204e2c:	f81e 0000 	ldrb.w	r0, [lr, r0]
  204e30:	f6c2 0220 	movt	r2, #10272	; 0x2820
  204e34:	f883 b000 	strb.w	fp, [r3]
  204e38:	7011      	strb	r1, [r2, #0]
  204e3a:	b2b2      	uxth	r2, r6
  204e3c:	b2c0      	uxtb	r0, r0
  204e3e:	fa02 f208 	lsl.w	r2, r2, r8
  204e42:	fa5f f38a 	uxtb.w	r3, sl
  204e46:	f1c3 0308 	rsb	r3, r3, #8
  204e4a:	4310      	orrs	r0, r2
  204e4c:	4098      	lsls	r0, r3
  204e4e:	460f      	mov	r7, r1
  204e50:	e005      	b.n	204e5e <processMarkers+0xae2>
  204e52:	9f06      	ldr	r7, [sp, #24]
  204e54:	f1aa 0a08 	sub.w	sl, sl, #8
  204e58:	0230      	lsls	r0, r6, #8
  204e5a:	f88c a000 	strb.w	sl, [ip]
  204e5e:	f3c6 2103 	ubfx	r1, r6, #8, #4
  204e62:	2901      	cmp	r1, #1
  204e64:	f200 876d 	bhi.w	205d42 <processMarkers+0x19c6>
  204e68:	9103      	str	r1, [sp, #12]
  204e6a:	2900      	cmp	r1, #0
  204e6c:	f04f 0102 	mov.w	r1, #2
  204e70:	bf08      	it	eq
  204e72:	2101      	moveq	r1, #1
  204e74:	ea44 0401 	orr.w	r4, r4, r1
  204e78:	f640 111a 	movw	r1, #2330	; 0x91a
  204e7c:	f6c2 0120 	movt	r1, #10272	; 0x2820
  204e80:	700c      	strb	r4, [r1, #0]
  204e82:	f240 3824 	movw	r8, #804	; 0x324
  204e86:	f240 31a4 	movw	r1, #932	; 0x3a4
  204e8a:	f3c6 2207 	ubfx	r2, r6, #8, #8
  204e8e:	f6c2 0820 	movt	r8, #10272	; 0x2820
  204e92:	f6c2 0120 	movt	r1, #10272	; 0x2820
  204e96:	9402      	str	r4, [sp, #8]
  204e98:	bf08      	it	eq
  204e9a:	4688      	moveq	r8, r1
  204e9c:	9909      	ldr	r1, [sp, #36]	; 0x24
  204e9e:	f640 0311 	movw	r3, #2065	; 0x811
  204ea2:	4614      	mov	r4, r2
  204ea4:	f8cd 8030 	str.w	r8, [sp, #48]	; 0x30
  204ea8:	f04f 0900 	mov.w	r9, #0
  204eac:	46b8      	mov	r8, r7
  204eae:	4606      	mov	r6, r0
  204eb0:	f6c2 0320 	movt	r3, #10272	; 0x2820
  204eb4:	9106      	str	r1, [sp, #24]
  204eb6:	9208      	str	r2, [sp, #32]
  204eb8:	e00c      	b.n	204ed4 <processMarkers+0xb58>
  204eba:	bf00      	nop
  204ebc:	b2b0      	uxth	r0, r6
  204ebe:	462e      	mov	r6, r5
  204ec0:	0a01      	lsrs	r1, r0, #8
  204ec2:	980c      	ldr	r0, [sp, #48]	; 0x30
  204ec4:	f820 1019 	strh.w	r1, [r0, r9, lsl #1]
  204ec8:	f109 0901 	add.w	r9, r9, #1
  204ecc:	f1b9 0f40 	cmp.w	r9, #64	; 0x40
  204ed0:	f000 80fa 	beq.w	2050c8 <processMarkers+0xd4c>
  204ed4:	fa5f f58a 	uxtb.w	r5, sl
  204ed8:	2d07      	cmp	r5, #7
  204eda:	d851      	bhi.n	204f80 <processMarkers+0xc04>
  204edc:	ea5f 600b 	movs.w	r0, fp, lsl #24
  204ee0:	d133      	bne.n	204f4a <processMarkers+0xbce>
  204ee2:	f640 1014 	movw	r0, #2324	; 0x914
  204ee6:	f04f 0804 	mov.w	r8, #4
  204eea:	f6c2 0020 	movt	r0, #10272	; 0x2820
  204eee:	9f0b      	ldr	r7, [sp, #44]	; 0x2c
  204ef0:	f880 8000 	strb.w	r8, [r0]
  204ef4:	f240 203a 	movw	r0, #570	; 0x23a
  204ef8:	eba0 0b07 	sub.w	fp, r0, r7
  204efc:	20fc      	movs	r0, #252	; 0xfc
  204efe:	f1bb 0ffc 	cmp.w	fp, #252	; 0xfc
  204f02:	bf28      	it	cs
  204f04:	4683      	movcs	fp, r0
  204f06:	f247 106c 	movw	r0, #29036	; 0x716c
  204f0a:	f2c0 0020 	movt	r0, #32
  204f0e:	19c1      	adds	r1, r0, r7
  204f10:	980a      	ldr	r0, [sp, #40]	; 0x28
  204f12:	465a      	mov	r2, fp
  204f14:	f7fb fac6 	bl	2004a4 <__rt_memcpy>
  204f18:	ea5f 600b 	movs.w	r0, fp, lsl #24
  204f1c:	f640 0311 	movw	r3, #2065	; 0x811
  204f20:	f640 1028 	movw	r0, #2344	; 0x928
  204f24:	f6c2 0320 	movt	r3, #10272	; 0x2820
  204f28:	445f      	add	r7, fp
  204f2a:	f6c2 0020 	movt	r0, #10272	; 0x2820
  204f2e:	f883 b000 	strb.w	fp, [r3]
  204f32:	970b      	str	r7, [sp, #44]	; 0x2c
  204f34:	6007      	str	r7, [r0, #0]
  204f36:	f000 808e 	beq.w	205056 <processMarkers+0xcda>
  204f3a:	f640 0c10 	movw	ip, #2064	; 0x810
  204f3e:	f640 0e14 	movw	lr, #2068	; 0x814
  204f42:	f6c2 0c20 	movt	ip, #10272	; 0x2820
  204f46:	f6c2 0e20 	movt	lr, #10272	; 0x2820
  204f4a:	fa5f f088 	uxtb.w	r0, r8
  204f4e:	f640 1114 	movw	r1, #2324	; 0x914
  204f52:	f1ab 0b01 	sub.w	fp, fp, #1
  204f56:	f108 0701 	add.w	r7, r8, #1
  204f5a:	f81e 0000 	ldrb.w	r0, [lr, r0]
  204f5e:	f6c2 0120 	movt	r1, #10272	; 0x2820
  204f62:	f883 b000 	strb.w	fp, [r3]
  204f66:	700f      	strb	r7, [r1, #0]
  204f68:	b2b1      	uxth	r1, r6
  204f6a:	b2c0      	uxtb	r0, r0
  204f6c:	40a9      	lsls	r1, r5
  204f6e:	f1c5 0208 	rsb	r2, r5, #8
  204f72:	4308      	orrs	r0, r1
  204f74:	fa00 f502 	lsl.w	r5, r0, r2
  204f78:	46b8      	mov	r8, r7
  204f7a:	2c10      	cmp	r4, #16
  204f7c:	d39e      	bcc.n	204ebc <processMarkers+0xb40>
  204f7e:	e006      	b.n	204f8e <processMarkers+0xc12>
  204f80:	f1aa 0a08 	sub.w	sl, sl, #8
  204f84:	0235      	lsls	r5, r6, #8
  204f86:	f88c a000 	strb.w	sl, [ip]
  204f8a:	2c10      	cmp	r4, #16
  204f8c:	d396      	bcc.n	204ebc <processMarkers+0xb40>
  204f8e:	4639      	mov	r1, r7
  204f90:	fa5f f78a 	uxtb.w	r7, sl
  204f94:	2f07      	cmp	r7, #7
  204f96:	d851      	bhi.n	20503c <processMarkers+0xcc0>
  204f98:	ea5f 600b 	movs.w	r0, fp, lsl #24
  204f9c:	d134      	bne.n	205008 <processMarkers+0xc8c>
  204f9e:	f640 1014 	movw	r0, #2324	; 0x914
  204fa2:	9607      	str	r6, [sp, #28]
  204fa4:	f04f 0804 	mov.w	r8, #4
  204fa8:	f6c2 0020 	movt	r0, #10272	; 0x2820
  204fac:	9e0b      	ldr	r6, [sp, #44]	; 0x2c
  204fae:	f880 8000 	strb.w	r8, [r0]
  204fb2:	f240 203a 	movw	r0, #570	; 0x23a
  204fb6:	eba0 0b06 	sub.w	fp, r0, r6
  204fba:	20fc      	movs	r0, #252	; 0xfc
  204fbc:	f1bb 0ffc 	cmp.w	fp, #252	; 0xfc
  204fc0:	bf28      	it	cs
  204fc2:	4683      	movcs	fp, r0
  204fc4:	f247 106c 	movw	r0, #29036	; 0x716c
  204fc8:	f2c0 0020 	movt	r0, #32
  204fcc:	1981      	adds	r1, r0, r6
  204fce:	980a      	ldr	r0, [sp, #40]	; 0x28
  204fd0:	465a      	mov	r2, fp
  204fd2:	f7fb fa67 	bl	2004a4 <__rt_memcpy>
  204fd6:	ea5f 600b 	movs.w	r0, fp, lsl #24
  204fda:	f640 0311 	movw	r3, #2065	; 0x811
  204fde:	f640 1028 	movw	r0, #2344	; 0x928
  204fe2:	f6c2 0320 	movt	r3, #10272	; 0x2820
  204fe6:	445e      	add	r6, fp
  204fe8:	f6c2 0020 	movt	r0, #10272	; 0x2820
  204fec:	f883 b000 	strb.w	fp, [r3]
  204ff0:	960b      	str	r6, [sp, #44]	; 0x2c
  204ff2:	6006      	str	r6, [r0, #0]
  204ff4:	d04b      	beq.n	20508e <processMarkers+0xd12>
  204ff6:	f640 0c10 	movw	ip, #2064	; 0x810
  204ffa:	f640 0e14 	movw	lr, #2068	; 0x814
  204ffe:	9e07      	ldr	r6, [sp, #28]
  205000:	f6c2 0c20 	movt	ip, #10272	; 0x2820
  205004:	f6c2 0e20 	movt	lr, #10272	; 0x2820
  205008:	fa5f f088 	uxtb.w	r0, r8
  20500c:	f640 1114 	movw	r1, #2324	; 0x914
  205010:	f1ab 0b01 	sub.w	fp, fp, #1
  205014:	f108 0401 	add.w	r4, r8, #1
  205018:	f81e 0000 	ldrb.w	r0, [lr, r0]
  20501c:	f6c2 0120 	movt	r1, #10272	; 0x2820
  205020:	f883 b000 	strb.w	fp, [r3]
  205024:	700c      	strb	r4, [r1, #0]
  205026:	b2a9      	uxth	r1, r5
  205028:	b2c0      	uxtb	r0, r0
  20502a:	40b9      	lsls	r1, r7
  20502c:	f1c7 0208 	rsb	r2, r7, #8
  205030:	4308      	orrs	r0, r1
  205032:	46a0      	mov	r8, r4
  205034:	4627      	mov	r7, r4
  205036:	9c08      	ldr	r4, [sp, #32]
  205038:	4090      	lsls	r0, r2
  20503a:	e005      	b.n	205048 <processMarkers+0xccc>
  20503c:	f1aa 0a08 	sub.w	sl, sl, #8
  205040:	0228      	lsls	r0, r5, #8
  205042:	460f      	mov	r7, r1
  205044:	f88c a000 	strb.w	sl, [ip]
  205048:	b2a9      	uxth	r1, r5
  20504a:	f406 427f 	and.w	r2, r6, #65280	; 0xff00
  20504e:	ea42 2111 	orr.w	r1, r2, r1, lsr #8
  205052:	4606      	mov	r6, r0
  205054:	e735      	b.n	204ec2 <processMarkers+0xb46>
  205056:	9a06      	ldr	r2, [sp, #24]
  205058:	f640 0012 	movw	r0, #2066	; 0x812
  20505c:	f082 01ff 	eor.w	r1, r2, #255	; 0xff
  205060:	f6c2 0020 	movt	r0, #10272	; 0x2820
  205064:	f640 0c10 	movw	ip, #2064	; 0x810
  205068:	f640 0e14 	movw	lr, #2068	; 0x814
  20506c:	7001      	strb	r1, [r0, #0]
  20506e:	f04f 30ff 	mov.w	r0, #4294967295
  205072:	f04f 0b00 	mov.w	fp, #0
  205076:	2704      	movs	r7, #4
  205078:	f6c2 0c20 	movt	ip, #10272	; 0x2820
  20507c:	f6c2 0e20 	movt	lr, #10272	; 0x2820
  205080:	2aff      	cmp	r2, #255	; 0xff
  205082:	bf08      	it	eq
  205084:	f06f 0026 	mvneq.w	r0, #38	; 0x26
  205088:	9109      	str	r1, [sp, #36]	; 0x24
  20508a:	9106      	str	r1, [sp, #24]
  20508c:	e76c      	b.n	204f68 <processMarkers+0xbec>
  20508e:	9a06      	ldr	r2, [sp, #24]
  205090:	f640 0012 	movw	r0, #2066	; 0x812
  205094:	f082 01ff 	eor.w	r1, r2, #255	; 0xff
  205098:	f6c2 0020 	movt	r0, #10272	; 0x2820
  20509c:	7001      	strb	r1, [r0, #0]
  20509e:	f04f 30ff 	mov.w	r0, #4294967295
  2050a2:	2aff      	cmp	r2, #255	; 0xff
  2050a4:	bf08      	it	eq
  2050a6:	f06f 0026 	mvneq.w	r0, #38	; 0x26
  2050aa:	f640 0c10 	movw	ip, #2064	; 0x810
  2050ae:	f640 0e14 	movw	lr, #2068	; 0x814
  2050b2:	9e07      	ldr	r6, [sp, #28]
  2050b4:	f04f 0b00 	mov.w	fp, #0
  2050b8:	2404      	movs	r4, #4
  2050ba:	f6c2 0c20 	movt	ip, #10272	; 0x2820
  2050be:	f6c2 0e20 	movt	lr, #10272	; 0x2820
  2050c2:	9109      	str	r1, [sp, #36]	; 0x24
  2050c4:	9106      	str	r1, [sp, #24]
  2050c6:	e7ae      	b.n	205026 <processMarkers+0xcaa>
  2050c8:	9803      	ldr	r0, [sp, #12]
  2050ca:	f240 3c24 	movw	ip, #804	; 0x324
  2050ce:	2800      	cmp	r0, #0
  2050d0:	f6c2 0c20 	movt	ip, #10272	; 0x2820
  2050d4:	f240 30a4 	movw	r0, #932	; 0x3a4
  2050d8:	e9cd 7606 	strd	r7, r6, [sp, #24]
  2050dc:	f8cd a030 	str.w	sl, [sp, #48]	; 0x30
  2050e0:	f6c2 0020 	movt	r0, #10272	; 0x2820
  2050e4:	bf08      	it	eq
  2050e6:	4684      	moveq	ip, r0
  2050e8:	f1ac 0120 	sub.w	r1, ip, #32
  2050ec:	2200      	movs	r2, #0
  2050ee:	2404      	movs	r4, #4
  2050f0:	f247 00b0 	movw	r0, #28848	; 0x70b0
  2050f4:	f2c0 0020 	movt	r0, #32
  2050f8:	f931 3f20 	ldrsh.w	r3, [r1, #32]!
  2050fc:	5c87      	ldrb	r7, [r0, r2]
  2050fe:	f247 00b0 	movw	r0, #28848	; 0x70b0
  205102:	fb17 4703 	smlabb	r7, r7, r3, r4
  205106:	f2c0 0020 	movt	r0, #32
  20510a:	08fd      	lsrs	r5, r7, #3
  20510c:	eb0c 0742 	add.w	r7, ip, r2, lsl #1
  205110:	1883      	adds	r3, r0, r2
  205112:	800d      	strh	r5, [r1, #0]
  205114:	f9b7 5002 	ldrsh.w	r5, [r7, #2]
  205118:	7858      	ldrb	r0, [r3, #1]
  20511a:	f9b7 9004 	ldrsh.w	r9, [r7, #4]
  20511e:	f04f 0a04 	mov.w	sl, #4
  205122:	789e      	ldrb	r6, [r3, #2]
  205124:	f9b7 8006 	ldrsh.w	r8, [r7, #6]
  205128:	78dc      	ldrb	r4, [r3, #3]
  20512a:	fb10 a005 	smlabb	r0, r0, r5, sl
  20512e:	f9b7 e008 	ldrsh.w	lr, [r7, #8]
  205132:	791d      	ldrb	r5, [r3, #4]
  205134:	fb16 a609 	smlabb	r6, r6, r9, sl
  205138:	08c0      	lsrs	r0, r0, #3
  20513a:	fb14 a408 	smlabb	r4, r4, r8, sl
  20513e:	8078      	strh	r0, [r7, #2]
  205140:	08f0      	lsrs	r0, r6, #3
  205142:	fb15 a60e 	smlabb	r6, r5, lr, sl
  205146:	80b8      	strh	r0, [r7, #4]
  205148:	08e0      	lsrs	r0, r4, #3
  20514a:	80f8      	strh	r0, [r7, #6]
  20514c:	08f0      	lsrs	r0, r6, #3
  20514e:	f9b7 600a 	ldrsh.w	r6, [r7, #10]
  205152:	795d      	ldrb	r5, [r3, #5]
  205154:	8138      	strh	r0, [r7, #8]
  205156:	fb15 a006 	smlabb	r0, r5, r6, sl
  20515a:	f9b7 600c 	ldrsh.w	r6, [r7, #12]
  20515e:	799d      	ldrb	r5, [r3, #6]
  205160:	08c0      	lsrs	r0, r0, #3
  205162:	fb15 a606 	smlabb	r6, r5, r6, sl
  205166:	8178      	strh	r0, [r7, #10]
  205168:	08f0      	lsrs	r0, r6, #3
  20516a:	81b8      	strh	r0, [r7, #12]
  20516c:	79d8      	ldrb	r0, [r3, #7]
  20516e:	f9b1 600e 	ldrsh.w	r6, [r1, #14]
  205172:	f9b1 5010 	ldrsh.w	r5, [r1, #16]
  205176:	fb10 a006 	smlabb	r0, r0, r6, sl
  20517a:	7a1e      	ldrb	r6, [r3, #8]
  20517c:	08c0      	lsrs	r0, r0, #3
  20517e:	fb16 a605 	smlabb	r6, r6, r5, sl
  205182:	81c8      	strh	r0, [r1, #14]
  205184:	08f0      	lsrs	r0, r6, #3
  205186:	8208      	strh	r0, [r1, #16]
  205188:	7a58      	ldrb	r0, [r3, #9]
  20518a:	f9b7 6012 	ldrsh.w	r6, [r7, #18]
  20518e:	f9b7 5014 	ldrsh.w	r5, [r7, #20]
  205192:	fb10 a006 	smlabb	r0, r0, r6, sl
  205196:	7a9e      	ldrb	r6, [r3, #10]
  205198:	08c0      	lsrs	r0, r0, #3
  20519a:	fb16 a505 	smlabb	r5, r6, r5, sl
  20519e:	f9b7 4016 	ldrsh.w	r4, [r7, #22]
  2051a2:	8278      	strh	r0, [r7, #18]
  2051a4:	08e8      	lsrs	r0, r5, #3
  2051a6:	7add      	ldrb	r5, [r3, #11]
  2051a8:	f9b7 e018 	ldrsh.w	lr, [r7, #24]
  2051ac:	82b8      	strh	r0, [r7, #20]
  2051ae:	fb15 a004 	smlabb	r0, r5, r4, sl
  2051b2:	7b1c      	ldrb	r4, [r3, #12]
  2051b4:	08c0      	lsrs	r0, r0, #3
  2051b6:	fb14 a60e 	smlabb	r6, r4, lr, sl
  2051ba:	82f8      	strh	r0, [r7, #22]
  2051bc:	08f0      	lsrs	r0, r6, #3
  2051be:	f9b7 601a 	ldrsh.w	r6, [r7, #26]
  2051c2:	7b5d      	ldrb	r5, [r3, #13]
  2051c4:	2404      	movs	r4, #4
  2051c6:	8338      	strh	r0, [r7, #24]
  2051c8:	fb15 4006 	smlabb	r0, r5, r6, r4
  2051cc:	f9b7 601c 	ldrsh.w	r6, [r7, #28]
  2051d0:	7b9d      	ldrb	r5, [r3, #14]
  2051d2:	08c0      	lsrs	r0, r0, #3
  2051d4:	fb15 4606 	smlabb	r6, r5, r6, r4
  2051d8:	8378      	strh	r0, [r7, #26]
  2051da:	08f0      	lsrs	r0, r6, #3
  2051dc:	83b8      	strh	r0, [r7, #28]
  2051de:	f9b1 001e 	ldrsh.w	r0, [r1, #30]
  2051e2:	7bdb      	ldrb	r3, [r3, #15]
  2051e4:	3210      	adds	r2, #16
  2051e6:	fb13 4000 	smlabb	r0, r3, r0, r4
  2051ea:	2a40      	cmp	r2, #64	; 0x40
  2051ec:	ea4f 00d0 	mov.w	r0, r0, lsr #3
  2051f0:	83c8      	strh	r0, [r1, #30]
  2051f2:	f47f af7d 	bne.w	2050f0 <processMarkers+0xd74>
  2051f6:	9a04      	ldr	r2, [sp, #16]
  2051f8:	9808      	ldr	r0, [sp, #32]
  2051fa:	b291      	uxth	r1, r2
  2051fc:	2810      	cmp	r0, #16
  2051fe:	f04f 0081 	mov.w	r0, #129	; 0x81
  205202:	bf38      	it	cc
  205204:	2041      	movcc	r0, #65	; 0x41
  205206:	4288      	cmp	r0, r1
  205208:	f200 878e 	bhi.w	206128 <processMarkers+0x1dac>
  20520c:	1a12      	subs	r2, r2, r0
  20520e:	f640 0c10 	movw	ip, #2064	; 0x810
  205212:	f640 0e14 	movw	lr, #2068	; 0x814
  205216:	f640 0311 	movw	r3, #2065	; 0x811
  20521a:	f8dd a030 	ldr.w	sl, [sp, #48]	; 0x30
  20521e:	9e07      	ldr	r6, [sp, #28]
  205220:	9c02      	ldr	r4, [sp, #8]
  205222:	0410      	lsls	r0, r2, #16
  205224:	f6c2 0c20 	movt	ip, #10272	; 0x2820
  205228:	f6c2 0e20 	movt	lr, #10272	; 0x2820
  20522c:	f6c2 0320 	movt	r3, #10272	; 0x2820
  205230:	f47f adb8 	bne.w	204da4 <processMarkers+0xa28>
  205234:	f000 bf87 	b.w	206146 <processMarkers+0x1dca>
  205238:	9809      	ldr	r0, [sp, #36]	; 0x24
  20523a:	f640 0c10 	movw	ip, #2064	; 0x810
  20523e:	28ff      	cmp	r0, #255	; 0xff
  205240:	f080 02ff 	eor.w	r2, r0, #255	; 0xff
  205244:	f640 0012 	movw	r0, #2066	; 0x812
  205248:	f6c2 0020 	movt	r0, #10272	; 0x2820
  20524c:	f640 0e14 	movw	lr, #2068	; 0x814
  205250:	7002      	strb	r2, [r0, #0]
  205252:	f04f 30ff 	mov.w	r0, #4294967295
  205256:	f04f 0b00 	mov.w	fp, #0
  20525a:	bf08      	it	eq
  20525c:	f06f 0026 	mvneq.w	r0, #38	; 0x26
  205260:	2104      	movs	r1, #4
  205262:	f6c2 0c20 	movt	ip, #10272	; 0x2820
  205266:	f6c2 0e20 	movt	lr, #10272	; 0x2820
  20526a:	9209      	str	r2, [sp, #36]	; 0x24
  20526c:	e5e5      	b.n	204e3a <processMarkers+0xabe>
  20526e:	f8dd a030 	ldr.w	sl, [sp, #48]	; 0x30
  205272:	ea4f 2209 	mov.w	r2, r9, lsl #8
  205276:	f1aa 0a08 	sub.w	sl, sl, #8
  20527a:	f88c a000 	strb.w	sl, [ip]
  20527e:	ea4f 2019 	mov.w	r0, r9, lsr #8
  205282:	ea4f 211b 	mov.w	r1, fp, lsr #8
  205286:	f361 201f 	bfi	r0, r1, #8, #24
  20528a:	2804      	cmp	r0, #4
  20528c:	f640 1016 	movw	r0, #2326	; 0x916
  205290:	f6c2 0020 	movt	r0, #10272	; 0x2820
  205294:	4691      	mov	r9, r2
  205296:	8002      	strh	r2, [r0, #0]
  205298:	f47f a88b 	bne.w	2043b2 <processMarkers+0x36>
  20529c:	4650      	mov	r0, sl
  20529e:	fa1f f889 	uxth.w	r8, r9
  2052a2:	0630      	lsls	r0, r6, #24
  2052a4:	fa5f f98a 	uxtb.w	r9, sl
  2052a8:	f640 1016 	movw	r0, #2326	; 0x916
  2052ac:	46d3      	mov	fp, sl
  2052ae:	fa08 f509 	lsl.w	r5, r8, r9
  2052b2:	f6c2 0020 	movt	r0, #10272	; 0x2820
  2052b6:	8005      	strh	r5, [r0, #0]
  2052b8:	d12d      	bne.n	205316 <processMarkers+0xf9a>
  2052ba:	f640 1014 	movw	r0, #2324	; 0x914
  2052be:	2404      	movs	r4, #4
  2052c0:	f6c2 0020 	movt	r0, #10272	; 0x2820
  2052c4:	9f0b      	ldr	r7, [sp, #44]	; 0x2c
  2052c6:	7004      	strb	r4, [r0, #0]
  2052c8:	f240 203a 	movw	r0, #570	; 0x23a
  2052cc:	1bc6      	subs	r6, r0, r7
  2052ce:	20fc      	movs	r0, #252	; 0xfc
  2052d0:	2efc      	cmp	r6, #252	; 0xfc
  2052d2:	bf28      	it	cs
  2052d4:	4606      	movcs	r6, r0
  2052d6:	f247 106c 	movw	r0, #29036	; 0x716c
  2052da:	f2c0 0020 	movt	r0, #32
  2052de:	19c1      	adds	r1, r0, r7
  2052e0:	980a      	ldr	r0, [sp, #40]	; 0x28
  2052e2:	4632      	mov	r2, r6
  2052e4:	f7fb f8de 	bl	2004a4 <__rt_memcpy>
  2052e8:	0630      	lsls	r0, r6, #24
  2052ea:	f640 0311 	movw	r3, #2065	; 0x811
  2052ee:	f640 1028 	movw	r0, #2344	; 0x928
  2052f2:	f6c2 0320 	movt	r3, #10272	; 0x2820
  2052f6:	4437      	add	r7, r6
  2052f8:	f6c2 0020 	movt	r0, #10272	; 0x2820
  2052fc:	701e      	strb	r6, [r3, #0]
  2052fe:	970b      	str	r7, [sp, #44]	; 0x2c
  205300:	6007      	str	r7, [r0, #0]
  205302:	f000 8799 	beq.w	206238 <processMarkers+0x1ebc>
  205306:	f640 0c10 	movw	ip, #2064	; 0x810
  20530a:	f640 0e14 	movw	lr, #2068	; 0x814
  20530e:	f6c2 0c20 	movt	ip, #10272	; 0x2820
  205312:	f6c2 0e20 	movt	lr, #10272	; 0x2820
  205316:	b2e0      	uxtb	r0, r4
  205318:	f640 1114 	movw	r1, #2324	; 0x914
  20531c:	3e01      	subs	r6, #1
  20531e:	1c67      	adds	r7, r4, #1
  205320:	f81e 0000 	ldrb.w	r0, [lr, r0]
  205324:	f6c2 0120 	movt	r1, #10272	; 0x2820
  205328:	701e      	strb	r6, [r3, #0]
  20532a:	700f      	strb	r7, [r1, #0]
  20532c:	b2a9      	uxth	r1, r5
  20532e:	b2c0      	uxtb	r0, r0
  205330:	f1c9 0508 	rsb	r5, r9, #8
  205334:	4308      	orrs	r0, r1
  205336:	f1b9 0f07 	cmp.w	r9, #7
  20533a:	fa00 f405 	lsl.w	r4, r0, r5
  20533e:	f200 8557 	bhi.w	205df0 <processMarkers+0x1a74>
  205342:	0630      	lsls	r0, r6, #24
  205344:	d130      	bne.n	2053a8 <processMarkers+0x102c>
  205346:	f640 1014 	movw	r0, #2324	; 0x914
  20534a:	2704      	movs	r7, #4
  20534c:	f6c2 0020 	movt	r0, #10272	; 0x2820
  205350:	f8dd a02c 	ldr.w	sl, [sp, #44]	; 0x2c
  205354:	7007      	strb	r7, [r0, #0]
  205356:	f240 203a 	movw	r0, #570	; 0x23a
  20535a:	eba0 060a 	sub.w	r6, r0, sl
  20535e:	20fc      	movs	r0, #252	; 0xfc
  205360:	2efc      	cmp	r6, #252	; 0xfc
  205362:	bf28      	it	cs
  205364:	4606      	movcs	r6, r0
  205366:	f247 106c 	movw	r0, #29036	; 0x716c
  20536a:	f2c0 0020 	movt	r0, #32
  20536e:	eb00 010a 	add.w	r1, r0, sl
  205372:	980a      	ldr	r0, [sp, #40]	; 0x28
  205374:	4632      	mov	r2, r6
  205376:	f7fb f895 	bl	2004a4 <__rt_memcpy>
  20537a:	0631      	lsls	r1, r6, #24
  20537c:	f640 0311 	movw	r3, #2065	; 0x811
  205380:	f640 1128 	movw	r1, #2344	; 0x928
  205384:	f6c2 0320 	movt	r3, #10272	; 0x2820
  205388:	eb0a 0006 	add.w	r0, sl, r6
  20538c:	f6c2 0120 	movt	r1, #10272	; 0x2820
  205390:	701e      	strb	r6, [r3, #0]
  205392:	6008      	str	r0, [r1, #0]
  205394:	f000 876c 	beq.w	206270 <processMarkers+0x1ef4>
  205398:	f640 0c10 	movw	ip, #2064	; 0x810
  20539c:	f640 0e14 	movw	lr, #2068	; 0x814
  2053a0:	f6c2 0c20 	movt	ip, #10272	; 0x2820
  2053a4:	f6c2 0e20 	movt	lr, #10272	; 0x2820
  2053a8:	1e70      	subs	r0, r6, #1
  2053aa:	7018      	strb	r0, [r3, #0]
  2053ac:	b2f8      	uxtb	r0, r7
  2053ae:	f640 1214 	movw	r2, #2324	; 0x914
  2053b2:	1c79      	adds	r1, r7, #1
  2053b4:	f81e 0000 	ldrb.w	r0, [lr, r0]
  2053b8:	f6c2 0220 	movt	r2, #10272	; 0x2820
  2053bc:	7011      	strb	r1, [r2, #0]
  2053be:	fa04 f109 	lsl.w	r1, r4, r9
  2053c2:	b2c0      	uxtb	r0, r0
  2053c4:	4308      	orrs	r0, r1
  2053c6:	fa00 f205 	lsl.w	r2, r0, r5
  2053ca:	f000 bd18 	b.w	205dfe <processMarkers+0x1a82>
  2053ce:	f640 1119 	movw	r1, #2329	; 0x919
  2053d2:	f6c2 0120 	movt	r1, #10272	; 0x2820
  2053d6:	469b      	mov	fp, r3
  2053d8:	7809      	ldrb	r1, [r1, #0]
  2053da:	f640 0311 	movw	r3, #2065	; 0x811
  2053de:	f1a0 0a02 	sub.w	sl, r0, #2
  2053e2:	f6c2 0320 	movt	r3, #10272	; 0x2820
  2053e6:	9103      	str	r1, [sp, #12]
  2053e8:	e025      	b.n	205436 <processMarkers+0x10ba>
  2053ea:	4613      	mov	r3, r2
  2053ec:	442a      	add	r2, r5
  2053ee:	1e57      	subs	r7, r2, #1
  2053f0:	460e      	mov	r6, r1
  2053f2:	4429      	add	r1, r5
  2053f4:	9c07      	ldr	r4, [sp, #28]
  2053f6:	ebaa 0a00 	sub.w	sl, sl, r0
  2053fa:	83a3      	strh	r3, [r4, #28]
  2053fc:	f89d 3043 	ldrb.w	r3, [sp, #67]	; 0x43
  205400:	87a7      	strh	r7, [r4, #60]	; 0x3c
  205402:	f884 604e 	strb.w	r6, [r4, #78]	; 0x4e
  205406:	eb03 0742 	add.w	r7, r3, r2, lsl #1
  20540a:	2b00      	cmp	r3, #0
  20540c:	bf0c      	ite	eq
  20540e:	4619      	moveq	r1, r3
  205410:	0053      	lslne	r3, r2, #1
  205412:	f64f 72ff 	movw	r2, #65535	; 0xffff
  205416:	bf18      	it	ne
  205418:	1e7a      	subne	r2, r7, #1
  20541a:	83e3      	strh	r3, [r4, #30]
  20541c:	f640 0311 	movw	r3, #2065	; 0x811
  205420:	4645      	mov	r5, r8
  205422:	ea5f 400a 	movs.w	r0, sl, lsl #16
  205426:	f6c2 0320 	movt	r3, #10272	; 0x2820
  20542a:	464e      	mov	r6, r9
  20542c:	87e2      	strh	r2, [r4, #62]	; 0x3e
  20542e:	f884 104f 	strb.w	r1, [r4, #79]	; 0x4f
  205432:	f000 8573 	beq.w	205f1c <processMarkers+0x1ba0>
  205436:	980c      	ldr	r0, [sp, #48]	; 0x30
  205438:	f8cd a008 	str.w	sl, [sp, #8]
  20543c:	b2c4      	uxtb	r4, r0
  20543e:	2c07      	cmp	r4, #7
  205440:	d851      	bhi.n	2054e6 <processMarkers+0x116a>
  205442:	46a8      	mov	r8, r5
  205444:	f640 1514 	movw	r5, #2324	; 0x914
  205448:	ea5f 600b 	movs.w	r0, fp, lsl #24
  20544c:	f6c2 0520 	movt	r5, #10272	; 0x2820
  205450:	d12e      	bne.n	2054b0 <processMarkers+0x1134>
  205452:	46b1      	mov	r9, r6
  205454:	2004      	movs	r0, #4
  205456:	9e0b      	ldr	r6, [sp, #44]	; 0x2c
  205458:	7028      	strb	r0, [r5, #0]
  20545a:	f240 203a 	movw	r0, #570	; 0x23a
  20545e:	1b87      	subs	r7, r0, r6
  205460:	20fc      	movs	r0, #252	; 0xfc
  205462:	2ffc      	cmp	r7, #252	; 0xfc
  205464:	bf28      	it	cs
  205466:	4607      	movcs	r7, r0
  205468:	f247 106c 	movw	r0, #29036	; 0x716c
  20546c:	f2c0 0020 	movt	r0, #32
  205470:	1981      	adds	r1, r0, r6
  205472:	980a      	ldr	r0, [sp, #40]	; 0x28
  205474:	463a      	mov	r2, r7
  205476:	f04f 0804 	mov.w	r8, #4
  20547a:	f7fb f813 	bl	2004a4 <__rt_memcpy>
  20547e:	0638      	lsls	r0, r7, #24
  205480:	f640 0311 	movw	r3, #2065	; 0x811
  205484:	f640 1028 	movw	r0, #2344	; 0x928
  205488:	f6c2 0320 	movt	r3, #10272	; 0x2820
  20548c:	443e      	add	r6, r7
  20548e:	f6c2 0020 	movt	r0, #10272	; 0x2820
  205492:	701f      	strb	r7, [r3, #0]
  205494:	960b      	str	r6, [sp, #44]	; 0x2c
  205496:	6006      	str	r6, [r0, #0]
  205498:	f000 841b 	beq.w	205cd2 <processMarkers+0x1956>
  20549c:	f640 0c10 	movw	ip, #2064	; 0x810
  2054a0:	f640 0e14 	movw	lr, #2068	; 0x814
  2054a4:	46bb      	mov	fp, r7
  2054a6:	f6c2 0c20 	movt	ip, #10272	; 0x2820
  2054aa:	f6c2 0e20 	movt	lr, #10272	; 0x2820
  2054ae:	464e      	mov	r6, r9
  2054b0:	4658      	mov	r0, fp
  2054b2:	f1ab 0001 	sub.w	r0, fp, #1
  2054b6:	fa5f f188 	uxtb.w	r1, r8
  2054ba:	4683      	mov	fp, r0
  2054bc:	7018      	strb	r0, [r3, #0]
  2054be:	f108 0001 	add.w	r0, r8, #1
  2054c2:	f81e 1001 	ldrb.w	r1, [lr, r1]
  2054c6:	7028      	strb	r0, [r5, #0]
  2054c8:	b2b2      	uxth	r2, r6
  2054ca:	9b0c      	ldr	r3, [sp, #48]	; 0x30
  2054cc:	40a2      	lsls	r2, r4
  2054ce:	b2c9      	uxtb	r1, r1
  2054d0:	b2db      	uxtb	r3, r3
  2054d2:	f1c3 0308 	rsb	r3, r3, #8
  2054d6:	4311      	orrs	r1, r2
  2054d8:	4099      	lsls	r1, r3
  2054da:	f640 0311 	movw	r3, #2065	; 0x811
  2054de:	4605      	mov	r5, r0
  2054e0:	f6c2 0320 	movt	r3, #10272	; 0x2820
  2054e4:	e004      	b.n	2054f0 <processMarkers+0x1174>
  2054e6:	3808      	subs	r0, #8
  2054e8:	0231      	lsls	r1, r6, #8
  2054ea:	900c      	str	r0, [sp, #48]	; 0x30
  2054ec:	f88c 0000 	strb.w	r0, [ip]
  2054f0:	200e      	movs	r0, #14
  2054f2:	ea10 2f16 	tst.w	r0, r6, lsr #8
  2054f6:	f10d 0a34 	add.w	sl, sp, #52	; 0x34
  2054fa:	f040 850e 	bne.w	205f1a <processMarkers+0x1b9e>
  2054fe:	20f0      	movs	r0, #240	; 0xf0
  205500:	ea00 2016 	and.w	r0, r0, r6, lsr #8
  205504:	2810      	cmp	r0, #16
  205506:	f200 8508 	bhi.w	205f1a <processMarkers+0x1b9e>
  20550a:	f3c6 2007 	ubfx	r0, r6, #8, #8
  20550e:	460a      	mov	r2, r1
  205510:	2102      	movs	r1, #2
  205512:	ea01 21d6 	and.w	r1, r1, r6, lsr #11
  205516:	f000 0001 	and.w	r0, r0, #1
  20551a:	180c      	adds	r4, r1, r0
  20551c:	f084 0002 	eor.w	r0, r4, #2
  205520:	f60f 51ec 	addw	r1, pc, #3564	; 0xdec
  205524:	f851 1020 	ldr.w	r1, [r1, r0, lsl #2]
  205528:	9404      	str	r4, [sp, #16]
  20552a:	9107      	str	r1, [sp, #28]
  20552c:	f60f 51f0 	addw	r1, pc, #3568	; 0xdf0
  205530:	f851 0020 	ldr.w	r0, [r1, r0, lsl #2]
  205534:	9903      	ldr	r1, [sp, #12]
  205536:	9008      	str	r0, [sp, #32]
  205538:	2001      	movs	r0, #1
  20553a:	40a0      	lsls	r0, r4
  20553c:	4301      	orrs	r1, r0
  20553e:	f640 1019 	movw	r0, #2329	; 0x919
  205542:	f6c2 0020 	movt	r0, #10272	; 0x2820
  205546:	7001      	strb	r1, [r0, #0]
  205548:	9809      	ldr	r0, [sp, #36]	; 0x24
  20554a:	9103      	str	r1, [sp, #12]
  20554c:	4611      	mov	r1, r2
  20554e:	2700      	movs	r7, #0
  205550:	46a9      	mov	r9, r5
  205552:	2200      	movs	r2, #0
  205554:	465c      	mov	r4, fp
  205556:	9006      	str	r0, [sp, #24]
  205558:	e012      	b.n	205580 <processMarkers+0x1204>
  20555a:	bf00      	nop
  20555c:	3a08      	subs	r2, #8
  20555e:	f107 0b01 	add.w	fp, r7, #1
  205562:	920c      	str	r2, [sp, #48]	; 0x30
  205564:	f88c 2000 	strb.w	r2, [ip]
  205568:	ea4f 2108 	mov.w	r1, r8, lsl #8
  20556c:	fa56 f298 	uxtab	r2, r6, r8, ror #8
  205570:	3702      	adds	r7, #2
  205572:	ea4f 2018 	mov.w	r0, r8, lsr #8
  205576:	2f10      	cmp	r7, #16
  205578:	f80a 000b 	strb.w	r0, [sl, fp]
  20557c:	f000 80fa 	beq.w	205774 <processMarkers+0x13f8>
  205580:	4693      	mov	fp, r2
  205582:	9a0c      	ldr	r2, [sp, #48]	; 0x30
  205584:	b2d6      	uxtb	r6, r2
  205586:	2e07      	cmp	r6, #7
  205588:	d85e      	bhi.n	205648 <processMarkers+0x12cc>
  20558a:	b288      	uxth	r0, r1
  20558c:	468a      	mov	sl, r1
  20558e:	0621      	lsls	r1, r4, #24
  205590:	fa00 f806 	lsl.w	r8, r0, r6
  205594:	d132      	bne.n	2055fc <processMarkers+0x1280>
  205596:	f640 1014 	movw	r0, #2324	; 0x914
  20559a:	f04f 0904 	mov.w	r9, #4
  20559e:	f6c2 0020 	movt	r0, #10272	; 0x2820
  2055a2:	9c0b      	ldr	r4, [sp, #44]	; 0x2c
  2055a4:	f880 9000 	strb.w	r9, [r0]
  2055a8:	f240 203a 	movw	r0, #570	; 0x23a
  2055ac:	1b05      	subs	r5, r0, r4
  2055ae:	20fc      	movs	r0, #252	; 0xfc
  2055b0:	2dfc      	cmp	r5, #252	; 0xfc
  2055b2:	bf28      	it	cs
  2055b4:	4605      	movcs	r5, r0
  2055b6:	f247 106c 	movw	r0, #29036	; 0x716c
  2055ba:	f2c0 0020 	movt	r0, #32
  2055be:	1901      	adds	r1, r0, r4
  2055c0:	980a      	ldr	r0, [sp, #40]	; 0x28
  2055c2:	462a      	mov	r2, r5
  2055c4:	f7fa ff6e 	bl	2004a4 <__rt_memcpy>
  2055c8:	f640 0011 	movw	r0, #2065	; 0x811
  2055cc:	f6c2 0020 	movt	r0, #10272	; 0x2820
  2055d0:	4603      	mov	r3, r0
  2055d2:	7005      	strb	r5, [r0, #0]
  2055d4:	0628      	lsls	r0, r5, #24
  2055d6:	f640 1028 	movw	r0, #2344	; 0x928
  2055da:	442c      	add	r4, r5
  2055dc:	f6c2 0020 	movt	r0, #10272	; 0x2820
  2055e0:	940b      	str	r4, [sp, #44]	; 0x2c
  2055e2:	6004      	str	r4, [r0, #0]
  2055e4:	f000 80aa 	beq.w	20573c <processMarkers+0x13c0>
  2055e8:	f640 0c10 	movw	ip, #2064	; 0x810
  2055ec:	f640 0e14 	movw	lr, #2068	; 0x814
  2055f0:	f6c2 0c20 	movt	ip, #10272	; 0x2820
  2055f4:	f6c2 0e20 	movt	lr, #10272	; 0x2820
  2055f8:	462c      	mov	r4, r5
  2055fa:	4629      	mov	r1, r5
  2055fc:	fa5f f189 	uxtb.w	r1, r9
  205600:	f640 1214 	movw	r2, #2324	; 0x914
  205604:	3c01      	subs	r4, #1
  205606:	f109 0001 	add.w	r0, r9, #1
  20560a:	f81e 1001 	ldrb.w	r1, [lr, r1]
  20560e:	f6c2 0220 	movt	r2, #10272	; 0x2820
  205612:	4625      	mov	r5, r4
  205614:	701c      	strb	r4, [r3, #0]
  205616:	7010      	strb	r0, [r2, #0]
  205618:	b2c9      	uxtb	r1, r1
  20561a:	f1c6 0208 	rsb	r2, r6, #8
  20561e:	ea41 0108 	orr.w	r1, r1, r8
  205622:	fa01 f802 	lsl.w	r8, r1, r2
  205626:	4652      	mov	r2, sl
  205628:	ea4f 211a 	mov.w	r1, sl, lsr #8
  20562c:	f10d 0a34 	add.w	sl, sp, #52	; 0x34
  205630:	f80a 1007 	strb.w	r1, [sl, r7]
  205634:	fa5b f692 	uxtab	r6, fp, r2, ror #8
  205638:	f107 0b01 	add.w	fp, r7, #1
  20563c:	4681      	mov	r9, r0
  20563e:	462c      	mov	r4, r5
  205640:	0620      	lsls	r0, r4, #24
  205642:	d146      	bne.n	2056d2 <processMarkers+0x1356>
  205644:	e014      	b.n	205670 <processMarkers+0x12f4>
  205646:	bf00      	nop
  205648:	3a08      	subs	r2, #8
  20564a:	460e      	mov	r6, r1
  20564c:	b2d0      	uxtb	r0, r2
  20564e:	fa5b f696 	uxtab	r6, fp, r6, ror #8
  205652:	ea4f 2801 	mov.w	r8, r1, lsl #8
  205656:	0a09      	lsrs	r1, r1, #8
  205658:	2808      	cmp	r0, #8
  20565a:	f88c 2000 	strb.w	r2, [ip]
  20565e:	f80a 1007 	strb.w	r1, [sl, r7]
  205662:	f4bf af7b 	bcs.w	20555c <processMarkers+0x11e0>
  205666:	f047 0b01 	orr.w	fp, r7, #1
  20566a:	920c      	str	r2, [sp, #48]	; 0x30
  20566c:	0620      	lsls	r0, r4, #24
  20566e:	d130      	bne.n	2056d2 <processMarkers+0x1356>
  205670:	f640 1014 	movw	r0, #2324	; 0x914
  205674:	f04f 0904 	mov.w	r9, #4
  205678:	f6c2 0020 	movt	r0, #10272	; 0x2820
  20567c:	9c0b      	ldr	r4, [sp, #44]	; 0x2c
  20567e:	f880 9000 	strb.w	r9, [r0]
  205682:	f240 203a 	movw	r0, #570	; 0x23a
  205686:	1b05      	subs	r5, r0, r4
  205688:	20fc      	movs	r0, #252	; 0xfc
  20568a:	2dfc      	cmp	r5, #252	; 0xfc
  20568c:	bf28      	it	cs
  20568e:	4605      	movcs	r5, r0
  205690:	f247 106c 	movw	r0, #29036	; 0x716c
  205694:	f2c0 0020 	movt	r0, #32
  205698:	1901      	adds	r1, r0, r4
  20569a:	980a      	ldr	r0, [sp, #40]	; 0x28
  20569c:	462a      	mov	r2, r5
  20569e:	f7fa ff01 	bl	2004a4 <__rt_memcpy>
  2056a2:	0628      	lsls	r0, r5, #24
  2056a4:	f640 0311 	movw	r3, #2065	; 0x811
  2056a8:	f640 1028 	movw	r0, #2344	; 0x928
  2056ac:	f6c2 0320 	movt	r3, #10272	; 0x2820
  2056b0:	442c      	add	r4, r5
  2056b2:	f6c2 0020 	movt	r0, #10272	; 0x2820
  2056b6:	701d      	strb	r5, [r3, #0]
  2056b8:	940b      	str	r4, [sp, #44]	; 0x2c
  2056ba:	6004      	str	r4, [r0, #0]
  2056bc:	d023      	beq.n	205706 <processMarkers+0x138a>
  2056be:	f640 0c10 	movw	ip, #2064	; 0x810
  2056c2:	f640 0e14 	movw	lr, #2068	; 0x814
  2056c6:	f6c2 0c20 	movt	ip, #10272	; 0x2820
  2056ca:	f6c2 0e20 	movt	lr, #10272	; 0x2820
  2056ce:	462c      	mov	r4, r5
  2056d0:	4629      	mov	r1, r5
  2056d2:	fa5f f089 	uxtb.w	r0, r9
  2056d6:	f640 1114 	movw	r1, #2324	; 0x914
  2056da:	3c01      	subs	r4, #1
  2056dc:	f109 0501 	add.w	r5, r9, #1
  2056e0:	f81e 0000 	ldrb.w	r0, [lr, r0]
  2056e4:	f6c2 0120 	movt	r1, #10272	; 0x2820
  2056e8:	701c      	strb	r4, [r3, #0]
  2056ea:	700d      	strb	r5, [r1, #0]
  2056ec:	9a0c      	ldr	r2, [sp, #48]	; 0x30
  2056ee:	fa1f f188 	uxth.w	r1, r8
  2056f2:	b2d2      	uxtb	r2, r2
  2056f4:	4091      	lsls	r1, r2
  2056f6:	b2c0      	uxtb	r0, r0
  2056f8:	f1c2 0208 	rsb	r2, r2, #8
  2056fc:	4308      	orrs	r0, r1
  2056fe:	fa00 f102 	lsl.w	r1, r0, r2
  205702:	46a9      	mov	r9, r5
  205704:	e732      	b.n	20556c <processMarkers+0x11f0>
  205706:	9a06      	ldr	r2, [sp, #24]
  205708:	f640 0012 	movw	r0, #2066	; 0x812
  20570c:	f082 01ff 	eor.w	r1, r2, #255	; 0xff
  205710:	f6c2 0020 	movt	r0, #10272	; 0x2820
  205714:	f640 0c10 	movw	ip, #2064	; 0x810
  205718:	f640 0e14 	movw	lr, #2068	; 0x814
  20571c:	7001      	strb	r1, [r0, #0]
  20571e:	f04f 30ff 	mov.w	r0, #4294967295
  205722:	2400      	movs	r4, #0
  205724:	2504      	movs	r5, #4
  205726:	f6c2 0c20 	movt	ip, #10272	; 0x2820
  20572a:	f6c2 0e20 	movt	lr, #10272	; 0x2820
  20572e:	2aff      	cmp	r2, #255	; 0xff
  205730:	bf08      	it	eq
  205732:	f06f 0026 	mvneq.w	r0, #38	; 0x26
  205736:	9109      	str	r1, [sp, #36]	; 0x24
  205738:	9106      	str	r1, [sp, #24]
  20573a:	e7d7      	b.n	2056ec <processMarkers+0x1370>
  20573c:	9906      	ldr	r1, [sp, #24]
  20573e:	f640 0012 	movw	r0, #2066	; 0x812
  205742:	f081 02ff 	eor.w	r2, r1, #255	; 0xff
  205746:	f6c2 0020 	movt	r0, #10272	; 0x2820
  20574a:	f640 0c10 	movw	ip, #2064	; 0x810
  20574e:	f640 0e14 	movw	lr, #2068	; 0x814
  205752:	7002      	strb	r2, [r0, #0]
  205754:	29ff      	cmp	r1, #255	; 0xff
  205756:	f04f 31ff 	mov.w	r1, #4294967295
  20575a:	f04f 0500 	mov.w	r5, #0
  20575e:	bf08      	it	eq
  205760:	f06f 0126 	mvneq.w	r1, #38	; 0x26
  205764:	2004      	movs	r0, #4
  205766:	f6c2 0c20 	movt	ip, #10272	; 0x2820
  20576a:	f6c2 0e20 	movt	lr, #10272	; 0x2820
  20576e:	9209      	str	r2, [sp, #36]	; 0x24
  205770:	9206      	str	r2, [sp, #24]
  205772:	e751      	b.n	205618 <processMarkers+0x129c>
  205774:	9804      	ldr	r0, [sp, #16]
  205776:	4689      	mov	r9, r1
  205778:	b291      	uxth	r1, r2
  20577a:	2802      	cmp	r0, #2
  20577c:	f04f 00ff 	mov.w	r0, #255	; 0xff
  205780:	bf38      	it	cc
  205782:	200c      	movcc	r0, #12
  205784:	4281      	cmp	r1, r0
  205786:	f200 834d 	bhi.w	205e24 <processMarkers+0x1aa8>
  20578a:	0410      	lsls	r0, r2, #16
  20578c:	9201      	str	r2, [sp, #4]
  20578e:	d068      	beq.n	205862 <processMarkers+0x14e6>
  205790:	b2d1      	uxtb	r1, r2
  205792:	2901      	cmp	r1, #1
  205794:	f04f 0001 	mov.w	r0, #1
  205798:	bf88      	it	hi
  20579a:	4608      	movhi	r0, r1
  20579c:	2902      	cmp	r1, #2
  20579e:	f000 0101 	and.w	r1, r0, #1
  2057a2:	9100      	str	r1, [sp, #0]
  2057a4:	d25f      	bcs.n	205866 <processMarkers+0x14ea>
  2057a6:	9809      	ldr	r0, [sp, #36]	; 0x24
  2057a8:	f04f 0800 	mov.w	r8, #0
  2057ac:	9004      	str	r0, [sp, #16]
  2057ae:	46aa      	mov	sl, r5
  2057b0:	4649      	mov	r1, r9
  2057b2:	9800      	ldr	r0, [sp, #0]
  2057b4:	f640 1614 	movw	r6, #2324	; 0x914
  2057b8:	46a3      	mov	fp, r4
  2057ba:	2800      	cmp	r0, #0
  2057bc:	4689      	mov	r9, r1
  2057be:	f6c2 0620 	movt	r6, #10272	; 0x2820
  2057c2:	f000 815f 	beq.w	205a84 <processMarkers+0x1708>
  2057c6:	980c      	ldr	r0, [sp, #48]	; 0x30
  2057c8:	b2c4      	uxtb	r4, r0
  2057ca:	2c08      	cmp	r4, #8
  2057cc:	f080 8150 	bcs.w	205a70 <processMarkers+0x16f4>
  2057d0:	4689      	mov	r9, r1
  2057d2:	4659      	mov	r1, fp
  2057d4:	ea5f 600b 	movs.w	r0, fp, lsl #24
  2057d8:	d12c      	bne.n	205834 <processMarkers+0x14b8>
  2057da:	9f0b      	ldr	r7, [sp, #44]	; 0x2c
  2057dc:	f240 203a 	movw	r0, #570	; 0x23a
  2057e0:	f04f 0a04 	mov.w	sl, #4
  2057e4:	1bc5      	subs	r5, r0, r7
  2057e6:	20fc      	movs	r0, #252	; 0xfc
  2057e8:	f886 a000 	strb.w	sl, [r6]
  2057ec:	2dfc      	cmp	r5, #252	; 0xfc
  2057ee:	bf28      	it	cs
  2057f0:	4605      	movcs	r5, r0
  2057f2:	f247 106c 	movw	r0, #29036	; 0x716c
  2057f6:	f2c0 0020 	movt	r0, #32
  2057fa:	19c1      	adds	r1, r0, r7
  2057fc:	980a      	ldr	r0, [sp, #40]	; 0x28
  2057fe:	462a      	mov	r2, r5
  205800:	f7fa fe50 	bl	2004a4 <__rt_memcpy>
  205804:	0628      	lsls	r0, r5, #24
  205806:	f640 0311 	movw	r3, #2065	; 0x811
  20580a:	f640 1028 	movw	r0, #2344	; 0x928
  20580e:	f6c2 0320 	movt	r3, #10272	; 0x2820
  205812:	442f      	add	r7, r5
  205814:	f6c2 0020 	movt	r0, #10272	; 0x2820
  205818:	701d      	strb	r5, [r3, #0]
  20581a:	970b      	str	r7, [sp, #44]	; 0x2c
  20581c:	6007      	str	r7, [r0, #0]
  20581e:	f000 8275 	beq.w	205d0c <processMarkers+0x1990>
  205822:	f640 0c10 	movw	ip, #2064	; 0x810
  205826:	f640 0e14 	movw	lr, #2068	; 0x814
  20582a:	4629      	mov	r1, r5
  20582c:	f6c2 0c20 	movt	ip, #10272	; 0x2820
  205830:	f6c2 0e20 	movt	lr, #10272	; 0x2820
  205834:	fa5f f08a 	uxtb.w	r0, sl
  205838:	3901      	subs	r1, #1
  20583a:	f10a 0501 	add.w	r5, sl, #1
  20583e:	f81e 0000 	ldrb.w	r0, [lr, r0]
  205842:	468b      	mov	fp, r1
  205844:	7019      	strb	r1, [r3, #0]
  205846:	7035      	strb	r5, [r6, #0]
  205848:	fa1f f189 	uxth.w	r1, r9
  20584c:	9a0c      	ldr	r2, [sp, #48]	; 0x30
  20584e:	40a1      	lsls	r1, r4
  205850:	b2c0      	uxtb	r0, r0
  205852:	b2d2      	uxtb	r2, r2
  205854:	f1c2 0208 	rsb	r2, r2, #8
  205858:	4308      	orrs	r0, r1
  20585a:	4649      	mov	r1, r9
  20585c:	fa00 f902 	lsl.w	r9, r0, r2
  205860:	e10c      	b.n	205a7c <processMarkers+0x1700>
  205862:	46a3      	mov	fp, r4
  205864:	e10e      	b.n	205a84 <processMarkers+0x1708>
  205866:	f000 0bfe 	and.w	fp, r0, #254	; 0xfe
  20586a:	9809      	ldr	r0, [sp, #36]	; 0x24
  20586c:	f04f 0800 	mov.w	r8, #0
  205870:	46aa      	mov	sl, r5
  205872:	4649      	mov	r1, r9
  205874:	9004      	str	r0, [sp, #16]
  205876:	f8cd b018 	str.w	fp, [sp, #24]
  20587a:	e00f      	b.n	20589c <processMarkers+0x1520>
  20587c:	3f08      	subs	r7, #8
  20587e:	970c      	str	r7, [sp, #48]	; 0x30
  205880:	f88c 7000 	strb.w	r7, [ip]
  205884:	0232      	lsls	r2, r6, #8
  205886:	9908      	ldr	r1, [sp, #32]
  205888:	0a30      	lsrs	r0, r6, #8
  20588a:	4441      	add	r1, r8
  20588c:	f108 0802 	add.w	r8, r8, #2
  205890:	45c3      	cmp	fp, r8
  205892:	7048      	strb	r0, [r1, #1]
  205894:	461c      	mov	r4, r3
  205896:	464b      	mov	r3, r9
  205898:	4611      	mov	r1, r2
  20589a:	d08a      	beq.n	2057b2 <processMarkers+0x1436>
  20589c:	9f0c      	ldr	r7, [sp, #48]	; 0x30
  20589e:	b2fe      	uxtb	r6, r7
  2058a0:	2e07      	cmp	r6, #7
  2058a2:	d853      	bhi.n	20594c <processMarkers+0x15d0>
  2058a4:	468b      	mov	fp, r1
  2058a6:	0620      	lsls	r0, r4, #24
  2058a8:	d131      	bne.n	20590e <processMarkers+0x1592>
  2058aa:	f640 1014 	movw	r0, #2324	; 0x914
  2058ae:	f04f 0a04 	mov.w	sl, #4
  2058b2:	f6c2 0020 	movt	r0, #10272	; 0x2820
  2058b6:	9c0b      	ldr	r4, [sp, #44]	; 0x2c
  2058b8:	f880 a000 	strb.w	sl, [r0]
  2058bc:	f240 203a 	movw	r0, #570	; 0x23a
  2058c0:	1b07      	subs	r7, r0, r4
  2058c2:	20fc      	movs	r0, #252	; 0xfc
  2058c4:	2ffc      	cmp	r7, #252	; 0xfc
  2058c6:	bf28      	it	cs
  2058c8:	4607      	movcs	r7, r0
  2058ca:	f247 106c 	movw	r0, #29036	; 0x716c
  2058ce:	f2c0 0020 	movt	r0, #32
  2058d2:	1901      	adds	r1, r0, r4
  2058d4:	980a      	ldr	r0, [sp, #40]	; 0x28
  2058d6:	463a      	mov	r2, r7
  2058d8:	f7fa fde4 	bl	2004a4 <__rt_memcpy>
  2058dc:	0638      	lsls	r0, r7, #24
  2058de:	f640 0311 	movw	r3, #2065	; 0x811
  2058e2:	f640 1028 	movw	r0, #2344	; 0x928
  2058e6:	f6c2 0320 	movt	r3, #10272	; 0x2820
  2058ea:	443c      	add	r4, r7
  2058ec:	f6c2 0020 	movt	r0, #10272	; 0x2820
  2058f0:	701f      	strb	r7, [r3, #0]
  2058f2:	940b      	str	r4, [sp, #44]	; 0x2c
  2058f4:	6004      	str	r4, [r0, #0]
  2058f6:	f000 8084 	beq.w	205a02 <processMarkers+0x1686>
  2058fa:	f640 0c10 	movw	ip, #2064	; 0x810
  2058fe:	f640 0e14 	movw	lr, #2068	; 0x814
  205902:	f6c2 0c20 	movt	ip, #10272	; 0x2820
  205906:	f6c2 0e20 	movt	lr, #10272	; 0x2820
  20590a:	463c      	mov	r4, r7
  20590c:	4639      	mov	r1, r7
  20590e:	fa5f f08a 	uxtb.w	r0, sl
  205912:	f640 1114 	movw	r1, #2324	; 0x914
  205916:	3c01      	subs	r4, #1
  205918:	f10a 0501 	add.w	r5, sl, #1
  20591c:	f81e 0000 	ldrb.w	r0, [lr, r0]
  205920:	f6c2 0120 	movt	r1, #10272	; 0x2820
  205924:	4699      	mov	r9, r3
  205926:	701c      	strb	r4, [r3, #0]
  205928:	700d      	strb	r5, [r1, #0]
  20592a:	fa1f f18b 	uxth.w	r1, fp
  20592e:	9f0c      	ldr	r7, [sp, #48]	; 0x30
  205930:	40b1      	lsls	r1, r6
  205932:	b2c0      	uxtb	r0, r0
  205934:	b2fa      	uxtb	r2, r7
  205936:	f1c2 0208 	rsb	r2, r2, #8
  20593a:	4308      	orrs	r0, r1
  20593c:	4659      	mov	r1, fp
  20593e:	f8dd b018 	ldr.w	fp, [sp, #24]
  205942:	4623      	mov	r3, r4
  205944:	fa00 f602 	lsl.w	r6, r0, r2
  205948:	46aa      	mov	sl, r5
  20594a:	e005      	b.n	205958 <processMarkers+0x15dc>
  20594c:	4699      	mov	r9, r3
  20594e:	4623      	mov	r3, r4
  205950:	3f08      	subs	r7, #8
  205952:	020e      	lsls	r6, r1, #8
  205954:	f88c 7000 	strb.w	r7, [ip]
  205958:	0a08      	lsrs	r0, r1, #8
  20595a:	b2fc      	uxtb	r4, r7
  20595c:	9908      	ldr	r1, [sp, #32]
  20595e:	2c08      	cmp	r4, #8
  205960:	f801 0008 	strb.w	r0, [r1, r8]
  205964:	d28a      	bcs.n	20587c <processMarkers+0x1500>
  205966:	0618      	lsls	r0, r3, #24
  205968:	970c      	str	r7, [sp, #48]	; 0x30
  20596a:	d130      	bne.n	2059ce <processMarkers+0x1652>
  20596c:	f640 1014 	movw	r0, #2324	; 0x914
  205970:	f04f 0a04 	mov.w	sl, #4
  205974:	f6c2 0020 	movt	r0, #10272	; 0x2820
  205978:	9f0b      	ldr	r7, [sp, #44]	; 0x2c
  20597a:	f880 a000 	strb.w	sl, [r0]
  20597e:	f240 203a 	movw	r0, #570	; 0x23a
  205982:	1bc5      	subs	r5, r0, r7
  205984:	20fc      	movs	r0, #252	; 0xfc
  205986:	2dfc      	cmp	r5, #252	; 0xfc
  205988:	bf28      	it	cs
  20598a:	4605      	movcs	r5, r0
  20598c:	f247 106c 	movw	r0, #29036	; 0x716c
  205990:	f2c0 0020 	movt	r0, #32
  205994:	19c1      	adds	r1, r0, r7
  205996:	980a      	ldr	r0, [sp, #40]	; 0x28
  205998:	462a      	mov	r2, r5
  20599a:	f7fa fd83 	bl	2004a4 <__rt_memcpy>
  20599e:	f640 0311 	movw	r3, #2065	; 0x811
  2059a2:	0628      	lsls	r0, r5, #24
  2059a4:	f6c2 0320 	movt	r3, #10272	; 0x2820
  2059a8:	f640 1028 	movw	r0, #2344	; 0x928
  2059ac:	4699      	mov	r9, r3
  2059ae:	442f      	add	r7, r5
  2059b0:	f6c2 0020 	movt	r0, #10272	; 0x2820
  2059b4:	701d      	strb	r5, [r3, #0]
  2059b6:	970b      	str	r7, [sp, #44]	; 0x2c
  2059b8:	6007      	str	r7, [r0, #0]
  2059ba:	d03e      	beq.n	205a3a <processMarkers+0x16be>
  2059bc:	f640 0c10 	movw	ip, #2064	; 0x810
  2059c0:	f640 0e14 	movw	lr, #2068	; 0x814
  2059c4:	462b      	mov	r3, r5
  2059c6:	f6c2 0c20 	movt	ip, #10272	; 0x2820
  2059ca:	f6c2 0e20 	movt	lr, #10272	; 0x2820
  2059ce:	4618      	mov	r0, r3
  2059d0:	1e58      	subs	r0, r3, #1
  2059d2:	4603      	mov	r3, r0
  2059d4:	f889 0000 	strb.w	r0, [r9]
  2059d8:	fa5f f08a 	uxtb.w	r0, sl
  2059dc:	f640 1114 	movw	r1, #2324	; 0x914
  2059e0:	f10a 0501 	add.w	r5, sl, #1
  2059e4:	f81e 0000 	ldrb.w	r0, [lr, r0]
  2059e8:	f6c2 0120 	movt	r1, #10272	; 0x2820
  2059ec:	700d      	strb	r5, [r1, #0]
  2059ee:	b2b1      	uxth	r1, r6
  2059f0:	b2c0      	uxtb	r0, r0
  2059f2:	40a1      	lsls	r1, r4
  2059f4:	f1c4 0208 	rsb	r2, r4, #8
  2059f8:	4308      	orrs	r0, r1
  2059fa:	fa00 f202 	lsl.w	r2, r0, r2
  2059fe:	46aa      	mov	sl, r5
  205a00:	e741      	b.n	205886 <processMarkers+0x150a>
  205a02:	9a04      	ldr	r2, [sp, #16]
  205a04:	f640 0012 	movw	r0, #2066	; 0x812
  205a08:	f082 01ff 	eor.w	r1, r2, #255	; 0xff
  205a0c:	f6c2 0020 	movt	r0, #10272	; 0x2820
  205a10:	f640 0c10 	movw	ip, #2064	; 0x810
  205a14:	f640 0e14 	movw	lr, #2068	; 0x814
  205a18:	4699      	mov	r9, r3
  205a1a:	7001      	strb	r1, [r0, #0]
  205a1c:	f04f 30ff 	mov.w	r0, #4294967295
  205a20:	2400      	movs	r4, #0
  205a22:	2504      	movs	r5, #4
  205a24:	f6c2 0c20 	movt	ip, #10272	; 0x2820
  205a28:	f6c2 0e20 	movt	lr, #10272	; 0x2820
  205a2c:	2aff      	cmp	r2, #255	; 0xff
  205a2e:	bf08      	it	eq
  205a30:	f06f 0026 	mvneq.w	r0, #38	; 0x26
  205a34:	9109      	str	r1, [sp, #36]	; 0x24
  205a36:	9104      	str	r1, [sp, #16]
  205a38:	e777      	b.n	20592a <processMarkers+0x15ae>
  205a3a:	9a04      	ldr	r2, [sp, #16]
  205a3c:	f640 0012 	movw	r0, #2066	; 0x812
  205a40:	f082 01ff 	eor.w	r1, r2, #255	; 0xff
  205a44:	f6c2 0020 	movt	r0, #10272	; 0x2820
  205a48:	f640 0c10 	movw	ip, #2064	; 0x810
  205a4c:	f640 0e14 	movw	lr, #2068	; 0x814
  205a50:	7001      	strb	r1, [r0, #0]
  205a52:	f04f 30ff 	mov.w	r0, #4294967295
  205a56:	2300      	movs	r3, #0
  205a58:	2504      	movs	r5, #4
  205a5a:	f6c2 0c20 	movt	ip, #10272	; 0x2820
  205a5e:	f6c2 0e20 	movt	lr, #10272	; 0x2820
  205a62:	2aff      	cmp	r2, #255	; 0xff
  205a64:	bf08      	it	eq
  205a66:	f06f 0026 	mvneq.w	r0, #38	; 0x26
  205a6a:	9109      	str	r1, [sp, #36]	; 0x24
  205a6c:	9104      	str	r1, [sp, #16]
  205a6e:	e7be      	b.n	2059ee <processMarkers+0x1672>
  205a70:	3808      	subs	r0, #8
  205a72:	900c      	str	r0, [sp, #48]	; 0x30
  205a74:	f88c 0000 	strb.w	r0, [ip]
  205a78:	ea4f 2901 	mov.w	r9, r1, lsl #8
  205a7c:	0a08      	lsrs	r0, r1, #8
  205a7e:	9908      	ldr	r1, [sp, #32]
  205a80:	f801 0008 	strb.w	r0, [r1, r8]
  205a84:	9801      	ldr	r0, [sp, #4]
  205a86:	f8dd a008 	ldr.w	sl, [sp, #8]
  205a8a:	3011      	adds	r0, #17
  205a8c:	b281      	uxth	r1, r0
  205a8e:	fa1f f28a 	uxth.w	r2, sl
  205a92:	428a      	cmp	r2, r1
  205a94:	f0c0 81c6 	bcc.w	205e24 <processMarkers+0x1aa8>
  205a98:	f89d 1034 	ldrb.w	r1, [sp, #52]	; 0x34
  205a9c:	f64f 72ff 	movw	r2, #65535	; 0xffff
  205aa0:	2900      	cmp	r1, #0
  205aa2:	bf18      	it	ne
  205aa4:	1e4a      	subne	r2, r1, #1
  205aa6:	9e07      	ldr	r6, [sp, #28]
  205aa8:	2300      	movs	r3, #0
  205aaa:	8033      	strh	r3, [r6, #0]
  205aac:	46a8      	mov	r8, r5
  205aae:	f89d 5035 	ldrb.w	r5, [sp, #53]	; 0x35
  205ab2:	8432      	strh	r2, [r6, #32]
  205ab4:	ea4f 0241 	mov.w	r2, r1, lsl #1
  205ab8:	f886 3040 	strb.w	r3, [r6, #64]	; 0x40
  205abc:	b12d      	cbz	r5, 205aca <processMarkers+0x174e>
  205abe:	4613      	mov	r3, r2
  205ac0:	442a      	add	r2, r5
  205ac2:	1e56      	subs	r6, r2, #1
  205ac4:	460f      	mov	r7, r1
  205ac6:	4429      	add	r1, r5
  205ac8:	e002      	b.n	205ad0 <processMarkers+0x1754>
  205aca:	f64f 76ff 	movw	r6, #65535	; 0xffff
  205ace:	2700      	movs	r7, #0
  205ad0:	9c07      	ldr	r4, [sp, #28]
  205ad2:	0052      	lsls	r2, r2, #1
  205ad4:	8063      	strh	r3, [r4, #2]
  205ad6:	f89d 5036 	ldrb.w	r5, [sp, #54]	; 0x36
  205ada:	8466      	strh	r6, [r4, #34]	; 0x22
  205adc:	f884 7041 	strb.w	r7, [r4, #65]	; 0x41
  205ae0:	b12d      	cbz	r5, 205aee <processMarkers+0x1772>
  205ae2:	4613      	mov	r3, r2
  205ae4:	442a      	add	r2, r5
  205ae6:	1e56      	subs	r6, r2, #1
  205ae8:	460f      	mov	r7, r1
  205aea:	4429      	add	r1, r5
  205aec:	e003      	b.n	205af6 <processMarkers+0x177a>
  205aee:	2300      	movs	r3, #0
  205af0:	f64f 76ff 	movw	r6, #65535	; 0xffff
  205af4:	2700      	movs	r7, #0
  205af6:	f89d 5037 	ldrb.w	r5, [sp, #55]	; 0x37
  205afa:	9c07      	ldr	r4, [sp, #28]
  205afc:	ea4f 0242 	mov.w	r2, r2, lsl #1
  205b00:	80a3      	strh	r3, [r4, #4]
  205b02:	84a6      	strh	r6, [r4, #36]	; 0x24
  205b04:	f884 7042 	strb.w	r7, [r4, #66]	; 0x42
  205b08:	b12d      	cbz	r5, 205b16 <processMarkers+0x179a>
  205b0a:	4613      	mov	r3, r2
  205b0c:	442a      	add	r2, r5
  205b0e:	1e56      	subs	r6, r2, #1
  205b10:	460f      	mov	r7, r1
  205b12:	4429      	add	r1, r5
  205b14:	e003      	b.n	205b1e <processMarkers+0x17a2>
  205b16:	2300      	movs	r3, #0
  205b18:	f64f 76ff 	movw	r6, #65535	; 0xffff
  205b1c:	2700      	movs	r7, #0
  205b1e:	f89d 5038 	ldrb.w	r5, [sp, #56]	; 0x38
  205b22:	9c07      	ldr	r4, [sp, #28]
  205b24:	ea4f 0242 	mov.w	r2, r2, lsl #1
  205b28:	80e3      	strh	r3, [r4, #6]
  205b2a:	84e6      	strh	r6, [r4, #38]	; 0x26
  205b2c:	f884 7043 	strb.w	r7, [r4, #67]	; 0x43
  205b30:	b12d      	cbz	r5, 205b3e <processMarkers+0x17c2>
  205b32:	4613      	mov	r3, r2
  205b34:	442a      	add	r2, r5
  205b36:	1e56      	subs	r6, r2, #1
  205b38:	460f      	mov	r7, r1
  205b3a:	4429      	add	r1, r5
  205b3c:	e003      	b.n	205b46 <processMarkers+0x17ca>
  205b3e:	2300      	movs	r3, #0
  205b40:	f64f 76ff 	movw	r6, #65535	; 0xffff
  205b44:	2700      	movs	r7, #0
  205b46:	f89d 5039 	ldrb.w	r5, [sp, #57]	; 0x39
  205b4a:	9c07      	ldr	r4, [sp, #28]
  205b4c:	ea4f 0242 	mov.w	r2, r2, lsl #1
  205b50:	8123      	strh	r3, [r4, #8]
  205b52:	8526      	strh	r6, [r4, #40]	; 0x28
  205b54:	f884 7044 	strb.w	r7, [r4, #68]	; 0x44
  205b58:	b12d      	cbz	r5, 205b66 <processMarkers+0x17ea>
  205b5a:	4613      	mov	r3, r2
  205b5c:	442a      	add	r2, r5
  205b5e:	1e56      	subs	r6, r2, #1
  205b60:	460f      	mov	r7, r1
  205b62:	4429      	add	r1, r5
  205b64:	e003      	b.n	205b6e <processMarkers+0x17f2>
  205b66:	2300      	movs	r3, #0
  205b68:	f64f 76ff 	movw	r6, #65535	; 0xffff
  205b6c:	2700      	movs	r7, #0
  205b6e:	f89d 503a 	ldrb.w	r5, [sp, #58]	; 0x3a
  205b72:	9c07      	ldr	r4, [sp, #28]
  205b74:	ea4f 0242 	mov.w	r2, r2, lsl #1
  205b78:	8163      	strh	r3, [r4, #10]
  205b7a:	8566      	strh	r6, [r4, #42]	; 0x2a
  205b7c:	f884 7045 	strb.w	r7, [r4, #69]	; 0x45
  205b80:	b12d      	cbz	r5, 205b8e <processMarkers+0x1812>
  205b82:	4613      	mov	r3, r2
  205b84:	442a      	add	r2, r5
  205b86:	1e56      	subs	r6, r2, #1
  205b88:	460f      	mov	r7, r1
  205b8a:	4429      	add	r1, r5
  205b8c:	e003      	b.n	205b96 <processMarkers+0x181a>
  205b8e:	2300      	movs	r3, #0
  205b90:	f64f 76ff 	movw	r6, #65535	; 0xffff
  205b94:	2700      	movs	r7, #0
  205b96:	f89d 503b 	ldrb.w	r5, [sp, #59]	; 0x3b
  205b9a:	9c07      	ldr	r4, [sp, #28]
  205b9c:	ea4f 0242 	mov.w	r2, r2, lsl #1
  205ba0:	81a3      	strh	r3, [r4, #12]
  205ba2:	85a6      	strh	r6, [r4, #44]	; 0x2c
  205ba4:	f884 7046 	strb.w	r7, [r4, #70]	; 0x46
  205ba8:	b12d      	cbz	r5, 205bb6 <processMarkers+0x183a>
  205baa:	4613      	mov	r3, r2
  205bac:	442a      	add	r2, r5
  205bae:	1e56      	subs	r6, r2, #1
  205bb0:	460f      	mov	r7, r1
  205bb2:	4429      	add	r1, r5
  205bb4:	e003      	b.n	205bbe <processMarkers+0x1842>
  205bb6:	2300      	movs	r3, #0
  205bb8:	f64f 76ff 	movw	r6, #65535	; 0xffff
  205bbc:	2700      	movs	r7, #0
  205bbe:	f89d 503c 	ldrb.w	r5, [sp, #60]	; 0x3c
  205bc2:	9c07      	ldr	r4, [sp, #28]
  205bc4:	ea4f 0242 	mov.w	r2, r2, lsl #1
  205bc8:	81e3      	strh	r3, [r4, #14]
  205bca:	85e6      	strh	r6, [r4, #46]	; 0x2e
  205bcc:	f884 7047 	strb.w	r7, [r4, #71]	; 0x47
  205bd0:	b12d      	cbz	r5, 205bde <processMarkers+0x1862>
  205bd2:	4613      	mov	r3, r2
  205bd4:	442a      	add	r2, r5
  205bd6:	1e56      	subs	r6, r2, #1
  205bd8:	460f      	mov	r7, r1
  205bda:	4429      	add	r1, r5
  205bdc:	e003      	b.n	205be6 <processMarkers+0x186a>
  205bde:	2300      	movs	r3, #0
  205be0:	f64f 76ff 	movw	r6, #65535	; 0xffff
  205be4:	2700      	movs	r7, #0
  205be6:	f89d 503d 	ldrb.w	r5, [sp, #61]	; 0x3d
  205bea:	9c07      	ldr	r4, [sp, #28]
  205bec:	ea4f 0242 	mov.w	r2, r2, lsl #1
  205bf0:	8223      	strh	r3, [r4, #16]
  205bf2:	8626      	strh	r6, [r4, #48]	; 0x30
  205bf4:	f884 7048 	strb.w	r7, [r4, #72]	; 0x48
  205bf8:	b12d      	cbz	r5, 205c06 <processMarkers+0x188a>
  205bfa:	4613      	mov	r3, r2
  205bfc:	442a      	add	r2, r5
  205bfe:	1e56      	subs	r6, r2, #1
  205c00:	460f      	mov	r7, r1
  205c02:	4429      	add	r1, r5
  205c04:	e003      	b.n	205c0e <processMarkers+0x1892>
  205c06:	2300      	movs	r3, #0
  205c08:	f64f 76ff 	movw	r6, #65535	; 0xffff
  205c0c:	2700      	movs	r7, #0
  205c0e:	f89d 503e 	ldrb.w	r5, [sp, #62]	; 0x3e
  205c12:	9c07      	ldr	r4, [sp, #28]
  205c14:	ea4f 0242 	mov.w	r2, r2, lsl #1
  205c18:	8263      	strh	r3, [r4, #18]
  205c1a:	8666      	strh	r6, [r4, #50]	; 0x32
  205c1c:	f884 7049 	strb.w	r7, [r4, #73]	; 0x49
  205c20:	b12d      	cbz	r5, 205c2e <processMarkers+0x18b2>
  205c22:	4613      	mov	r3, r2
  205c24:	442a      	add	r2, r5
  205c26:	1e56      	subs	r6, r2, #1
  205c28:	460f      	mov	r7, r1
  205c2a:	4429      	add	r1, r5
  205c2c:	e003      	b.n	205c36 <processMarkers+0x18ba>
  205c2e:	2300      	movs	r3, #0
  205c30:	f64f 76ff 	movw	r6, #65535	; 0xffff
  205c34:	2700      	movs	r7, #0
  205c36:	f89d 503f 	ldrb.w	r5, [sp, #63]	; 0x3f
  205c3a:	9c07      	ldr	r4, [sp, #28]
  205c3c:	ea4f 0242 	mov.w	r2, r2, lsl #1
  205c40:	82a3      	strh	r3, [r4, #20]
  205c42:	86a6      	strh	r6, [r4, #52]	; 0x34
  205c44:	f884 704a 	strb.w	r7, [r4, #74]	; 0x4a
  205c48:	b12d      	cbz	r5, 205c56 <processMarkers+0x18da>
  205c4a:	4613      	mov	r3, r2
  205c4c:	442a      	add	r2, r5
  205c4e:	1e56      	subs	r6, r2, #1
  205c50:	460f      	mov	r7, r1
  205c52:	4429      	add	r1, r5
  205c54:	e003      	b.n	205c5e <processMarkers+0x18e2>
  205c56:	2300      	movs	r3, #0
  205c58:	f64f 76ff 	movw	r6, #65535	; 0xffff
  205c5c:	2700      	movs	r7, #0
  205c5e:	f89d 5040 	ldrb.w	r5, [sp, #64]	; 0x40
  205c62:	9c07      	ldr	r4, [sp, #28]
  205c64:	ea4f 0242 	mov.w	r2, r2, lsl #1
  205c68:	82e3      	strh	r3, [r4, #22]
  205c6a:	86e6      	strh	r6, [r4, #54]	; 0x36
  205c6c:	f884 704b 	strb.w	r7, [r4, #75]	; 0x4b
  205c70:	b12d      	cbz	r5, 205c7e <processMarkers+0x1902>
  205c72:	4613      	mov	r3, r2
  205c74:	442a      	add	r2, r5
  205c76:	1e56      	subs	r6, r2, #1
  205c78:	460f      	mov	r7, r1
  205c7a:	4429      	add	r1, r5
  205c7c:	e003      	b.n	205c86 <processMarkers+0x190a>
  205c7e:	2300      	movs	r3, #0
  205c80:	f64f 76ff 	movw	r6, #65535	; 0xffff
  205c84:	2700      	movs	r7, #0
  205c86:	f89d 5041 	ldrb.w	r5, [sp, #65]	; 0x41
  205c8a:	9c07      	ldr	r4, [sp, #28]
  205c8c:	ea4f 0242 	mov.w	r2, r2, lsl #1
  205c90:	8323      	strh	r3, [r4, #24]
  205c92:	8726      	strh	r6, [r4, #56]	; 0x38
  205c94:	f884 704c 	strb.w	r7, [r4, #76]	; 0x4c
  205c98:	b12d      	cbz	r5, 205ca6 <processMarkers+0x192a>
  205c9a:	4613      	mov	r3, r2
  205c9c:	442a      	add	r2, r5
  205c9e:	1e56      	subs	r6, r2, #1
  205ca0:	460f      	mov	r7, r1
  205ca2:	4429      	add	r1, r5
  205ca4:	e003      	b.n	205cae <processMarkers+0x1932>
  205ca6:	2300      	movs	r3, #0
  205ca8:	f64f 76ff 	movw	r6, #65535	; 0xffff
  205cac:	2700      	movs	r7, #0
  205cae:	f89d 5042 	ldrb.w	r5, [sp, #66]	; 0x42
  205cb2:	9c07      	ldr	r4, [sp, #28]
  205cb4:	2d00      	cmp	r5, #0
  205cb6:	ea4f 0242 	mov.w	r2, r2, lsl #1
  205cba:	8363      	strh	r3, [r4, #26]
  205cbc:	8766      	strh	r6, [r4, #58]	; 0x3a
  205cbe:	f884 704d 	strb.w	r7, [r4, #77]	; 0x4d
  205cc2:	f47f ab92 	bne.w	2053ea <processMarkers+0x106e>
  205cc6:	2300      	movs	r3, #0
  205cc8:	f64f 77ff 	movw	r7, #65535	; 0xffff
  205ccc:	2600      	movs	r6, #0
  205cce:	f7ff bb91 	b.w	2053f4 <processMarkers+0x1078>
  205cd2:	9809      	ldr	r0, [sp, #36]	; 0x24
  205cd4:	f640 0c10 	movw	ip, #2064	; 0x810
  205cd8:	28ff      	cmp	r0, #255	; 0xff
  205cda:	f080 02ff 	eor.w	r2, r0, #255	; 0xff
  205cde:	f640 0012 	movw	r0, #2066	; 0x812
  205ce2:	f6c2 0020 	movt	r0, #10272	; 0x2820
  205ce6:	f640 0e14 	movw	lr, #2068	; 0x814
  205cea:	7002      	strb	r2, [r0, #0]
  205cec:	f04f 31ff 	mov.w	r1, #4294967295
  205cf0:	f04f 0b00 	mov.w	fp, #0
  205cf4:	bf08      	it	eq
  205cf6:	f06f 0126 	mvneq.w	r1, #38	; 0x26
  205cfa:	2004      	movs	r0, #4
  205cfc:	f6c2 0c20 	movt	ip, #10272	; 0x2820
  205d00:	f6c2 0e20 	movt	lr, #10272	; 0x2820
  205d04:	464e      	mov	r6, r9
  205d06:	9209      	str	r2, [sp, #36]	; 0x24
  205d08:	f7ff bbde 	b.w	2054c8 <processMarkers+0x114c>
  205d0c:	9a04      	ldr	r2, [sp, #16]
  205d0e:	f640 0012 	movw	r0, #2066	; 0x812
  205d12:	f082 01ff 	eor.w	r1, r2, #255	; 0xff
  205d16:	f6c2 0020 	movt	r0, #10272	; 0x2820
  205d1a:	f640 0c10 	movw	ip, #2064	; 0x810
  205d1e:	f640 0e14 	movw	lr, #2068	; 0x814
  205d22:	7001      	strb	r1, [r0, #0]
  205d24:	f04f 30ff 	mov.w	r0, #4294967295
  205d28:	f04f 0b00 	mov.w	fp, #0
  205d2c:	2504      	movs	r5, #4
  205d2e:	f6c2 0c20 	movt	ip, #10272	; 0x2820
  205d32:	f6c2 0e20 	movt	lr, #10272	; 0x2820
  205d36:	9109      	str	r1, [sp, #36]	; 0x24
  205d38:	2aff      	cmp	r2, #255	; 0xff
  205d3a:	bf08      	it	eq
  205d3c:	f06f 0026 	mvneq.w	r0, #38	; 0x26
  205d40:	e582      	b.n	205848 <processMarkers+0x14cc>
  205d42:	f640 0311 	movw	r3, #2065	; 0x811
  205d46:	4606      	mov	r6, r0
  205d48:	e1fb      	b.n	206142 <processMarkers+0x1dc6>
  205d4a:	fa5f f48a 	uxtb.w	r4, sl
  205d4e:	2c08      	cmp	r4, #8
  205d50:	f080 80ee 	bcs.w	205f30 <processMarkers+0x1bb4>
  205d54:	0630      	lsls	r0, r6, #24
  205d56:	d12f      	bne.n	205db8 <processMarkers+0x1a3c>
  205d58:	f640 1014 	movw	r0, #2324	; 0x914
  205d5c:	f04f 0b04 	mov.w	fp, #4
  205d60:	f6c2 0020 	movt	r0, #10272	; 0x2820
  205d64:	9f0b      	ldr	r7, [sp, #44]	; 0x2c
  205d66:	f880 b000 	strb.w	fp, [r0]
  205d6a:	f240 203a 	movw	r0, #570	; 0x23a
  205d6e:	1bc6      	subs	r6, r0, r7
  205d70:	20fc      	movs	r0, #252	; 0xfc
  205d72:	2efc      	cmp	r6, #252	; 0xfc
  205d74:	bf28      	it	cs
  205d76:	4606      	movcs	r6, r0
  205d78:	f247 106c 	movw	r0, #29036	; 0x716c
  205d7c:	f2c0 0020 	movt	r0, #32
  205d80:	19c1      	adds	r1, r0, r7
  205d82:	980a      	ldr	r0, [sp, #40]	; 0x28
  205d84:	4632      	mov	r2, r6
  205d86:	f7fa fb8d 	bl	2004a4 <__rt_memcpy>
  205d8a:	0630      	lsls	r0, r6, #24
  205d8c:	f640 0311 	movw	r3, #2065	; 0x811
  205d90:	f640 1028 	movw	r0, #2344	; 0x928
  205d94:	f6c2 0320 	movt	r3, #10272	; 0x2820
  205d98:	4437      	add	r7, r6
  205d9a:	f6c2 0020 	movt	r0, #10272	; 0x2820
  205d9e:	701e      	strb	r6, [r3, #0]
  205da0:	970b      	str	r7, [sp, #44]	; 0x2c
  205da2:	6007      	str	r7, [r0, #0]
  205da4:	f000 827b 	beq.w	20629e <processMarkers+0x1f22>
  205da8:	f640 0c10 	movw	ip, #2064	; 0x810
  205dac:	f640 0e14 	movw	lr, #2068	; 0x814
  205db0:	f6c2 0c20 	movt	ip, #10272	; 0x2820
  205db4:	f6c2 0e20 	movt	lr, #10272	; 0x2820
  205db8:	fa5f f18b 	uxtb.w	r1, fp
  205dbc:	f640 1214 	movw	r2, #2324	; 0x914
  205dc0:	3e01      	subs	r6, #1
  205dc2:	f10b 0001 	add.w	r0, fp, #1
  205dc6:	f81e 1001 	ldrb.w	r1, [lr, r1]
  205dca:	f6c2 0220 	movt	r2, #10272	; 0x2820
  205dce:	701e      	strb	r6, [r3, #0]
  205dd0:	7010      	strb	r0, [r2, #0]
  205dd2:	fa1f f289 	uxth.w	r2, r9
  205dd6:	b2c9      	uxtb	r1, r1
  205dd8:	40a2      	lsls	r2, r4
  205dda:	f1c4 0308 	rsb	r3, r4, #8
  205dde:	4311      	orrs	r1, r2
  205de0:	fa01 f903 	lsl.w	r9, r1, r3
  205de4:	f640 0311 	movw	r3, #2065	; 0x811
  205de8:	4683      	mov	fp, r0
  205dea:	f6c2 0320 	movt	r3, #10272	; 0x2820
  205dee:	e0a5      	b.n	205f3c <processMarkers+0x1bc0>
  205df0:	4658      	mov	r0, fp
  205df2:	f1ab 0008 	sub.w	r0, fp, #8
  205df6:	4683      	mov	fp, r0
  205df8:	0222      	lsls	r2, r4, #8
  205dfa:	f88c 0000 	strb.w	r0, [ip]
  205dfe:	0a20      	lsrs	r0, r4, #8
  205e00:	ea4f 2118 	mov.w	r1, r8, lsr #8
  205e04:	f361 201f 	bfi	r0, r1, #8, #24
  205e08:	f640 1116 	movw	r1, #2326	; 0x916
  205e0c:	f6c2 0120 	movt	r1, #10272	; 0x2820
  205e10:	800a      	strh	r2, [r1, #0]
  205e12:	f240 3112 	movw	r1, #786	; 0x312
  205e16:	f6c2 0120 	movt	r1, #10272	; 0x2820
  205e1a:	4691      	mov	r9, r2
  205e1c:	8008      	strh	r0, [r1, #0]
  205e1e:	46da      	mov	sl, fp
  205e20:	f7fe bac7 	b.w	2043b2 <processMarkers+0x36>
  205e24:	464e      	mov	r6, r9
  205e26:	e079      	b.n	205f1c <processMarkers+0x1ba0>
  205e28:	9809      	ldr	r0, [sp, #36]	; 0x24
  205e2a:	f640 0c10 	movw	ip, #2064	; 0x810
  205e2e:	28ff      	cmp	r0, #255	; 0xff
  205e30:	f080 01ff 	eor.w	r1, r0, #255	; 0xff
  205e34:	f640 0012 	movw	r0, #2066	; 0x812
  205e38:	f6c2 0020 	movt	r0, #10272	; 0x2820
  205e3c:	7001      	strb	r1, [r0, #0]
  205e3e:	f04f 30ff 	mov.w	r0, #4294967295
  205e42:	bf08      	it	eq
  205e44:	f06f 0026 	mvneq.w	r0, #38	; 0x26
  205e48:	f640 0e14 	movw	lr, #2068	; 0x814
  205e4c:	f640 1614 	movw	r6, #2324	; 0x914
  205e50:	9a07      	ldr	r2, [sp, #28]
  205e52:	f04f 0b00 	mov.w	fp, #0
  205e56:	f04f 0904 	mov.w	r9, #4
  205e5a:	f6c2 0c20 	movt	ip, #10272	; 0x2820
  205e5e:	f6c2 0e20 	movt	lr, #10272	; 0x2820
  205e62:	f6c2 0620 	movt	r6, #10272	; 0x2820
  205e66:	9109      	str	r1, [sp, #36]	; 0x24
  205e68:	f7fe be4f 	b.w	204b0a <processMarkers+0x78e>
  205e6c:	9809      	ldr	r0, [sp, #36]	; 0x24
  205e6e:	f640 0c10 	movw	ip, #2064	; 0x810
  205e72:	28ff      	cmp	r0, #255	; 0xff
  205e74:	f080 01ff 	eor.w	r1, r0, #255	; 0xff
  205e78:	f640 0012 	movw	r0, #2066	; 0x812
  205e7c:	f6c2 0020 	movt	r0, #10272	; 0x2820
  205e80:	f640 0e14 	movw	lr, #2068	; 0x814
  205e84:	7001      	strb	r1, [r0, #0]
  205e86:	f04f 30ff 	mov.w	r0, #4294967295
  205e8a:	f04f 0600 	mov.w	r6, #0
  205e8e:	bf08      	it	eq
  205e90:	f06f 0026 	mvneq.w	r0, #38	; 0x26
  205e94:	f04f 0b04 	mov.w	fp, #4
  205e98:	f6c2 0c20 	movt	ip, #10272	; 0x2820
  205e9c:	f6c2 0e20 	movt	lr, #10272	; 0x2820
  205ea0:	463c      	mov	r4, r7
  205ea2:	9109      	str	r1, [sp, #36]	; 0x24
  205ea4:	f7fe bce7 	b.w	204876 <processMarkers+0x4fa>
  205ea8:	9809      	ldr	r0, [sp, #36]	; 0x24
  205eaa:	f640 0c10 	movw	ip, #2064	; 0x810
  205eae:	28ff      	cmp	r0, #255	; 0xff
  205eb0:	f080 01ff 	eor.w	r1, r0, #255	; 0xff
  205eb4:	f640 0012 	movw	r0, #2066	; 0x812
  205eb8:	f6c2 0020 	movt	r0, #10272	; 0x2820
  205ebc:	f640 0e14 	movw	lr, #2068	; 0x814
  205ec0:	7001      	strb	r1, [r0, #0]
  205ec2:	f04f 30ff 	mov.w	r0, #4294967295
  205ec6:	f04f 0300 	mov.w	r3, #0
  205eca:	bf08      	it	eq
  205ecc:	f06f 0026 	mvneq.w	r0, #38	; 0x26
  205ed0:	f04f 0804 	mov.w	r8, #4
  205ed4:	f6c2 0c20 	movt	ip, #10272	; 0x2820
  205ed8:	f6c2 0e20 	movt	lr, #10272	; 0x2820
  205edc:	9109      	str	r1, [sp, #36]	; 0x24
  205ede:	f7fe bd6f 	b.w	2049c0 <processMarkers+0x644>
  205ee2:	9809      	ldr	r0, [sp, #36]	; 0x24
  205ee4:	f640 0c10 	movw	ip, #2064	; 0x810
  205ee8:	28ff      	cmp	r0, #255	; 0xff
  205eea:	f080 01ff 	eor.w	r1, r0, #255	; 0xff
  205eee:	f640 0012 	movw	r0, #2066	; 0x812
  205ef2:	f6c2 0020 	movt	r0, #10272	; 0x2820
  205ef6:	f640 0e14 	movw	lr, #2068	; 0x814
  205efa:	7001      	strb	r1, [r0, #0]
  205efc:	f04f 30ff 	mov.w	r0, #4294967295
  205f00:	f04f 0600 	mov.w	r6, #0
  205f04:	bf08      	it	eq
  205f06:	f06f 0026 	mvneq.w	r0, #38	; 0x26
  205f0a:	2404      	movs	r4, #4
  205f0c:	f6c2 0c20 	movt	ip, #10272	; 0x2820
  205f10:	f6c2 0e20 	movt	lr, #10272	; 0x2820
  205f14:	9109      	str	r1, [sp, #36]	; 0x24
  205f16:	f7fe be96 	b.w	204c46 <processMarkers+0x8ca>
  205f1a:	460e      	mov	r6, r1
  205f1c:	f640 1016 	movw	r0, #2326	; 0x916
  205f20:	f6c2 0020 	movt	r0, #10272	; 0x2820
  205f24:	f8dd a030 	ldr.w	sl, [sp, #48]	; 0x30
  205f28:	46b1      	mov	r9, r6
  205f2a:	8006      	strh	r6, [r0, #0]
  205f2c:	f7fe ba41 	b.w	2043b2 <processMarkers+0x36>
  205f30:	f1aa 0a08 	sub.w	sl, sl, #8
  205f34:	f88c a000 	strb.w	sl, [ip]
  205f38:	ea4f 2909 	mov.w	r9, r9, lsl #8
  205f3c:	3d03      	subs	r5, #3
  205f3e:	f1b8 0f03 	cmp.w	r8, #3
  205f42:	d110      	bne.n	205f66 <processMarkers+0x1bea>
  205f44:	f640 1016 	movw	r0, #2326	; 0x916
  205f48:	f6c2 0020 	movt	r0, #10272	; 0x2820
  205f4c:	f8a0 9000 	strh.w	r9, [r0]
  205f50:	f7fe ba2f 	b.w	2043b2 <processMarkers+0x36>
  205f54:	f1aa 0a08 	sub.w	sl, sl, #8
  205f58:	f88c a000 	strb.w	sl, [ip]
  205f5c:	ea4f 2907 	mov.w	r9, r7, lsl #8
  205f60:	3d02      	subs	r5, #2
  205f62:	0428      	lsls	r0, r5, #16
  205f64:	d0ee      	beq.n	205f44 <processMarkers+0x1bc8>
  205f66:	fa5f f78a 	uxtb.w	r7, sl
  205f6a:	2f07      	cmp	r7, #7
  205f6c:	d849      	bhi.n	206002 <processMarkers+0x1c86>
  205f6e:	0630      	lsls	r0, r6, #24
  205f70:	d12f      	bne.n	205fd2 <processMarkers+0x1c56>
  205f72:	f640 1014 	movw	r0, #2324	; 0x914
  205f76:	f04f 0b04 	mov.w	fp, #4
  205f7a:	f6c2 0020 	movt	r0, #10272	; 0x2820
  205f7e:	9c0b      	ldr	r4, [sp, #44]	; 0x2c
  205f80:	f880 b000 	strb.w	fp, [r0]
  205f84:	f240 203a 	movw	r0, #570	; 0x23a
  205f88:	1b06      	subs	r6, r0, r4
  205f8a:	20fc      	movs	r0, #252	; 0xfc
  205f8c:	2efc      	cmp	r6, #252	; 0xfc
  205f8e:	bf28      	it	cs
  205f90:	4606      	movcs	r6, r0
  205f92:	f247 106c 	movw	r0, #29036	; 0x716c
  205f96:	f2c0 0020 	movt	r0, #32
  205f9a:	1901      	adds	r1, r0, r4
  205f9c:	980a      	ldr	r0, [sp, #40]	; 0x28
  205f9e:	4632      	mov	r2, r6
  205fa0:	f7fa fa80 	bl	2004a4 <__rt_memcpy>
  205fa4:	0630      	lsls	r0, r6, #24
  205fa6:	f640 0311 	movw	r3, #2065	; 0x811
  205faa:	f640 1028 	movw	r0, #2344	; 0x928
  205fae:	f6c2 0320 	movt	r3, #10272	; 0x2820
  205fb2:	4434      	add	r4, r6
  205fb4:	f6c2 0020 	movt	r0, #10272	; 0x2820
  205fb8:	701e      	strb	r6, [r3, #0]
  205fba:	940b      	str	r4, [sp, #44]	; 0x2c
  205fbc:	6004      	str	r4, [r0, #0]
  205fbe:	f000 8098 	beq.w	2060f2 <processMarkers+0x1d76>
  205fc2:	f640 0c10 	movw	ip, #2064	; 0x810
  205fc6:	f640 0e14 	movw	lr, #2068	; 0x814
  205fca:	f6c2 0c20 	movt	ip, #10272	; 0x2820
  205fce:	f6c2 0e20 	movt	lr, #10272	; 0x2820
  205fd2:	fa5f f18b 	uxtb.w	r1, fp
  205fd6:	f640 1214 	movw	r2, #2324	; 0x914
  205fda:	3e01      	subs	r6, #1
  205fdc:	f10b 0001 	add.w	r0, fp, #1
  205fe0:	f81e 1001 	ldrb.w	r1, [lr, r1]
  205fe4:	f6c2 0220 	movt	r2, #10272	; 0x2820
  205fe8:	701e      	strb	r6, [r3, #0]
  205fea:	7010      	strb	r0, [r2, #0]
  205fec:	fa1f f289 	uxth.w	r2, r9
  205ff0:	b2c9      	uxtb	r1, r1
  205ff2:	40ba      	lsls	r2, r7
  205ff4:	f1c7 0308 	rsb	r3, r7, #8
  205ff8:	4311      	orrs	r1, r2
  205ffa:	fa01 f703 	lsl.w	r7, r1, r3
  205ffe:	4683      	mov	fp, r0
  206000:	e009      	b.n	206016 <processMarkers+0x1c9a>
  206002:	f1aa 0a08 	sub.w	sl, sl, #8
  206006:	fa5f f08a 	uxtb.w	r0, sl
  20600a:	2808      	cmp	r0, #8
  20600c:	ea4f 2709 	mov.w	r7, r9, lsl #8
  206010:	f88c a000 	strb.w	sl, [ip]
  206014:	d29e      	bcs.n	205f54 <processMarkers+0x1bd8>
  206016:	0630      	lsls	r0, r6, #24
  206018:	d004      	beq.n	206024 <processMarkers+0x1ca8>
  20601a:	f640 0111 	movw	r1, #2065	; 0x811
  20601e:	f6c2 0120 	movt	r1, #10272	; 0x2820
  206022:	e02e      	b.n	206082 <processMarkers+0x1d06>
  206024:	f640 1014 	movw	r0, #2324	; 0x914
  206028:	f04f 0b04 	mov.w	fp, #4
  20602c:	f6c2 0020 	movt	r0, #10272	; 0x2820
  206030:	9c0b      	ldr	r4, [sp, #44]	; 0x2c
  206032:	f880 b000 	strb.w	fp, [r0]
  206036:	f240 203a 	movw	r0, #570	; 0x23a
  20603a:	1b06      	subs	r6, r0, r4
  20603c:	20fc      	movs	r0, #252	; 0xfc
  20603e:	2efc      	cmp	r6, #252	; 0xfc
  206040:	bf28      	it	cs
  206042:	4606      	movcs	r6, r0
  206044:	f247 106c 	movw	r0, #29036	; 0x716c
  206048:	f2c0 0020 	movt	r0, #32
  20604c:	1901      	adds	r1, r0, r4
  20604e:	980a      	ldr	r0, [sp, #40]	; 0x28
  206050:	4632      	mov	r2, r6
  206052:	f7fa fa27 	bl	2004a4 <__rt_memcpy>
  206056:	0630      	lsls	r0, r6, #24
  206058:	f640 0111 	movw	r1, #2065	; 0x811
  20605c:	f640 1028 	movw	r0, #2344	; 0x928
  206060:	f6c2 0120 	movt	r1, #10272	; 0x2820
  206064:	4434      	add	r4, r6
  206066:	f6c2 0020 	movt	r0, #10272	; 0x2820
  20606a:	700e      	strb	r6, [r1, #0]
  20606c:	940b      	str	r4, [sp, #44]	; 0x2c
  20606e:	6004      	str	r4, [r0, #0]
  206070:	d024      	beq.n	2060bc <processMarkers+0x1d40>
  206072:	f640 0c10 	movw	ip, #2064	; 0x810
  206076:	f640 0e14 	movw	lr, #2068	; 0x814
  20607a:	f6c2 0c20 	movt	ip, #10272	; 0x2820
  20607e:	f6c2 0e20 	movt	lr, #10272	; 0x2820
  206082:	3e01      	subs	r6, #1
  206084:	700e      	strb	r6, [r1, #0]
  206086:	fa5f f18b 	uxtb.w	r1, fp
  20608a:	f640 1214 	movw	r2, #2324	; 0x914
  20608e:	f10b 0001 	add.w	r0, fp, #1
  206092:	f81e 1001 	ldrb.w	r1, [lr, r1]
  206096:	f6c2 0220 	movt	r2, #10272	; 0x2820
  20609a:	7010      	strb	r0, [r2, #0]
  20609c:	b2ba      	uxth	r2, r7
  20609e:	fa5f f38a 	uxtb.w	r3, sl
  2060a2:	409a      	lsls	r2, r3
  2060a4:	b2c9      	uxtb	r1, r1
  2060a6:	f1c3 0308 	rsb	r3, r3, #8
  2060aa:	4311      	orrs	r1, r2
  2060ac:	fa01 f903 	lsl.w	r9, r1, r3
  2060b0:	f640 0311 	movw	r3, #2065	; 0x811
  2060b4:	4683      	mov	fp, r0
  2060b6:	f6c2 0320 	movt	r3, #10272	; 0x2820
  2060ba:	e751      	b.n	205f60 <processMarkers+0x1be4>
  2060bc:	9809      	ldr	r0, [sp, #36]	; 0x24
  2060be:	f640 0c10 	movw	ip, #2064	; 0x810
  2060c2:	28ff      	cmp	r0, #255	; 0xff
  2060c4:	f080 02ff 	eor.w	r2, r0, #255	; 0xff
  2060c8:	f640 0012 	movw	r0, #2066	; 0x812
  2060cc:	f6c2 0020 	movt	r0, #10272	; 0x2820
  2060d0:	f640 0e14 	movw	lr, #2068	; 0x814
  2060d4:	7002      	strb	r2, [r0, #0]
  2060d6:	f04f 31ff 	mov.w	r1, #4294967295
  2060da:	f04f 0600 	mov.w	r6, #0
  2060de:	bf08      	it	eq
  2060e0:	f06f 0126 	mvneq.w	r1, #38	; 0x26
  2060e4:	2004      	movs	r0, #4
  2060e6:	f6c2 0c20 	movt	ip, #10272	; 0x2820
  2060ea:	f6c2 0e20 	movt	lr, #10272	; 0x2820
  2060ee:	9209      	str	r2, [sp, #36]	; 0x24
  2060f0:	e7d4      	b.n	20609c <processMarkers+0x1d20>
  2060f2:	9809      	ldr	r0, [sp, #36]	; 0x24
  2060f4:	f640 0c10 	movw	ip, #2064	; 0x810
  2060f8:	28ff      	cmp	r0, #255	; 0xff
  2060fa:	f080 02ff 	eor.w	r2, r0, #255	; 0xff
  2060fe:	f640 0012 	movw	r0, #2066	; 0x812
  206102:	f6c2 0020 	movt	r0, #10272	; 0x2820
  206106:	f640 0e14 	movw	lr, #2068	; 0x814
  20610a:	7002      	strb	r2, [r0, #0]
  20610c:	f04f 31ff 	mov.w	r1, #4294967295
  206110:	f04f 0600 	mov.w	r6, #0
  206114:	bf08      	it	eq
  206116:	f06f 0126 	mvneq.w	r1, #38	; 0x26
  20611a:	2004      	movs	r0, #4
  20611c:	f6c2 0c20 	movt	ip, #10272	; 0x2820
  206120:	f6c2 0e20 	movt	lr, #10272	; 0x2820
  206124:	9209      	str	r2, [sp, #36]	; 0x24
  206126:	e761      	b.n	205fec <processMarkers+0x1c70>
  206128:	f640 0c10 	movw	ip, #2064	; 0x810
  20612c:	f640 0e14 	movw	lr, #2068	; 0x814
  206130:	f640 0311 	movw	r3, #2065	; 0x811
  206134:	f8dd a030 	ldr.w	sl, [sp, #48]	; 0x30
  206138:	9e07      	ldr	r6, [sp, #28]
  20613a:	f6c2 0c20 	movt	ip, #10272	; 0x2820
  20613e:	f6c2 0e20 	movt	lr, #10272	; 0x2820
  206142:	f6c2 0320 	movt	r3, #10272	; 0x2820
  206146:	f640 1016 	movw	r0, #2326	; 0x916
  20614a:	f6c2 0020 	movt	r0, #10272	; 0x2820
  20614e:	46b1      	mov	r9, r6
  206150:	8006      	strh	r6, [r0, #0]
  206152:	f7fe b92e 	b.w	2043b2 <processMarkers+0x36>
  206156:	9809      	ldr	r0, [sp, #36]	; 0x24
  206158:	f04f 31ff 	mov.w	r1, #4294967295
  20615c:	28ff      	cmp	r0, #255	; 0xff
  20615e:	f080 02ff 	eor.w	r2, r0, #255	; 0xff
  206162:	f640 0012 	movw	r0, #2066	; 0x812
  206166:	f6c2 0020 	movt	r0, #10272	; 0x2820
  20616a:	f640 0c10 	movw	ip, #2064	; 0x810
  20616e:	f640 0e14 	movw	lr, #2068	; 0x814
  206172:	7002      	strb	r2, [r0, #0]
  206174:	bf08      	it	eq
  206176:	f06f 0126 	mvneq.w	r1, #38	; 0x26
  20617a:	f04f 0b00 	mov.w	fp, #0
  20617e:	2004      	movs	r0, #4
  206180:	9209      	str	r2, [sp, #36]	; 0x24
  206182:	f6c2 0c20 	movt	ip, #10272	; 0x2820
  206186:	f6c2 0e20 	movt	lr, #10272	; 0x2820
  20618a:	462a      	mov	r2, r5
  20618c:	f7fe bd07 	b.w	204b9e <processMarkers+0x822>
  206190:	9809      	ldr	r0, [sp, #36]	; 0x24
  206192:	f640 0c10 	movw	ip, #2064	; 0x810
  206196:	28ff      	cmp	r0, #255	; 0xff
  206198:	f080 02ff 	eor.w	r2, r0, #255	; 0xff
  20619c:	f640 0012 	movw	r0, #2066	; 0x812
  2061a0:	f6c2 0020 	movt	r0, #10272	; 0x2820
  2061a4:	f640 0e14 	movw	lr, #2068	; 0x814
  2061a8:	7002      	strb	r2, [r0, #0]
  2061aa:	f04f 31ff 	mov.w	r1, #4294967295
  2061ae:	f04f 0600 	mov.w	r6, #0
  2061b2:	bf08      	it	eq
  2061b4:	f06f 0126 	mvneq.w	r1, #38	; 0x26
  2061b8:	2004      	movs	r0, #4
  2061ba:	f6c2 0c20 	movt	ip, #10272	; 0x2820
  2061be:	f6c2 0e20 	movt	lr, #10272	; 0x2820
  2061c2:	9209      	str	r2, [sp, #36]	; 0x24
  2061c4:	f7fe bba1 	b.w	20490a <processMarkers+0x58e>
  2061c8:	9809      	ldr	r0, [sp, #36]	; 0x24
  2061ca:	f640 0c10 	movw	ip, #2064	; 0x810
  2061ce:	28ff      	cmp	r0, #255	; 0xff
  2061d0:	f080 02ff 	eor.w	r2, r0, #255	; 0xff
  2061d4:	f640 0012 	movw	r0, #2066	; 0x812
  2061d8:	f6c2 0020 	movt	r0, #10272	; 0x2820
  2061dc:	f640 0e14 	movw	lr, #2068	; 0x814
  2061e0:	7002      	strb	r2, [r0, #0]
  2061e2:	f04f 31ff 	mov.w	r1, #4294967295
  2061e6:	f04f 0300 	mov.w	r3, #0
  2061ea:	bf08      	it	eq
  2061ec:	f06f 0126 	mvneq.w	r1, #38	; 0x26
  2061f0:	2004      	movs	r0, #4
  2061f2:	f6c2 0c20 	movt	ip, #10272	; 0x2820
  2061f6:	f6c2 0e20 	movt	lr, #10272	; 0x2820
  2061fa:	9209      	str	r2, [sp, #36]	; 0x24
  2061fc:	f7fe bc2e 	b.w	204a5c <processMarkers+0x6e0>
  206200:	9809      	ldr	r0, [sp, #36]	; 0x24
  206202:	f640 0c10 	movw	ip, #2064	; 0x810
  206206:	28ff      	cmp	r0, #255	; 0xff
  206208:	f080 02ff 	eor.w	r2, r0, #255	; 0xff
  20620c:	f640 0012 	movw	r0, #2066	; 0x812
  206210:	f6c2 0020 	movt	r0, #10272	; 0x2820
  206214:	f640 0e14 	movw	lr, #2068	; 0x814
  206218:	7002      	strb	r2, [r0, #0]
  20621a:	f04f 31ff 	mov.w	r1, #4294967295
  20621e:	f04f 0600 	mov.w	r6, #0
  206222:	bf08      	it	eq
  206224:	f06f 0126 	mvneq.w	r1, #38	; 0x26
  206228:	2004      	movs	r0, #4
  20622a:	f6c2 0c20 	movt	ip, #10272	; 0x2820
  20622e:	f6c2 0e20 	movt	lr, #10272	; 0x2820
  206232:	9209      	str	r2, [sp, #36]	; 0x24
  206234:	f7fe bd4d 	b.w	204cd2 <processMarkers+0x956>
  206238:	9809      	ldr	r0, [sp, #36]	; 0x24
  20623a:	f640 0c10 	movw	ip, #2064	; 0x810
  20623e:	28ff      	cmp	r0, #255	; 0xff
  206240:	f080 01ff 	eor.w	r1, r0, #255	; 0xff
  206244:	f640 0012 	movw	r0, #2066	; 0x812
  206248:	f6c2 0020 	movt	r0, #10272	; 0x2820
  20624c:	f640 0e14 	movw	lr, #2068	; 0x814
  206250:	7001      	strb	r1, [r0, #0]
  206252:	f04f 30ff 	mov.w	r0, #4294967295
  206256:	f04f 0600 	mov.w	r6, #0
  20625a:	bf08      	it	eq
  20625c:	f06f 0026 	mvneq.w	r0, #38	; 0x26
  206260:	2704      	movs	r7, #4
  206262:	f6c2 0c20 	movt	ip, #10272	; 0x2820
  206266:	f6c2 0e20 	movt	lr, #10272	; 0x2820
  20626a:	9109      	str	r1, [sp, #36]	; 0x24
  20626c:	f7ff b85e 	b.w	20532c <processMarkers+0xfb0>
  206270:	9a09      	ldr	r2, [sp, #36]	; 0x24
  206272:	f640 0112 	movw	r1, #2066	; 0x812
  206276:	43d0      	mvns	r0, r2
  206278:	f6c2 0120 	movt	r1, #10272	; 0x2820
  20627c:	f640 0c10 	movw	ip, #2064	; 0x810
  206280:	f640 0e14 	movw	lr, #2068	; 0x814
  206284:	7008      	strb	r0, [r1, #0]
  206286:	f04f 30ff 	mov.w	r0, #4294967295
  20628a:	f6c2 0c20 	movt	ip, #10272	; 0x2820
  20628e:	f6c2 0e20 	movt	lr, #10272	; 0x2820
  206292:	2aff      	cmp	r2, #255	; 0xff
  206294:	bf08      	it	eq
  206296:	f06f 0026 	mvneq.w	r0, #38	; 0x26
  20629a:	f7ff b890 	b.w	2053be <processMarkers+0x1042>
  20629e:	9809      	ldr	r0, [sp, #36]	; 0x24
  2062a0:	f640 0c10 	movw	ip, #2064	; 0x810
  2062a4:	28ff      	cmp	r0, #255	; 0xff
  2062a6:	f080 02ff 	eor.w	r2, r0, #255	; 0xff
  2062aa:	f640 0012 	movw	r0, #2066	; 0x812
  2062ae:	f6c2 0020 	movt	r0, #10272	; 0x2820
  2062b2:	f640 0e14 	movw	lr, #2068	; 0x814
  2062b6:	7002      	strb	r2, [r0, #0]
  2062b8:	f04f 31ff 	mov.w	r1, #4294967295
  2062bc:	f04f 0600 	mov.w	r6, #0
  2062c0:	bf08      	it	eq
  2062c2:	f06f 0126 	mvneq.w	r1, #38	; 0x26
  2062c6:	2004      	movs	r0, #4
  2062c8:	f6c2 0c20 	movt	ip, #10272	; 0x2820
  2062cc:	f6c2 0e20 	movt	lr, #10272	; 0x2820
  2062d0:	9209      	str	r2, [sp, #36]	; 0x24
  2062d2:	e57e      	b.n	205dd2 <processMarkers+0x1a56>
  2062d4:	f640 1216 	movw	r2, #2326	; 0x916
  2062d8:	f6c2 0220 	movt	r2, #10272	; 0x2820
  2062dc:	8010      	strh	r0, [r2, #0]
  2062de:	9805      	ldr	r0, [sp, #20]
  2062e0:	7001      	strb	r1, [r0, #0]
  2062e2:	2000      	movs	r0, #0
  2062e4:	b011      	add	sp, #68	; 0x44
  2062e6:	e8bd 8ff0 	ldmia.w	sp!, {r4, r5, r6, r7, r8, r9, sl, fp, pc}
  2062ea:	f640 1116 	movw	r1, #2326	; 0x916
  2062ee:	f6c2 0120 	movt	r1, #10272	; 0x2820
  2062f2:	8008      	strh	r0, [r1, #0]
  2062f4:	2012      	movs	r0, #18
  2062f6:	b011      	add	sp, #68	; 0x44
  2062f8:	e8bd 8ff0 	ldmia.w	sp!, {r4, r5, r6, r7, r8, r9, sl, fp, pc}
  2062fc:	f640 1116 	movw	r1, #2326	; 0x916
  206300:	f6c2 0120 	movt	r1, #10272	; 0x2820
  206304:	8008      	strh	r0, [r1, #0]
  206306:	2011      	movs	r0, #17
  206308:	b011      	add	sp, #68	; 0x44
  20630a:	e8bd 8ff0 	ldmia.w	sp!, {r4, r5, r6, r7, r8, r9, sl, fp, pc}
  20630e:	bf00      	nop
  206310:	282005be 	.word	0x282005be
  206314:	2820056e 	.word	0x2820056e
  206318:	28200474 	.word	0x28200474
  20631c:	28200424 	.word	0x28200424
  206320:	2820070e 	.word	0x2820070e
  206324:	2820060e 	.word	0x2820060e
  206328:	282004d4 	.word	0x282004d4
  20632c:	282004c4 	.word	0x282004c4

00206330 <upsampleCb>:
  206330:	e92d 47f0 	stmdb	sp!, {r4, r5, r6, r7, r8, r9, sl, lr}
  206334:	f240 42ea 	movw	r2, #1258	; 0x4ea
  206338:	f6c2 0220 	movt	r2, #10272	; 0x2820
  20633c:	eb02 0040 	add.w	r0, r2, r0, lsl #1
  206340:	f1a1 0210 	sub.w	r2, r1, #16
  206344:	f240 210e 	movw	r1, #526	; 0x20e
  206348:	f240 130e 	movw	r3, #270	; 0x10e
  20634c:	f6c2 0120 	movt	r1, #10272	; 0x2820
  206350:	f6c2 0320 	movt	r3, #10272	; 0x2820
  206354:	3810      	subs	r0, #16
  206356:	4411      	add	r1, r2
  206358:	441a      	add	r2, r3
  20635a:	f04f 0900 	mov.w	r9, #0
  20635e:	f04f 0c58 	mov.w	ip, #88	; 0x58
  206362:	f06f 0e2b 	mvn.w	lr, #43	; 0x2b
  206366:	f04f 08c6 	mov.w	r8, #198	; 0xc6
  20636a:	bf00      	nop
  20636c:	f810 6f10 	ldrb.w	r6, [r0, #16]!
  206370:	fb06 f50c 	mul.w	r5, r6, ip
  206374:	eb0e 2715 	add.w	r7, lr, r5, lsr #8
  206378:	f812 5f10 	ldrb.w	r5, [r2, #16]!
  20637c:	1bed      	subs	r5, r5, r7
  20637e:	2dff      	cmp	r5, #255	; 0xff
  206380:	bf88      	it	hi
  206382:	ea6f 35d5 	mvnhi.w	r5, r5, lsr #15
  206386:	7854      	ldrb	r4, [r2, #1]
  206388:	7a13      	ldrb	r3, [r2, #8]
  20638a:	1be4      	subs	r4, r4, r7
  20638c:	7015      	strb	r5, [r2, #0]
  20638e:	7a55      	ldrb	r5, [r2, #9]
  206390:	2cff      	cmp	r4, #255	; 0xff
  206392:	eba3 0307 	sub.w	r3, r3, r7
  206396:	f892 a002 	ldrb.w	sl, [r2, #2]
  20639a:	bf88      	it	hi
  20639c:	ea6f 34d4 	mvnhi.w	r4, r4, lsr #15
  2063a0:	7054      	strb	r4, [r2, #1]
  2063a2:	2bff      	cmp	r3, #255	; 0xff
  2063a4:	bf88      	it	hi
  2063a6:	ea6f 33d3 	mvnhi.w	r3, r3, lsr #15
  2063aa:	7213      	strb	r3, [r2, #8]
  2063ac:	1beb      	subs	r3, r5, r7
  2063ae:	fb06 f408 	mul.w	r4, r6, r8
  2063b2:	2bff      	cmp	r3, #255	; 0xff
  2063b4:	bf88      	it	hi
  2063b6:	ea6f 33d3 	mvnhi.w	r3, r3, lsr #15
  2063ba:	7253      	strb	r3, [r2, #9]
  2063bc:	eb06 2314 	add.w	r3, r6, r4, lsr #8
  2063c0:	f811 4f10 	ldrb.w	r4, [r1, #16]!
  2063c4:	3be3      	subs	r3, #227	; 0xe3
  2063c6:	441c      	add	r4, r3
  2063c8:	2cff      	cmp	r4, #255	; 0xff
  2063ca:	bf88      	it	hi
  2063cc:	ea6f 34d4 	mvnhi.w	r4, r4, lsr #15
  2063d0:	700c      	strb	r4, [r1, #0]
  2063d2:	784c      	ldrb	r4, [r1, #1]
  2063d4:	7a0d      	ldrb	r5, [r1, #8]
  2063d6:	441c      	add	r4, r3
  2063d8:	7a4e      	ldrb	r6, [r1, #9]
  2063da:	2cff      	cmp	r4, #255	; 0xff
  2063dc:	bf88      	it	hi
  2063de:	ea6f 34d4 	mvnhi.w	r4, r4, lsr #15
  2063e2:	704c      	strb	r4, [r1, #1]
  2063e4:	195c      	adds	r4, r3, r5
  2063e6:	2cff      	cmp	r4, #255	; 0xff
  2063e8:	bf88      	it	hi
  2063ea:	ea6f 34d4 	mvnhi.w	r4, r4, lsr #15
  2063ee:	720c      	strb	r4, [r1, #8]
  2063f0:	7884      	ldrb	r4, [r0, #2]
  2063f2:	4433      	add	r3, r6
  2063f4:	fb04 f50c 	mul.w	r5, r4, ip
  2063f8:	2bff      	cmp	r3, #255	; 0xff
  2063fa:	bf88      	it	hi
  2063fc:	ea6f 33d3 	mvnhi.w	r3, r3, lsr #15
  206400:	eb0e 2515 	add.w	r5, lr, r5, lsr #8
  206404:	724b      	strb	r3, [r1, #9]
  206406:	ebaa 0305 	sub.w	r3, sl, r5
  20640a:	2bff      	cmp	r3, #255	; 0xff
  20640c:	bf88      	it	hi
  20640e:	ea6f 33d3 	mvnhi.w	r3, r3, lsr #15
  206412:	78d6      	ldrb	r6, [r2, #3]
  206414:	7093      	strb	r3, [r2, #2]
  206416:	1b73      	subs	r3, r6, r5
  206418:	2bff      	cmp	r3, #255	; 0xff
  20641a:	bf88      	it	hi
  20641c:	ea6f 33d3 	mvnhi.w	r3, r3, lsr #15
  206420:	7a96      	ldrb	r6, [r2, #10]
  206422:	70d3      	strb	r3, [r2, #3]
  206424:	1b73      	subs	r3, r6, r5
  206426:	2bff      	cmp	r3, #255	; 0xff
  206428:	bf88      	it	hi
  20642a:	ea6f 33d3 	mvnhi.w	r3, r3, lsr #15
  20642e:	7ad6      	ldrb	r6, [r2, #11]
  206430:	7293      	strb	r3, [r2, #10]
  206432:	1b73      	subs	r3, r6, r5
  206434:	fb04 f508 	mul.w	r5, r4, r8
  206438:	2bff      	cmp	r3, #255	; 0xff
  20643a:	bf88      	it	hi
  20643c:	ea6f 33d3 	mvnhi.w	r3, r3, lsr #15
  206440:	72d3      	strb	r3, [r2, #11]
  206442:	eb04 2315 	add.w	r3, r4, r5, lsr #8
  206446:	788c      	ldrb	r4, [r1, #2]
  206448:	3be3      	subs	r3, #227	; 0xe3
  20644a:	441c      	add	r4, r3
  20644c:	2cff      	cmp	r4, #255	; 0xff
  20644e:	bf88      	it	hi
  206450:	ea6f 34d4 	mvnhi.w	r4, r4, lsr #15
  206454:	78cd      	ldrb	r5, [r1, #3]
  206456:	708c      	strb	r4, [r1, #2]
  206458:	195c      	adds	r4, r3, r5
  20645a:	2cff      	cmp	r4, #255	; 0xff
  20645c:	bf88      	it	hi
  20645e:	ea6f 34d4 	mvnhi.w	r4, r4, lsr #15
  206462:	7a8d      	ldrb	r5, [r1, #10]
  206464:	70cc      	strb	r4, [r1, #3]
  206466:	195c      	adds	r4, r3, r5
  206468:	2cff      	cmp	r4, #255	; 0xff
  20646a:	bf88      	it	hi
  20646c:	ea6f 34d4 	mvnhi.w	r4, r4, lsr #15
  206470:	7acd      	ldrb	r5, [r1, #11]
  206472:	728c      	strb	r4, [r1, #10]
  206474:	7904      	ldrb	r4, [r0, #4]
  206476:	442b      	add	r3, r5
  206478:	fb04 f50c 	mul.w	r5, r4, ip
  20647c:	2bff      	cmp	r3, #255	; 0xff
  20647e:	bf88      	it	hi
  206480:	ea6f 33d3 	mvnhi.w	r3, r3, lsr #15
  206484:	eb0e 2515 	add.w	r5, lr, r5, lsr #8
  206488:	7916      	ldrb	r6, [r2, #4]
  20648a:	72cb      	strb	r3, [r1, #11]
  20648c:	1b73      	subs	r3, r6, r5
  20648e:	2bff      	cmp	r3, #255	; 0xff
  206490:	bf88      	it	hi
  206492:	ea6f 33d3 	mvnhi.w	r3, r3, lsr #15
  206496:	7956      	ldrb	r6, [r2, #5]
  206498:	7113      	strb	r3, [r2, #4]
  20649a:	1b73      	subs	r3, r6, r5
  20649c:	2bff      	cmp	r3, #255	; 0xff
  20649e:	bf88      	it	hi
  2064a0:	ea6f 33d3 	mvnhi.w	r3, r3, lsr #15
  2064a4:	7b16      	ldrb	r6, [r2, #12]
  2064a6:	7153      	strb	r3, [r2, #5]
  2064a8:	1b73      	subs	r3, r6, r5
  2064aa:	2bff      	cmp	r3, #255	; 0xff
  2064ac:	bf88      	it	hi
  2064ae:	ea6f 33d3 	mvnhi.w	r3, r3, lsr #15
  2064b2:	7b56      	ldrb	r6, [r2, #13]
  2064b4:	7313      	strb	r3, [r2, #12]
  2064b6:	1b73      	subs	r3, r6, r5
  2064b8:	fb04 f508 	mul.w	r5, r4, r8
  2064bc:	2bff      	cmp	r3, #255	; 0xff
  2064be:	bf88      	it	hi
  2064c0:	ea6f 33d3 	mvnhi.w	r3, r3, lsr #15
  2064c4:	7353      	strb	r3, [r2, #13]
  2064c6:	eb04 2315 	add.w	r3, r4, r5, lsr #8
  2064ca:	790c      	ldrb	r4, [r1, #4]
  2064cc:	3be3      	subs	r3, #227	; 0xe3
  2064ce:	441c      	add	r4, r3
  2064d0:	2cff      	cmp	r4, #255	; 0xff
  2064d2:	bf88      	it	hi
  2064d4:	ea6f 34d4 	mvnhi.w	r4, r4, lsr #15
  2064d8:	794d      	ldrb	r5, [r1, #5]
  2064da:	710c      	strb	r4, [r1, #4]
  2064dc:	195c      	adds	r4, r3, r5
  2064de:	2cff      	cmp	r4, #255	; 0xff
  2064e0:	bf88      	it	hi
  2064e2:	ea6f 34d4 	mvnhi.w	r4, r4, lsr #15
  2064e6:	7b0d      	ldrb	r5, [r1, #12]
  2064e8:	714c      	strb	r4, [r1, #5]
  2064ea:	195c      	adds	r4, r3, r5
  2064ec:	2cff      	cmp	r4, #255	; 0xff
  2064ee:	bf88      	it	hi
  2064f0:	ea6f 34d4 	mvnhi.w	r4, r4, lsr #15
  2064f4:	7b4d      	ldrb	r5, [r1, #13]
  2064f6:	730c      	strb	r4, [r1, #12]
  2064f8:	7984      	ldrb	r4, [r0, #6]
  2064fa:	442b      	add	r3, r5
  2064fc:	fb04 f50c 	mul.w	r5, r4, ip
  206500:	2bff      	cmp	r3, #255	; 0xff
  206502:	bf88      	it	hi
  206504:	ea6f 33d3 	mvnhi.w	r3, r3, lsr #15
  206508:	eb0e 2515 	add.w	r5, lr, r5, lsr #8
  20650c:	7996      	ldrb	r6, [r2, #6]
  20650e:	734b      	strb	r3, [r1, #13]
  206510:	1b73      	subs	r3, r6, r5
  206512:	2bff      	cmp	r3, #255	; 0xff
  206514:	bf88      	it	hi
  206516:	ea6f 33d3 	mvnhi.w	r3, r3, lsr #15
  20651a:	79d6      	ldrb	r6, [r2, #7]
  20651c:	7193      	strb	r3, [r2, #6]
  20651e:	1b73      	subs	r3, r6, r5
  206520:	2bff      	cmp	r3, #255	; 0xff
  206522:	bf88      	it	hi
  206524:	ea6f 33d3 	mvnhi.w	r3, r3, lsr #15
  206528:	7b96      	ldrb	r6, [r2, #14]
  20652a:	71d3      	strb	r3, [r2, #7]
  20652c:	1b73      	subs	r3, r6, r5
  20652e:	2bff      	cmp	r3, #255	; 0xff
  206530:	bf88      	it	hi
  206532:	ea6f 33d3 	mvnhi.w	r3, r3, lsr #15
  206536:	7bd6      	ldrb	r6, [r2, #15]
  206538:	7393      	strb	r3, [r2, #14]
  20653a:	1b73      	subs	r3, r6, r5
  20653c:	fb04 f508 	mul.w	r5, r4, r8
  206540:	2bff      	cmp	r3, #255	; 0xff
  206542:	bf88      	it	hi
  206544:	ea6f 33d3 	mvnhi.w	r3, r3, lsr #15
  206548:	73d3      	strb	r3, [r2, #15]
  20654a:	eb04 2315 	add.w	r3, r4, r5, lsr #8
  20654e:	798c      	ldrb	r4, [r1, #6]
  206550:	3be3      	subs	r3, #227	; 0xe3
  206552:	441c      	add	r4, r3
  206554:	2cff      	cmp	r4, #255	; 0xff
  206556:	bf88      	it	hi
  206558:	ea6f 34d4 	mvnhi.w	r4, r4, lsr #15
  20655c:	79cd      	ldrb	r5, [r1, #7]
  20655e:	718c      	strb	r4, [r1, #6]
  206560:	195c      	adds	r4, r3, r5
  206562:	2cff      	cmp	r4, #255	; 0xff
  206564:	bf88      	it	hi
  206566:	ea6f 34d4 	mvnhi.w	r4, r4, lsr #15
  20656a:	7b8d      	ldrb	r5, [r1, #14]
  20656c:	71cc      	strb	r4, [r1, #7]
  20656e:	195c      	adds	r4, r3, r5
  206570:	2cff      	cmp	r4, #255	; 0xff
  206572:	bf88      	it	hi
  206574:	ea6f 34d4 	mvnhi.w	r4, r4, lsr #15
  206578:	7bcd      	ldrb	r5, [r1, #15]
  20657a:	738c      	strb	r4, [r1, #14]
  20657c:	442b      	add	r3, r5
  20657e:	2bff      	cmp	r3, #255	; 0xff
  206580:	bf88      	it	hi
  206582:	ea6f 33d3 	mvnhi.w	r3, r3, lsr #15
  206586:	f1b9 0f03 	cmp.w	r9, #3
  20658a:	f109 0901 	add.w	r9, r9, #1
  20658e:	73cb      	strb	r3, [r1, #15]
  206590:	f4ff aeec 	bcc.w	20636c <upsampleCb+0x3c>
  206594:	e8bd 87f0 	ldmia.w	sp!, {r4, r5, r6, r7, r8, r9, sl, pc}

00206598 <upsampleCbH>:
  206598:	e92d 47f0 	stmdb	sp!, {r4, r5, r6, r7, r8, r9, sl, lr}
  20659c:	f240 42ea 	movw	r2, #1258	; 0x4ea
  2065a0:	f6c2 0220 	movt	r2, #10272	; 0x2820
  2065a4:	eb02 0040 	add.w	r0, r2, r0, lsl #1
  2065a8:	f1a1 0208 	sub.w	r2, r1, #8
  2065ac:	f240 210e 	movw	r1, #526	; 0x20e
  2065b0:	f240 130e 	movw	r3, #270	; 0x10e
  2065b4:	f6c2 0120 	movt	r1, #10272	; 0x2820
  2065b8:	f6c2 0320 	movt	r3, #10272	; 0x2820
  2065bc:	3810      	subs	r0, #16
  2065be:	4411      	add	r1, r2
  2065c0:	441a      	add	r2, r3
  2065c2:	f04f 0900 	mov.w	r9, #0
  2065c6:	f04f 0c58 	mov.w	ip, #88	; 0x58
  2065ca:	f06f 0e2b 	mvn.w	lr, #43	; 0x2b
  2065ce:	f04f 08c6 	mov.w	r8, #198	; 0xc6
  2065d2:	bf00      	nop
  2065d4:	f810 6f10 	ldrb.w	r6, [r0, #16]!
  2065d8:	fb06 f50c 	mul.w	r5, r6, ip
  2065dc:	eb0e 2715 	add.w	r7, lr, r5, lsr #8
  2065e0:	f812 5f08 	ldrb.w	r5, [r2, #8]!
  2065e4:	1bed      	subs	r5, r5, r7
  2065e6:	2dff      	cmp	r5, #255	; 0xff
  2065e8:	bf88      	it	hi
  2065ea:	ea6f 35d5 	mvnhi.w	r5, r5, lsr #15
  2065ee:	7854      	ldrb	r4, [r2, #1]
  2065f0:	7015      	strb	r5, [r2, #0]
  2065f2:	1be4      	subs	r4, r4, r7
  2065f4:	fb06 f708 	mul.w	r7, r6, r8
  2065f8:	7893      	ldrb	r3, [r2, #2]
  2065fa:	f892 a003 	ldrb.w	sl, [r2, #3]
  2065fe:	2cff      	cmp	r4, #255	; 0xff
  206600:	bf88      	it	hi
  206602:	ea6f 34d4 	mvnhi.w	r4, r4, lsr #15
  206606:	7054      	strb	r4, [r2, #1]
  206608:	eb06 2417 	add.w	r4, r6, r7, lsr #8
  20660c:	f811 6f08 	ldrb.w	r6, [r1, #8]!
  206610:	3ce3      	subs	r4, #227	; 0xe3
  206612:	4426      	add	r6, r4
  206614:	2eff      	cmp	r6, #255	; 0xff
  206616:	bf88      	it	hi
  206618:	ea6f 36d6 	mvnhi.w	r6, r6, lsr #15
  20661c:	700e      	strb	r6, [r1, #0]
  20661e:	784e      	ldrb	r6, [r1, #1]
  206620:	788f      	ldrb	r7, [r1, #2]
  206622:	4434      	add	r4, r6
  206624:	7886      	ldrb	r6, [r0, #2]
  206626:	2cff      	cmp	r4, #255	; 0xff
  206628:	bf88      	it	hi
  20662a:	ea6f 34d4 	mvnhi.w	r4, r4, lsr #15
  20662e:	fb06 f50c 	mul.w	r5, r6, ip
  206632:	704c      	strb	r4, [r1, #1]
  206634:	eb0e 2415 	add.w	r4, lr, r5, lsr #8
  206638:	78cd      	ldrb	r5, [r1, #3]
  20663a:	1b1b      	subs	r3, r3, r4
  20663c:	2bff      	cmp	r3, #255	; 0xff
  20663e:	bf88      	it	hi
  206640:	ea6f 33d3 	mvnhi.w	r3, r3, lsr #15
  206644:	7093      	strb	r3, [r2, #2]
  206646:	ebaa 0304 	sub.w	r3, sl, r4
  20664a:	fb06 f408 	mul.w	r4, r6, r8
  20664e:	2bff      	cmp	r3, #255	; 0xff
  206650:	bf88      	it	hi
  206652:	ea6f 33d3 	mvnhi.w	r3, r3, lsr #15
  206656:	eb06 2414 	add.w	r4, r6, r4, lsr #8
  20665a:	70d3      	strb	r3, [r2, #3]
  20665c:	f1a4 03e3 	sub.w	r3, r4, #227	; 0xe3
  206660:	19dc      	adds	r4, r3, r7
  206662:	2cff      	cmp	r4, #255	; 0xff
  206664:	bf88      	it	hi
  206666:	ea6f 34d4 	mvnhi.w	r4, r4, lsr #15
  20666a:	708c      	strb	r4, [r1, #2]
  20666c:	7904      	ldrb	r4, [r0, #4]
  20666e:	442b      	add	r3, r5
  206670:	fb04 f50c 	mul.w	r5, r4, ip
  206674:	2bff      	cmp	r3, #255	; 0xff
  206676:	bf88      	it	hi
  206678:	ea6f 33d3 	mvnhi.w	r3, r3, lsr #15
  20667c:	eb0e 2515 	add.w	r5, lr, r5, lsr #8
  206680:	7916      	ldrb	r6, [r2, #4]
  206682:	70cb      	strb	r3, [r1, #3]
  206684:	1b73      	subs	r3, r6, r5
  206686:	2bff      	cmp	r3, #255	; 0xff
  206688:	bf88      	it	hi
  20668a:	ea6f 33d3 	mvnhi.w	r3, r3, lsr #15
  20668e:	7956      	ldrb	r6, [r2, #5]
  206690:	7113      	strb	r3, [r2, #4]
  206692:	1b73      	subs	r3, r6, r5
  206694:	fb04 f508 	mul.w	r5, r4, r8
  206698:	2bff      	cmp	r3, #255	; 0xff
  20669a:	bf88      	it	hi
  20669c:	ea6f 33d3 	mvnhi.w	r3, r3, lsr #15
  2066a0:	7153      	strb	r3, [r2, #5]
  2066a2:	eb04 2315 	add.w	r3, r4, r5, lsr #8
  2066a6:	790c      	ldrb	r4, [r1, #4]
  2066a8:	3be3      	subs	r3, #227	; 0xe3
  2066aa:	441c      	add	r4, r3
  2066ac:	2cff      	cmp	r4, #255	; 0xff
  2066ae:	bf88      	it	hi
  2066b0:	ea6f 34d4 	mvnhi.w	r4, r4, lsr #15
  2066b4:	794d      	ldrb	r5, [r1, #5]
  2066b6:	710c      	strb	r4, [r1, #4]
  2066b8:	7984      	ldrb	r4, [r0, #6]
  2066ba:	442b      	add	r3, r5
  2066bc:	fb04 f50c 	mul.w	r5, r4, ip
  2066c0:	2bff      	cmp	r3, #255	; 0xff
  2066c2:	bf88      	it	hi
  2066c4:	ea6f 33d3 	mvnhi.w	r3, r3, lsr #15
  2066c8:	eb0e 2515 	add.w	r5, lr, r5, lsr #8
  2066cc:	7996      	ldrb	r6, [r2, #6]
  2066ce:	714b      	strb	r3, [r1, #5]
  2066d0:	1b73      	subs	r3, r6, r5
  2066d2:	2bff      	cmp	r3, #255	; 0xff
  2066d4:	bf88      	it	hi
  2066d6:	ea6f 33d3 	mvnhi.w	r3, r3, lsr #15
  2066da:	79d6      	ldrb	r6, [r2, #7]
  2066dc:	7193      	strb	r3, [r2, #6]
  2066de:	1b73      	subs	r3, r6, r5
  2066e0:	fb04 f508 	mul.w	r5, r4, r8
  2066e4:	2bff      	cmp	r3, #255	; 0xff
  2066e6:	bf88      	it	hi
  2066e8:	ea6f 33d3 	mvnhi.w	r3, r3, lsr #15
  2066ec:	71d3      	strb	r3, [r2, #7]
  2066ee:	eb04 2315 	add.w	r3, r4, r5, lsr #8
  2066f2:	798c      	ldrb	r4, [r1, #6]
  2066f4:	3be3      	subs	r3, #227	; 0xe3
  2066f6:	441c      	add	r4, r3
  2066f8:	2cff      	cmp	r4, #255	; 0xff
  2066fa:	bf88      	it	hi
  2066fc:	ea6f 34d4 	mvnhi.w	r4, r4, lsr #15
  206700:	79cd      	ldrb	r5, [r1, #7]
  206702:	718c      	strb	r4, [r1, #6]
  206704:	442b      	add	r3, r5
  206706:	2bff      	cmp	r3, #255	; 0xff
  206708:	bf88      	it	hi
  20670a:	ea6f 33d3 	mvnhi.w	r3, r3, lsr #15
  20670e:	f1b9 0f07 	cmp.w	r9, #7
  206712:	f109 0901 	add.w	r9, r9, #1
  206716:	71cb      	strb	r3, [r1, #7]
  206718:	f4ff af5c 	bcc.w	2065d4 <upsampleCbH+0x3c>
  20671c:	e8bd 87f0 	ldmia.w	sp!, {r4, r5, r6, r7, r8, r9, sl, pc}

00206720 <upsampleCbV>:
  206720:	e92d 47f0 	stmdb	sp!, {r4, r5, r6, r7, r8, r9, sl, lr}
  206724:	f240 42ea 	movw	r2, #1258	; 0x4ea
  206728:	f6c2 0220 	movt	r2, #10272	; 0x2820
  20672c:	eb02 0040 	add.w	r0, r2, r0, lsl #1
  206730:	f1a1 0210 	sub.w	r2, r1, #16
  206734:	f240 210e 	movw	r1, #526	; 0x20e
  206738:	f240 130e 	movw	r3, #270	; 0x10e
  20673c:	f6c2 0120 	movt	r1, #10272	; 0x2820
  206740:	f6c2 0320 	movt	r3, #10272	; 0x2820
  206744:	3810      	subs	r0, #16
  206746:	4411      	add	r1, r2
  206748:	441a      	add	r2, r3
  20674a:	f04f 0900 	mov.w	r9, #0
  20674e:	f04f 0c58 	mov.w	ip, #88	; 0x58
  206752:	f06f 0e2b 	mvn.w	lr, #43	; 0x2b
  206756:	f04f 08c6 	mov.w	r8, #198	; 0xc6
  20675a:	bf00      	nop
  20675c:	f810 7f10 	ldrb.w	r7, [r0, #16]!
  206760:	fb07 f50c 	mul.w	r5, r7, ip
  206764:	eb0e 2415 	add.w	r4, lr, r5, lsr #8
  206768:	f812 5f10 	ldrb.w	r5, [r2, #16]!
  20676c:	1b2d      	subs	r5, r5, r4
  20676e:	2dff      	cmp	r5, #255	; 0xff
  206770:	bf88      	it	hi
  206772:	ea6f 35d5 	mvnhi.w	r5, r5, lsr #15
  206776:	7a13      	ldrb	r3, [r2, #8]
  206778:	7015      	strb	r5, [r2, #0]
  20677a:	1b1b      	subs	r3, r3, r4
  20677c:	fb07 f408 	mul.w	r4, r7, r8
  206780:	7856      	ldrb	r6, [r2, #1]
  206782:	f892 a009 	ldrb.w	sl, [r2, #9]
  206786:	2bff      	cmp	r3, #255	; 0xff
  206788:	bf88      	it	hi
  20678a:	ea6f 33d3 	mvnhi.w	r3, r3, lsr #15
  20678e:	7213      	strb	r3, [r2, #8]
  206790:	eb07 2314 	add.w	r3, r7, r4, lsr #8
  206794:	f811 4f10 	ldrb.w	r4, [r1, #16]!
  206798:	3be3      	subs	r3, #227	; 0xe3
  20679a:	441c      	add	r4, r3
  20679c:	2cff      	cmp	r4, #255	; 0xff
  20679e:	bf88      	it	hi
  2067a0:	ea6f 34d4 	mvnhi.w	r4, r4, lsr #15
  2067a4:	700c      	strb	r4, [r1, #0]
  2067a6:	7a0c      	ldrb	r4, [r1, #8]
  2067a8:	784f      	ldrb	r7, [r1, #1]
  2067aa:	4423      	add	r3, r4
  2067ac:	7884      	ldrb	r4, [r0, #2]
  2067ae:	2bff      	cmp	r3, #255	; 0xff
  2067b0:	bf88      	it	hi
  2067b2:	ea6f 33d3 	mvnhi.w	r3, r3, lsr #15
  2067b6:	fb04 f50c 	mul.w	r5, r4, ip
  2067ba:	720b      	strb	r3, [r1, #8]
  2067bc:	eb0e 2315 	add.w	r3, lr, r5, lsr #8
  2067c0:	7a4d      	ldrb	r5, [r1, #9]
  2067c2:	1af6      	subs	r6, r6, r3
  2067c4:	2eff      	cmp	r6, #255	; 0xff
  2067c6:	bf88      	it	hi
  2067c8:	ea6f 36d6 	mvnhi.w	r6, r6, lsr #15
  2067cc:	7056      	strb	r6, [r2, #1]
  2067ce:	fb04 f608 	mul.w	r6, r4, r8
  2067d2:	ebaa 0303 	sub.w	r3, sl, r3
  2067d6:	eb04 2416 	add.w	r4, r4, r6, lsr #8
  2067da:	2bff      	cmp	r3, #255	; 0xff
  2067dc:	bf88      	it	hi
  2067de:	ea6f 33d3 	mvnhi.w	r3, r3, lsr #15
  2067e2:	7253      	strb	r3, [r2, #9]
  2067e4:	f1a4 03e3 	sub.w	r3, r4, #227	; 0xe3
  2067e8:	19dc      	adds	r4, r3, r7
  2067ea:	2cff      	cmp	r4, #255	; 0xff
  2067ec:	bf88      	it	hi
  2067ee:	ea6f 34d4 	mvnhi.w	r4, r4, lsr #15
  2067f2:	704c      	strb	r4, [r1, #1]
  2067f4:	7904      	ldrb	r4, [r0, #4]
  2067f6:	442b      	add	r3, r5
  2067f8:	fb04 f50c 	mul.w	r5, r4, ip
  2067fc:	2bff      	cmp	r3, #255	; 0xff
  2067fe:	bf88      	it	hi
  206800:	ea6f 33d3 	mvnhi.w	r3, r3, lsr #15
  206804:	eb0e 2515 	add.w	r5, lr, r5, lsr #8
  206808:	7896      	ldrb	r6, [r2, #2]
  20680a:	724b      	strb	r3, [r1, #9]
  20680c:	1b73      	subs	r3, r6, r5
  20680e:	2bff      	cmp	r3, #255	; 0xff
  206810:	bf88      	it	hi
  206812:	ea6f 33d3 	mvnhi.w	r3, r3, lsr #15
  206816:	7a96      	ldrb	r6, [r2, #10]
  206818:	7093      	strb	r3, [r2, #2]
  20681a:	1b73      	subs	r3, r6, r5
  20681c:	fb04 f508 	mul.w	r5, r4, r8
  206820:	2bff      	cmp	r3, #255	; 0xff
  206822:	bf88      	it	hi
  206824:	ea6f 33d3 	mvnhi.w	r3, r3, lsr #15
  206828:	7293      	strb	r3, [r2, #10]
  20682a:	eb04 2315 	add.w	r3, r4, r5, lsr #8
  20682e:	788c      	ldrb	r4, [r1, #2]
  206830:	3be3      	subs	r3, #227	; 0xe3
  206832:	441c      	add	r4, r3
  206834:	2cff      	cmp	r4, #255	; 0xff
  206836:	bf88      	it	hi
  206838:	ea6f 34d4 	mvnhi.w	r4, r4, lsr #15
  20683c:	7a8d      	ldrb	r5, [r1, #10]
  20683e:	708c      	strb	r4, [r1, #2]
  206840:	7984      	ldrb	r4, [r0, #6]
  206842:	442b      	add	r3, r5
  206844:	fb04 f50c 	mul.w	r5, r4, ip
  206848:	2bff      	cmp	r3, #255	; 0xff
  20684a:	bf88      	it	hi
  20684c:	ea6f 33d3 	mvnhi.w	r3, r3, lsr #15
  206850:	eb0e 2515 	add.w	r5, lr, r5, lsr #8
  206854:	78d6      	ldrb	r6, [r2, #3]
  206856:	728b      	strb	r3, [r1, #10]
  206858:	1b73      	subs	r3, r6, r5
  20685a:	2bff      	cmp	r3, #255	; 0xff
  20685c:	bf88      	it	hi
  20685e:	ea6f 33d3 	mvnhi.w	r3, r3, lsr #15
  206862:	7ad6      	ldrb	r6, [r2, #11]
  206864:	70d3      	strb	r3, [r2, #3]
  206866:	1b73      	subs	r3, r6, r5
  206868:	fb04 f508 	mul.w	r5, r4, r8
  20686c:	2bff      	cmp	r3, #255	; 0xff
  20686e:	bf88      	it	hi
  206870:	ea6f 33d3 	mvnhi.w	r3, r3, lsr #15
  206874:	72d3      	strb	r3, [r2, #11]
  206876:	eb04 2315 	add.w	r3, r4, r5, lsr #8
  20687a:	78cc      	ldrb	r4, [r1, #3]
  20687c:	3be3      	subs	r3, #227	; 0xe3
  20687e:	441c      	add	r4, r3
  206880:	2cff      	cmp	r4, #255	; 0xff
  206882:	bf88      	it	hi
  206884:	ea6f 34d4 	mvnhi.w	r4, r4, lsr #15
  206888:	7acd      	ldrb	r5, [r1, #11]
  20688a:	70cc      	strb	r4, [r1, #3]
  20688c:	7a04      	ldrb	r4, [r0, #8]
  20688e:	442b      	add	r3, r5
  206890:	fb04 f50c 	mul.w	r5, r4, ip
  206894:	2bff      	cmp	r3, #255	; 0xff
  206896:	bf88      	it	hi
  206898:	ea6f 33d3 	mvnhi.w	r3, r3, lsr #15
  20689c:	eb0e 2515 	add.w	r5, lr, r5, lsr #8
  2068a0:	7916      	ldrb	r6, [r2, #4]
  2068a2:	72cb      	strb	r3, [r1, #11]
  2068a4:	1b73      	subs	r3, r6, r5
  2068a6:	2bff      	cmp	r3, #255	; 0xff
  2068a8:	bf88      	it	hi
  2068aa:	ea6f 33d3 	mvnhi.w	r3, r3, lsr #15
  2068ae:	7b16      	ldrb	r6, [r2, #12]
  2068b0:	7113      	strb	r3, [r2, #4]
  2068b2:	1b73      	subs	r3, r6, r5
  2068b4:	fb04 f508 	mul.w	r5, r4, r8
  2068b8:	2bff      	cmp	r3, #255	; 0xff
  2068ba:	bf88      	it	hi
  2068bc:	ea6f 33d3 	mvnhi.w	r3, r3, lsr #15
  2068c0:	7313      	strb	r3, [r2, #12]
  2068c2:	eb04 2315 	add.w	r3, r4, r5, lsr #8
  2068c6:	790c      	ldrb	r4, [r1, #4]
  2068c8:	3be3      	subs	r3, #227	; 0xe3
  2068ca:	441c      	add	r4, r3
  2068cc:	2cff      	cmp	r4, #255	; 0xff
  2068ce:	bf88      	it	hi
  2068d0:	ea6f 34d4 	mvnhi.w	r4, r4, lsr #15
  2068d4:	7b0d      	ldrb	r5, [r1, #12]
  2068d6:	710c      	strb	r4, [r1, #4]
  2068d8:	7a84      	ldrb	r4, [r0, #10]
  2068da:	442b      	add	r3, r5
  2068dc:	fb04 f50c 	mul.w	r5, r4, ip
  2068e0:	2bff      	cmp	r3, #255	; 0xff
  2068e2:	bf88      	it	hi
  2068e4:	ea6f 33d3 	mvnhi.w	r3, r3, lsr #15
  2068e8:	eb0e 2515 	add.w	r5, lr, r5, lsr #8
  2068ec:	7956      	ldrb	r6, [r2, #5]
  2068ee:	730b      	strb	r3, [r1, #12]
  2068f0:	1b73      	subs	r3, r6, r5
  2068f2:	2bff      	cmp	r3, #255	; 0xff
  2068f4:	bf88      	it	hi
  2068f6:	ea6f 33d3 	mvnhi.w	r3, r3, lsr #15
  2068fa:	7b56      	ldrb	r6, [r2, #13]
  2068fc:	7153      	strb	r3, [r2, #5]
  2068fe:	1b73      	subs	r3, r6, r5
  206900:	fb04 f508 	mul.w	r5, r4, r8
  206904:	2bff      	cmp	r3, #255	; 0xff
  206906:	bf88      	it	hi
  206908:	ea6f 33d3 	mvnhi.w	r3, r3, lsr #15
  20690c:	7353      	strb	r3, [r2, #13]
  20690e:	eb04 2315 	add.w	r3, r4, r5, lsr #8
  206912:	794c      	ldrb	r4, [r1, #5]
  206914:	3be3      	subs	r3, #227	; 0xe3
  206916:	441c      	add	r4, r3
  206918:	2cff      	cmp	r4, #255	; 0xff
  20691a:	bf88      	it	hi
  20691c:	ea6f 34d4 	mvnhi.w	r4, r4, lsr #15
  206920:	7b4d      	ldrb	r5, [r1, #13]
  206922:	714c      	strb	r4, [r1, #5]
  206924:	7b04      	ldrb	r4, [r0, #12]
  206926:	442b      	add	r3, r5
  206928:	fb04 f50c 	mul.w	r5, r4, ip
  20692c:	2bff      	cmp	r3, #255	; 0xff
  20692e:	bf88      	it	hi
  206930:	ea6f 33d3 	mvnhi.w	r3, r3, lsr #15
  206934:	eb0e 2515 	add.w	r5, lr, r5, lsr #8
  206938:	7996      	ldrb	r6, [r2, #6]
  20693a:	734b      	strb	r3, [r1, #13]
  20693c:	1b73      	subs	r3, r6, r5
  20693e:	2bff      	cmp	r3, #255	; 0xff
  206940:	bf88      	it	hi
  206942:	ea6f 33d3 	mvnhi.w	r3, r3, lsr #15
  206946:	7b96      	ldrb	r6, [r2, #14]
  206948:	7193      	strb	r3, [r2, #6]
  20694a:	1b73      	subs	r3, r6, r5
  20694c:	fb04 f508 	mul.w	r5, r4, r8
  206950:	2bff      	cmp	r3, #255	; 0xff
  206952:	bf88      	it	hi
  206954:	ea6f 33d3 	mvnhi.w	r3, r3, lsr #15
  206958:	7393      	strb	r3, [r2, #14]
  20695a:	eb04 2315 	add.w	r3, r4, r5, lsr #8
  20695e:	798c      	ldrb	r4, [r1, #6]
  206960:	3be3      	subs	r3, #227	; 0xe3
  206962:	441c      	add	r4, r3
  206964:	2cff      	cmp	r4, #255	; 0xff
  206966:	bf88      	it	hi
  206968:	ea6f 34d4 	mvnhi.w	r4, r4, lsr #15
  20696c:	7b8d      	ldrb	r5, [r1, #14]
  20696e:	718c      	strb	r4, [r1, #6]
  206970:	7b84      	ldrb	r4, [r0, #14]
  206972:	442b      	add	r3, r5
  206974:	fb04 f50c 	mul.w	r5, r4, ip
  206978:	2bff      	cmp	r3, #255	; 0xff
  20697a:	bf88      	it	hi
  20697c:	ea6f 33d3 	mvnhi.w	r3, r3, lsr #15
  206980:	eb0e 2515 	add.w	r5, lr, r5, lsr #8
  206984:	79d6      	ldrb	r6, [r2, #7]
  206986:	738b      	strb	r3, [r1, #14]
  206988:	1b73      	subs	r3, r6, r5
  20698a:	2bff      	cmp	r3, #255	; 0xff
  20698c:	bf88      	it	hi
  20698e:	ea6f 33d3 	mvnhi.w	r3, r3, lsr #15
  206992:	7bd6      	ldrb	r6, [r2, #15]
  206994:	71d3      	strb	r3, [r2, #7]
  206996:	1b73      	subs	r3, r6, r5
  206998:	fb04 f508 	mul.w	r5, r4, r8
  20699c:	2bff      	cmp	r3, #255	; 0xff
  20699e:	bf88      	it	hi
  2069a0:	ea6f 33d3 	mvnhi.w	r3, r3, lsr #15
  2069a4:	73d3      	strb	r3, [r2, #15]
  2069a6:	eb04 2315 	add.w	r3, r4, r5, lsr #8
  2069aa:	79cc      	ldrb	r4, [r1, #7]
  2069ac:	3be3      	subs	r3, #227	; 0xe3
  2069ae:	441c      	add	r4, r3
  2069b0:	2cff      	cmp	r4, #255	; 0xff
  2069b2:	bf88      	it	hi
  2069b4:	ea6f 34d4 	mvnhi.w	r4, r4, lsr #15
  2069b8:	7bcd      	ldrb	r5, [r1, #15]
  2069ba:	71cc      	strb	r4, [r1, #7]
  2069bc:	442b      	add	r3, r5
  2069be:	2bff      	cmp	r3, #255	; 0xff
  2069c0:	bf88      	it	hi
  2069c2:	ea6f 33d3 	mvnhi.w	r3, r3, lsr #15
  2069c6:	f1b9 0f03 	cmp.w	r9, #3
  2069ca:	f109 0901 	add.w	r9, r9, #1
  2069ce:	73cb      	strb	r3, [r1, #15]
  2069d0:	f4ff aec4 	bcc.w	20675c <upsampleCbV+0x3c>
  2069d4:	e8bd 87f0 	ldmia.w	sp!, {r4, r5, r6, r7, r8, r9, sl, pc}

002069d8 <upsampleCr>:
  2069d8:	e92d 47f0 	stmdb	sp!, {r4, r5, r6, r7, r8, r9, sl, lr}
  2069dc:	f240 42ea 	movw	r2, #1258	; 0x4ea
  2069e0:	f6c2 0220 	movt	r2, #10272	; 0x2820
  2069e4:	eb02 0040 	add.w	r0, r2, r0, lsl #1
  2069e8:	f1a1 0210 	sub.w	r2, r1, #16
  2069ec:	f240 110e 	movw	r1, #270	; 0x10e
  2069f0:	f240 030e 	movw	r3, #14
  2069f4:	f6c2 0120 	movt	r1, #10272	; 0x2820
  2069f8:	f6c2 0320 	movt	r3, #10272	; 0x2820
  2069fc:	3810      	subs	r0, #16
  2069fe:	4411      	add	r1, r2
  206a00:	441a      	add	r2, r3
  206a02:	f04f 0900 	mov.w	r9, #0
  206a06:	f04f 0c67 	mov.w	ip, #103	; 0x67
  206a0a:	f04f 0eb7 	mov.w	lr, #183	; 0xb7
  206a0e:	f06f 085a 	mvn.w	r8, #90	; 0x5a
  206a12:	bf00      	nop
  206a14:	f810 6f10 	ldrb.w	r6, [r0, #16]!
  206a18:	f812 7f10 	ldrb.w	r7, [r2, #16]!
  206a1c:	fb06 f50c 	mul.w	r5, r6, ip
  206a20:	eb06 2515 	add.w	r5, r6, r5, lsr #8
  206a24:	f1a5 04b3 	sub.w	r4, r5, #179	; 0xb3
  206a28:	19e5      	adds	r5, r4, r7
  206a2a:	2dff      	cmp	r5, #255	; 0xff
  206a2c:	bf88      	it	hi
  206a2e:	ea6f 35d5 	mvnhi.w	r5, r5, lsr #15
  206a32:	7857      	ldrb	r7, [r2, #1]
  206a34:	7a13      	ldrb	r3, [r2, #8]
  206a36:	4427      	add	r7, r4
  206a38:	7015      	strb	r5, [r2, #0]
  206a3a:	7a55      	ldrb	r5, [r2, #9]
  206a3c:	2fff      	cmp	r7, #255	; 0xff
  206a3e:	4423      	add	r3, r4
  206a40:	f892 a002 	ldrb.w	sl, [r2, #2]
  206a44:	bf88      	it	hi
  206a46:	ea6f 37d7 	mvnhi.w	r7, r7, lsr #15
  206a4a:	7057      	strb	r7, [r2, #1]
  206a4c:	2bff      	cmp	r3, #255	; 0xff
  206a4e:	bf88      	it	hi
  206a50:	ea6f 33d3 	mvnhi.w	r3, r3, lsr #15
  206a54:	7213      	strb	r3, [r2, #8]
  206a56:	1963      	adds	r3, r4, r5
  206a58:	fb06 f40e 	mul.w	r4, r6, lr
  206a5c:	2bff      	cmp	r3, #255	; 0xff
  206a5e:	bf88      	it	hi
  206a60:	ea6f 33d3 	mvnhi.w	r3, r3, lsr #15
  206a64:	eb08 2414 	add.w	r4, r8, r4, lsr #8
  206a68:	f811 5f10 	ldrb.w	r5, [r1, #16]!
  206a6c:	7253      	strb	r3, [r2, #9]
  206a6e:	1b2b      	subs	r3, r5, r4
  206a70:	2bff      	cmp	r3, #255	; 0xff
  206a72:	bf88      	it	hi
  206a74:	ea6f 33d3 	mvnhi.w	r3, r3, lsr #15
  206a78:	700b      	strb	r3, [r1, #0]
  206a7a:	784b      	ldrb	r3, [r1, #1]
  206a7c:	7a0d      	ldrb	r5, [r1, #8]
  206a7e:	1b1b      	subs	r3, r3, r4
  206a80:	7a4e      	ldrb	r6, [r1, #9]
  206a82:	2bff      	cmp	r3, #255	; 0xff
  206a84:	bf88      	it	hi
  206a86:	ea6f 33d3 	mvnhi.w	r3, r3, lsr #15
  206a8a:	704b      	strb	r3, [r1, #1]
  206a8c:	1b2b      	subs	r3, r5, r4
  206a8e:	2bff      	cmp	r3, #255	; 0xff
  206a90:	bf88      	it	hi
  206a92:	ea6f 33d3 	mvnhi.w	r3, r3, lsr #15
  206a96:	720b      	strb	r3, [r1, #8]
  206a98:	1b33      	subs	r3, r6, r4
  206a9a:	7884      	ldrb	r4, [r0, #2]
  206a9c:	2bff      	cmp	r3, #255	; 0xff
  206a9e:	bf88      	it	hi
  206aa0:	ea6f 33d3 	mvnhi.w	r3, r3, lsr #15
  206aa4:	fb04 f50c 	mul.w	r5, r4, ip
  206aa8:	724b      	strb	r3, [r1, #9]
  206aaa:	eb04 2515 	add.w	r5, r4, r5, lsr #8
  206aae:	fb04 f40e 	mul.w	r4, r4, lr
  206ab2:	f1a5 03b3 	sub.w	r3, r5, #179	; 0xb3
  206ab6:	eb03 050a 	add.w	r5, r3, sl
  206aba:	2dff      	cmp	r5, #255	; 0xff
  206abc:	bf88      	it	hi
  206abe:	ea6f 35d5 	mvnhi.w	r5, r5, lsr #15
  206ac2:	78d6      	ldrb	r6, [r2, #3]
  206ac4:	7095      	strb	r5, [r2, #2]
  206ac6:	199d      	adds	r5, r3, r6
  206ac8:	2dff      	cmp	r5, #255	; 0xff
  206aca:	bf88      	it	hi
  206acc:	ea6f 35d5 	mvnhi.w	r5, r5, lsr #15
  206ad0:	7a96      	ldrb	r6, [r2, #10]
  206ad2:	70d5      	strb	r5, [r2, #3]
  206ad4:	199d      	adds	r5, r3, r6
  206ad6:	2dff      	cmp	r5, #255	; 0xff
  206ad8:	bf88      	it	hi
  206ada:	ea6f 35d5 	mvnhi.w	r5, r5, lsr #15
  206ade:	7ad6      	ldrb	r6, [r2, #11]
  206ae0:	7295      	strb	r5, [r2, #10]
  206ae2:	4433      	add	r3, r6
  206ae4:	2bff      	cmp	r3, #255	; 0xff
  206ae6:	bf88      	it	hi
  206ae8:	ea6f 33d3 	mvnhi.w	r3, r3, lsr #15
  206aec:	eb08 2414 	add.w	r4, r8, r4, lsr #8
  206af0:	788d      	ldrb	r5, [r1, #2]
  206af2:	72d3      	strb	r3, [r2, #11]
  206af4:	1b2b      	subs	r3, r5, r4
  206af6:	2bff      	cmp	r3, #255	; 0xff
  206af8:	bf88      	it	hi
  206afa:	ea6f 33d3 	mvnhi.w	r3, r3, lsr #15
  206afe:	78cd      	ldrb	r5, [r1, #3]
  206b00:	708b      	strb	r3, [r1, #2]
  206b02:	1b2b      	subs	r3, r5, r4
  206b04:	2bff      	cmp	r3, #255	; 0xff
  206b06:	bf88      	it	hi
  206b08:	ea6f 33d3 	mvnhi.w	r3, r3, lsr #15
  206b0c:	7a8d      	ldrb	r5, [r1, #10]
  206b0e:	70cb      	strb	r3, [r1, #3]
  206b10:	1b2b      	subs	r3, r5, r4
  206b12:	2bff      	cmp	r3, #255	; 0xff
  206b14:	bf88      	it	hi
  206b16:	ea6f 33d3 	mvnhi.w	r3, r3, lsr #15
  206b1a:	7acd      	ldrb	r5, [r1, #11]
  206b1c:	728b      	strb	r3, [r1, #10]
  206b1e:	1b2b      	subs	r3, r5, r4
  206b20:	7904      	ldrb	r4, [r0, #4]
  206b22:	2bff      	cmp	r3, #255	; 0xff
  206b24:	bf88      	it	hi
  206b26:	ea6f 33d3 	mvnhi.w	r3, r3, lsr #15
  206b2a:	fb04 f50c 	mul.w	r5, r4, ip
  206b2e:	72cb      	strb	r3, [r1, #11]
  206b30:	eb04 2315 	add.w	r3, r4, r5, lsr #8
  206b34:	7915      	ldrb	r5, [r2, #4]
  206b36:	3bb3      	subs	r3, #179	; 0xb3
  206b38:	441d      	add	r5, r3
  206b3a:	2dff      	cmp	r5, #255	; 0xff
  206b3c:	bf88      	it	hi
  206b3e:	ea6f 35d5 	mvnhi.w	r5, r5, lsr #15
  206b42:	7956      	ldrb	r6, [r2, #5]
  206b44:	7115      	strb	r5, [r2, #4]
  206b46:	199d      	adds	r5, r3, r6
  206b48:	2dff      	cmp	r5, #255	; 0xff
  206b4a:	bf88      	it	hi
  206b4c:	ea6f 35d5 	mvnhi.w	r5, r5, lsr #15
  206b50:	7b16      	ldrb	r6, [r2, #12]
  206b52:	7155      	strb	r5, [r2, #5]
  206b54:	199d      	adds	r5, r3, r6
  206b56:	2dff      	cmp	r5, #255	; 0xff
  206b58:	bf88      	it	hi
  206b5a:	ea6f 35d5 	mvnhi.w	r5, r5, lsr #15
  206b5e:	7b56      	ldrb	r6, [r2, #13]
  206b60:	fb04 f40e 	mul.w	r4, r4, lr
  206b64:	4433      	add	r3, r6
  206b66:	7315      	strb	r5, [r2, #12]
  206b68:	2bff      	cmp	r3, #255	; 0xff
  206b6a:	bf88      	it	hi
  206b6c:	ea6f 33d3 	mvnhi.w	r3, r3, lsr #15
  206b70:	eb08 2414 	add.w	r4, r8, r4, lsr #8
  206b74:	790d      	ldrb	r5, [r1, #4]
  206b76:	7353      	strb	r3, [r2, #13]
  206b78:	1b2b      	subs	r3, r5, r4
  206b7a:	2bff      	cmp	r3, #255	; 0xff
  206b7c:	bf88      	it	hi
  206b7e:	ea6f 33d3 	mvnhi.w	r3, r3, lsr #15
  206b82:	794d      	ldrb	r5, [r1, #5]
  206b84:	710b      	strb	r3, [r1, #4]
  206b86:	1b2b      	subs	r3, r5, r4
  206b88:	2bff      	cmp	r3, #255	; 0xff
  206b8a:	bf88      	it	hi
  206b8c:	ea6f 33d3 	mvnhi.w	r3, r3, lsr #15
  206b90:	7b0d      	ldrb	r5, [r1, #12]
  206b92:	714b      	strb	r3, [r1, #5]
  206b94:	1b2b      	subs	r3, r5, r4
  206b96:	2bff      	cmp	r3, #255	; 0xff
  206b98:	bf88      	it	hi
  206b9a:	ea6f 33d3 	mvnhi.w	r3, r3, lsr #15
  206b9e:	7b4d      	ldrb	r5, [r1, #13]
  206ba0:	730b      	strb	r3, [r1, #12]
  206ba2:	1b2b      	subs	r3, r5, r4
  206ba4:	7984      	ldrb	r4, [r0, #6]
  206ba6:	2bff      	cmp	r3, #255	; 0xff
  206ba8:	bf88      	it	hi
  206baa:	ea6f 33d3 	mvnhi.w	r3, r3, lsr #15
  206bae:	fb04 f50c 	mul.w	r5, r4, ip
  206bb2:	734b      	strb	r3, [r1, #13]
  206bb4:	eb04 2315 	add.w	r3, r4, r5, lsr #8
  206bb8:	7995      	ldrb	r5, [r2, #6]
  206bba:	3bb3      	subs	r3, #179	; 0xb3
  206bbc:	441d      	add	r5, r3
  206bbe:	2dff      	cmp	r5, #255	; 0xff
  206bc0:	bf88      	it	hi
  206bc2:	ea6f 35d5 	mvnhi.w	r5, r5, lsr #15
  206bc6:	79d6      	ldrb	r6, [r2, #7]
  206bc8:	7195      	strb	r5, [r2, #6]
  206bca:	199d      	adds	r5, r3, r6
  206bcc:	2dff      	cmp	r5, #255	; 0xff
  206bce:	bf88      	it	hi
  206bd0:	ea6f 35d5 	mvnhi.w	r5, r5, lsr #15
  206bd4:	7b96      	ldrb	r6, [r2, #14]
  206bd6:	71d5      	strb	r5, [r2, #7]
  206bd8:	199d      	adds	r5, r3, r6
  206bda:	2dff      	cmp	r5, #255	; 0xff
  206bdc:	bf88      	it	hi
  206bde:	ea6f 35d5 	mvnhi.w	r5, r5, lsr #15
  206be2:	7bd6      	ldrb	r6, [r2, #15]
  206be4:	fb04 f40e 	mul.w	r4, r4, lr
  206be8:	4433      	add	r3, r6
  206bea:	7395      	strb	r5, [r2, #14]
  206bec:	2bff      	cmp	r3, #255	; 0xff
  206bee:	bf88      	it	hi
  206bf0:	ea6f 33d3 	mvnhi.w	r3, r3, lsr #15
  206bf4:	eb08 2414 	add.w	r4, r8, r4, lsr #8
  206bf8:	798d      	ldrb	r5, [r1, #6]
  206bfa:	73d3      	strb	r3, [r2, #15]
  206bfc:	1b2b      	subs	r3, r5, r4
  206bfe:	2bff      	cmp	r3, #255	; 0xff
  206c00:	bf88      	it	hi
  206c02:	ea6f 33d3 	mvnhi.w	r3, r3, lsr #15
  206c06:	79cd      	ldrb	r5, [r1, #7]
  206c08:	718b      	strb	r3, [r1, #6]
  206c0a:	1b2b      	subs	r3, r5, r4
  206c0c:	2bff      	cmp	r3, #255	; 0xff
  206c0e:	bf88      	it	hi
  206c10:	ea6f 33d3 	mvnhi.w	r3, r3, lsr #15
  206c14:	7b8d      	ldrb	r5, [r1, #14]
  206c16:	71cb      	strb	r3, [r1, #7]
  206c18:	1b2b      	subs	r3, r5, r4
  206c1a:	2bff      	cmp	r3, #255	; 0xff
  206c1c:	bf88      	it	hi
  206c1e:	ea6f 33d3 	mvnhi.w	r3, r3, lsr #15
  206c22:	7bcd      	ldrb	r5, [r1, #15]
  206c24:	738b      	strb	r3, [r1, #14]
  206c26:	1b2b      	subs	r3, r5, r4
  206c28:	2bff      	cmp	r3, #255	; 0xff
  206c2a:	bf88      	it	hi
  206c2c:	ea6f 33d3 	mvnhi.w	r3, r3, lsr #15
  206c30:	f1b9 0f03 	cmp.w	r9, #3
  206c34:	f109 0901 	add.w	r9, r9, #1
  206c38:	73cb      	strb	r3, [r1, #15]
  206c3a:	f4ff aeeb 	bcc.w	206a14 <upsampleCr+0x3c>
  206c3e:	e8bd 87f0 	ldmia.w	sp!, {r4, r5, r6, r7, r8, r9, sl, pc}
	...

00206c44 <upsampleCrH>:
  206c44:	e92d 47f0 	stmdb	sp!, {r4, r5, r6, r7, r8, r9, sl, lr}
  206c48:	f240 42ea 	movw	r2, #1258	; 0x4ea
  206c4c:	f6c2 0220 	movt	r2, #10272	; 0x2820
  206c50:	eb02 0040 	add.w	r0, r2, r0, lsl #1
  206c54:	f1a1 0208 	sub.w	r2, r1, #8
  206c58:	f240 110e 	movw	r1, #270	; 0x10e
  206c5c:	f240 030e 	movw	r3, #14
  206c60:	f6c2 0120 	movt	r1, #10272	; 0x2820
  206c64:	f6c2 0320 	movt	r3, #10272	; 0x2820
  206c68:	3810      	subs	r0, #16
  206c6a:	4411      	add	r1, r2
  206c6c:	441a      	add	r2, r3
  206c6e:	f04f 0900 	mov.w	r9, #0
  206c72:	f04f 0c67 	mov.w	ip, #103	; 0x67
  206c76:	f04f 0eb7 	mov.w	lr, #183	; 0xb7
  206c7a:	f06f 085a 	mvn.w	r8, #90	; 0x5a
  206c7e:	bf00      	nop
  206c80:	f810 6f10 	ldrb.w	r6, [r0, #16]!
  206c84:	f812 7f08 	ldrb.w	r7, [r2, #8]!
  206c88:	fb06 f50c 	mul.w	r5, r6, ip
  206c8c:	eb06 2515 	add.w	r5, r6, r5, lsr #8
  206c90:	fb06 f60e 	mul.w	r6, r6, lr
  206c94:	f1a5 04b3 	sub.w	r4, r5, #179	; 0xb3
  206c98:	19e5      	adds	r5, r4, r7
  206c9a:	2dff      	cmp	r5, #255	; 0xff
  206c9c:	bf88      	it	hi
  206c9e:	ea6f 35d5 	mvnhi.w	r5, r5, lsr #15
  206ca2:	7857      	ldrb	r7, [r2, #1]
  206ca4:	7015      	strb	r5, [r2, #0]
  206ca6:	443c      	add	r4, r7
  206ca8:	7893      	ldrb	r3, [r2, #2]
  206caa:	f892 a003 	ldrb.w	sl, [r2, #3]
  206cae:	2cff      	cmp	r4, #255	; 0xff
  206cb0:	bf88      	it	hi
  206cb2:	ea6f 34d4 	mvnhi.w	r4, r4, lsr #15
  206cb6:	eb08 2616 	add.w	r6, r8, r6, lsr #8
  206cba:	f811 7f08 	ldrb.w	r7, [r1, #8]!
  206cbe:	7054      	strb	r4, [r2, #1]
  206cc0:	1bbc      	subs	r4, r7, r6
  206cc2:	2cff      	cmp	r4, #255	; 0xff
  206cc4:	bf88      	it	hi
  206cc6:	ea6f 34d4 	mvnhi.w	r4, r4, lsr #15
  206cca:	700c      	strb	r4, [r1, #0]
  206ccc:	784c      	ldrb	r4, [r1, #1]
  206cce:	788f      	ldrb	r7, [r1, #2]
  206cd0:	1ba4      	subs	r4, r4, r6
  206cd2:	7886      	ldrb	r6, [r0, #2]
  206cd4:	2cff      	cmp	r4, #255	; 0xff
  206cd6:	bf88      	it	hi
  206cd8:	ea6f 34d4 	mvnhi.w	r4, r4, lsr #15
  206cdc:	fb06 f50c 	mul.w	r5, r6, ip
  206ce0:	704c      	strb	r4, [r1, #1]
  206ce2:	eb06 2415 	add.w	r4, r6, r5, lsr #8
  206ce6:	78cd      	ldrb	r5, [r1, #3]
  206ce8:	3cb3      	subs	r4, #179	; 0xb3
  206cea:	4423      	add	r3, r4
  206cec:	2bff      	cmp	r3, #255	; 0xff
  206cee:	bf88      	it	hi
  206cf0:	ea6f 33d3 	mvnhi.w	r3, r3, lsr #15
  206cf4:	7093      	strb	r3, [r2, #2]
  206cf6:	eb04 030a 	add.w	r3, r4, sl
  206cfa:	fb06 f40e 	mul.w	r4, r6, lr
  206cfe:	2bff      	cmp	r3, #255	; 0xff
  206d00:	bf88      	it	hi
  206d02:	ea6f 33d3 	mvnhi.w	r3, r3, lsr #15
  206d06:	eb08 2414 	add.w	r4, r8, r4, lsr #8
  206d0a:	70d3      	strb	r3, [r2, #3]
  206d0c:	1b3b      	subs	r3, r7, r4
  206d0e:	2bff      	cmp	r3, #255	; 0xff
  206d10:	bf88      	it	hi
  206d12:	ea6f 33d3 	mvnhi.w	r3, r3, lsr #15
  206d16:	708b      	strb	r3, [r1, #2]
  206d18:	1b2b      	subs	r3, r5, r4
  206d1a:	7904      	ldrb	r4, [r0, #4]
  206d1c:	2bff      	cmp	r3, #255	; 0xff
  206d1e:	bf88      	it	hi
  206d20:	ea6f 33d3 	mvnhi.w	r3, r3, lsr #15
  206d24:	fb04 f50c 	mul.w	r5, r4, ip
  206d28:	70cb      	strb	r3, [r1, #3]
  206d2a:	eb04 2315 	add.w	r3, r4, r5, lsr #8
  206d2e:	7915      	ldrb	r5, [r2, #4]
  206d30:	3bb3      	subs	r3, #179	; 0xb3
  206d32:	441d      	add	r5, r3
  206d34:	2dff      	cmp	r5, #255	; 0xff
  206d36:	bf88      	it	hi
  206d38:	ea6f 35d5 	mvnhi.w	r5, r5, lsr #15
  206d3c:	7956      	ldrb	r6, [r2, #5]
  206d3e:	fb04 f40e 	mul.w	r4, r4, lr
  206d42:	4433      	add	r3, r6
  206d44:	7115      	strb	r5, [r2, #4]
  206d46:	2bff      	cmp	r3, #255	; 0xff
  206d48:	bf88      	it	hi
  206d4a:	ea6f 33d3 	mvnhi.w	r3, r3, lsr #15
  206d4e:	eb08 2414 	add.w	r4, r8, r4, lsr #8
  206d52:	790d      	ldrb	r5, [r1, #4]
  206d54:	7153      	strb	r3, [r2, #5]
  206d56:	1b2b      	subs	r3, r5, r4
  206d58:	2bff      	cmp	r3, #255	; 0xff
  206d5a:	bf88      	it	hi
  206d5c:	ea6f 33d3 	mvnhi.w	r3, r3, lsr #15
  206d60:	794d      	ldrb	r5, [r1, #5]
  206d62:	710b      	strb	r3, [r1, #4]
  206d64:	1b2b      	subs	r3, r5, r4
  206d66:	7984      	ldrb	r4, [r0, #6]
  206d68:	2bff      	cmp	r3, #255	; 0xff
  206d6a:	bf88      	it	hi
  206d6c:	ea6f 33d3 	mvnhi.w	r3, r3, lsr #15
  206d70:	fb04 f50c 	mul.w	r5, r4, ip
  206d74:	714b      	strb	r3, [r1, #5]
  206d76:	eb04 2315 	add.w	r3, r4, r5, lsr #8
  206d7a:	7995      	ldrb	r5, [r2, #6]
  206d7c:	3bb3      	subs	r3, #179	; 0xb3
  206d7e:	441d      	add	r5, r3
  206d80:	2dff      	cmp	r5, #255	; 0xff
  206d82:	bf88      	it	hi
  206d84:	ea6f 35d5 	mvnhi.w	r5, r5, lsr #15
  206d88:	79d6      	ldrb	r6, [r2, #7]
  206d8a:	fb04 f40e 	mul.w	r4, r4, lr
  206d8e:	4433      	add	r3, r6
  206d90:	7195      	strb	r5, [r2, #6]
  206d92:	2bff      	cmp	r3, #255	; 0xff
  206d94:	bf88      	it	hi
  206d96:	ea6f 33d3 	mvnhi.w	r3, r3, lsr #15
  206d9a:	eb08 2414 	add.w	r4, r8, r4, lsr #8
  206d9e:	798d      	ldrb	r5, [r1, #6]
  206da0:	71d3      	strb	r3, [r2, #7]
  206da2:	1b2b      	subs	r3, r5, r4
  206da4:	2bff      	cmp	r3, #255	; 0xff
  206da6:	bf88      	it	hi
  206da8:	ea6f 33d3 	mvnhi.w	r3, r3, lsr #15
  206dac:	79cd      	ldrb	r5, [r1, #7]
  206dae:	718b      	strb	r3, [r1, #6]
  206db0:	1b2b      	subs	r3, r5, r4
  206db2:	2bff      	cmp	r3, #255	; 0xff
  206db4:	bf88      	it	hi
  206db6:	ea6f 33d3 	mvnhi.w	r3, r3, lsr #15
  206dba:	f1b9 0f07 	cmp.w	r9, #7
  206dbe:	f109 0901 	add.w	r9, r9, #1
  206dc2:	71cb      	strb	r3, [r1, #7]
  206dc4:	f4ff af5c 	bcc.w	206c80 <upsampleCrH+0x3c>
  206dc8:	e8bd 87f0 	ldmia.w	sp!, {r4, r5, r6, r7, r8, r9, sl, pc}

00206dcc <upsampleCrV>:
  206dcc:	e92d 47f0 	stmdb	sp!, {r4, r5, r6, r7, r8, r9, sl, lr}
  206dd0:	f240 42ea 	movw	r2, #1258	; 0x4ea
  206dd4:	f6c2 0220 	movt	r2, #10272	; 0x2820
  206dd8:	eb02 0040 	add.w	r0, r2, r0, lsl #1
  206ddc:	f1a1 0210 	sub.w	r2, r1, #16
  206de0:	f240 110e 	movw	r1, #270	; 0x10e
  206de4:	f240 030e 	movw	r3, #14
  206de8:	f6c2 0120 	movt	r1, #10272	; 0x2820
  206dec:	f6c2 0320 	movt	r3, #10272	; 0x2820
  206df0:	3810      	subs	r0, #16
  206df2:	4411      	add	r1, r2
  206df4:	441a      	add	r2, r3
  206df6:	f04f 0900 	mov.w	r9, #0
  206dfa:	f04f 0c67 	mov.w	ip, #103	; 0x67
  206dfe:	f04f 0eb7 	mov.w	lr, #183	; 0xb7
  206e02:	f06f 085a 	mvn.w	r8, #90	; 0x5a
  206e06:	bf00      	nop
  206e08:	f810 7f10 	ldrb.w	r7, [r0, #16]!
  206e0c:	f812 6f10 	ldrb.w	r6, [r2, #16]!
  206e10:	fb07 f50c 	mul.w	r5, r7, ip
  206e14:	eb07 2515 	add.w	r5, r7, r5, lsr #8
  206e18:	f1a5 04b3 	sub.w	r4, r5, #179	; 0xb3
  206e1c:	19a5      	adds	r5, r4, r6
  206e1e:	2dff      	cmp	r5, #255	; 0xff
  206e20:	bf88      	it	hi
  206e22:	ea6f 35d5 	mvnhi.w	r5, r5, lsr #15
  206e26:	7a13      	ldrb	r3, [r2, #8]
  206e28:	7015      	strb	r5, [r2, #0]
  206e2a:	4423      	add	r3, r4
  206e2c:	fb07 f40e 	mul.w	r4, r7, lr
  206e30:	7856      	ldrb	r6, [r2, #1]
  206e32:	f892 a009 	ldrb.w	sl, [r2, #9]
  206e36:	2bff      	cmp	r3, #255	; 0xff
  206e38:	bf88      	it	hi
  206e3a:	ea6f 33d3 	mvnhi.w	r3, r3, lsr #15
  206e3e:	eb08 2414 	add.w	r4, r8, r4, lsr #8
  206e42:	f811 7f10 	ldrb.w	r7, [r1, #16]!
  206e46:	7213      	strb	r3, [r2, #8]
  206e48:	1b3b      	subs	r3, r7, r4
  206e4a:	2bff      	cmp	r3, #255	; 0xff
  206e4c:	bf88      	it	hi
  206e4e:	ea6f 33d3 	mvnhi.w	r3, r3, lsr #15
  206e52:	700b      	strb	r3, [r1, #0]
  206e54:	7a0b      	ldrb	r3, [r1, #8]
  206e56:	784f      	ldrb	r7, [r1, #1]
  206e58:	1b1b      	subs	r3, r3, r4
  206e5a:	7884      	ldrb	r4, [r0, #2]
  206e5c:	2bff      	cmp	r3, #255	; 0xff
  206e5e:	bf88      	it	hi
  206e60:	ea6f 33d3 	mvnhi.w	r3, r3, lsr #15
  206e64:	fb04 f50c 	mul.w	r5, r4, ip
  206e68:	720b      	strb	r3, [r1, #8]
  206e6a:	eb04 2315 	add.w	r3, r4, r5, lsr #8
  206e6e:	fb04 f40e 	mul.w	r4, r4, lr
  206e72:	3bb3      	subs	r3, #179	; 0xb3
  206e74:	441e      	add	r6, r3
  206e76:	2eff      	cmp	r6, #255	; 0xff
  206e78:	4453      	add	r3, sl
  206e7a:	eb08 2414 	add.w	r4, r8, r4, lsr #8
  206e7e:	7a4d      	ldrb	r5, [r1, #9]
  206e80:	bf88      	it	hi
  206e82:	ea6f 36d6 	mvnhi.w	r6, r6, lsr #15
  206e86:	7056      	strb	r6, [r2, #1]
  206e88:	2bff      	cmp	r3, #255	; 0xff
  206e8a:	bf88      	it	hi
  206e8c:	ea6f 33d3 	mvnhi.w	r3, r3, lsr #15
  206e90:	7253      	strb	r3, [r2, #9]
  206e92:	1b3b      	subs	r3, r7, r4
  206e94:	2bff      	cmp	r3, #255	; 0xff
  206e96:	bf88      	it	hi
  206e98:	ea6f 33d3 	mvnhi.w	r3, r3, lsr #15
  206e9c:	704b      	strb	r3, [r1, #1]
  206e9e:	1b2b      	subs	r3, r5, r4
  206ea0:	7904      	ldrb	r4, [r0, #4]
  206ea2:	2bff      	cmp	r3, #255	; 0xff
  206ea4:	bf88      	it	hi
  206ea6:	ea6f 33d3 	mvnhi.w	r3, r3, lsr #15
  206eaa:	fb04 f50c 	mul.w	r5, r4, ip
  206eae:	724b      	strb	r3, [r1, #9]
  206eb0:	eb04 2315 	add.w	r3, r4, r5, lsr #8
  206eb4:	7895      	ldrb	r5, [r2, #2]
  206eb6:	3bb3      	subs	r3, #179	; 0xb3
  206eb8:	441d      	add	r5, r3
  206eba:	2dff      	cmp	r5, #255	; 0xff
  206ebc:	bf88      	it	hi
  206ebe:	ea6f 35d5 	mvnhi.w	r5, r5, lsr #15
  206ec2:	7a96      	ldrb	r6, [r2, #10]
  206ec4:	fb04 f40e 	mul.w	r4, r4, lr
  206ec8:	4433      	add	r3, r6
  206eca:	7095      	strb	r5, [r2, #2]
  206ecc:	2bff      	cmp	r3, #255	; 0xff
  206ece:	bf88      	it	hi
  206ed0:	ea6f 33d3 	mvnhi.w	r3, r3, lsr #15
  206ed4:	eb08 2414 	add.w	r4, r8, r4, lsr #8
  206ed8:	788d      	ldrb	r5, [r1, #2]
  206eda:	7293      	strb	r3, [r2, #10]
  206edc:	1b2b      	subs	r3, r5, r4
  206ede:	2bff      	cmp	r3, #255	; 0xff
  206ee0:	bf88      	it	hi
  206ee2:	ea6f 33d3 	mvnhi.w	r3, r3, lsr #15
  206ee6:	7a8d      	ldrb	r5, [r1, #10]
  206ee8:	708b      	strb	r3, [r1, #2]
  206eea:	1b2b      	subs	r3, r5, r4
  206eec:	7984      	ldrb	r4, [r0, #6]
  206eee:	2bff      	cmp	r3, #255	; 0xff
  206ef0:	bf88      	it	hi
  206ef2:	ea6f 33d3 	mvnhi.w	r3, r3, lsr #15
  206ef6:	fb04 f50c 	mul.w	r5, r4, ip
  206efa:	728b      	strb	r3, [r1, #10]
  206efc:	eb04 2315 	add.w	r3, r4, r5, lsr #8
  206f00:	78d5      	ldrb	r5, [r2, #3]
  206f02:	3bb3      	subs	r3, #179	; 0xb3
  206f04:	441d      	add	r5, r3
  206f06:	2dff      	cmp	r5, #255	; 0xff
  206f08:	bf88      	it	hi
  206f0a:	ea6f 35d5 	mvnhi.w	r5, r5, lsr #15
  206f0e:	7ad6      	ldrb	r6, [r2, #11]
  206f10:	fb04 f40e 	mul.w	r4, r4, lr
  206f14:	4433      	add	r3, r6
  206f16:	70d5      	strb	r5, [r2, #3]
  206f18:	2bff      	cmp	r3, #255	; 0xff
  206f1a:	bf88      	it	hi
  206f1c:	ea6f 33d3 	mvnhi.w	r3, r3, lsr #15
  206f20:	eb08 2414 	add.w	r4, r8, r4, lsr #8
  206f24:	78cd      	ldrb	r5, [r1, #3]
  206f26:	72d3      	strb	r3, [r2, #11]
  206f28:	1b2b      	subs	r3, r5, r4
  206f2a:	2bff      	cmp	r3, #255	; 0xff
  206f2c:	bf88      	it	hi
  206f2e:	ea6f 33d3 	mvnhi.w	r3, r3, lsr #15
  206f32:	7acd      	ldrb	r5, [r1, #11]
  206f34:	70cb      	strb	r3, [r1, #3]
  206f36:	1b2b      	subs	r3, r5, r4
  206f38:	7a04      	ldrb	r4, [r0, #8]
  206f3a:	2bff      	cmp	r3, #255	; 0xff
  206f3c:	bf88      	it	hi
  206f3e:	ea6f 33d3 	mvnhi.w	r3, r3, lsr #15
  206f42:	fb04 f50c 	mul.w	r5, r4, ip
  206f46:	72cb      	strb	r3, [r1, #11]
  206f48:	eb04 2315 	add.w	r3, r4, r5, lsr #8
  206f4c:	7915      	ldrb	r5, [r2, #4]
  206f4e:	3bb3      	subs	r3, #179	; 0xb3
  206f50:	441d      	add	r5, r3
  206f52:	2dff      	cmp	r5, #255	; 0xff
  206f54:	bf88      	it	hi
  206f56:	ea6f 35d5 	mvnhi.w	r5, r5, lsr #15
  206f5a:	7b16      	ldrb	r6, [r2, #12]
  206f5c:	fb04 f40e 	mul.w	r4, r4, lr
  206f60:	4433      	add	r3, r6
  206f62:	7115      	strb	r5, [r2, #4]
  206f64:	2bff      	cmp	r3, #255	; 0xff
  206f66:	bf88      	it	hi
  206f68:	ea6f 33d3 	mvnhi.w	r3, r3, lsr #15
  206f6c:	eb08 2414 	add.w	r4, r8, r4, lsr #8
  206f70:	790d      	ldrb	r5, [r1, #4]
  206f72:	7313      	strb	r3, [r2, #12]
  206f74:	1b2b      	subs	r3, r5, r4
  206f76:	2bff      	cmp	r3, #255	; 0xff
  206f78:	bf88      	it	hi
  206f7a:	ea6f 33d3 	mvnhi.w	r3, r3, lsr #15
  206f7e:	7b0d      	ldrb	r5, [r1, #12]
  206f80:	710b      	strb	r3, [r1, #4]
  206f82:	1b2b      	subs	r3, r5, r4
  206f84:	7a84      	ldrb	r4, [r0, #10]
  206f86:	2bff      	cmp	r3, #255	; 0xff
  206f88:	bf88      	it	hi
  206f8a:	ea6f 33d3 	mvnhi.w	r3, r3, lsr #15
  206f8e:	fb04 f50c 	mul.w	r5, r4, ip
  206f92:	730b      	strb	r3, [r1, #12]
  206f94:	eb04 2315 	add.w	r3, r4, r5, lsr #8
  206f98:	7955      	ldrb	r5, [r2, #5]
  206f9a:	3bb3      	subs	r3, #179	; 0xb3
  206f9c:	441d      	add	r5, r3
  206f9e:	2dff      	cmp	r5, #255	; 0xff
  206fa0:	bf88      	it	hi
  206fa2:	ea6f 35d5 	mvnhi.w	r5, r5, lsr #15
  206fa6:	7b56      	ldrb	r6, [r2, #13]
  206fa8:	fb04 f40e 	mul.w	r4, r4, lr
  206fac:	4433      	add	r3, r6
  206fae:	7155      	strb	r5, [r2, #5]
  206fb0:	2bff      	cmp	r3, #255	; 0xff
  206fb2:	bf88      	it	hi
  206fb4:	ea6f 33d3 	mvnhi.w	r3, r3, lsr #15
  206fb8:	eb08 2414 	add.w	r4, r8, r4, lsr #8
  206fbc:	794d      	ldrb	r5, [r1, #5]
  206fbe:	7353      	strb	r3, [r2, #13]
  206fc0:	1b2b      	subs	r3, r5, r4
  206fc2:	2bff      	cmp	r3, #255	; 0xff
  206fc4:	bf88      	it	hi
  206fc6:	ea6f 33d3 	mvnhi.w	r3, r3, lsr #15
  206fca:	7b4d      	ldrb	r5, [r1, #13]
  206fcc:	714b      	strb	r3, [r1, #5]
  206fce:	1b2b      	subs	r3, r5, r4
  206fd0:	7b04      	ldrb	r4, [r0, #12]
  206fd2:	2bff      	cmp	r3, #255	; 0xff
  206fd4:	bf88      	it	hi
  206fd6:	ea6f 33d3 	mvnhi.w	r3, r3, lsr #15
  206fda:	fb04 f50c 	mul.w	r5, r4, ip
  206fde:	734b      	strb	r3, [r1, #13]
  206fe0:	eb04 2315 	add.w	r3, r4, r5, lsr #8
  206fe4:	7995      	ldrb	r5, [r2, #6]
  206fe6:	3bb3      	subs	r3, #179	; 0xb3
  206fe8:	441d      	add	r5, r3
  206fea:	2dff      	cmp	r5, #255	; 0xff
  206fec:	bf88      	it	hi
  206fee:	ea6f 35d5 	mvnhi.w	r5, r5, lsr #15
  206ff2:	7b96      	ldrb	r6, [r2, #14]
  206ff4:	fb04 f40e 	mul.w	r4, r4, lr
  206ff8:	4433      	add	r3, r6
  206ffa:	7195      	strb	r5, [r2, #6]
  206ffc:	2bff      	cmp	r3, #255	; 0xff
  206ffe:	bf88      	it	hi
  207000:	ea6f 33d3 	mvnhi.w	r3, r3, lsr #15
  207004:	eb08 2414 	add.w	r4, r8, r4, lsr #8
  207008:	798d      	ldrb	r5, [r1, #6]
  20700a:	7393      	strb	r3, [r2, #14]
  20700c:	1b2b      	subs	r3, r5, r4
  20700e:	2bff      	cmp	r3, #255	; 0xff
  207010:	bf88      	it	hi
  207012:	ea6f 33d3 	mvnhi.w	r3, r3, lsr #15
  207016:	7b8d      	ldrb	r5, [r1, #14]
  207018:	718b      	strb	r3, [r1, #6]
  20701a:	1b2b      	subs	r3, r5, r4
  20701c:	7b84      	ldrb	r4, [r0, #14]
  20701e:	2bff      	cmp	r3, #255	; 0xff
  207020:	bf88      	it	hi
  207022:	ea6f 33d3 	mvnhi.w	r3, r3, lsr #15
  207026:	fb04 f50c 	mul.w	r5, r4, ip
  20702a:	738b      	strb	r3, [r1, #14]
  20702c:	eb04 2315 	add.w	r3, r4, r5, lsr #8
  207030:	79d5      	ldrb	r5, [r2, #7]
  207032:	3bb3      	subs	r3, #179	; 0xb3
  207034:	441d      	add	r5, r3
  207036:	2dff      	cmp	r5, #255	; 0xff
  207038:	bf88      	it	hi
  20703a:	ea6f 35d5 	mvnhi.w	r5, r5, lsr #15
  20703e:	7bd6      	ldrb	r6, [r2, #15]
  207040:	fb04 f40e 	mul.w	r4, r4, lr
  207044:	4433      	add	r3, r6
  207046:	71d5      	strb	r5, [r2, #7]
  207048:	2bff      	cmp	r3, #255	; 0xff
  20704a:	bf88      	it	hi
  20704c:	ea6f 33d3 	mvnhi.w	r3, r3, lsr #15
  207050:	eb08 2414 	add.w	r4, r8, r4, lsr #8
  207054:	79cd      	ldrb	r5, [r1, #7]
  207056:	73d3      	strb	r3, [r2, #15]
  207058:	1b2b      	subs	r3, r5, r4
  20705a:	2bff      	cmp	r3, #255	; 0xff
  20705c:	bf88      	it	hi
  20705e:	ea6f 33d3 	mvnhi.w	r3, r3, lsr #15
  207062:	7bcd      	ldrb	r5, [r1, #15]
  207064:	71cb      	strb	r3, [r1, #7]
  207066:	1b2b      	subs	r3, r5, r4
  207068:	2bff      	cmp	r3, #255	; 0xff
  20706a:	bf88      	it	hi
  20706c:	ea6f 33d3 	mvnhi.w	r3, r3, lsr #15
  207070:	f1b9 0f03 	cmp.w	r9, #3
  207074:	f109 0901 	add.w	r9, r9, #1
  207078:	73cb      	strb	r3, [r1, #15]
  20707a:	f4ff aec5 	bcc.w	206e08 <upsampleCrV+0x3c>
  20707e:	e8bd 87f0 	ldmia.w	sp!, {r4, r5, r6, r7, r8, r9, sl, pc}
  207082:	f64f 6c11 	movw	ip, #65041	; 0xfe11
  207086:	f2c1 0c1f 	movt	ip, #4127	; 0x101f
  20708a:	4760      	bx	ip
  20708c:	f64f 6c19 	movw	ip, #65049	; 0xfe19
  207090:	f2c1 0c1f 	movt	ip, #4127	; 0x101f
  207094:	4760      	bx	ip

00207096 <_fp_init>:
  207096:	eef1 0a10 	vmrs	r0, fpscr
  20709a:	f64f 71ff 	movw	r1, #65535	; 0xffff
  20709e:	f2c0 31c0 	movt	r1, #960	; 0x3c0
  2070a2:	ea20 0001 	bic.w	r0, r0, r1
  2070a6:	f040 7040 	orr.w	r0, r0, #50331648	; 0x3000000
  2070aa:	eee1 0a10 	vmsr	fpscr, r0

002070ae <__fplib_config_fpu_vfp>:
  2070ae:	4770      	bx	lr

002070b0 <gWinogradQuant>:
  2070b0:	b280 a7b2 a7f6 e897 97e8 d180 d1db 6580     ...............e
  2070c0:	c5b2 b2c5 4565 a78b a7b1 458b 6023 9783     ....eE.....E#`..
  2070d0:	8397 2360 5b31 8076 5b76 2e31 6551 5165     ..`#1[v.v[1.QeeQ
  2070e0:	2a2e 4f45 2a45 3623 2336 251c 131c 0a13     .*EOE*#66#.%....

002070f0 <ZAG>:
  2070f0:	0100 1008 0209 0a03 1811 1920 0b12 0504     .......... .....
  207100:	130c 211a 3028 2229 141b 060d 0e07 1c15     ...!(0)"........
  207110:	2a23 3831 3239 242b 161d 170f 251e 332c     #*1892+$.....%,3
  207120:	3b3a 2d34 1f26 2e27 3c35 363d 372f 3f3e     :;4-&.'.5<=6/7>?

00207130 <.Lswitch.table.pjpeg_decode_mcu>:
  207130:	0001 0002 0004 0008 0010 0020 0040 0080     .......... .@...
  207140:	0100 0200 0400 0800 1000 2000 4000          ........... .@

0020714e <.Lswitch.table.pjpeg_decode_mcu.1>:
  20714e:	ffff fffd fff9 fff1 ffe1 ffc1 ff81 ff01     ................
  20715e:	fe01 fc01 f801 f001 e001 c001 8001          ..............

0020716c <jpeg_data>:
  20716c:	d8ff e0ff 1000 464a 4649 0100 0101 4800     ......JFIF.....H
  20717c:	4800 0000 dbff 4300 5000 3c37 3c46 5032     .H.....C.P7<F<2P
  20718c:	4146 5a46 5055 785f 82c8 6e78 786e aff5     FAFZUP_x..xnnx..
  20719c:	91b9 ffc8 ffff ffff ffff ffff ffff ffff     ................
  2071ac:	ffff ffff ffff ffff ffff ffff ffff ffff     ................
  2071bc:	ffff ffff ffff ffff ffff 00db 0143 5a55     ............C.UZ
  2071cc:	785a 7869 82eb eb82 ffff ffff ffff ffff     Zxix............
  2071dc:	ffff ffff ffff ffff ffff ffff ffff ffff     ................
  2071ec:	ffff ffff ffff ffff ffff ffff ffff ffff     ................
  2071fc:	ffff ffff ffff ffff ffff ffff ffff c0ff     ................
  20720c:	1100 0008 0040 0333 1101 0200 0111 1103     ....@.3.........
  20721c:	ff01 00c4 0018 0300 0101 0000 0000 0000     ................
  20722c:	0000 0000 0000 0201 0003 ff04 00c4 1026     ..............&.
  20723c:	0200 0102 0303 0304 0001 0000 0000 0000     ................
  20724c:	0201 1100 1203 3121 6141 0471 5322 1391     ......!1Aaq."S..
  20725c:	5123 ff62 00c4 0115 0101 0000 0000 0000     #Qb.............
	...
  207274:	0100 c4ff 1400 0111 0000 0000 0000 0000     ................
	...
  20728c:	daff 0c00 0103 0200 0311 0011 003f 88c7     ............?...
  20729c:	280b 664d 02e1 58cf 4505 0088 10a9 0e34     .(Mf...X.E....4.
  2072ac:	6faf 5468 6433 6103 6a02 db49 8449 5059     .ohT3d.a.jI.I.YP
  2072bc:	5091 3da0 80a4 887c d518 0548 4309 ffeb     .P.=..|...H..C..
  2072cc:	2b00 02f5 d478 ac1c 1048 b58e a855 a50c     .+..x...H...U...
  2072dc:	db2f 2a52 5319 82f6 a104 450e 84f8 ad0d     /.R*.S.....E....
  2072ec:	217e d020 0430 5c93 4399 c6e2 2057 d7d4     ~! .0..\.C..W ..
  2072fc:	207d e13a f640 f149 a320 178b 09c5 2647     } :.@.I. .....G&
  20730c:	0535 1eb5 7520 9502 fac0 cf81 0c52 0d6c     5... u......R.l.
  20731c:	25a0 ddbd f3d1 282a b043 0e04 dc3a b229     .%....*(C...:.).
  20732c:	f813 116a 5325 a922 e07d a82e c106 a0da     ..j.%S".}.......
  20733c:	2129 304d 2a35 b928 8517 1506 9750 d88c     )!M05*(.....P...
  20734c:	20ef 01e5 d3f9 a152 0eb5 14b0 3990 2832     . ....R......92(
  20735c:	60e2 17d9 a2cc b1d9 3502 1e58 0c60 9558     .`.......5X.`.X.
  20736c:	a606 f820 3b90 4167 b3b0 4f02 559c 8e40     .. ..;gA...O.U@.
  20737c:	feb5 5109 d712 fd01 113b 7b99 5598 4b7d     ...Q....;..{.U}K
  20738c:	64bb ec00 04bd 4505 3662 3bb2 1b42 1c2a     .d.....Eb6.;B.*.
  20739c:	7440 11b8 0006 1fb8 d9ff 0000               @t..........

002073a8 <Region$$Table$$Base>:
  2073a8:	002073b8 	.word	0x002073b8
  2073ac:	28200000 	.word	0x28200000
  2073b0:	0000092c 	.word	0x0000092c
  2073b4:	0020043c 	.word	0x0020043c
