
../../Example/out/eval/O3/elf_ns/picojpeg.axf:     file format elf32-littlearm


Disassembly of section ER_ROM:

00200000 <__Vectors>:
  200000:	00 00 40 28 9d 05 20 00 95 05 20 00 99 05 20 00     ..@(.. ... ... .
  200010:	95 05 20 00 95 05 20 00 95 05 20 00 95 05 20 00     .. ... ... ... .
	...
  20002c:	95 05 20 00 95 05 20 00 00 00 00 00 95 05 20 00     .. ... ....... .
  20003c:	95 05 20 00 95 05 20 00 95 05 20 00 95 05 20 00     .. ... ... ... .
  20004c:	95 05 20 00 95 05 20 00 95 05 20 00 00 00 00 00     .. ... ... .....
	...
  200064:	95 05 20 00 95 05 20 00 95 05 20 00 95 05 20 00     .. ... ... ... .
	...
  2000c0:	95 05 20 00 95 05 20 00 95 05 20 00 95 05 20 00     .. ... ... ... .
  2000d0:	95 05 20 00 95 05 20 00 95 05 20 00 95 05 20 00     .. ... ... ... .
  2000e0:	95 05 20 00 95 05 20 00 95 05 20 00 95 05 20 00     .. ... ... ... .
  2000f0:	95 05 20 00 95 05 20 00 95 05 20 00 95 05 20 00     .. ... ... ... .
  200100:	95 05 20 00 95 05 20 00 95 05 20 00 95 05 20 00     .. ... ... ... .
  200110:	95 05 20 00 95 05 20 00 95 05 20 00 95 05 20 00     .. ... ... ... .
  200120:	95 05 20 00 95 05 20 00 95 05 20 00 95 05 20 00     .. ... ... ... .
  200130:	95 05 20 00 95 05 20 00 95 05 20 00 95 05 20 00     .. ... ... ... .
  200140:	95 05 20 00 95 05 20 00 95 05 20 00 95 05 20 00     .. ... ... ... .
  200150:	95 05 20 00 95 05 20 00 95 05 20 00 95 05 20 00     .. ... ... ... .
  200160:	95 05 20 00 95 05 20 00 95 05 20 00 95 05 20 00     .. ... ... ... .
  200170:	95 05 20 00 95 05 20 00 95 05 20 00 95 05 20 00     .. ... ... ... .
  200180:	95 05 20 00 95 05 20 00 95 05 20 00 95 05 20 00     .. ... ... ... .
  200190:	95 05 20 00 95 05 20 00 95 05 20 00 95 05 20 00     .. ... ... ... .
  2001a0:	95 05 20 00 95 05 20 00 95 05 20 00 95 05 20 00     .. ... ... ... .
  2001b0:	95 05 20 00 95 05 20 00 95 05 20 00 95 05 20 00     .. ... ... ... .
  2001c0:	95 05 20 00 95 05 20 00 95 05 20 00 95 05 20 00     .. ... ... ... .
  2001d0:	95 05 20 00 95 05 20 00 95 05 20 00 95 05 20 00     .. ... ... ... .
  2001e0:	95 05 20 00 95 05 20 00 95 05 20 00 95 05 20 00     .. ... ... ... .
  2001f0:	95 05 20 00 95 05 20 00 95 05 20 00 95 05 20 00     .. ... ... ... .
  200200:	95 05 20 00 95 05 20 00 95 05 20 00 95 05 20 00     .. ... ... ... .
  200210:	95 05 20 00 95 05 20 00 95 05 20 00 95 05 20 00     .. ... ... ... .
  200220:	95 05 20 00 95 05 20 00 95 05 20 00 95 05 20 00     .. ... ... ... .
	...

00200400 <__main>:
  200400:	f000 f802 	bl	200408 <__scatterload_rt2>
  200404:	f000 f82e 	bl	200464 <__rt_entry>

00200408 <__scatterload_rt2>:
  200408:	a00a      	add	r0, pc, #40	; (adr r0, 200434 <__scatterload_null+0x1e>)
  20040a:	e890 0c00 	ldmia.w	r0, {sl, fp}
  20040e:	4482      	add	sl, r0
  200410:	4483      	add	fp, r0
  200412:	f1aa 0701 	sub.w	r7, sl, #1

00200416 <__scatterload_null>:
  200416:	45da      	cmp	sl, fp
  200418:	d101      	bne.n	20041e <__scatterload_null+0x8>
  20041a:	f000 f823 	bl	200464 <__rt_entry>
  20041e:	f2af 0e09 	subw	lr, pc, #9
  200422:	e8ba 000f 	ldmia.w	sl!, {r0, r1, r2, r3}
  200426:	f013 0f01 	tst.w	r3, #1
  20042a:	bf18      	it	ne
  20042c:	1afb      	subne	r3, r7, r3
  20042e:	f043 0301 	orr.w	r3, r3, #1
  200432:	4718      	bx	r3
  200434:	00006f74 	.word	0x00006f74
  200438:	00006f84 	.word	0x00006f84

0020043c <__scatterload_zeroinit>:
  20043c:	2300      	movs	r3, #0
  20043e:	2400      	movs	r4, #0
  200440:	2500      	movs	r5, #0
  200442:	2600      	movs	r6, #0
  200444:	3a10      	subs	r2, #16
  200446:	bf28      	it	cs
  200448:	c178      	stmiacs	r1!, {r3, r4, r5, r6}
  20044a:	d8fb      	bhi.n	200444 <__scatterload_zeroinit+0x8>
  20044c:	0752      	lsls	r2, r2, #29
  20044e:	bf28      	it	cs
  200450:	c130      	stmiacs	r1!, {r4, r5}
  200452:	bf48      	it	mi
  200454:	600b      	strmi	r3, [r1, #0]
  200456:	4770      	bx	lr

00200458 <__rt_lib_init>:
  200458:	b51f      	push	{r0, r1, r2, r3, r4, lr}

0020045a <__rt_lib_init_fp_1>:
  20045a:	f006 fe1c 	bl	207096 <_fp_init>

0020045e <__rt_lib_init_alloca_1>:
  20045e:	bd1f      	pop	{r0, r1, r2, r3, r4, pc}

00200460 <__rt_lib_shutdown>:
  200460:	b510      	push	{r4, lr}

00200462 <__rt_lib_shutdown_cpp_1>:
  200462:	bd10      	pop	{r4, pc}

00200464 <__rt_entry>:
  200464:	f8df d00c 	ldr.w	sp, [pc, #12]	; 200474 <__lit__00000000>

00200468 <__rt_entry_li>:
  200468:	f7ff fff6 	bl	200458 <__rt_lib_init>

0020046c <__rt_entry_main>:
  20046c:	f003 ff34 	bl	2042d8 <main>
  200470:	f000 f808 	bl	200484 <exit>

00200474 <__lit__00000000>:
  200474:	0000 2840                                   ..@(

00200478 <__rt_exit>:
  200478:	b403      	push	{r0, r1}

0020047a <__rt_exit_ls>:
  20047a:	f7ff fff1 	bl	200460 <__rt_lib_shutdown>

0020047e <__rt_exit_exit>:
  20047e:	bc03      	pop	{r0, r1}
  200480:	f000 f80a 	bl	200498 <_sys_exit>

00200484 <exit>:
  200484:	b510      	push	{r4, lr}
  200486:	4604      	mov	r4, r0
  200488:	f3af 8000 	nop.w
  20048c:	4620      	mov	r0, r4
  20048e:	e8bd 4010 	ldmia.w	sp!, {r4, lr}
  200492:	f7ff bff1 	b.w	200478 <__rt_exit>

00200496 <__use_no_semihosting_swi>:
  200496:	4770      	bx	lr

00200498 <_sys_exit>:
  200498:	4901      	ldr	r1, [pc, #4]	; (2004a0 <_sys_exit+0x8>)
  20049a:	2018      	movs	r0, #24
  20049c:	beab      	bkpt	0x00ab
  20049e:	e7fe      	b.n	20049e <_sys_exit+0x6>
  2004a0:	00020026 	.word	0x00020026

002004a4 <__rt_memcpy>:
  2004a4:	2a03      	cmp	r2, #3
  2004a6:	f240 8030 	bls.w	20050a <_memcpy_lastbytes>
  2004aa:	f010 0c03 	ands.w	ip, r0, #3
  2004ae:	f000 8015 	beq.w	2004dc <__rt_memcpy+0x38>
  2004b2:	f811 3b01 	ldrb.w	r3, [r1], #1
  2004b6:	f1bc 0f02 	cmp.w	ip, #2
  2004ba:	4462      	add	r2, ip
  2004bc:	bf98      	it	ls
  2004be:	f811 cb01 	ldrbls.w	ip, [r1], #1
  2004c2:	f800 3b01 	strb.w	r3, [r0], #1
  2004c6:	bf38      	it	cc
  2004c8:	f811 3b01 	ldrbcc.w	r3, [r1], #1
  2004cc:	f1a2 0204 	sub.w	r2, r2, #4
  2004d0:	bf98      	it	ls
  2004d2:	f800 cb01 	strbls.w	ip, [r0], #1
  2004d6:	bf38      	it	cc
  2004d8:	f800 3b01 	strbcc.w	r3, [r0], #1
  2004dc:	f011 0303 	ands.w	r3, r1, #3
  2004e0:	f000 8025 	beq.w	20052e <__rt_memcpy_w>
  2004e4:	3a08      	subs	r2, #8
  2004e6:	f0c0 8008 	bcc.w	2004fa <__rt_memcpy+0x56>
  2004ea:	f851 3b04 	ldr.w	r3, [r1], #4
  2004ee:	3a08      	subs	r2, #8
  2004f0:	f851 cb04 	ldr.w	ip, [r1], #4
  2004f4:	e8a0 1008 	stmia.w	r0!, {r3, ip}
  2004f8:	e7f5      	b.n	2004e6 <__rt_memcpy+0x42>
  2004fa:	1d12      	adds	r2, r2, #4
  2004fc:	bf5c      	itt	pl
  2004fe:	f851 3b04 	ldrpl.w	r3, [r1], #4
  200502:	f840 3b04 	strpl.w	r3, [r0], #4
  200506:	f3af 8000 	nop.w

0020050a <_memcpy_lastbytes>:
  20050a:	07d2      	lsls	r2, r2, #31
  20050c:	bf24      	itt	cs
  20050e:	f811 3b01 	ldrbcs.w	r3, [r1], #1
  200512:	f811 cb01 	ldrbcs.w	ip, [r1], #1
  200516:	bf48      	it	mi
  200518:	f811 2b01 	ldrbmi.w	r2, [r1], #1
  20051c:	bf24      	itt	cs
  20051e:	f800 3b01 	strbcs.w	r3, [r0], #1
  200522:	f800 cb01 	strbcs.w	ip, [r0], #1
  200526:	bf48      	it	mi
  200528:	f800 2b01 	strbmi.w	r2, [r0], #1
  20052c:	4770      	bx	lr

0020052e <__rt_memcpy_w>:
  20052e:	b510      	push	{r4, lr}
  200530:	3a20      	subs	r2, #32
  200532:	f0c0 800b 	bcc.w	20054c <__rt_memcpy_w+0x1e>
  200536:	e8b1 5018 	ldmia.w	r1!, {r3, r4, ip, lr}
  20053a:	e8a0 5018 	stmia.w	r0!, {r3, r4, ip, lr}
  20053e:	e8b1 5018 	ldmia.w	r1!, {r3, r4, ip, lr}
  200542:	e8a0 5018 	stmia.w	r0!, {r3, r4, ip, lr}
  200546:	3a20      	subs	r2, #32
  200548:	f4bf aff5 	bcs.w	200536 <__rt_memcpy_w+0x8>
  20054c:	ea5f 7c02 	movs.w	ip, r2, lsl #28
  200550:	bf24      	itt	cs
  200552:	e8b1 5018 	ldmiacs.w	r1!, {r3, r4, ip, lr}
  200556:	e8a0 5018 	stmiacs.w	r0!, {r3, r4, ip, lr}
  20055a:	bf44      	itt	mi
  20055c:	c918      	ldmiami	r1!, {r3, r4}
  20055e:	c018      	stmiami	r0!, {r3, r4}
  200560:	e8bd 4010 	ldmia.w	sp!, {r4, lr}
  200564:	ea5f 7c82 	movs.w	ip, r2, lsl #30
  200568:	bf24      	itt	cs
  20056a:	f851 3b04 	ldrcs.w	r3, [r1], #4
  20056e:	f840 3b04 	strcs.w	r3, [r0], #4
  200572:	bf08      	it	eq
  200574:	4770      	bxeq	lr

00200576 <_memcpy_lastbytes_aligned>:
  200576:	07d2      	lsls	r2, r2, #31
  200578:	bf28      	it	cs
  20057a:	f831 3b02 	ldrhcs.w	r3, [r1], #2
  20057e:	bf48      	it	mi
  200580:	f811 2b01 	ldrbmi.w	r2, [r1], #1
  200584:	bf28      	it	cs
  200586:	f820 3b02 	strhcs.w	r3, [r0], #2
  20058a:	bf48      	it	mi
  20058c:	f800 2b01 	strbmi.w	r2, [r0], #1
  200590:	4770      	bx	lr
	...

00200594 <Default_Handler>:
  200594:	e7fe      	b.n	200594 <Default_Handler>
	...

00200598 <HardFault_Handler>:
  200598:	e7fe      	b.n	200598 <HardFault_Handler>
	...

0020059c <Reset_Handler>:
  20059c:	f240 0000 	movw	r0, #0
  2005a0:	f6c2 0040 	movt	r0, #10304	; 0x2840
  2005a4:	f380 8809 	msr	PSP, r0
  2005a8:	f240 0000 	movw	r0, #0
  2005ac:	f64e 5288 	movw	r2, #60808	; 0xed88
  2005b0:	f64f 4100 	movw	r1, #64512	; 0xfc00
  2005b4:	f2c0 0020 	movt	r0, #32
  2005b8:	f2ce 0200 	movt	r2, #57344	; 0xe000
  2005bc:	f6c2 013f 	movt	r1, #10303	; 0x283f
  2005c0:	f381 880a 	msr	MSPLIM, r1
  2005c4:	f381 880b 	msr	PSPLIM, r1
  2005c8:	f842 0c80 	str.w	r0, [r2, #-128]
  2005cc:	6810      	ldr	r0, [r2, #0]
  2005ce:	f440 0070 	orr.w	r0, r0, #15728640	; 0xf00000
  2005d2:	6010      	str	r0, [r2, #0]
  2005d4:	f7ff ff14 	bl	200400 <__main>

002005d8 <benchmark_picojpeg>:
  2005d8:	e92d 4ff0 	stmdb	sp!, {r4, r5, r6, r7, r8, r9, sl, fp, lr}
  2005dc:	b08b      	sub	sp, #44	; 0x2c
  2005de:	f240 0102 	movw	r1, #2
  2005e2:	f6c2 0120 	movt	r1, #10272	; 0x2820
  2005e6:	2000      	movs	r0, #0
  2005e8:	8008      	strh	r0, [r1, #0]
  2005ea:	f240 0104 	movw	r1, #4
  2005ee:	f6c2 0120 	movt	r1, #10272	; 0x2820
  2005f2:	8008      	strh	r0, [r1, #0]
  2005f4:	f240 0106 	movw	r1, #6
  2005f8:	f6c2 0120 	movt	r1, #10272	; 0x2820
  2005fc:	7008      	strb	r0, [r1, #0]
  2005fe:	f240 3112 	movw	r1, #786	; 0x312
  200602:	f6c2 0120 	movt	r1, #10272	; 0x2820
  200606:	8008      	strh	r0, [r1, #0]
  200608:	f640 1118 	movw	r1, #2328	; 0x918
  20060c:	f6c2 0120 	movt	r1, #10272	; 0x2820
  200610:	7008      	strb	r0, [r1, #0]
  200612:	f640 1119 	movw	r1, #2329	; 0x919
  200616:	f6c2 0120 	movt	r1, #10272	; 0x2820
  20061a:	7008      	strb	r0, [r1, #0]
  20061c:	f640 111a 	movw	r1, #2330	; 0x91a
  200620:	f6c2 0120 	movt	r1, #10272	; 0x2820
  200624:	7008      	strb	r0, [r1, #0]
  200626:	f640 0112 	movw	r1, #2066	; 0x812
  20062a:	f640 0510 	movw	r5, #2064	; 0x810
  20062e:	f6c2 0120 	movt	r1, #10272	; 0x2820
  200632:	f6c2 0520 	movt	r5, #10272	; 0x2820
  200636:	f640 1614 	movw	r6, #2324	; 0x914
  20063a:	f640 0714 	movw	r7, #2068	; 0x814
  20063e:	7008      	strb	r0, [r1, #0]
  200640:	7028      	strb	r0, [r5, #0]
  200642:	f6c2 0620 	movt	r6, #10272	; 0x2820
  200646:	2004      	movs	r0, #4
  200648:	f6c2 0720 	movt	r7, #10272	; 0x2820
  20064c:	f247 116c 	movw	r1, #29036	; 0x716c
  200650:	7030      	strb	r0, [r6, #0]
  200652:	1d38      	adds	r0, r7, #4
  200654:	f2c0 0120 	movt	r1, #32
  200658:	22fc      	movs	r2, #252	; 0xfc
  20065a:	9007      	str	r0, [sp, #28]
  20065c:	24fc      	movs	r4, #252	; 0xfc
  20065e:	f7ff ff66 	bl	20052e <__rt_memcpy_w>
  200662:	f640 1028 	movw	r0, #2344	; 0x928
  200666:	f6c2 0020 	movt	r0, #10272	; 0x2820
  20066a:	f640 0111 	movw	r1, #2065	; 0x811
  20066e:	6004      	str	r4, [r0, #0]
  200670:	f6c2 0120 	movt	r1, #10272	; 0x2820
  200674:	20fb      	movs	r0, #251	; 0xfb
  200676:	7008      	strb	r0, [r1, #0]
  200678:	2005      	movs	r0, #5
  20067a:	7030      	strb	r0, [r6, #0]
  20067c:	20f9      	movs	r0, #249	; 0xf9
  20067e:	7008      	strb	r0, [r1, #0]
  200680:	79b9      	ldrb	r1, [r7, #6]
  200682:	2007      	movs	r0, #7
  200684:	f640 1216 	movw	r2, #2326	; 0x916
  200688:	7030      	strb	r0, [r6, #0]
  20068a:	f6c2 0220 	movt	r2, #10272	; 0x2820
  20068e:	0208      	lsls	r0, r1, #8
  200690:	8010      	strh	r0, [r2, #0]
  200692:	f10d 002a 	add.w	r0, sp, #42	; 0x2a
  200696:	f003 fe71 	bl	20437c <processMarkers>
  20069a:	46ac      	mov	ip, r5
  20069c:	2800      	cmp	r0, #0
  20069e:	f040 85b6 	bne.w	20120e <benchmark_picojpeg+0xc36>
  2006a2:	f89d 002a 	ldrb.w	r0, [sp, #42]	; 0x2a
  2006a6:	28c0      	cmp	r0, #192	; 0xc0
  2006a8:	f040 85b1 	bne.w	20120e <benchmark_picojpeg+0xc36>
  2006ac:	f640 1016 	movw	r0, #2326	; 0x916
  2006b0:	f640 0311 	movw	r3, #2065	; 0x811
  2006b4:	f6c2 0020 	movt	r0, #10272	; 0x2820
  2006b8:	f6c2 0320 	movt	r3, #10272	; 0x2820
  2006bc:	8804      	ldrh	r4, [r0, #0]
  2006be:	781e      	ldrb	r6, [r3, #0]
  2006c0:	f89c b000 	ldrb.w	fp, [ip]
  2006c4:	fa04 f90b 	lsl.w	r9, r4, fp
  2006c8:	b12e      	cbz	r6, 2006d6 <benchmark_picojpeg+0xfe>
  2006ca:	f640 1214 	movw	r2, #2324	; 0x914
  2006ce:	f6c2 0220 	movt	r2, #10272	; 0x2820
  2006d2:	7815      	ldrb	r5, [r2, #0]
  2006d4:	e02d      	b.n	200732 <benchmark_picojpeg+0x15a>
  2006d6:	f640 1828 	movw	r8, #2344	; 0x928
  2006da:	f640 1014 	movw	r0, #2324	; 0x914
  2006de:	f6c2 0820 	movt	r8, #10272	; 0x2820
  2006e2:	2504      	movs	r5, #4
  2006e4:	f6c2 0020 	movt	r0, #10272	; 0x2820
  2006e8:	f8d8 7000 	ldr.w	r7, [r8]
  2006ec:	7005      	strb	r5, [r0, #0]
  2006ee:	f240 203a 	movw	r0, #570	; 0x23a
  2006f2:	1bc6      	subs	r6, r0, r7
  2006f4:	f247 106c 	movw	r0, #29036	; 0x716c
  2006f8:	f2c0 0020 	movt	r0, #32
  2006fc:	2efc      	cmp	r6, #252	; 0xfc
  2006fe:	bf28      	it	cs
  200700:	26fc      	movcs	r6, #252	; 0xfc
  200702:	19c1      	adds	r1, r0, r7
  200704:	9807      	ldr	r0, [sp, #28]
  200706:	4632      	mov	r2, r6
  200708:	f7ff fecc 	bl	2004a4 <__rt_memcpy>
  20070c:	f640 0311 	movw	r3, #2065	; 0x811
  200710:	f6c2 0320 	movt	r3, #10272	; 0x2820
  200714:	19b8      	adds	r0, r7, r6
  200716:	0631      	lsls	r1, r6, #24
  200718:	701e      	strb	r6, [r3, #0]
  20071a:	f8c8 0000 	str.w	r0, [r8]
  20071e:	f000 8219 	beq.w	200b54 <benchmark_picojpeg+0x57c>
  200722:	f640 0c10 	movw	ip, #2064	; 0x810
  200726:	f640 1214 	movw	r2, #2324	; 0x914
  20072a:	f6c2 0c20 	movt	ip, #10272	; 0x2820
  20072e:	f6c2 0220 	movt	r2, #10272	; 0x2820
  200732:	f640 0014 	movw	r0, #2068	; 0x814
  200736:	f6c2 0020 	movt	r0, #10272	; 0x2820
  20073a:	3e01      	subs	r6, #1
  20073c:	1c6f      	adds	r7, r5, #1
  20073e:	5d40      	ldrb	r0, [r0, r5]
  200740:	701e      	strb	r6, [r3, #0]
  200742:	7017      	strb	r7, [r2, #0]
  200744:	fa1f f189 	uxth.w	r1, r9
  200748:	b2c0      	uxtb	r0, r0
  20074a:	f1cb 0508 	rsb	r5, fp, #8
  20074e:	4308      	orrs	r0, r1
  200750:	f1bb 0f07 	cmp.w	fp, #7
  200754:	fa00 f105 	lsl.w	r1, r0, r5
  200758:	e9cd 1408 	strd	r1, r4, [sp, #32]
  20075c:	d848      	bhi.n	2007f0 <benchmark_picojpeg+0x218>
  20075e:	0630      	lsls	r0, r6, #24
  200760:	f640 1016 	movw	r0, #2326	; 0x916
  200764:	fa01 f90b 	lsl.w	r9, r1, fp
  200768:	f6c2 0020 	movt	r0, #10272	; 0x2820
  20076c:	f8a0 9000 	strh.w	r9, [r0]
  200770:	d129      	bne.n	2007c6 <benchmark_picojpeg+0x1ee>
  200772:	f640 1828 	movw	r8, #2344	; 0x928
  200776:	f6c2 0820 	movt	r8, #10272	; 0x2820
  20077a:	f8d8 4000 	ldr.w	r4, [r8]
  20077e:	f240 203a 	movw	r0, #570	; 0x23a
  200782:	1b06      	subs	r6, r0, r4
  200784:	f247 106c 	movw	r0, #29036	; 0x716c
  200788:	2704      	movs	r7, #4
  20078a:	f2c0 0020 	movt	r0, #32
  20078e:	7017      	strb	r7, [r2, #0]
  200790:	2efc      	cmp	r6, #252	; 0xfc
  200792:	bf28      	it	cs
  200794:	26fc      	movcs	r6, #252	; 0xfc
  200796:	1901      	adds	r1, r0, r4
  200798:	9807      	ldr	r0, [sp, #28]
  20079a:	4632      	mov	r2, r6
  20079c:	f7ff fe82 	bl	2004a4 <__rt_memcpy>
  2007a0:	f640 0311 	movw	r3, #2065	; 0x811
  2007a4:	f6c2 0320 	movt	r3, #10272	; 0x2820
  2007a8:	19a0      	adds	r0, r4, r6
  2007aa:	0631      	lsls	r1, r6, #24
  2007ac:	701e      	strb	r6, [r3, #0]
  2007ae:	f8c8 0000 	str.w	r0, [r8]
  2007b2:	f000 8268 	beq.w	200c86 <benchmark_picojpeg+0x6ae>
  2007b6:	f640 0c10 	movw	ip, #2064	; 0x810
  2007ba:	f640 1214 	movw	r2, #2324	; 0x914
  2007be:	f6c2 0c20 	movt	ip, #10272	; 0x2820
  2007c2:	f6c2 0220 	movt	r2, #10272	; 0x2820
  2007c6:	3e01      	subs	r6, #1
  2007c8:	701e      	strb	r6, [r3, #0]
  2007ca:	f640 0314 	movw	r3, #2068	; 0x814
  2007ce:	b2f9      	uxtb	r1, r7
  2007d0:	f6c2 0320 	movt	r3, #10272	; 0x2820
  2007d4:	1c78      	adds	r0, r7, #1
  2007d6:	5c59      	ldrb	r1, [r3, r1]
  2007d8:	f640 0311 	movw	r3, #2065	; 0x811
  2007dc:	f6c2 0320 	movt	r3, #10272	; 0x2820
  2007e0:	7010      	strb	r0, [r2, #0]
  2007e2:	b2c9      	uxtb	r1, r1
  2007e4:	ea41 0109 	orr.w	r1, r1, r9
  2007e8:	fa01 fa05 	lsl.w	sl, r1, r5
  2007ec:	4607      	mov	r7, r0
  2007ee:	e009      	b.n	200804 <benchmark_picojpeg+0x22c>
  2007f0:	f1ab 0b08 	sub.w	fp, fp, #8
  2007f4:	fa5f f08b 	uxtb.w	r0, fp
  2007f8:	2807      	cmp	r0, #7
  2007fa:	ea4f 2a01 	mov.w	sl, r1, lsl #8
  2007fe:	f88c b000 	strb.w	fp, [ip]
  200802:	d843      	bhi.n	20088c <benchmark_picojpeg+0x2b4>
  200804:	fa1f f08a 	uxth.w	r0, sl
  200808:	fa5f f48b 	uxtb.w	r4, fp
  20080c:	0631      	lsls	r1, r6, #24
  20080e:	fa00 f904 	lsl.w	r9, r0, r4
  200812:	d129      	bne.n	200868 <benchmark_picojpeg+0x290>
  200814:	f640 1828 	movw	r8, #2344	; 0x928
  200818:	f6c2 0820 	movt	r8, #10272	; 0x2820
  20081c:	f8d8 5000 	ldr.w	r5, [r8]
  200820:	f240 203a 	movw	r0, #570	; 0x23a
  200824:	1b46      	subs	r6, r0, r5
  200826:	f247 106c 	movw	r0, #29036	; 0x716c
  20082a:	2704      	movs	r7, #4
  20082c:	f2c0 0020 	movt	r0, #32
  200830:	7017      	strb	r7, [r2, #0]
  200832:	2efc      	cmp	r6, #252	; 0xfc
  200834:	bf28      	it	cs
  200836:	26fc      	movcs	r6, #252	; 0xfc
  200838:	1941      	adds	r1, r0, r5
  20083a:	9807      	ldr	r0, [sp, #28]
  20083c:	4632      	mov	r2, r6
  20083e:	f7ff fe31 	bl	2004a4 <__rt_memcpy>
  200842:	f640 0311 	movw	r3, #2065	; 0x811
  200846:	f6c2 0320 	movt	r3, #10272	; 0x2820
  20084a:	19a8      	adds	r0, r5, r6
  20084c:	0631      	lsls	r1, r6, #24
  20084e:	701e      	strb	r6, [r3, #0]
  200850:	f8c8 0000 	str.w	r0, [r8]
  200854:	f000 8203 	beq.w	200c5e <benchmark_picojpeg+0x686>
  200858:	f640 0c10 	movw	ip, #2064	; 0x810
  20085c:	f640 1214 	movw	r2, #2324	; 0x914
  200860:	f6c2 0c20 	movt	ip, #10272	; 0x2820
  200864:	f6c2 0220 	movt	r2, #10272	; 0x2820
  200868:	3e01      	subs	r6, #1
  20086a:	701e      	strb	r6, [r3, #0]
  20086c:	f640 0314 	movw	r3, #2068	; 0x814
  200870:	b2f8      	uxtb	r0, r7
  200872:	f6c2 0320 	movt	r3, #10272	; 0x2820
  200876:	1c79      	adds	r1, r7, #1
  200878:	5c18      	ldrb	r0, [r3, r0]
  20087a:	7011      	strb	r1, [r2, #0]
  20087c:	b2c0      	uxtb	r0, r0
  20087e:	f1c4 0208 	rsb	r2, r4, #8
  200882:	ea40 0009 	orr.w	r0, r0, r9
  200886:	4090      	lsls	r0, r2
  200888:	460f      	mov	r7, r1
  20088a:	e005      	b.n	200898 <benchmark_picojpeg+0x2c0>
  20088c:	f1ab 0b08 	sub.w	fp, fp, #8
  200890:	ea4f 200a 	mov.w	r0, sl, lsl #8
  200894:	f88c b000 	strb.w	fp, [ip]
  200898:	f40a 417f 	and.w	r1, sl, #65280	; 0xff00
  20089c:	f5b1 6f00 	cmp.w	r1, #2048	; 0x800
  2008a0:	f640 1116 	movw	r1, #2326	; 0x916
  2008a4:	f6c2 0120 	movt	r1, #10272	; 0x2820
  2008a8:	8008      	strh	r0, [r1, #0]
  2008aa:	f040 84b0 	bne.w	20120e <benchmark_picojpeg+0xc36>
  2008ae:	fa1f f980 	uxth.w	r9, r0
  2008b2:	0630      	lsls	r0, r6, #24
  2008b4:	fa5f f48b 	uxtb.w	r4, fp
  2008b8:	f640 1016 	movw	r0, #2326	; 0x916
  2008bc:	f640 1214 	movw	r2, #2324	; 0x914
  2008c0:	fa09 f804 	lsl.w	r8, r9, r4
  2008c4:	f6c2 0020 	movt	r0, #10272	; 0x2820
  2008c8:	f6c2 0220 	movt	r2, #10272	; 0x2820
  2008cc:	f8a0 8000 	strh.w	r8, [r0]
  2008d0:	d129      	bne.n	200926 <benchmark_picojpeg+0x34e>
  2008d2:	f640 1a28 	movw	sl, #2344	; 0x928
  2008d6:	f6c2 0a20 	movt	sl, #10272	; 0x2820
  2008da:	f8da 5000 	ldr.w	r5, [sl]
  2008de:	f240 203a 	movw	r0, #570	; 0x23a
  2008e2:	1b46      	subs	r6, r0, r5
  2008e4:	f247 106c 	movw	r0, #29036	; 0x716c
  2008e8:	2704      	movs	r7, #4
  2008ea:	f2c0 0020 	movt	r0, #32
  2008ee:	7017      	strb	r7, [r2, #0]
  2008f0:	2efc      	cmp	r6, #252	; 0xfc
  2008f2:	bf28      	it	cs
  2008f4:	26fc      	movcs	r6, #252	; 0xfc
  2008f6:	1941      	adds	r1, r0, r5
  2008f8:	9807      	ldr	r0, [sp, #28]
  2008fa:	4632      	mov	r2, r6
  2008fc:	f7ff fdd2 	bl	2004a4 <__rt_memcpy>
  200900:	f640 0311 	movw	r3, #2065	; 0x811
  200904:	f6c2 0320 	movt	r3, #10272	; 0x2820
  200908:	19a8      	adds	r0, r5, r6
  20090a:	0631      	lsls	r1, r6, #24
  20090c:	701e      	strb	r6, [r3, #0]
  20090e:	f8ca 0000 	str.w	r0, [sl]
  200912:	f000 81d0 	beq.w	200cb6 <benchmark_picojpeg+0x6de>
  200916:	f640 0c10 	movw	ip, #2064	; 0x810
  20091a:	f640 1214 	movw	r2, #2324	; 0x914
  20091e:	f6c2 0c20 	movt	ip, #10272	; 0x2820
  200922:	f6c2 0220 	movt	r2, #10272	; 0x2820
  200926:	f640 0114 	movw	r1, #2068	; 0x814
  20092a:	f640 0311 	movw	r3, #2065	; 0x811
  20092e:	b2f8      	uxtb	r0, r7
  200930:	f6c2 0120 	movt	r1, #10272	; 0x2820
  200934:	3e01      	subs	r6, #1
  200936:	f6c2 0320 	movt	r3, #10272	; 0x2820
  20093a:	f107 0a01 	add.w	sl, r7, #1
  20093e:	5c08      	ldrb	r0, [r1, r0]
  200940:	701e      	strb	r6, [r3, #0]
  200942:	f882 a000 	strb.w	sl, [r2]
  200946:	fa1f f188 	uxth.w	r1, r8
  20094a:	b2c0      	uxtb	r0, r0
  20094c:	f1c4 0708 	rsb	r7, r4, #8
  200950:	4308      	orrs	r0, r1
  200952:	40b8      	lsls	r0, r7
  200954:	0a05      	lsrs	r5, r0, #8
  200956:	ea4f 2119 	mov.w	r1, r9, lsr #8
  20095a:	2c07      	cmp	r4, #7
  20095c:	f361 251f 	bfi	r5, r1, #8, #24
  200960:	d842      	bhi.n	2009e8 <benchmark_picojpeg+0x410>
  200962:	0631      	lsls	r1, r6, #24
  200964:	fa00 f404 	lsl.w	r4, r0, r4
  200968:	d12d      	bne.n	2009c6 <benchmark_picojpeg+0x3ee>
  20096a:	f640 1828 	movw	r8, #2344	; 0x928
  20096e:	f6c2 0820 	movt	r8, #10272	; 0x2820
  200972:	46a9      	mov	r9, r5
  200974:	f8d8 5000 	ldr.w	r5, [r8]
  200978:	f240 203a 	movw	r0, #570	; 0x23a
  20097c:	1b46      	subs	r6, r0, r5
  20097e:	f247 106c 	movw	r0, #29036	; 0x716c
  200982:	f04f 0a04 	mov.w	sl, #4
  200986:	f2c0 0020 	movt	r0, #32
  20098a:	f882 a000 	strb.w	sl, [r2]
  20098e:	2efc      	cmp	r6, #252	; 0xfc
  200990:	bf28      	it	cs
  200992:	26fc      	movcs	r6, #252	; 0xfc
  200994:	1941      	adds	r1, r0, r5
  200996:	9807      	ldr	r0, [sp, #28]
  200998:	4632      	mov	r2, r6
  20099a:	f7ff fd83 	bl	2004a4 <__rt_memcpy>
  20099e:	f640 0311 	movw	r3, #2065	; 0x811
  2009a2:	f6c2 0320 	movt	r3, #10272	; 0x2820
  2009a6:	19a8      	adds	r0, r5, r6
  2009a8:	0631      	lsls	r1, r6, #24
  2009aa:	701e      	strb	r6, [r3, #0]
  2009ac:	f8c8 0000 	str.w	r0, [r8]
  2009b0:	f000 83e4 	beq.w	20117c <benchmark_picojpeg+0xba4>
  2009b4:	f640 0c10 	movw	ip, #2064	; 0x810
  2009b8:	f640 1214 	movw	r2, #2324	; 0x914
  2009bc:	f6c2 0c20 	movt	ip, #10272	; 0x2820
  2009c0:	f6c2 0220 	movt	r2, #10272	; 0x2820
  2009c4:	464d      	mov	r5, r9
  2009c6:	3e01      	subs	r6, #1
  2009c8:	701e      	strb	r6, [r3, #0]
  2009ca:	f640 0314 	movw	r3, #2068	; 0x814
  2009ce:	fa5f f08a 	uxtb.w	r0, sl
  2009d2:	f6c2 0320 	movt	r3, #10272	; 0x2820
  2009d6:	f10a 0101 	add.w	r1, sl, #1
  2009da:	5c18      	ldrb	r0, [r3, r0]
  2009dc:	7011      	strb	r1, [r2, #0]
  2009de:	b2c0      	uxtb	r0, r0
  2009e0:	4320      	orrs	r0, r4
  2009e2:	40b8      	lsls	r0, r7
  2009e4:	468a      	mov	sl, r1
  2009e6:	e004      	b.n	2009f2 <benchmark_picojpeg+0x41a>
  2009e8:	f1ab 0b08 	sub.w	fp, fp, #8
  2009ec:	0200      	lsls	r0, r0, #8
  2009ee:	f88c b000 	strb.w	fp, [ip]
  2009f2:	f640 1116 	movw	r1, #2326	; 0x916
  2009f6:	f6c2 0120 	movt	r1, #10272	; 0x2820
  2009fa:	8008      	strh	r0, [r1, #0]
  2009fc:	f244 0101 	movw	r1, #16385	; 0x4001
  200a00:	f240 0204 	movw	r2, #4
  200a04:	1a69      	subs	r1, r5, r1
  200a06:	f6c2 0220 	movt	r2, #10272	; 0x2820
  200a0a:	f511 4f80 	cmn.w	r1, #16384	; 0x4000
  200a0e:	8015      	strh	r5, [r2, #0]
  200a10:	f0c0 83fd 	bcc.w	20120e <benchmark_picojpeg+0xc36>
  200a14:	fa1f f880 	uxth.w	r8, r0
  200a18:	0630      	lsls	r0, r6, #24
  200a1a:	fa5f f48b 	uxtb.w	r4, fp
  200a1e:	f640 1016 	movw	r0, #2326	; 0x916
  200a22:	f640 1214 	movw	r2, #2324	; 0x914
  200a26:	fa08 f904 	lsl.w	r9, r8, r4
  200a2a:	f6c2 0020 	movt	r0, #10272	; 0x2820
  200a2e:	f6c2 0220 	movt	r2, #10272	; 0x2820
  200a32:	f8a0 9000 	strh.w	r9, [r0]
  200a36:	d12b      	bne.n	200a90 <benchmark_picojpeg+0x4b8>
  200a38:	9503      	str	r5, [sp, #12]
  200a3a:	f640 1528 	movw	r5, #2344	; 0x928
  200a3e:	f6c2 0520 	movt	r5, #10272	; 0x2820
  200a42:	682f      	ldr	r7, [r5, #0]
  200a44:	f240 203a 	movw	r0, #570	; 0x23a
  200a48:	1bc6      	subs	r6, r0, r7
  200a4a:	f247 106c 	movw	r0, #29036	; 0x716c
  200a4e:	f04f 0a04 	mov.w	sl, #4
  200a52:	f2c0 0020 	movt	r0, #32
  200a56:	f882 a000 	strb.w	sl, [r2]
  200a5a:	2efc      	cmp	r6, #252	; 0xfc
  200a5c:	bf28      	it	cs
  200a5e:	26fc      	movcs	r6, #252	; 0xfc
  200a60:	19c1      	adds	r1, r0, r7
  200a62:	9807      	ldr	r0, [sp, #28]
  200a64:	4632      	mov	r2, r6
  200a66:	f7ff fd1d 	bl	2004a4 <__rt_memcpy>
  200a6a:	f640 0311 	movw	r3, #2065	; 0x811
  200a6e:	f6c2 0320 	movt	r3, #10272	; 0x2820
  200a72:	19b8      	adds	r0, r7, r6
  200a74:	0631      	lsls	r1, r6, #24
  200a76:	701e      	strb	r6, [r3, #0]
  200a78:	6028      	str	r0, [r5, #0]
  200a7a:	f000 8395 	beq.w	2011a8 <benchmark_picojpeg+0xbd0>
  200a7e:	f640 0c10 	movw	ip, #2064	; 0x810
  200a82:	f640 1214 	movw	r2, #2324	; 0x914
  200a86:	9d03      	ldr	r5, [sp, #12]
  200a88:	f6c2 0c20 	movt	ip, #10272	; 0x2820
  200a8c:	f6c2 0220 	movt	r2, #10272	; 0x2820
  200a90:	f640 0114 	movw	r1, #2068	; 0x814
  200a94:	f640 0311 	movw	r3, #2065	; 0x811
  200a98:	fa5f f08a 	uxtb.w	r0, sl
  200a9c:	f6c2 0120 	movt	r1, #10272	; 0x2820
  200aa0:	3e01      	subs	r6, #1
  200aa2:	f6c2 0320 	movt	r3, #10272	; 0x2820
  200aa6:	f10a 0701 	add.w	r7, sl, #1
  200aaa:	5c08      	ldrb	r0, [r1, r0]
  200aac:	701e      	strb	r6, [r3, #0]
  200aae:	9706      	str	r7, [sp, #24]
  200ab0:	7017      	strb	r7, [r2, #0]
  200ab2:	fa1f f189 	uxth.w	r1, r9
  200ab6:	b2c0      	uxtb	r0, r0
  200ab8:	f1c4 0a08 	rsb	sl, r4, #8
  200abc:	4308      	orrs	r0, r1
  200abe:	fa00 f00a 	lsl.w	r0, r0, sl
  200ac2:	0a07      	lsrs	r7, r0, #8
  200ac4:	ea4f 2118 	mov.w	r1, r8, lsr #8
  200ac8:	2c07      	cmp	r4, #7
  200aca:	f361 271f 	bfi	r7, r1, #8, #24
  200ace:	d859      	bhi.n	200b84 <benchmark_picojpeg+0x5ac>
  200ad0:	0631      	lsls	r1, r6, #24
  200ad2:	fa00 f904 	lsl.w	r9, r0, r4
  200ad6:	d12b      	bne.n	200b30 <benchmark_picojpeg+0x558>
  200ad8:	f640 1828 	movw	r8, #2344	; 0x928
  200adc:	f6c2 0820 	movt	r8, #10272	; 0x2820
  200ae0:	2004      	movs	r0, #4
  200ae2:	f8d8 4000 	ldr.w	r4, [r8]
  200ae6:	9006      	str	r0, [sp, #24]
  200ae8:	f240 203a 	movw	r0, #570	; 0x23a
  200aec:	1b06      	subs	r6, r0, r4
  200aee:	f247 106c 	movw	r0, #29036	; 0x716c
  200af2:	2104      	movs	r1, #4
  200af4:	f2c0 0020 	movt	r0, #32
  200af8:	7011      	strb	r1, [r2, #0]
  200afa:	2efc      	cmp	r6, #252	; 0xfc
  200afc:	bf28      	it	cs
  200afe:	26fc      	movcs	r6, #252	; 0xfc
  200b00:	1901      	adds	r1, r0, r4
  200b02:	9807      	ldr	r0, [sp, #28]
  200b04:	4632      	mov	r2, r6
  200b06:	f7ff fccd 	bl	2004a4 <__rt_memcpy>
  200b0a:	f640 0311 	movw	r3, #2065	; 0x811
  200b0e:	f6c2 0320 	movt	r3, #10272	; 0x2820
  200b12:	19a0      	adds	r0, r4, r6
  200b14:	0631      	lsls	r1, r6, #24
  200b16:	701e      	strb	r6, [r3, #0]
  200b18:	f8c8 0000 	str.w	r0, [r8]
  200b1c:	f000 835e 	beq.w	2011dc <benchmark_picojpeg+0xc04>
  200b20:	f640 0c10 	movw	ip, #2064	; 0x810
  200b24:	f640 1214 	movw	r2, #2324	; 0x914
  200b28:	f6c2 0c20 	movt	ip, #10272	; 0x2820
  200b2c:	f6c2 0220 	movt	r2, #10272	; 0x2820
  200b30:	3e01      	subs	r6, #1
  200b32:	9906      	ldr	r1, [sp, #24]
  200b34:	701e      	strb	r6, [r3, #0]
  200b36:	f640 0314 	movw	r3, #2068	; 0x814
  200b3a:	1c48      	adds	r0, r1, #1
  200b3c:	b2c9      	uxtb	r1, r1
  200b3e:	f6c2 0320 	movt	r3, #10272	; 0x2820
  200b42:	5c59      	ldrb	r1, [r3, r1]
  200b44:	7010      	strb	r0, [r2, #0]
  200b46:	b2c9      	uxtb	r1, r1
  200b48:	ea41 0109 	orr.w	r1, r1, r9
  200b4c:	fa01 fa0a 	lsl.w	sl, r1, sl
  200b50:	9006      	str	r0, [sp, #24]
  200b52:	e01d      	b.n	200b90 <benchmark_picojpeg+0x5b8>
  200b54:	f640 0212 	movw	r2, #2066	; 0x812
  200b58:	f6c2 0220 	movt	r2, #10272	; 0x2820
  200b5c:	7811      	ldrb	r1, [r2, #0]
  200b5e:	f640 0c10 	movw	ip, #2064	; 0x810
  200b62:	43c8      	mvns	r0, r1
  200b64:	7010      	strb	r0, [r2, #0]
  200b66:	f640 1214 	movw	r2, #2324	; 0x914
  200b6a:	f04f 30ff 	mov.w	r0, #4294967295
  200b6e:	2600      	movs	r6, #0
  200b70:	2704      	movs	r7, #4
  200b72:	f6c2 0c20 	movt	ip, #10272	; 0x2820
  200b76:	f6c2 0220 	movt	r2, #10272	; 0x2820
  200b7a:	29ff      	cmp	r1, #255	; 0xff
  200b7c:	bf08      	it	eq
  200b7e:	f06f 0026 	mvneq.w	r0, #38	; 0x26
  200b82:	e5df      	b.n	200744 <benchmark_picojpeg+0x16c>
  200b84:	f1ab 0b08 	sub.w	fp, fp, #8
  200b88:	ea4f 2a00 	mov.w	sl, r0, lsl #8
  200b8c:	f88c b000 	strb.w	fp, [ip]
  200b90:	f640 1016 	movw	r0, #2326	; 0x916
  200b94:	f6c2 0020 	movt	r0, #10272	; 0x2820
  200b98:	f8a0 a000 	strh.w	sl, [r0]
  200b9c:	f244 0001 	movw	r0, #16385	; 0x4001
  200ba0:	1a38      	subs	r0, r7, r0
  200ba2:	f510 4f80 	cmn.w	r0, #16384	; 0x4000
  200ba6:	f240 0002 	movw	r0, #2
  200baa:	f6c2 0020 	movt	r0, #10272	; 0x2820
  200bae:	8007      	strh	r7, [r0, #0]
  200bb0:	f0c0 832d 	bcc.w	20120e <benchmark_picojpeg+0xc36>
  200bb4:	fa5f f48b 	uxtb.w	r4, fp
  200bb8:	2c07      	cmp	r4, #7
  200bba:	f200 8095 	bhi.w	200ce8 <benchmark_picojpeg+0x710>
  200bbe:	fa1f f08a 	uxth.w	r0, sl
  200bc2:	f640 1214 	movw	r2, #2324	; 0x914
  200bc6:	f640 0311 	movw	r3, #2065	; 0x811
  200bca:	0631      	lsls	r1, r6, #24
  200bcc:	fa00 f804 	lsl.w	r8, r0, r4
  200bd0:	f6c2 0220 	movt	r2, #10272	; 0x2820
  200bd4:	f6c2 0320 	movt	r3, #10272	; 0x2820
  200bd8:	d12d      	bne.n	200c36 <benchmark_picojpeg+0x65e>
  200bda:	f640 1928 	movw	r9, #2344	; 0x928
  200bde:	f6c2 0920 	movt	r9, #10272	; 0x2820
  200be2:	9701      	str	r7, [sp, #4]
  200be4:	2004      	movs	r0, #4
  200be6:	f8d9 7000 	ldr.w	r7, [r9]
  200bea:	9006      	str	r0, [sp, #24]
  200bec:	f240 203a 	movw	r0, #570	; 0x23a
  200bf0:	1bc6      	subs	r6, r0, r7
  200bf2:	f247 106c 	movw	r0, #29036	; 0x716c
  200bf6:	2104      	movs	r1, #4
  200bf8:	f2c0 0020 	movt	r0, #32
  200bfc:	7011      	strb	r1, [r2, #0]
  200bfe:	2efc      	cmp	r6, #252	; 0xfc
  200c00:	bf28      	it	cs
  200c02:	26fc      	movcs	r6, #252	; 0xfc
  200c04:	19c1      	adds	r1, r0, r7
  200c06:	9807      	ldr	r0, [sp, #28]
  200c08:	4632      	mov	r2, r6
  200c0a:	f7ff fc4b 	bl	2004a4 <__rt_memcpy>
  200c0e:	f640 0311 	movw	r3, #2065	; 0x811
  200c12:	f6c2 0320 	movt	r3, #10272	; 0x2820
  200c16:	19b8      	adds	r0, r7, r6
  200c18:	0631      	lsls	r1, r6, #24
  200c1a:	701e      	strb	r6, [r3, #0]
  200c1c:	f8c9 0000 	str.w	r0, [r9]
  200c20:	f002 82ef 	beq.w	203202 <benchmark_picojpeg+0x2c2a>
  200c24:	f640 0c10 	movw	ip, #2064	; 0x810
  200c28:	f640 1214 	movw	r2, #2324	; 0x914
  200c2c:	9f01      	ldr	r7, [sp, #4]
  200c2e:	f6c2 0c20 	movt	ip, #10272	; 0x2820
  200c32:	f6c2 0220 	movt	r2, #10272	; 0x2820
  200c36:	3e01      	subs	r6, #1
  200c38:	9906      	ldr	r1, [sp, #24]
  200c3a:	701e      	strb	r6, [r3, #0]
  200c3c:	f640 0314 	movw	r3, #2068	; 0x814
  200c40:	1c48      	adds	r0, r1, #1
  200c42:	b2c9      	uxtb	r1, r1
  200c44:	f6c2 0320 	movt	r3, #10272	; 0x2820
  200c48:	5c59      	ldrb	r1, [r3, r1]
  200c4a:	7010      	strb	r0, [r2, #0]
  200c4c:	b2c9      	uxtb	r1, r1
  200c4e:	f1c4 0208 	rsb	r2, r4, #8
  200c52:	ea41 0108 	orr.w	r1, r1, r8
  200c56:	fa01 f302 	lsl.w	r3, r1, r2
  200c5a:	9006      	str	r0, [sp, #24]
  200c5c:	e04a      	b.n	200cf4 <benchmark_picojpeg+0x71c>
  200c5e:	f640 0212 	movw	r2, #2066	; 0x812
  200c62:	f6c2 0220 	movt	r2, #10272	; 0x2820
  200c66:	7811      	ldrb	r1, [r2, #0]
  200c68:	f640 0c10 	movw	ip, #2064	; 0x810
  200c6c:	43c8      	mvns	r0, r1
  200c6e:	7010      	strb	r0, [r2, #0]
  200c70:	f04f 30ff 	mov.w	r0, #4294967295
  200c74:	29ff      	cmp	r1, #255	; 0xff
  200c76:	bf08      	it	eq
  200c78:	f06f 0026 	mvneq.w	r0, #38	; 0x26
  200c7c:	2600      	movs	r6, #0
  200c7e:	2104      	movs	r1, #4
  200c80:	f6c2 0c20 	movt	ip, #10272	; 0x2820
  200c84:	e5fa      	b.n	20087c <benchmark_picojpeg+0x2a4>
  200c86:	f640 0212 	movw	r2, #2066	; 0x812
  200c8a:	f6c2 0220 	movt	r2, #10272	; 0x2820
  200c8e:	7810      	ldrb	r0, [r2, #0]
  200c90:	f640 0c10 	movw	ip, #2064	; 0x810
  200c94:	43c1      	mvns	r1, r0
  200c96:	7011      	strb	r1, [r2, #0]
  200c98:	f640 1214 	movw	r2, #2324	; 0x914
  200c9c:	f04f 31ff 	mov.w	r1, #4294967295
  200ca0:	28ff      	cmp	r0, #255	; 0xff
  200ca2:	bf08      	it	eq
  200ca4:	f06f 0126 	mvneq.w	r1, #38	; 0x26
  200ca8:	2600      	movs	r6, #0
  200caa:	2004      	movs	r0, #4
  200cac:	f6c2 0c20 	movt	ip, #10272	; 0x2820
  200cb0:	f6c2 0220 	movt	r2, #10272	; 0x2820
  200cb4:	e595      	b.n	2007e2 <benchmark_picojpeg+0x20a>
  200cb6:	f640 0212 	movw	r2, #2066	; 0x812
  200cba:	f6c2 0220 	movt	r2, #10272	; 0x2820
  200cbe:	7811      	ldrb	r1, [r2, #0]
  200cc0:	f640 0c10 	movw	ip, #2064	; 0x810
  200cc4:	43c8      	mvns	r0, r1
  200cc6:	7010      	strb	r0, [r2, #0]
  200cc8:	f640 1214 	movw	r2, #2324	; 0x914
  200ccc:	f04f 30ff 	mov.w	r0, #4294967295
  200cd0:	2600      	movs	r6, #0
  200cd2:	f04f 0a04 	mov.w	sl, #4
  200cd6:	f6c2 0c20 	movt	ip, #10272	; 0x2820
  200cda:	f6c2 0220 	movt	r2, #10272	; 0x2820
  200cde:	29ff      	cmp	r1, #255	; 0xff
  200ce0:	bf08      	it	eq
  200ce2:	f06f 0026 	mvneq.w	r0, #38	; 0x26
  200ce6:	e62e      	b.n	200946 <benchmark_picojpeg+0x36e>
  200ce8:	f1ab 0b08 	sub.w	fp, fp, #8
  200cec:	ea4f 230a 	mov.w	r3, sl, lsl #8
  200cf0:	f88c b000 	strb.w	fp, [ip]
  200cf4:	f640 1016 	movw	r0, #2326	; 0x916
  200cf8:	f6c2 0020 	movt	r0, #10272	; 0x2820
  200cfc:	8003      	strh	r3, [r0, #0]
  200cfe:	fa1f f08a 	uxth.w	r0, sl
  200d02:	2100      	movs	r1, #0
  200d04:	ebb1 2f90 	cmp.w	r1, r0, lsr #10
  200d08:	ea4f 2210 	mov.w	r2, r0, lsr #8
  200d0c:	f240 0006 	movw	r0, #6
  200d10:	f6c2 0020 	movt	r0, #10272	; 0x2820
  200d14:	7002      	strb	r2, [r0, #0]
  200d16:	f040 827a 	bne.w	20120e <benchmark_picojpeg+0xc36>
  200d1a:	9808      	ldr	r0, [sp, #32]
  200d1c:	9909      	ldr	r1, [sp, #36]	; 0x24
  200d1e:	0a00      	lsrs	r0, r0, #8
  200d20:	0a09      	lsrs	r1, r1, #8
  200d22:	f361 201f 	bfi	r0, r1, #8, #24
  200d26:	eb02 0142 	add.w	r1, r2, r2, lsl #1
  200d2a:	b280      	uxth	r0, r0
  200d2c:	3108      	adds	r1, #8
  200d2e:	4281      	cmp	r1, r0
  200d30:	f040 826d 	bne.w	20120e <benchmark_picojpeg+0xc36>
  200d34:	2a00      	cmp	r2, #0
  200d36:	f000 826a 	beq.w	20120e <benchmark_picojpeg+0xc36>
  200d3a:	f640 1028 	movw	r0, #2344	; 0x928
  200d3e:	f6c2 0020 	movt	r0, #10272	; 0x2820
  200d42:	6800      	ldr	r0, [r0, #0]
  200d44:	9701      	str	r7, [sp, #4]
  200d46:	9004      	str	r0, [sp, #16]
  200d48:	f640 0012 	movw	r0, #2066	; 0x812
  200d4c:	f6c2 0020 	movt	r0, #10272	; 0x2820
  200d50:	7800      	ldrb	r0, [r0, #0]
  200d52:	f640 191b 	movw	r9, #2331	; 0x91b
  200d56:	9002      	str	r0, [sp, #8]
  200d58:	f640 1021 	movw	r0, #2337	; 0x921
  200d5c:	f240 341e 	movw	r4, #798	; 0x31e
  200d60:	f640 171e 	movw	r7, #2334	; 0x91e
  200d64:	f6c2 0020 	movt	r0, #10272	; 0x2820
  200d68:	f640 1e14 	movw	lr, #2324	; 0x914
  200d6c:	f8dd 8018 	ldr.w	r8, [sp, #24]
  200d70:	9503      	str	r5, [sp, #12]
  200d72:	f6c2 0920 	movt	r9, #10272	; 0x2820
  200d76:	f6c2 0420 	movt	r4, #10272	; 0x2820
  200d7a:	f6c2 0720 	movt	r7, #10272	; 0x2820
  200d7e:	9200      	str	r2, [sp, #0]
  200d80:	4615      	mov	r5, r2
  200d82:	9008      	str	r0, [sp, #32]
  200d84:	f6c2 0e20 	movt	lr, #10272	; 0x2820
  200d88:	9406      	str	r4, [sp, #24]
  200d8a:	fa5f f48b 	uxtb.w	r4, fp
  200d8e:	2c07      	cmp	r4, #7
  200d90:	9709      	str	r7, [sp, #36]	; 0x24
  200d92:	d806      	bhi.n	200da2 <benchmark_picojpeg+0x7ca>
  200d94:	0630      	lsls	r0, r6, #24
  200d96:	d00b      	beq.n	200db0 <benchmark_picojpeg+0x7d8>
  200d98:	f640 0111 	movw	r1, #2065	; 0x811
  200d9c:	f6c2 0120 	movt	r1, #10272	; 0x2820
  200da0:	e034      	b.n	200e0c <benchmark_picojpeg+0x834>
  200da2:	f1ab 0b08 	sub.w	fp, fp, #8
  200da6:	ea4f 2a03 	mov.w	sl, r3, lsl #8
  200daa:	f88c b000 	strb.w	fp, [ip]
  200dae:	e045      	b.n	200e3c <benchmark_picojpeg+0x864>
  200db0:	9f04      	ldr	r7, [sp, #16]
  200db2:	f240 203a 	movw	r0, #570	; 0x23a
  200db6:	f04f 0804 	mov.w	r8, #4
  200dba:	1bc6      	subs	r6, r0, r7
  200dbc:	20fc      	movs	r0, #252	; 0xfc
  200dbe:	f88e 8000 	strb.w	r8, [lr]
  200dc2:	2efc      	cmp	r6, #252	; 0xfc
  200dc4:	bf28      	it	cs
  200dc6:	4606      	movcs	r6, r0
  200dc8:	f247 106c 	movw	r0, #29036	; 0x716c
  200dcc:	f2c0 0020 	movt	r0, #32
  200dd0:	19c1      	adds	r1, r0, r7
  200dd2:	9807      	ldr	r0, [sp, #28]
  200dd4:	4632      	mov	r2, r6
  200dd6:	469a      	mov	sl, r3
  200dd8:	f7ff fb64 	bl	2004a4 <__rt_memcpy>
  200ddc:	0630      	lsls	r0, r6, #24
  200dde:	f640 0111 	movw	r1, #2065	; 0x811
  200de2:	f640 1028 	movw	r0, #2344	; 0x928
  200de6:	f6c2 0120 	movt	r1, #10272	; 0x2820
  200dea:	4437      	add	r7, r6
  200dec:	f6c2 0020 	movt	r0, #10272	; 0x2820
  200df0:	700e      	strb	r6, [r1, #0]
  200df2:	9704      	str	r7, [sp, #16]
  200df4:	6007      	str	r7, [r0, #0]
  200df6:	f000 816e 	beq.w	2010d6 <benchmark_picojpeg+0xafe>
  200dfa:	f640 0c10 	movw	ip, #2064	; 0x810
  200dfe:	f640 1e14 	movw	lr, #2324	; 0x914
  200e02:	f6c2 0c20 	movt	ip, #10272	; 0x2820
  200e06:	f6c2 0e20 	movt	lr, #10272	; 0x2820
  200e0a:	4653      	mov	r3, sl
  200e0c:	3e01      	subs	r6, #1
  200e0e:	f640 0214 	movw	r2, #2068	; 0x814
  200e12:	700e      	strb	r6, [r1, #0]
  200e14:	fa5f f188 	uxtb.w	r1, r8
  200e18:	f6c2 0220 	movt	r2, #10272	; 0x2820
  200e1c:	f108 0001 	add.w	r0, r8, #1
  200e20:	5c51      	ldrb	r1, [r2, r1]
  200e22:	f88e 0000 	strb.w	r0, [lr]
  200e26:	b29a      	uxth	r2, r3
  200e28:	b2c9      	uxtb	r1, r1
  200e2a:	40a2      	lsls	r2, r4
  200e2c:	461f      	mov	r7, r3
  200e2e:	f1c4 0308 	rsb	r3, r4, #8
  200e32:	4311      	orrs	r1, r2
  200e34:	fa01 fa03 	lsl.w	sl, r1, r3
  200e38:	463b      	mov	r3, r7
  200e3a:	4680      	mov	r8, r0
  200e3c:	fa5f f48b 	uxtb.w	r4, fp
  200e40:	0a18      	lsrs	r0, r3, #8
  200e42:	2c03      	cmp	r4, #3
  200e44:	f889 0000 	strb.w	r0, [r9]
  200e48:	9505      	str	r5, [sp, #20]
  200e4a:	d84e      	bhi.n	200eea <benchmark_picojpeg+0x912>
  200e4c:	f640 0111 	movw	r1, #2065	; 0x811
  200e50:	0630      	lsls	r0, r6, #24
  200e52:	f6c2 0120 	movt	r1, #10272	; 0x2820
  200e56:	d12b      	bne.n	200eb0 <benchmark_picojpeg+0x8d8>
  200e58:	9f04      	ldr	r7, [sp, #16]
  200e5a:	f240 203a 	movw	r0, #570	; 0x23a
  200e5e:	f04f 0804 	mov.w	r8, #4
  200e62:	1bc6      	subs	r6, r0, r7
  200e64:	20fc      	movs	r0, #252	; 0xfc
  200e66:	f88e 8000 	strb.w	r8, [lr]
  200e6a:	2efc      	cmp	r6, #252	; 0xfc
  200e6c:	bf28      	it	cs
  200e6e:	4606      	movcs	r6, r0
  200e70:	f247 106c 	movw	r0, #29036	; 0x716c
  200e74:	f2c0 0020 	movt	r0, #32
  200e78:	19c1      	adds	r1, r0, r7
  200e7a:	9807      	ldr	r0, [sp, #28]
  200e7c:	4632      	mov	r2, r6
  200e7e:	f7ff fb11 	bl	2004a4 <__rt_memcpy>
  200e82:	0630      	lsls	r0, r6, #24
  200e84:	f640 0111 	movw	r1, #2065	; 0x811
  200e88:	f640 1028 	movw	r0, #2344	; 0x928
  200e8c:	f6c2 0120 	movt	r1, #10272	; 0x2820
  200e90:	4437      	add	r7, r6
  200e92:	f6c2 0020 	movt	r0, #10272	; 0x2820
  200e96:	700e      	strb	r6, [r1, #0]
  200e98:	9704      	str	r7, [sp, #16]
  200e9a:	6007      	str	r7, [r0, #0]
  200e9c:	f000 8137 	beq.w	20110e <benchmark_picojpeg+0xb36>
  200ea0:	f640 0c10 	movw	ip, #2064	; 0x810
  200ea4:	f640 1e14 	movw	lr, #2324	; 0x914
  200ea8:	f6c2 0c20 	movt	ip, #10272	; 0x2820
  200eac:	f6c2 0e20 	movt	lr, #10272	; 0x2820
  200eb0:	f640 0214 	movw	r2, #2068	; 0x814
  200eb4:	3e01      	subs	r6, #1
  200eb6:	fa5f f088 	uxtb.w	r0, r8
  200eba:	f6c2 0220 	movt	r2, #10272	; 0x2820
  200ebe:	700e      	strb	r6, [r1, #0]
  200ec0:	f108 0101 	add.w	r1, r8, #1
  200ec4:	5c10      	ldrb	r0, [r2, r0]
  200ec6:	f88e 1000 	strb.w	r1, [lr]
  200eca:	fa1f f28a 	uxth.w	r2, sl
  200ece:	b2c0      	uxtb	r0, r0
  200ed0:	fa02 f304 	lsl.w	r3, r2, r4
  200ed4:	f1c4 0704 	rsb	r7, r4, #4
  200ed8:	4318      	orrs	r0, r3
  200eda:	40b8      	lsls	r0, r7
  200edc:	9f09      	ldr	r7, [sp, #36]	; 0x24
  200ede:	f10b 0404 	add.w	r4, fp, #4
  200ee2:	0b12      	lsrs	r2, r2, #12
  200ee4:	4688      	mov	r8, r1
  200ee6:	703a      	strb	r2, [r7, #0]
  200ee8:	e063      	b.n	200fb2 <benchmark_picojpeg+0x9da>
  200eea:	f1ab 0404 	sub.w	r4, fp, #4
  200eee:	fa1f f18a 	uxth.w	r1, sl
  200ef2:	b2e5      	uxtb	r5, r4
  200ef4:	9f09      	ldr	r7, [sp, #36]	; 0x24
  200ef6:	ea4f 100a 	mov.w	r0, sl, lsl #4
  200efa:	0b09      	lsrs	r1, r1, #12
  200efc:	2d03      	cmp	r5, #3
  200efe:	7039      	strb	r1, [r7, #0]
  200f00:	d857      	bhi.n	200fb2 <benchmark_picojpeg+0x9da>
  200f02:	b287      	uxth	r7, r0
  200f04:	f640 0311 	movw	r3, #2065	; 0x811
  200f08:	0630      	lsls	r0, r6, #24
  200f0a:	fa07 fb05 	lsl.w	fp, r7, r5
  200f0e:	f6c2 0320 	movt	r3, #10272	; 0x2820
  200f12:	d12e      	bne.n	200f72 <benchmark_picojpeg+0x99a>
  200f14:	46ba      	mov	sl, r7
  200f16:	2004      	movs	r0, #4
  200f18:	9f04      	ldr	r7, [sp, #16]
  200f1a:	f88e 0000 	strb.w	r0, [lr]
  200f1e:	f240 203a 	movw	r0, #570	; 0x23a
  200f22:	1bc6      	subs	r6, r0, r7
  200f24:	20fc      	movs	r0, #252	; 0xfc
  200f26:	2efc      	cmp	r6, #252	; 0xfc
  200f28:	bf28      	it	cs
  200f2a:	4606      	movcs	r6, r0
  200f2c:	f247 106c 	movw	r0, #29036	; 0x716c
  200f30:	f2c0 0020 	movt	r0, #32
  200f34:	19c1      	adds	r1, r0, r7
  200f36:	9807      	ldr	r0, [sp, #28]
  200f38:	4632      	mov	r2, r6
  200f3a:	f04f 0804 	mov.w	r8, #4
  200f3e:	f7ff fab1 	bl	2004a4 <__rt_memcpy>
  200f42:	0630      	lsls	r0, r6, #24
  200f44:	f640 0311 	movw	r3, #2065	; 0x811
  200f48:	f640 1028 	movw	r0, #2344	; 0x928
  200f4c:	f6c2 0320 	movt	r3, #10272	; 0x2820
  200f50:	4437      	add	r7, r6
  200f52:	f6c2 0020 	movt	r0, #10272	; 0x2820
  200f56:	701e      	strb	r6, [r3, #0]
  200f58:	9704      	str	r7, [sp, #16]
  200f5a:	6007      	str	r7, [r0, #0]
  200f5c:	f000 80f2 	beq.w	201144 <benchmark_picojpeg+0xb6c>
  200f60:	f640 0c10 	movw	ip, #2064	; 0x810
  200f64:	f640 1e14 	movw	lr, #2324	; 0x914
  200f68:	f6c2 0c20 	movt	ip, #10272	; 0x2820
  200f6c:	f6c2 0e20 	movt	lr, #10272	; 0x2820
  200f70:	4657      	mov	r7, sl
  200f72:	f640 0214 	movw	r2, #2068	; 0x814
  200f76:	fa5f f188 	uxtb.w	r1, r8
  200f7a:	f6c2 0220 	movt	r2, #10272	; 0x2820
  200f7e:	3e01      	subs	r6, #1
  200f80:	f108 0001 	add.w	r0, r8, #1
  200f84:	5c51      	ldrb	r1, [r2, r1]
  200f86:	701e      	strb	r6, [r3, #0]
  200f88:	f88e 0000 	strb.w	r0, [lr]
  200f8c:	b2c9      	uxtb	r1, r1
  200f8e:	f1c5 0204 	rsb	r2, r5, #4
  200f92:	ea41 010b 	orr.w	r1, r1, fp
  200f96:	fa01 fa02 	lsl.w	sl, r1, r2
  200f9a:	0b39      	lsrs	r1, r7, #12
  200f9c:	9d08      	ldr	r5, [sp, #32]
  200f9e:	9f09      	ldr	r7, [sp, #36]	; 0x24
  200fa0:	f104 0b04 	add.w	fp, r4, #4
  200fa4:	4680      	mov	r8, r0
  200fa6:	f88c b000 	strb.w	fp, [ip]
  200faa:	7029      	strb	r1, [r5, #0]
  200fac:	0630      	lsls	r0, r6, #24
  200fae:	d13f      	bne.n	201030 <benchmark_picojpeg+0xa58>
  200fb0:	e013      	b.n	200fda <benchmark_picojpeg+0xa02>
  200fb2:	f1a4 0b04 	sub.w	fp, r4, #4
  200fb6:	b282      	uxth	r2, r0
  200fb8:	9d08      	ldr	r5, [sp, #32]
  200fba:	fa5f f18b 	uxtb.w	r1, fp
  200fbe:	ea4f 1a00 	mov.w	sl, r0, lsl #4
  200fc2:	0b10      	lsrs	r0, r2, #12
  200fc4:	2907      	cmp	r1, #7
  200fc6:	f88c b000 	strb.w	fp, [ip]
  200fca:	7028      	strb	r0, [r5, #0]
  200fcc:	d84b      	bhi.n	201066 <benchmark_picojpeg+0xa8e>
  200fce:	f640 0311 	movw	r3, #2065	; 0x811
  200fd2:	f6c2 0320 	movt	r3, #10272	; 0x2820
  200fd6:	0630      	lsls	r0, r6, #24
  200fd8:	d12a      	bne.n	201030 <benchmark_picojpeg+0xa58>
  200fda:	9c04      	ldr	r4, [sp, #16]
  200fdc:	f240 203a 	movw	r0, #570	; 0x23a
  200fe0:	f04f 0804 	mov.w	r8, #4
  200fe4:	1b06      	subs	r6, r0, r4
  200fe6:	20fc      	movs	r0, #252	; 0xfc
  200fe8:	f88e 8000 	strb.w	r8, [lr]
  200fec:	2efc      	cmp	r6, #252	; 0xfc
  200fee:	bf28      	it	cs
  200ff0:	4606      	movcs	r6, r0
  200ff2:	f247 106c 	movw	r0, #29036	; 0x716c
  200ff6:	f2c0 0020 	movt	r0, #32
  200ffa:	1901      	adds	r1, r0, r4
  200ffc:	9807      	ldr	r0, [sp, #28]
  200ffe:	4632      	mov	r2, r6
  201000:	f7ff fa50 	bl	2004a4 <__rt_memcpy>
  201004:	0630      	lsls	r0, r6, #24
  201006:	f640 0311 	movw	r3, #2065	; 0x811
  20100a:	f640 1028 	movw	r0, #2344	; 0x928
  20100e:	f6c2 0320 	movt	r3, #10272	; 0x2820
  201012:	4434      	add	r4, r6
  201014:	f6c2 0020 	movt	r0, #10272	; 0x2820
  201018:	701e      	strb	r6, [r3, #0]
  20101a:	9404      	str	r4, [sp, #16]
  20101c:	6004      	str	r4, [r0, #0]
  20101e:	d03f      	beq.n	2010a0 <benchmark_picojpeg+0xac8>
  201020:	f640 0c10 	movw	ip, #2064	; 0x810
  201024:	f640 1e14 	movw	lr, #2324	; 0x914
  201028:	f6c2 0c20 	movt	ip, #10272	; 0x2820
  20102c:	f6c2 0e20 	movt	lr, #10272	; 0x2820
  201030:	f640 0214 	movw	r2, #2068	; 0x814
  201034:	fa5f f188 	uxtb.w	r1, r8
  201038:	f6c2 0220 	movt	r2, #10272	; 0x2820
  20103c:	9c06      	ldr	r4, [sp, #24]
  20103e:	3e01      	subs	r6, #1
  201040:	f108 0001 	add.w	r0, r8, #1
  201044:	5c51      	ldrb	r1, [r2, r1]
  201046:	701e      	strb	r6, [r3, #0]
  201048:	f88e 0000 	strb.w	r0, [lr]
  20104c:	fa1f f28a 	uxth.w	r2, sl
  201050:	fa5f f38b 	uxtb.w	r3, fp
  201054:	409a      	lsls	r2, r3
  201056:	b2c9      	uxtb	r1, r1
  201058:	f1c3 0308 	rsb	r3, r3, #8
  20105c:	4311      	orrs	r1, r2
  20105e:	fa01 f303 	lsl.w	r3, r1, r3
  201062:	4680      	mov	r8, r0
  201064:	e006      	b.n	201074 <benchmark_picojpeg+0xa9c>
  201066:	9c06      	ldr	r4, [sp, #24]
  201068:	f1ab 0b08 	sub.w	fp, fp, #8
  20106c:	ea4f 230a 	mov.w	r3, sl, lsl #8
  201070:	f88c b000 	strb.w	fp, [ip]
  201074:	fa1f f08a 	uxth.w	r0, sl
  201078:	ea4f 211a 	mov.w	r1, sl, lsr #8
  20107c:	f5b0 7f00 	cmp.w	r0, #512	; 0x200
  201080:	7021      	strb	r1, [r4, #0]
  201082:	f080 80bf 	bcs.w	201204 <benchmark_picojpeg+0xc2c>
  201086:	3501      	adds	r5, #1
  201088:	9508      	str	r5, [sp, #32]
  20108a:	9d05      	ldr	r5, [sp, #20]
  20108c:	3701      	adds	r7, #1
  20108e:	3d01      	subs	r5, #1
  201090:	f104 0401 	add.w	r4, r4, #1
  201094:	f109 0901 	add.w	r9, r9, #1
  201098:	f47f ae76 	bne.w	200d88 <benchmark_picojpeg+0x7b0>
  20109c:	f002 b880 	b.w	2031a0 <benchmark_picojpeg+0x2bc8>
  2010a0:	9802      	ldr	r0, [sp, #8]
  2010a2:	f04f 31ff 	mov.w	r1, #4294967295
  2010a6:	28ff      	cmp	r0, #255	; 0xff
  2010a8:	f080 02ff 	eor.w	r2, r0, #255	; 0xff
  2010ac:	f640 0012 	movw	r0, #2066	; 0x812
  2010b0:	f6c2 0020 	movt	r0, #10272	; 0x2820
  2010b4:	7002      	strb	r2, [r0, #0]
  2010b6:	bf08      	it	eq
  2010b8:	f06f 0126 	mvneq.w	r1, #38	; 0x26
  2010bc:	f640 0c10 	movw	ip, #2064	; 0x810
  2010c0:	f640 1e14 	movw	lr, #2324	; 0x914
  2010c4:	9c06      	ldr	r4, [sp, #24]
  2010c6:	2600      	movs	r6, #0
  2010c8:	2004      	movs	r0, #4
  2010ca:	f6c2 0c20 	movt	ip, #10272	; 0x2820
  2010ce:	f6c2 0e20 	movt	lr, #10272	; 0x2820
  2010d2:	9202      	str	r2, [sp, #8]
  2010d4:	e7ba      	b.n	20104c <benchmark_picojpeg+0xa74>
  2010d6:	9802      	ldr	r0, [sp, #8]
  2010d8:	f640 0c10 	movw	ip, #2064	; 0x810
  2010dc:	28ff      	cmp	r0, #255	; 0xff
  2010de:	f080 02ff 	eor.w	r2, r0, #255	; 0xff
  2010e2:	f640 0012 	movw	r0, #2066	; 0x812
  2010e6:	f6c2 0020 	movt	r0, #10272	; 0x2820
  2010ea:	f640 1e14 	movw	lr, #2324	; 0x914
  2010ee:	7002      	strb	r2, [r0, #0]
  2010f0:	f04f 31ff 	mov.w	r1, #4294967295
  2010f4:	f04f 0600 	mov.w	r6, #0
  2010f8:	bf08      	it	eq
  2010fa:	f06f 0126 	mvneq.w	r1, #38	; 0x26
  2010fe:	2004      	movs	r0, #4
  201100:	f6c2 0c20 	movt	ip, #10272	; 0x2820
  201104:	f6c2 0e20 	movt	lr, #10272	; 0x2820
  201108:	4653      	mov	r3, sl
  20110a:	9202      	str	r2, [sp, #8]
  20110c:	e68b      	b.n	200e26 <benchmark_picojpeg+0x84e>
  20110e:	9802      	ldr	r0, [sp, #8]
  201110:	f640 0c10 	movw	ip, #2064	; 0x810
  201114:	28ff      	cmp	r0, #255	; 0xff
  201116:	f080 02ff 	eor.w	r2, r0, #255	; 0xff
  20111a:	f640 0012 	movw	r0, #2066	; 0x812
  20111e:	f6c2 0020 	movt	r0, #10272	; 0x2820
  201122:	f640 1e14 	movw	lr, #2324	; 0x914
  201126:	7002      	strb	r2, [r0, #0]
  201128:	f04f 30ff 	mov.w	r0, #4294967295
  20112c:	f04f 0600 	mov.w	r6, #0
  201130:	bf08      	it	eq
  201132:	f06f 0026 	mvneq.w	r0, #38	; 0x26
  201136:	2104      	movs	r1, #4
  201138:	f6c2 0c20 	movt	ip, #10272	; 0x2820
  20113c:	f6c2 0e20 	movt	lr, #10272	; 0x2820
  201140:	9202      	str	r2, [sp, #8]
  201142:	e6c2      	b.n	200eca <benchmark_picojpeg+0x8f2>
  201144:	9802      	ldr	r0, [sp, #8]
  201146:	f640 0c10 	movw	ip, #2064	; 0x810
  20114a:	28ff      	cmp	r0, #255	; 0xff
  20114c:	f080 02ff 	eor.w	r2, r0, #255	; 0xff
  201150:	f640 0012 	movw	r0, #2066	; 0x812
  201154:	f6c2 0020 	movt	r0, #10272	; 0x2820
  201158:	f640 1e14 	movw	lr, #2324	; 0x914
  20115c:	7002      	strb	r2, [r0, #0]
  20115e:	f04f 31ff 	mov.w	r1, #4294967295
  201162:	f04f 0600 	mov.w	r6, #0
  201166:	bf08      	it	eq
  201168:	f06f 0126 	mvneq.w	r1, #38	; 0x26
  20116c:	2004      	movs	r0, #4
  20116e:	f6c2 0c20 	movt	ip, #10272	; 0x2820
  201172:	f6c2 0e20 	movt	lr, #10272	; 0x2820
  201176:	4657      	mov	r7, sl
  201178:	9202      	str	r2, [sp, #8]
  20117a:	e707      	b.n	200f8c <benchmark_picojpeg+0x9b4>
  20117c:	f640 0212 	movw	r2, #2066	; 0x812
  201180:	f6c2 0220 	movt	r2, #10272	; 0x2820
  201184:	7811      	ldrb	r1, [r2, #0]
  201186:	f640 0c10 	movw	ip, #2064	; 0x810
  20118a:	43c8      	mvns	r0, r1
  20118c:	7010      	strb	r0, [r2, #0]
  20118e:	f04f 30ff 	mov.w	r0, #4294967295
  201192:	29ff      	cmp	r1, #255	; 0xff
  201194:	bf08      	it	eq
  201196:	f06f 0026 	mvneq.w	r0, #38	; 0x26
  20119a:	2600      	movs	r6, #0
  20119c:	2104      	movs	r1, #4
  20119e:	f6c2 0c20 	movt	ip, #10272	; 0x2820
  2011a2:	464d      	mov	r5, r9
  2011a4:	f7ff bc1b 	b.w	2009de <benchmark_picojpeg+0x406>
  2011a8:	f640 0212 	movw	r2, #2066	; 0x812
  2011ac:	f6c2 0220 	movt	r2, #10272	; 0x2820
  2011b0:	7811      	ldrb	r1, [r2, #0]
  2011b2:	f640 0c10 	movw	ip, #2064	; 0x810
  2011b6:	43c8      	mvns	r0, r1
  2011b8:	7010      	strb	r0, [r2, #0]
  2011ba:	f04f 30ff 	mov.w	r0, #4294967295
  2011be:	29ff      	cmp	r1, #255	; 0xff
  2011c0:	bf08      	it	eq
  2011c2:	f06f 0026 	mvneq.w	r0, #38	; 0x26
  2011c6:	f640 1214 	movw	r2, #2324	; 0x914
  2011ca:	9d03      	ldr	r5, [sp, #12]
  2011cc:	2600      	movs	r6, #0
  2011ce:	2104      	movs	r1, #4
  2011d0:	f6c2 0c20 	movt	ip, #10272	; 0x2820
  2011d4:	f6c2 0220 	movt	r2, #10272	; 0x2820
  2011d8:	9106      	str	r1, [sp, #24]
  2011da:	e46a      	b.n	200ab2 <benchmark_picojpeg+0x4da>
  2011dc:	f640 0212 	movw	r2, #2066	; 0x812
  2011e0:	f6c2 0220 	movt	r2, #10272	; 0x2820
  2011e4:	7810      	ldrb	r0, [r2, #0]
  2011e6:	f640 0c10 	movw	ip, #2064	; 0x810
  2011ea:	43c1      	mvns	r1, r0
  2011ec:	7011      	strb	r1, [r2, #0]
  2011ee:	f04f 31ff 	mov.w	r1, #4294967295
  2011f2:	28ff      	cmp	r0, #255	; 0xff
  2011f4:	bf08      	it	eq
  2011f6:	f06f 0126 	mvneq.w	r1, #38	; 0x26
  2011fa:	2600      	movs	r6, #0
  2011fc:	2004      	movs	r0, #4
  2011fe:	f6c2 0c20 	movt	ip, #10272	; 0x2820
  201202:	e4a0      	b.n	200b46 <benchmark_picojpeg+0x56e>
  201204:	f640 1016 	movw	r0, #2326	; 0x916
  201208:	f6c2 0020 	movt	r0, #10272	; 0x2820
  20120c:	8003      	strh	r3, [r0, #0]
  20120e:	f640 1e14 	movw	lr, #2324	; 0x914
  201212:	f6c2 0e20 	movt	lr, #10272	; 0x2820
  201216:	f240 200e 	movw	r0, #526	; 0x20e
  20121a:	f6c2 0020 	movt	r0, #10272	; 0x2820
  20121e:	3820      	subs	r0, #32
  201220:	9003      	str	r0, [sp, #12]
  201222:	f240 100e 	movw	r0, #270	; 0x10e
  201226:	f6c2 0020 	movt	r0, #10272	; 0x2820
  20122a:	3820      	subs	r0, #32
  20122c:	9002      	str	r0, [sp, #8]
  20122e:	f240 000e 	movw	r0, #14
  201232:	f6c2 0020 	movt	r0, #10272	; 0x2820
  201236:	f640 0311 	movw	r3, #2065	; 0x811
  20123a:	3820      	subs	r0, #32
  20123c:	f6c2 0320 	movt	r3, #10272	; 0x2820
  201240:	9001      	str	r0, [sp, #4]
  201242:	bf00      	nop
  201244:	f240 0000 	movw	r0, #0
  201248:	f6c2 0020 	movt	r0, #10272	; 0x2820
  20124c:	f8b0 9000 	ldrh.w	r9, [r0]
  201250:	f240 3114 	movw	r1, #788	; 0x314
  201254:	f6c2 0120 	movt	r1, #10272	; 0x2820
  201258:	e012      	b.n	201280 <benchmark_picojpeg+0xca8>
  20125a:	bf00      	nop
  20125c:	f240 0000 	movw	r0, #0
  201260:	f6c2 0020 	movt	r0, #10272	; 0x2820
  201264:	f8b0 9000 	ldrh.w	r9, [r0]
  201268:	f240 3114 	movw	r1, #788	; 0x314
  20126c:	f6c2 0120 	movt	r1, #10272	; 0x2820
  201270:	f240 0000 	movw	r0, #0
  201274:	f1a9 0901 	sub.w	r9, r9, #1
  201278:	f6c2 0020 	movt	r0, #10272	; 0x2820
  20127c:	f8a0 9000 	strh.w	r9, [r0]
  201280:	ea5f 4009 	movs.w	r0, r9, lsl #16
  201284:	bf04      	itt	eq
  201286:	b00b      	addeq	sp, #44	; 0x2c
  201288:	e8bd 8ff0 	ldmiaeq.w	sp!, {r4, r5, r6, r7, r8, r9, sl, fp, pc}
  20128c:	f240 3012 	movw	r0, #786	; 0x312
  201290:	f6c2 0020 	movt	r0, #10272	; 0x2820
  201294:	f8b0 8000 	ldrh.w	r8, [r0]
  201298:	f1b8 0f00 	cmp.w	r8, #0
  20129c:	d005      	beq.n	2012aa <benchmark_picojpeg+0xcd2>
  20129e:	8808      	ldrh	r0, [r1, #0]
  2012a0:	2800      	cmp	r0, #0
  2012a2:	f001 8687 	beq.w	202fb4 <benchmark_picojpeg+0x29dc>
  2012a6:	3801      	subs	r0, #1
  2012a8:	8008      	strh	r0, [r1, #0]
  2012aa:	f240 3016 	movw	r0, #790	; 0x316
  2012ae:	f6c2 0020 	movt	r0, #10272	; 0x2820
  2012b2:	7800      	ldrb	r0, [r0, #0]
  2012b4:	2800      	cmp	r0, #0
  2012b6:	d0db      	beq.n	201270 <benchmark_picojpeg+0xc98>
  2012b8:	2200      	movs	r2, #0
  2012ba:	e014      	b.n	2012e6 <benchmark_picojpeg+0xd0e>
  2012bc:	f240 3016 	movw	r0, #790	; 0x316
  2012c0:	f6c2 0020 	movt	r0, #10272	; 0x2820
  2012c4:	9a06      	ldr	r2, [sp, #24]
  2012c6:	7800      	ldrb	r0, [r0, #0]
  2012c8:	3201      	adds	r2, #1
  2012ca:	f640 0c10 	movw	ip, #2064	; 0x810
  2012ce:	f640 1e14 	movw	lr, #2324	; 0x914
  2012d2:	f640 0311 	movw	r3, #2065	; 0x811
  2012d6:	4282      	cmp	r2, r0
  2012d8:	f6c2 0c20 	movt	ip, #10272	; 0x2820
  2012dc:	f6c2 0e20 	movt	lr, #10272	; 0x2820
  2012e0:	f6c2 0320 	movt	r3, #10272	; 0x2820
  2012e4:	d2ba      	bcs.n	20125c <benchmark_picojpeg+0xc84>
  2012e6:	f240 3018 	movw	r0, #792	; 0x318
  2012ea:	f6c2 0020 	movt	r0, #10272	; 0x2820
  2012ee:	5c85      	ldrb	r5, [r0, r2]
  2012f0:	f240 301e 	movw	r0, #798	; 0x31e
  2012f4:	f6c2 0020 	movt	r0, #10272	; 0x2820
  2012f8:	5d40      	ldrb	r0, [r0, r5]
  2012fa:	f240 3121 	movw	r1, #801	; 0x321
  2012fe:	2800      	cmp	r0, #0
  201300:	f240 3424 	movw	r4, #804	; 0x324
  201304:	f240 30a4 	movw	r0, #932	; 0x3a4
  201308:	f6c2 0120 	movt	r1, #10272	; 0x2820
  20130c:	f6c2 0420 	movt	r4, #10272	; 0x2820
  201310:	f6c2 0020 	movt	r0, #10272	; 0x2820
  201314:	5d49      	ldrb	r1, [r1, r5]
  201316:	bf08      	it	eq
  201318:	4604      	moveq	r4, r0
  20131a:	f240 4924 	movw	r9, #1060	; 0x424
  20131e:	f240 4074 	movw	r0, #1140	; 0x474
  201322:	f6c2 0920 	movt	r9, #10272	; 0x2820
  201326:	f6c2 0020 	movt	r0, #10272	; 0x2820
  20132a:	9408      	str	r4, [sp, #32]
  20132c:	2900      	cmp	r1, #0
  20132e:	bf08      	it	eq
  201330:	4681      	moveq	r9, r0
  201332:	f240 46c4 	movw	r6, #1220	; 0x4c4
  201336:	f240 40d4 	movw	r0, #1236	; 0x4d4
  20133a:	f6c2 0620 	movt	r6, #10272	; 0x2820
  20133e:	f6c2 0020 	movt	r0, #10272	; 0x2820
  201342:	bf08      	it	eq
  201344:	4606      	moveq	r6, r0
  201346:	f640 1116 	movw	r1, #2326	; 0x916
  20134a:	f89c 0000 	ldrb.w	r0, [ip]
  20134e:	f6c2 0120 	movt	r1, #10272	; 0x2820
  201352:	880c      	ldrh	r4, [r1, #0]
  201354:	9509      	str	r5, [sp, #36]	; 0x24
  201356:	e9cd 6205 	strd	r6, r2, [sp, #20]
  20135a:	b108      	cbz	r0, 201360 <benchmark_picojpeg+0xd88>
  20135c:	4621      	mov	r1, r4
  20135e:	e010      	b.n	201382 <benchmark_picojpeg+0xdaa>
  201360:	f002 ff22 	bl	2041a8 <getOctet>
  201364:	f640 0311 	movw	r3, #2065	; 0x811
  201368:	f640 1e14 	movw	lr, #2324	; 0x914
  20136c:	f640 0c10 	movw	ip, #2064	; 0x810
  201370:	f6c2 0320 	movt	r3, #10272	; 0x2820
  201374:	f6c2 0e20 	movt	lr, #10272	; 0x2820
  201378:	f6c2 0c20 	movt	ip, #10272	; 0x2820
  20137c:	ea44 0100 	orr.w	r1, r4, r0
  201380:	2008      	movs	r0, #8
  201382:	004d      	lsls	r5, r1, #1
  201384:	f640 1116 	movw	r1, #2326	; 0x916
  201388:	f6c2 0120 	movt	r1, #10272	; 0x2820
  20138c:	800d      	strh	r5, [r1, #0]
  20138e:	f640 1128 	movw	r1, #2344	; 0x928
  201392:	f6c2 0120 	movt	r1, #10272	; 0x2820
  201396:	f8d1 8000 	ldr.w	r8, [r1]
  20139a:	f640 0112 	movw	r1, #2066	; 0x812
  20139e:	f6c2 0120 	movt	r1, #10272	; 0x2820
  2013a2:	781e      	ldrb	r6, [r3, #0]
  2013a4:	f89e b000 	ldrb.w	fp, [lr]
  2013a8:	f891 a000 	ldrb.w	sl, [r1]
  2013ac:	0be4      	lsrs	r4, r4, #15
  2013ae:	3801      	subs	r0, #1
  2013b0:	2700      	movs	r7, #0
  2013b2:	f88c 0000 	strb.w	r0, [ip]
  2013b6:	e011      	b.n	2013dc <benchmark_picojpeg+0xe04>
  2013b8:	462a      	mov	r2, r5
  2013ba:	0429      	lsls	r1, r5, #16
  2013bc:	0055      	lsls	r5, r2, #1
  2013be:	f640 1216 	movw	r2, #2326	; 0x916
  2013c2:	f6c2 0220 	movt	r2, #10272	; 0x2820
  2013c6:	8015      	strh	r5, [r2, #0]
  2013c8:	0062      	lsls	r2, r4, #1
  2013ca:	3701      	adds	r7, #1
  2013cc:	ea42 74d1 	orr.w	r4, r2, r1, lsr #31
  2013d0:	3801      	subs	r0, #1
  2013d2:	2f10      	cmp	r7, #16
  2013d4:	f88c 0000 	strb.w	r0, [ip]
  2013d8:	f000 80f2 	beq.w	2015c0 <benchmark_picojpeg+0xfe8>
  2013dc:	eb09 0147 	add.w	r1, r9, r7, lsl #1
  2013e0:	b2a2      	uxth	r2, r4
  2013e2:	8c09      	ldrh	r1, [r1, #32]
  2013e4:	428a      	cmp	r2, r1
  2013e6:	d804      	bhi.n	2013f2 <benchmark_picojpeg+0xe1a>
  2013e8:	f64f 72ff 	movw	r2, #65535	; 0xffff
  2013ec:	4291      	cmp	r1, r2
  2013ee:	f040 80cd 	bne.w	20158c <benchmark_picojpeg+0xfb4>
  2013f2:	0601      	lsls	r1, r0, #24
  2013f4:	d1e0      	bne.n	2013b8 <benchmark_picojpeg+0xde0>
  2013f6:	0630      	lsls	r0, r6, #24
  2013f8:	d12b      	bne.n	201452 <benchmark_picojpeg+0xe7a>
  2013fa:	f240 203a 	movw	r0, #570	; 0x23a
  2013fe:	f04f 0b04 	mov.w	fp, #4
  201402:	eba0 0608 	sub.w	r6, r0, r8
  201406:	20fc      	movs	r0, #252	; 0xfc
  201408:	f88e b000 	strb.w	fp, [lr]
  20140c:	2efc      	cmp	r6, #252	; 0xfc
  20140e:	bf28      	it	cs
  201410:	4606      	movcs	r6, r0
  201412:	f247 106c 	movw	r0, #29036	; 0x716c
  201416:	f2c0 0020 	movt	r0, #32
  20141a:	eb00 0108 	add.w	r1, r0, r8
  20141e:	9807      	ldr	r0, [sp, #28]
  201420:	4632      	mov	r2, r6
  201422:	f7ff f83f 	bl	2004a4 <__rt_memcpy>
  201426:	0630      	lsls	r0, r6, #24
  201428:	f640 0311 	movw	r3, #2065	; 0x811
  20142c:	f640 1028 	movw	r0, #2344	; 0x928
  201430:	f6c2 0320 	movt	r3, #10272	; 0x2820
  201434:	44b0      	add	r8, r6
  201436:	f6c2 0020 	movt	r0, #10272	; 0x2820
  20143a:	701e      	strb	r6, [r3, #0]
  20143c:	f8c0 8000 	str.w	r8, [r0]
  201440:	d01a      	beq.n	201478 <benchmark_picojpeg+0xea0>
  201442:	f640 0c10 	movw	ip, #2064	; 0x810
  201446:	f640 1e14 	movw	lr, #2324	; 0x914
  20144a:	f6c2 0c20 	movt	ip, #10272	; 0x2820
  20144e:	f6c2 0e20 	movt	lr, #10272	; 0x2820
  201452:	f640 0114 	movw	r1, #2068	; 0x814
  201456:	fa5f f08b 	uxtb.w	r0, fp
  20145a:	f6c2 0120 	movt	r1, #10272	; 0x2820
  20145e:	5c08      	ldrb	r0, [r1, r0]
  201460:	3e01      	subs	r6, #1
  201462:	f10b 0b01 	add.w	fp, fp, #1
  201466:	28ff      	cmp	r0, #255	; 0xff
  201468:	701e      	strb	r6, [r3, #0]
  20146a:	f88e b000 	strb.w	fp, [lr]
  20146e:	f040 8087 	bne.w	201580 <benchmark_picojpeg+0xfa8>
  201472:	0630      	lsls	r0, r6, #24
  201474:	d148      	bne.n	201508 <benchmark_picojpeg+0xf30>
  201476:	e01b      	b.n	2014b0 <benchmark_picojpeg+0xed8>
  201478:	f640 0012 	movw	r0, #2066	; 0x812
  20147c:	f640 0c10 	movw	ip, #2064	; 0x810
  201480:	f08a 01ff 	eor.w	r1, sl, #255	; 0xff
  201484:	f1ba 0fff 	cmp.w	sl, #255	; 0xff
  201488:	f6c2 0020 	movt	r0, #10272	; 0x2820
  20148c:	f6c2 0c20 	movt	ip, #10272	; 0x2820
  201490:	7001      	strb	r1, [r0, #0]
  201492:	d108      	bne.n	2014a6 <benchmark_picojpeg+0xece>
  201494:	f640 1e14 	movw	lr, #2324	; 0x914
  201498:	20d9      	movs	r0, #217	; 0xd9
  20149a:	2600      	movs	r6, #0
  20149c:	f04f 0b04 	mov.w	fp, #4
  2014a0:	f6c2 0e20 	movt	lr, #10272	; 0x2820
  2014a4:	e06d      	b.n	201582 <benchmark_picojpeg+0xfaa>
  2014a6:	f640 1e14 	movw	lr, #2324	; 0x914
  2014aa:	468a      	mov	sl, r1
  2014ac:	f6c2 0e20 	movt	lr, #10272	; 0x2820
  2014b0:	f240 203a 	movw	r0, #570	; 0x23a
  2014b4:	f04f 0b04 	mov.w	fp, #4
  2014b8:	eba0 0608 	sub.w	r6, r0, r8
  2014bc:	20fc      	movs	r0, #252	; 0xfc
  2014be:	f88e b000 	strb.w	fp, [lr]
  2014c2:	2efc      	cmp	r6, #252	; 0xfc
  2014c4:	bf28      	it	cs
  2014c6:	4606      	movcs	r6, r0
  2014c8:	f247 106c 	movw	r0, #29036	; 0x716c
  2014cc:	f2c0 0020 	movt	r0, #32
  2014d0:	eb00 0108 	add.w	r1, r0, r8
  2014d4:	9807      	ldr	r0, [sp, #28]
  2014d6:	4632      	mov	r2, r6
  2014d8:	f7fe ffe4 	bl	2004a4 <__rt_memcpy>
  2014dc:	0630      	lsls	r0, r6, #24
  2014de:	f640 0311 	movw	r3, #2065	; 0x811
  2014e2:	f640 1028 	movw	r0, #2344	; 0x928
  2014e6:	f6c2 0320 	movt	r3, #10272	; 0x2820
  2014ea:	44b0      	add	r8, r6
  2014ec:	f6c2 0020 	movt	r0, #10272	; 0x2820
  2014f0:	701e      	strb	r6, [r3, #0]
  2014f2:	f8c0 8000 	str.w	r8, [r0]
  2014f6:	d017      	beq.n	201528 <benchmark_picojpeg+0xf50>
  2014f8:	f640 0c10 	movw	ip, #2064	; 0x810
  2014fc:	f640 1e14 	movw	lr, #2324	; 0x914
  201500:	f6c2 0c20 	movt	ip, #10272	; 0x2820
  201504:	f6c2 0e20 	movt	lr, #10272	; 0x2820
  201508:	f640 0114 	movw	r1, #2068	; 0x814
  20150c:	fa5f f08b 	uxtb.w	r0, fp
  201510:	f6c2 0120 	movt	r1, #10272	; 0x2820
  201514:	5c08      	ldrb	r0, [r1, r0]
  201516:	3e01      	subs	r6, #1
  201518:	f10b 0b01 	add.w	fp, fp, #1
  20151c:	701e      	strb	r6, [r3, #0]
  20151e:	f88e b000 	strb.w	fp, [lr]
  201522:	b9d8      	cbnz	r0, 20155c <benchmark_picojpeg+0xf84>
  201524:	20ff      	movs	r0, #255	; 0xff
  201526:	e02b      	b.n	201580 <benchmark_picojpeg+0xfa8>
  201528:	f640 0012 	movw	r0, #2066	; 0x812
  20152c:	f1ba 0fff 	cmp.w	sl, #255	; 0xff
  201530:	f08a 0aff 	eor.w	sl, sl, #255	; 0xff
  201534:	f6c2 0020 	movt	r0, #10272	; 0x2820
  201538:	f640 0c10 	movw	ip, #2064	; 0x810
  20153c:	f640 1e14 	movw	lr, #2324	; 0x914
  201540:	f880 a000 	strb.w	sl, [r0]
  201544:	f04f 30ff 	mov.w	r0, #4294967295
  201548:	f04f 0b04 	mov.w	fp, #4
  20154c:	bf08      	it	eq
  20154e:	f06f 0026 	mvneq.w	r0, #38	; 0x26
  201552:	2600      	movs	r6, #0
  201554:	f6c2 0c20 	movt	ip, #10272	; 0x2820
  201558:	f6c2 0e20 	movt	lr, #10272	; 0x2820
  20155c:	f1ab 0101 	sub.w	r1, fp, #1
  201560:	f640 0214 	movw	r2, #2068	; 0x814
  201564:	b2c9      	uxtb	r1, r1
  201566:	f6c2 0220 	movt	r2, #10272	; 0x2820
  20156a:	f1ab 0b02 	sub.w	fp, fp, #2
  20156e:	5450      	strb	r0, [r2, r1]
  201570:	fa5f f18b 	uxtb.w	r1, fp
  201574:	20ff      	movs	r0, #255	; 0xff
  201576:	3602      	adds	r6, #2
  201578:	f88e b000 	strb.w	fp, [lr]
  20157c:	5450      	strb	r0, [r2, r1]
  20157e:	701e      	strb	r6, [r3, #0]
  201580:	4651      	mov	r1, sl
  201582:	ea45 0200 	orr.w	r2, r5, r0
  201586:	2008      	movs	r0, #8
  201588:	468a      	mov	sl, r1
  20158a:	e716      	b.n	2013ba <benchmark_picojpeg+0xde2>
  20158c:	eb09 0007 	add.w	r0, r9, r7
  201590:	f890 0040 	ldrb.w	r0, [r0, #64]	; 0x40
  201594:	f819 1017 	ldrb.w	r1, [r9, r7, lsl #1]
  201598:	4420      	add	r0, r4
  20159a:	1a40      	subs	r0, r0, r1
  20159c:	9905      	ldr	r1, [sp, #20]
  20159e:	b2c0      	uxtb	r0, r0
  2015a0:	5c0c      	ldrb	r4, [r1, r0]
  2015a2:	f014 000f 	ands.w	r0, r4, #15
  2015a6:	d012      	beq.n	2015ce <benchmark_picojpeg+0xff6>
  2015a8:	f002 fdb2 	bl	204110 <getBits>
  2015ac:	f640 1e14 	movw	lr, #2324	; 0x914
  2015b0:	f640 0c10 	movw	ip, #2064	; 0x810
  2015b4:	f6c2 0e20 	movt	lr, #10272	; 0x2820
  2015b8:	f6c2 0c20 	movt	ip, #10272	; 0x2820
  2015bc:	e008      	b.n	2015d0 <benchmark_picojpeg+0xff8>
  2015be:	bf00      	nop
  2015c0:	f240 43ea 	movw	r3, #1258	; 0x4ea
  2015c4:	9d09      	ldr	r5, [sp, #36]	; 0x24
  2015c6:	2000      	movs	r0, #0
  2015c8:	f6c2 0320 	movt	r3, #10272	; 0x2820
  2015cc:	e018      	b.n	201600 <benchmark_picojpeg+0x1028>
  2015ce:	2000      	movs	r0, #0
  2015d0:	1e61      	subs	r1, r4, #1
  2015d2:	f240 43ea 	movw	r3, #1258	; 0x4ea
  2015d6:	9d09      	ldr	r5, [sp, #36]	; 0x24
  2015d8:	b2c9      	uxtb	r1, r1
  2015da:	f6c2 0320 	movt	r3, #10272	; 0x2820
  2015de:	290e      	cmp	r1, #14
  2015e0:	d80e      	bhi.n	201600 <benchmark_picojpeg+0x1028>
  2015e2:	f247 1230 	movw	r2, #28976	; 0x7130
  2015e6:	f2c0 0220 	movt	r2, #32
  2015ea:	f832 2011 	ldrh.w	r2, [r2, r1, lsl #1]
  2015ee:	4282      	cmp	r2, r0
  2015f0:	d906      	bls.n	201600 <benchmark_picojpeg+0x1028>
  2015f2:	f247 124e 	movw	r2, #29006	; 0x714e
  2015f6:	f2c0 0220 	movt	r2, #32
  2015fa:	f832 1011 	ldrh.w	r1, [r2, r1, lsl #1]
  2015fe:	4408      	add	r0, r1
  201600:	f240 42e4 	movw	r2, #1252	; 0x4e4
  201604:	f6c2 0220 	movt	r2, #10272	; 0x2820
  201608:	f832 1015 	ldrh.w	r1, [r2, r5, lsl #1]
  20160c:	f240 546e 	movw	r4, #1390	; 0x56e
  201610:	4408      	add	r0, r1
  201612:	9908      	ldr	r1, [sp, #32]
  201614:	f822 0015 	strh.w	r0, [r2, r5, lsl #1]
  201618:	8809      	ldrh	r1, [r1, #0]
  20161a:	f6c2 0420 	movt	r4, #10272	; 0x2820
  20161e:	fb01 f000 	mul.w	r0, r1, r0
  201622:	f240 516a 	movw	r1, #1386	; 0x56a
  201626:	f6c2 0120 	movt	r1, #10272	; 0x2820
  20162a:	5d49      	ldrb	r1, [r1, r5]
  20162c:	8018      	strh	r0, [r3, #0]
  20162e:	f240 50be 	movw	r0, #1470	; 0x5be
  201632:	2900      	cmp	r1, #0
  201634:	f6c2 0020 	movt	r0, #10272	; 0x2820
  201638:	bf08      	it	eq
  20163a:	4604      	moveq	r4, r0
  20163c:	f240 610e 	movw	r1, #1550	; 0x60e
  201640:	f6c2 0120 	movt	r1, #10272	; 0x2820
  201644:	f240 700e 	movw	r0, #1806	; 0x70e
  201648:	f04f 0601 	mov.w	r6, #1
  20164c:	f04f 0301 	mov.w	r3, #1
  201650:	f6c2 0020 	movt	r0, #10272	; 0x2820
  201654:	bf08      	it	eq
  201656:	4601      	moveq	r1, r0
  201658:	9104      	str	r1, [sp, #16]
  20165a:	f640 1116 	movw	r1, #2326	; 0x916
  20165e:	f89c 0000 	ldrb.w	r0, [ip]
  201662:	f6c2 0120 	movt	r1, #10272	; 0x2820
  201666:	880d      	ldrh	r5, [r1, #0]
  201668:	9309      	str	r3, [sp, #36]	; 0x24
  20166a:	9605      	str	r6, [sp, #20]
  20166c:	b110      	cbz	r0, 201674 <benchmark_picojpeg+0x109c>
  20166e:	4629      	mov	r1, r5
  201670:	e00d      	b.n	20168e <benchmark_picojpeg+0x10b6>
  201672:	bf00      	nop
  201674:	f002 fd98 	bl	2041a8 <getOctet>
  201678:	f640 1e14 	movw	lr, #2324	; 0x914
  20167c:	f640 0c10 	movw	ip, #2064	; 0x810
  201680:	f6c2 0e20 	movt	lr, #10272	; 0x2820
  201684:	f6c2 0c20 	movt	ip, #10272	; 0x2820
  201688:	ea45 0100 	orr.w	r1, r5, r0
  20168c:	2008      	movs	r0, #8
  20168e:	ea4f 0941 	mov.w	r9, r1, lsl #1
  201692:	f640 1116 	movw	r1, #2326	; 0x916
  201696:	f6c2 0120 	movt	r1, #10272	; 0x2820
  20169a:	f8a1 9000 	strh.w	r9, [r1]
  20169e:	f640 1128 	movw	r1, #2344	; 0x928
  2016a2:	f6c2 0120 	movt	r1, #10272	; 0x2820
  2016a6:	f640 0311 	movw	r3, #2065	; 0x811
  2016aa:	680f      	ldr	r7, [r1, #0]
  2016ac:	f640 0112 	movw	r1, #2066	; 0x812
  2016b0:	f6c2 0320 	movt	r3, #10272	; 0x2820
  2016b4:	f6c2 0120 	movt	r1, #10272	; 0x2820
  2016b8:	ea4f 3bd5 	mov.w	fp, r5, lsr #15
  2016bc:	781e      	ldrb	r6, [r3, #0]
  2016be:	f89e 5000 	ldrb.w	r5, [lr]
  2016c2:	f891 a000 	ldrb.w	sl, [r1]
  2016c6:	3801      	subs	r0, #1
  2016c8:	f04f 0800 	mov.w	r8, #0
  2016cc:	f88c 0000 	strb.w	r0, [ip]
  2016d0:	e018      	b.n	201704 <benchmark_picojpeg+0x112c>
  2016d2:	bf00      	nop
  2016d4:	464a      	mov	r2, r9
  2016d6:	ea4f 4109 	mov.w	r1, r9, lsl #16
  2016da:	ea4f 0942 	mov.w	r9, r2, lsl #1
  2016de:	f640 1216 	movw	r2, #2326	; 0x916
  2016e2:	f6c2 0220 	movt	r2, #10272	; 0x2820
  2016e6:	f8a2 9000 	strh.w	r9, [r2]
  2016ea:	ea4f 024b 	mov.w	r2, fp, lsl #1
  2016ee:	f108 0801 	add.w	r8, r8, #1
  2016f2:	ea42 7bd1 	orr.w	fp, r2, r1, lsr #31
  2016f6:	3801      	subs	r0, #1
  2016f8:	f1b8 0f10 	cmp.w	r8, #16
  2016fc:	f88c 0000 	strb.w	r0, [ip]
  201700:	f000 824c 	beq.w	201b9c <benchmark_picojpeg+0x15c4>
  201704:	eb04 0148 	add.w	r1, r4, r8, lsl #1
  201708:	fa1f f28b 	uxth.w	r2, fp
  20170c:	8c09      	ldrh	r1, [r1, #32]
  20170e:	428a      	cmp	r2, r1
  201710:	d804      	bhi.n	20171c <benchmark_picojpeg+0x1144>
  201712:	f64f 72ff 	movw	r2, #65535	; 0xffff
  201716:	4291      	cmp	r1, r2
  201718:	f040 80bc 	bne.w	201894 <benchmark_picojpeg+0x12bc>
  20171c:	0601      	lsls	r1, r0, #24
  20171e:	d1d9      	bne.n	2016d4 <benchmark_picojpeg+0x10fc>
  201720:	0630      	lsls	r0, r6, #24
  201722:	d127      	bne.n	201774 <benchmark_picojpeg+0x119c>
  201724:	f240 203a 	movw	r0, #570	; 0x23a
  201728:	2504      	movs	r5, #4
  20172a:	1bc6      	subs	r6, r0, r7
  20172c:	20fc      	movs	r0, #252	; 0xfc
  20172e:	f88e 5000 	strb.w	r5, [lr]
  201732:	2efc      	cmp	r6, #252	; 0xfc
  201734:	bf28      	it	cs
  201736:	4606      	movcs	r6, r0
  201738:	f247 106c 	movw	r0, #29036	; 0x716c
  20173c:	f2c0 0020 	movt	r0, #32
  201740:	19c1      	adds	r1, r0, r7
  201742:	9807      	ldr	r0, [sp, #28]
  201744:	4632      	mov	r2, r6
  201746:	f7fe fead 	bl	2004a4 <__rt_memcpy>
  20174a:	0630      	lsls	r0, r6, #24
  20174c:	f640 0311 	movw	r3, #2065	; 0x811
  201750:	f640 1028 	movw	r0, #2344	; 0x928
  201754:	f6c2 0320 	movt	r3, #10272	; 0x2820
  201758:	4437      	add	r7, r6
  20175a:	f6c2 0020 	movt	r0, #10272	; 0x2820
  20175e:	701e      	strb	r6, [r3, #0]
  201760:	6007      	str	r7, [r0, #0]
  201762:	d017      	beq.n	201794 <benchmark_picojpeg+0x11bc>
  201764:	f640 0c10 	movw	ip, #2064	; 0x810
  201768:	f640 1e14 	movw	lr, #2324	; 0x914
  20176c:	f6c2 0c20 	movt	ip, #10272	; 0x2820
  201770:	f6c2 0e20 	movt	lr, #10272	; 0x2820
  201774:	f640 0114 	movw	r1, #2068	; 0x814
  201778:	b2e8      	uxtb	r0, r5
  20177a:	f6c2 0120 	movt	r1, #10272	; 0x2820
  20177e:	5c08      	ldrb	r0, [r1, r0]
  201780:	3e01      	subs	r6, #1
  201782:	3501      	adds	r5, #1
  201784:	28ff      	cmp	r0, #255	; 0xff
  201786:	701e      	strb	r6, [r3, #0]
  201788:	f88e 5000 	strb.w	r5, [lr]
  20178c:	d17c      	bne.n	201888 <benchmark_picojpeg+0x12b0>
  20178e:	0630      	lsls	r0, r6, #24
  201790:	d143      	bne.n	20181a <benchmark_picojpeg+0x1242>
  201792:	e01a      	b.n	2017ca <benchmark_picojpeg+0x11f2>
  201794:	f640 0012 	movw	r0, #2066	; 0x812
  201798:	f640 0c10 	movw	ip, #2064	; 0x810
  20179c:	f08a 01ff 	eor.w	r1, sl, #255	; 0xff
  2017a0:	f1ba 0fff 	cmp.w	sl, #255	; 0xff
  2017a4:	f6c2 0020 	movt	r0, #10272	; 0x2820
  2017a8:	f6c2 0c20 	movt	ip, #10272	; 0x2820
  2017ac:	7001      	strb	r1, [r0, #0]
  2017ae:	d107      	bne.n	2017c0 <benchmark_picojpeg+0x11e8>
  2017b0:	f640 1e14 	movw	lr, #2324	; 0x914
  2017b4:	20d9      	movs	r0, #217	; 0xd9
  2017b6:	2600      	movs	r6, #0
  2017b8:	2504      	movs	r5, #4
  2017ba:	f6c2 0e20 	movt	lr, #10272	; 0x2820
  2017be:	e064      	b.n	20188a <benchmark_picojpeg+0x12b2>
  2017c0:	f640 1e14 	movw	lr, #2324	; 0x914
  2017c4:	468a      	mov	sl, r1
  2017c6:	f6c2 0e20 	movt	lr, #10272	; 0x2820
  2017ca:	f240 203a 	movw	r0, #570	; 0x23a
  2017ce:	2504      	movs	r5, #4
  2017d0:	1bc6      	subs	r6, r0, r7
  2017d2:	20fc      	movs	r0, #252	; 0xfc
  2017d4:	f88e 5000 	strb.w	r5, [lr]
  2017d8:	2efc      	cmp	r6, #252	; 0xfc
  2017da:	bf28      	it	cs
  2017dc:	4606      	movcs	r6, r0
  2017de:	f247 106c 	movw	r0, #29036	; 0x716c
  2017e2:	f2c0 0020 	movt	r0, #32
  2017e6:	19c1      	adds	r1, r0, r7
  2017e8:	9807      	ldr	r0, [sp, #28]
  2017ea:	4632      	mov	r2, r6
  2017ec:	f7fe fe5a 	bl	2004a4 <__rt_memcpy>
  2017f0:	0630      	lsls	r0, r6, #24
  2017f2:	f640 0311 	movw	r3, #2065	; 0x811
  2017f6:	f640 1028 	movw	r0, #2344	; 0x928
  2017fa:	f6c2 0320 	movt	r3, #10272	; 0x2820
  2017fe:	4437      	add	r7, r6
  201800:	f6c2 0020 	movt	r0, #10272	; 0x2820
  201804:	701e      	strb	r6, [r3, #0]
  201806:	6007      	str	r7, [r0, #0]
  201808:	d015      	beq.n	201836 <benchmark_picojpeg+0x125e>
  20180a:	f640 0c10 	movw	ip, #2064	; 0x810
  20180e:	f640 1e14 	movw	lr, #2324	; 0x914
  201812:	f6c2 0c20 	movt	ip, #10272	; 0x2820
  201816:	f6c2 0e20 	movt	lr, #10272	; 0x2820
  20181a:	f640 0114 	movw	r1, #2068	; 0x814
  20181e:	b2e8      	uxtb	r0, r5
  201820:	f6c2 0120 	movt	r1, #10272	; 0x2820
  201824:	5c08      	ldrb	r0, [r1, r0]
  201826:	3e01      	subs	r6, #1
  201828:	3501      	adds	r5, #1
  20182a:	701e      	strb	r6, [r3, #0]
  20182c:	f88e 5000 	strb.w	r5, [lr]
  201830:	b9d8      	cbnz	r0, 20186a <benchmark_picojpeg+0x1292>
  201832:	20ff      	movs	r0, #255	; 0xff
  201834:	e028      	b.n	201888 <benchmark_picojpeg+0x12b0>
  201836:	f640 0012 	movw	r0, #2066	; 0x812
  20183a:	f1ba 0fff 	cmp.w	sl, #255	; 0xff
  20183e:	f08a 0aff 	eor.w	sl, sl, #255	; 0xff
  201842:	f6c2 0020 	movt	r0, #10272	; 0x2820
  201846:	f640 0c10 	movw	ip, #2064	; 0x810
  20184a:	f640 1e14 	movw	lr, #2324	; 0x914
  20184e:	f880 a000 	strb.w	sl, [r0]
  201852:	f04f 30ff 	mov.w	r0, #4294967295
  201856:	f04f 0504 	mov.w	r5, #4
  20185a:	bf08      	it	eq
  20185c:	f06f 0026 	mvneq.w	r0, #38	; 0x26
  201860:	2600      	movs	r6, #0
  201862:	f6c2 0c20 	movt	ip, #10272	; 0x2820
  201866:	f6c2 0e20 	movt	lr, #10272	; 0x2820
  20186a:	1e69      	subs	r1, r5, #1
  20186c:	f640 0214 	movw	r2, #2068	; 0x814
  201870:	b2c9      	uxtb	r1, r1
  201872:	f6c2 0220 	movt	r2, #10272	; 0x2820
  201876:	3d02      	subs	r5, #2
  201878:	5450      	strb	r0, [r2, r1]
  20187a:	b2e9      	uxtb	r1, r5
  20187c:	20ff      	movs	r0, #255	; 0xff
  20187e:	3602      	adds	r6, #2
  201880:	f88e 5000 	strb.w	r5, [lr]
  201884:	5450      	strb	r0, [r2, r1]
  201886:	701e      	strb	r6, [r3, #0]
  201888:	4651      	mov	r1, sl
  20188a:	ea49 0200 	orr.w	r2, r9, r0
  20188e:	2008      	movs	r0, #8
  201890:	468a      	mov	sl, r1
  201892:	e720      	b.n	2016d6 <benchmark_picojpeg+0x10fe>
  201894:	eb04 0008 	add.w	r0, r4, r8
  201898:	f890 0040 	ldrb.w	r0, [r0, #64]	; 0x40
  20189c:	f814 1018 	ldrb.w	r1, [r4, r8, lsl #1]
  2018a0:	4458      	add	r0, fp
  2018a2:	1a40      	subs	r0, r0, r1
  2018a4:	9904      	ldr	r1, [sp, #16]
  2018a6:	b2c0      	uxtb	r0, r0
  2018a8:	5c0d      	ldrb	r5, [r1, r0]
  2018aa:	f015 000f 	ands.w	r0, r5, #15
  2018ae:	f000 80e7 	beq.w	201a80 <benchmark_picojpeg+0x14a8>
  2018b2:	f002 fc2d 	bl	204110 <getBits>
  2018b6:	092a      	lsrs	r2, r5, #4
  2018b8:	f000 8136 	beq.w	201b28 <benchmark_picojpeg+0x1550>
  2018bc:	9905      	ldr	r1, [sp, #20]
  2018be:	f640 0c10 	movw	ip, #2064	; 0x810
  2018c2:	4411      	add	r1, r2
  2018c4:	f640 1e14 	movw	lr, #2324	; 0x914
  2018c8:	f640 0311 	movw	r3, #2065	; 0x811
  2018cc:	f8dd 8024 	ldr.w	r8, [sp, #36]	; 0x24
  2018d0:	293f      	cmp	r1, #63	; 0x3f
  2018d2:	f6c2 0c20 	movt	ip, #10272	; 0x2820
  2018d6:	f6c2 0e20 	movt	lr, #10272	; 0x2820
  2018da:	f6c2 0320 	movt	r3, #10272	; 0x2820
  2018de:	f04f 0a80 	mov.w	sl, #128	; 0x80
  2018e2:	f63f acaf 	bhi.w	201244 <benchmark_picojpeg+0xc6c>
  2018e6:	f247 06f0 	movw	r6, #28912	; 0x70f0
  2018ea:	fa5f f388 	uxtb.w	r3, r8
  2018ee:	f2c0 0620 	movt	r6, #32
  2018f2:	56f3      	ldrsb	r3, [r6, r3]
  2018f4:	f240 49ea 	movw	r9, #1258	; 0x4ea
  2018f8:	f108 0101 	add.w	r1, r8, #1
  2018fc:	2a01      	cmp	r2, #1
  2018fe:	f04f 0600 	mov.w	r6, #0
  201902:	f6c2 0920 	movt	r9, #10272	; 0x2820
  201906:	f829 6013 	strh.w	r6, [r9, r3, lsl #1]
  20190a:	f000 811c 	beq.w	201b46 <benchmark_picojpeg+0x156e>
  20190e:	f247 03f0 	movw	r3, #28912	; 0x70f0
  201912:	b2c9      	uxtb	r1, r1
  201914:	f2c0 0320 	movt	r3, #32
  201918:	5659      	ldrsb	r1, [r3, r1]
  20191a:	f108 0302 	add.w	r3, r8, #2
  20191e:	f829 6011 	strh.w	r6, [r9, r1, lsl #1]
  201922:	2a02      	cmp	r2, #2
  201924:	4619      	mov	r1, r3
  201926:	f000 810e 	beq.w	201b46 <benchmark_picojpeg+0x156e>
  20192a:	f247 07f0 	movw	r7, #28912	; 0x70f0
  20192e:	b2db      	uxtb	r3, r3
  201930:	f2c0 0720 	movt	r7, #32
  201934:	56fb      	ldrsb	r3, [r7, r3]
  201936:	f108 0103 	add.w	r1, r8, #3
  20193a:	2a03      	cmp	r2, #3
  20193c:	f829 6013 	strh.w	r6, [r9, r3, lsl #1]
  201940:	f000 8101 	beq.w	201b46 <benchmark_picojpeg+0x156e>
  201944:	f247 03f0 	movw	r3, #28912	; 0x70f0
  201948:	b2c9      	uxtb	r1, r1
  20194a:	f2c0 0320 	movt	r3, #32
  20194e:	5659      	ldrsb	r1, [r3, r1]
  201950:	f108 0304 	add.w	r3, r8, #4
  201954:	f829 6011 	strh.w	r6, [r9, r1, lsl #1]
  201958:	2a04      	cmp	r2, #4
  20195a:	4619      	mov	r1, r3
  20195c:	f000 80f3 	beq.w	201b46 <benchmark_picojpeg+0x156e>
  201960:	f247 07f0 	movw	r7, #28912	; 0x70f0
  201964:	b2db      	uxtb	r3, r3
  201966:	f2c0 0720 	movt	r7, #32
  20196a:	56fb      	ldrsb	r3, [r7, r3]
  20196c:	f108 0105 	add.w	r1, r8, #5
  201970:	2a05      	cmp	r2, #5
  201972:	f829 6013 	strh.w	r6, [r9, r3, lsl #1]
  201976:	f000 80e6 	beq.w	201b46 <benchmark_picojpeg+0x156e>
  20197a:	f247 03f0 	movw	r3, #28912	; 0x70f0
  20197e:	b2c9      	uxtb	r1, r1
  201980:	f2c0 0320 	movt	r3, #32
  201984:	5659      	ldrsb	r1, [r3, r1]
  201986:	f108 0306 	add.w	r3, r8, #6
  20198a:	f829 6011 	strh.w	r6, [r9, r1, lsl #1]
  20198e:	2a06      	cmp	r2, #6
  201990:	4619      	mov	r1, r3
  201992:	f000 80d8 	beq.w	201b46 <benchmark_picojpeg+0x156e>
  201996:	f247 07f0 	movw	r7, #28912	; 0x70f0
  20199a:	b2db      	uxtb	r3, r3
  20199c:	f2c0 0720 	movt	r7, #32
  2019a0:	56fb      	ldrsb	r3, [r7, r3]
  2019a2:	f108 0107 	add.w	r1, r8, #7
  2019a6:	2a07      	cmp	r2, #7
  2019a8:	f829 6013 	strh.w	r6, [r9, r3, lsl #1]
  2019ac:	f000 80cb 	beq.w	201b46 <benchmark_picojpeg+0x156e>
  2019b0:	f247 03f0 	movw	r3, #28912	; 0x70f0
  2019b4:	b2c9      	uxtb	r1, r1
  2019b6:	f2c0 0320 	movt	r3, #32
  2019ba:	5659      	ldrsb	r1, [r3, r1]
  2019bc:	f108 0308 	add.w	r3, r8, #8
  2019c0:	f829 6011 	strh.w	r6, [r9, r1, lsl #1]
  2019c4:	2a08      	cmp	r2, #8
  2019c6:	4619      	mov	r1, r3
  2019c8:	f000 80bd 	beq.w	201b46 <benchmark_picojpeg+0x156e>
  2019cc:	f247 07f0 	movw	r7, #28912	; 0x70f0
  2019d0:	b2db      	uxtb	r3, r3
  2019d2:	f2c0 0720 	movt	r7, #32
  2019d6:	56fb      	ldrsb	r3, [r7, r3]
  2019d8:	f108 0109 	add.w	r1, r8, #9
  2019dc:	2a09      	cmp	r2, #9
  2019de:	f829 6013 	strh.w	r6, [r9, r3, lsl #1]
  2019e2:	f000 80b0 	beq.w	201b46 <benchmark_picojpeg+0x156e>
  2019e6:	f247 03f0 	movw	r3, #28912	; 0x70f0
  2019ea:	b2c9      	uxtb	r1, r1
  2019ec:	f2c0 0320 	movt	r3, #32
  2019f0:	5659      	ldrsb	r1, [r3, r1]
  2019f2:	f108 030a 	add.w	r3, r8, #10
  2019f6:	f829 6011 	strh.w	r6, [r9, r1, lsl #1]
  2019fa:	2a0a      	cmp	r2, #10
  2019fc:	4619      	mov	r1, r3
  2019fe:	f000 80a2 	beq.w	201b46 <benchmark_picojpeg+0x156e>
  201a02:	f247 07f0 	movw	r7, #28912	; 0x70f0
  201a06:	b2db      	uxtb	r3, r3
  201a08:	f2c0 0720 	movt	r7, #32
  201a0c:	56fb      	ldrsb	r3, [r7, r3]
  201a0e:	f108 010b 	add.w	r1, r8, #11
  201a12:	2a0b      	cmp	r2, #11
  201a14:	f829 6013 	strh.w	r6, [r9, r3, lsl #1]
  201a18:	f000 8095 	beq.w	201b46 <benchmark_picojpeg+0x156e>
  201a1c:	f247 03f0 	movw	r3, #28912	; 0x70f0
  201a20:	b2c9      	uxtb	r1, r1
  201a22:	f2c0 0320 	movt	r3, #32
  201a26:	5659      	ldrsb	r1, [r3, r1]
  201a28:	f108 030c 	add.w	r3, r8, #12
  201a2c:	f829 6011 	strh.w	r6, [r9, r1, lsl #1]
  201a30:	2a0c      	cmp	r2, #12
  201a32:	4619      	mov	r1, r3
  201a34:	f000 8087 	beq.w	201b46 <benchmark_picojpeg+0x156e>
  201a38:	f247 07f0 	movw	r7, #28912	; 0x70f0
  201a3c:	b2db      	uxtb	r3, r3
  201a3e:	f2c0 0720 	movt	r7, #32
  201a42:	56fb      	ldrsb	r3, [r7, r3]
  201a44:	f108 010d 	add.w	r1, r8, #13
  201a48:	2a0d      	cmp	r2, #13
  201a4a:	f829 6013 	strh.w	r6, [r9, r3, lsl #1]
  201a4e:	d07a      	beq.n	201b46 <benchmark_picojpeg+0x156e>
  201a50:	f247 03f0 	movw	r3, #28912	; 0x70f0
  201a54:	b2c9      	uxtb	r1, r1
  201a56:	f2c0 0320 	movt	r3, #32
  201a5a:	5659      	ldrsb	r1, [r3, r1]
  201a5c:	f108 030e 	add.w	r3, r8, #14
  201a60:	f829 6011 	strh.w	r6, [r9, r1, lsl #1]
  201a64:	2a0e      	cmp	r2, #14
  201a66:	4619      	mov	r1, r3
  201a68:	d06d      	beq.n	201b46 <benchmark_picojpeg+0x156e>
  201a6a:	f247 02f0 	movw	r2, #28912	; 0x70f0
  201a6e:	b2d9      	uxtb	r1, r3
  201a70:	f2c0 0220 	movt	r2, #32
  201a74:	5652      	ldrsb	r2, [r2, r1]
  201a76:	f108 010f 	add.w	r1, r8, #15
  201a7a:	f829 6012 	strh.w	r6, [r9, r2, lsl #1]
  201a7e:	e062      	b.n	201b46 <benchmark_picojpeg+0x156e>
  201a80:	2df0      	cmp	r5, #240	; 0xf0
  201a82:	f0c0 808b 	bcc.w	201b9c <benchmark_picojpeg+0x15c4>
  201a86:	9e09      	ldr	r6, [sp, #36]	; 0x24
  201a88:	f04f 0a80 	mov.w	sl, #128	; 0x80
  201a8c:	b2f0      	uxtb	r0, r6
  201a8e:	2830      	cmp	r0, #48	; 0x30
  201a90:	f63f abd8 	bhi.w	201244 <benchmark_picojpeg+0xc6c>
  201a94:	f247 05f0 	movw	r5, #28912	; 0x70f0
  201a98:	f2c0 0520 	movt	r5, #32
  201a9c:	fa55 f186 	uxtab	r1, r5, r6
  201aa0:	562a      	ldrsb	r2, [r5, r0]
  201aa2:	f240 49ea 	movw	r9, #1258	; 0x4ea
  201aa6:	2000      	movs	r0, #0
  201aa8:	f6c2 0920 	movt	r9, #10272	; 0x2820
  201aac:	f991 3001 	ldrsb.w	r3, [r1, #1]
  201ab0:	f829 0012 	strh.w	r0, [r9, r2, lsl #1]
  201ab4:	f991 2002 	ldrsb.w	r2, [r1, #2]
  201ab8:	f829 0013 	strh.w	r0, [r9, r3, lsl #1]
  201abc:	f991 3003 	ldrsb.w	r3, [r1, #3]
  201ac0:	f829 0012 	strh.w	r0, [r9, r2, lsl #1]
  201ac4:	f991 2004 	ldrsb.w	r2, [r1, #4]
  201ac8:	f829 0013 	strh.w	r0, [r9, r3, lsl #1]
  201acc:	f991 3005 	ldrsb.w	r3, [r1, #5]
  201ad0:	f829 0012 	strh.w	r0, [r9, r2, lsl #1]
  201ad4:	f991 2006 	ldrsb.w	r2, [r1, #6]
  201ad8:	f829 0013 	strh.w	r0, [r9, r3, lsl #1]
  201adc:	f991 3007 	ldrsb.w	r3, [r1, #7]
  201ae0:	f829 0012 	strh.w	r0, [r9, r2, lsl #1]
  201ae4:	f991 2008 	ldrsb.w	r2, [r1, #8]
  201ae8:	f829 0013 	strh.w	r0, [r9, r3, lsl #1]
  201aec:	f991 3009 	ldrsb.w	r3, [r1, #9]
  201af0:	f829 0012 	strh.w	r0, [r9, r2, lsl #1]
  201af4:	f991 200a 	ldrsb.w	r2, [r1, #10]
  201af8:	f829 0013 	strh.w	r0, [r9, r3, lsl #1]
  201afc:	f991 300b 	ldrsb.w	r3, [r1, #11]
  201b00:	f829 0012 	strh.w	r0, [r9, r2, lsl #1]
  201b04:	f991 200c 	ldrsb.w	r2, [r1, #12]
  201b08:	f829 0013 	strh.w	r0, [r9, r3, lsl #1]
  201b0c:	f991 300d 	ldrsb.w	r3, [r1, #13]
  201b10:	f829 0012 	strh.w	r0, [r9, r2, lsl #1]
  201b14:	f991 200e 	ldrsb.w	r2, [r1, #14]
  201b18:	f106 010f 	add.w	r1, r6, #15
  201b1c:	f829 0013 	strh.w	r0, [r9, r3, lsl #1]
  201b20:	f829 0012 	strh.w	r0, [r9, r2, lsl #1]
  201b24:	b2ca      	uxtb	r2, r1
  201b26:	e030      	b.n	201b8a <benchmark_picojpeg+0x15b2>
  201b28:	9909      	ldr	r1, [sp, #36]	; 0x24
  201b2a:	f640 0c10 	movw	ip, #2064	; 0x810
  201b2e:	f640 1e14 	movw	lr, #2324	; 0x914
  201b32:	f240 49ea 	movw	r9, #1258	; 0x4ea
  201b36:	f6c2 0c20 	movt	ip, #10272	; 0x2820
  201b3a:	f6c2 0e20 	movt	lr, #10272	; 0x2820
  201b3e:	f04f 0a80 	mov.w	sl, #128	; 0x80
  201b42:	f6c2 0920 	movt	r9, #10272	; 0x2820
  201b46:	f64f 73ff 	movw	r3, #65535	; 0xffff
  201b4a:	f5a3 7380 	sub.w	r3, r3, #256	; 0x100
  201b4e:	f085 0208 	eor.w	r2, r5, #8
  201b52:	b29b      	uxth	r3, r3
  201b54:	f002 020f 	and.w	r2, r2, #15
  201b58:	40d3      	lsrs	r3, r2
  201b5a:	07db      	lsls	r3, r3, #31
  201b5c:	d102      	bne.n	201b64 <benchmark_picojpeg+0x158c>
  201b5e:	f247 05f0 	movw	r5, #28912	; 0x70f0
  201b62:	e00a      	b.n	201b7a <benchmark_picojpeg+0x15a2>
  201b64:	a3df      	add	r3, pc, #892	; (adr r3, 201ee4 <benchmark_picojpeg+0x190c>)
  201b66:	f833 3012 	ldrh.w	r3, [r3, r2, lsl #1]
  201b6a:	f247 05f0 	movw	r5, #28912	; 0x70f0
  201b6e:	4283      	cmp	r3, r0
  201b70:	bf82      	ittt	hi
  201b72:	a3e4      	addhi	r3, pc, #912	; (adr r3, 201f04 <benchmark_picojpeg+0x192c>)
  201b74:	f833 2012 	ldrhhi.w	r2, [r3, r2, lsl #1]
  201b78:	4410      	addhi	r0, r2
  201b7a:	f2c0 0520 	movt	r5, #32
  201b7e:	9b08      	ldr	r3, [sp, #32]
  201b80:	b2ca      	uxtb	r2, r1
  201b82:	f833 3012 	ldrh.w	r3, [r3, r2, lsl #1]
  201b86:	fb03 f000 	mul.w	r0, r3, r0
  201b8a:	1c4b      	adds	r3, r1, #1
  201b8c:	56aa      	ldrsb	r2, [r5, r2]
  201b8e:	b2de      	uxtb	r6, r3
  201b90:	2e40      	cmp	r6, #64	; 0x40
  201b92:	f829 0012 	strh.w	r0, [r9, r2, lsl #1]
  201b96:	f4ff ad60 	bcc.w	20165a <benchmark_picojpeg+0x1082>
  201b9a:	e047      	b.n	201c2c <benchmark_picojpeg+0x1654>
  201b9c:	9d09      	ldr	r5, [sp, #36]	; 0x24
  201b9e:	4268      	negs	r0, r5
  201ba0:	f010 0203 	ands.w	r2, r0, #3
  201ba4:	b2e9      	uxtb	r1, r5
  201ba6:	d01b      	beq.n	201be0 <benchmark_picojpeg+0x1608>
  201ba8:	f247 06f0 	movw	r6, #28912	; 0x70f0
  201bac:	f2c0 0620 	movt	r6, #32
  201bb0:	5673      	ldrsb	r3, [r6, r1]
  201bb2:	f240 49ea 	movw	r9, #1258	; 0x4ea
  201bb6:	1c48      	adds	r0, r1, #1
  201bb8:	2a01      	cmp	r2, #1
  201bba:	f04f 0700 	mov.w	r7, #0
  201bbe:	f6c2 0920 	movt	r9, #10272	; 0x2820
  201bc2:	f829 7013 	strh.w	r7, [r9, r3, lsl #1]
  201bc6:	d015      	beq.n	201bf4 <benchmark_picojpeg+0x161c>
  201bc8:	5630      	ldrsb	r0, [r6, r0]
  201bca:	1c8b      	adds	r3, r1, #2
  201bcc:	f829 7010 	strh.w	r7, [r9, r0, lsl #1]
  201bd0:	2a02      	cmp	r2, #2
  201bd2:	4618      	mov	r0, r3
  201bd4:	d00e      	beq.n	201bf4 <benchmark_picojpeg+0x161c>
  201bd6:	56f2      	ldrsb	r2, [r6, r3]
  201bd8:	1cc8      	adds	r0, r1, #3
  201bda:	f829 7012 	strh.w	r7, [r9, r2, lsl #1]
  201bde:	e009      	b.n	201bf4 <benchmark_picojpeg+0x161c>
  201be0:	f240 49ea 	movw	r9, #1258	; 0x4ea
  201be4:	f247 06f0 	movw	r6, #28912	; 0x70f0
  201be8:	4608      	mov	r0, r1
  201bea:	2700      	movs	r7, #0
  201bec:	f6c2 0920 	movt	r9, #10272	; 0x2820
  201bf0:	f2c0 0620 	movt	r6, #32
  201bf4:	f1a5 013d 	sub.w	r1, r5, #61	; 0x3d
  201bf8:	b2c9      	uxtb	r1, r1
  201bfa:	2903      	cmp	r1, #3
  201bfc:	f04f 0a80 	mov.w	sl, #128	; 0x80
  201c00:	d314      	bcc.n	201c2c <benchmark_picojpeg+0x1654>
  201c02:	bf00      	nop
  201c04:	5631      	ldrsb	r1, [r6, r0]
  201c06:	1832      	adds	r2, r6, r0
  201c08:	f829 7011 	strh.w	r7, [r9, r1, lsl #1]
  201c0c:	f992 1001 	ldrsb.w	r1, [r2, #1]
  201c10:	3004      	adds	r0, #4
  201c12:	f992 3002 	ldrsb.w	r3, [r2, #2]
  201c16:	f829 7011 	strh.w	r7, [r9, r1, lsl #1]
  201c1a:	f992 1003 	ldrsb.w	r1, [r2, #3]
  201c1e:	b2c2      	uxtb	r2, r0
  201c20:	2a40      	cmp	r2, #64	; 0x40
  201c22:	f829 7013 	strh.w	r7, [r9, r3, lsl #1]
  201c26:	f829 7011 	strh.w	r7, [r9, r1, lsl #1]
  201c2a:	d1eb      	bne.n	201c04 <benchmark_picojpeg+0x162c>
  201c2c:	f04f 0c00 	mov.w	ip, #0
  201c30:	4649      	mov	r1, r9
  201c32:	e04f      	b.n	201cd4 <benchmark_picojpeg+0x16fc>
  201c34:	eba4 0a05 	sub.w	sl, r4, r5
  201c38:	442c      	add	r4, r5
  201c3a:	19c5      	adds	r5, r0, r7
  201c3c:	1a38      	subs	r0, r7, r0
  201c3e:	f04f 0b80 	mov.w	fp, #128	; 0x80
  201c42:	ebaa 0700 	sub.w	r7, sl, r0
  201c46:	22c4      	movs	r2, #196	; 0xc4
  201c48:	fb12 b707 	smlabb	r7, r2, r7, fp
  201c4c:	eba5 0804 	sub.w	r8, r5, r4
  201c50:	442c      	add	r4, r5
  201c52:	f240 1215 	movw	r2, #277	; 0x115
  201c56:	0a3d      	lsrs	r5, r7, #8
  201c58:	fb12 b000 	smlabb	r0, r2, r0, fp
  201c5c:	eb04 2717 	add.w	r7, r4, r7, lsr #8
  201c60:	f240 229d 	movw	r2, #669	; 0x29d
  201c64:	fb12 b20a 	smlabb	r2, r2, sl, fp
  201c68:	f44f 7ab5 	mov.w	sl, #362	; 0x16a
  201c6c:	ebc7 2010 	rsb	r0, r7, r0, lsr #8
  201c70:	fb1a b708 	smlabb	r7, sl, r8, fp
  201c74:	eba5 2212 	sub.w	r2, r5, r2, lsr #8
  201c78:	ebc0 2517 	rsb	r5, r0, r7, lsr #8
  201c7c:	880f      	ldrh	r7, [r1, #0]
  201c7e:	eb05 0802 	add.w	r8, r5, r2
  201c82:	18fa      	adds	r2, r7, r3
  201c84:	1afb      	subs	r3, r7, r3
  201c86:	ebae 0706 	sub.w	r7, lr, r6
  201c8a:	fb1a b707 	smlabb	r7, sl, r7, fp
  201c8e:	4476      	add	r6, lr
  201c90:	ebc6 2717 	rsb	r7, r6, r7, lsr #8
  201c94:	eb02 0e06 	add.w	lr, r2, r6
  201c98:	1b92      	subs	r2, r2, r6
  201c9a:	19de      	adds	r6, r3, r7
  201c9c:	1bdb      	subs	r3, r3, r7
  201c9e:	eb0e 0704 	add.w	r7, lr, r4
  201ca2:	800f      	strh	r7, [r1, #0]
  201ca4:	1837      	adds	r7, r6, r0
  201ca6:	804f      	strh	r7, [r1, #2]
  201ca8:	195f      	adds	r7, r3, r5
  201caa:	808f      	strh	r7, [r1, #4]
  201cac:	eba2 0708 	sub.w	r7, r2, r8
  201cb0:	4442      	add	r2, r8
  201cb2:	810a      	strh	r2, [r1, #8]
  201cb4:	1b5a      	subs	r2, r3, r5
  201cb6:	f04f 0a80 	mov.w	sl, #128	; 0x80
  201cba:	814a      	strh	r2, [r1, #10]
  201cbc:	1a30      	subs	r0, r6, r0
  201cbe:	ebae 0204 	sub.w	r2, lr, r4
  201cc2:	80cf      	strh	r7, [r1, #6]
  201cc4:	8188      	strh	r0, [r1, #12]
  201cc6:	81ca      	strh	r2, [r1, #14]
  201cc8:	3110      	adds	r1, #16
  201cca:	f1bc 0f07 	cmp.w	ip, #7
  201cce:	f10c 0c01 	add.w	ip, ip, #1
  201cd2:	d219      	bcs.n	201d08 <benchmark_picojpeg+0x1730>
  201cd4:	884f      	ldrh	r7, [r1, #2]
  201cd6:	f8b1 e004 	ldrh.w	lr, [r1, #4]
  201cda:	88cd      	ldrh	r5, [r1, #6]
  201cdc:	ea4e 0007 	orr.w	r0, lr, r7
  201ce0:	890b      	ldrh	r3, [r1, #8]
  201ce2:	4328      	orrs	r0, r5
  201ce4:	894c      	ldrh	r4, [r1, #10]
  201ce6:	4318      	orrs	r0, r3
  201ce8:	898e      	ldrh	r6, [r1, #12]
  201cea:	ea40 0204 	orr.w	r2, r0, r4
  201cee:	89c8      	ldrh	r0, [r1, #14]
  201cf0:	4332      	orrs	r2, r6
  201cf2:	4302      	orrs	r2, r0
  201cf4:	0412      	lsls	r2, r2, #16
  201cf6:	d19d      	bne.n	201c34 <benchmark_picojpeg+0x165c>
  201cf8:	880a      	ldrh	r2, [r1, #0]
  201cfa:	804a      	strh	r2, [r1, #2]
  201cfc:	808a      	strh	r2, [r1, #4]
  201cfe:	80ca      	strh	r2, [r1, #6]
  201d00:	810a      	strh	r2, [r1, #8]
  201d02:	814a      	strh	r2, [r1, #10]
  201d04:	818a      	strh	r2, [r1, #12]
  201d06:	e7de      	b.n	201cc6 <benchmark_picojpeg+0x16ee>
  201d08:	f04f 0b00 	mov.w	fp, #0
  201d0c:	4649      	mov	r1, r9
  201d0e:	e0b8      	b.n	201e82 <benchmark_picojpeg+0x18aa>
  201d10:	1bc2      	subs	r2, r0, r7
  201d12:	eb00 0c07 	add.w	ip, r0, r7
  201d16:	1b9f      	subs	r7, r3, r6
  201d18:	1bd0      	subs	r0, r2, r7
  201d1a:	24c4      	movs	r4, #196	; 0xc4
  201d1c:	fb14 a000 	smlabb	r0, r4, r0, sl
  201d20:	f240 249d 	movw	r4, #669	; 0x29d
  201d24:	fb14 a202 	smlabb	r2, r4, r2, sl
  201d28:	4433      	add	r3, r6
  201d2a:	0a06      	lsrs	r6, r0, #8
  201d2c:	f240 1415 	movw	r4, #277	; 0x115
  201d30:	eba6 2212 	sub.w	r2, r6, r2, lsr #8
  201d34:	eb03 060c 	add.w	r6, r3, ip
  201d38:	fb14 a707 	smlabb	r7, r4, r7, sl
  201d3c:	eb06 2010 	add.w	r0, r6, r0, lsr #8
  201d40:	eba3 030c 	sub.w	r3, r3, ip
  201d44:	f44f 78b5 	mov.w	r8, #362	; 0x16a
  201d48:	ebc0 2017 	rsb	r0, r0, r7, lsr #8
  201d4c:	fb18 a303 	smlabb	r3, r8, r3, sl
  201d50:	fa0f fc86 	sxth.w	ip, r6
  201d54:	ebc0 2713 	rsb	r7, r0, r3, lsr #8
  201d58:	b206      	sxth	r6, r0
  201d5a:	b238      	sxth	r0, r7
  201d5c:	443a      	add	r2, r7
  201d5e:	9008      	str	r0, [sp, #32]
  201d60:	8808      	ldrh	r0, [r1, #0]
  201d62:	9209      	str	r2, [sp, #36]	; 0x24
  201d64:	eb00 020e 	add.w	r2, r0, lr
  201d68:	eba9 0405 	sub.w	r4, r9, r5
  201d6c:	444d      	add	r5, r9
  201d6e:	eb02 0905 	add.w	r9, r2, r5
  201d72:	f04f 0a80 	mov.w	sl, #128	; 0x80
  201d76:	fa0c f389 	sxtah	r3, ip, r9
  201d7a:	fb18 a404 	smlabb	r4, r8, r4, sl
  201d7e:	3340      	adds	r3, #64	; 0x40
  201d80:	ebc5 2414 	rsb	r4, r5, r4, lsr #8
  201d84:	eb0a 13d3 	add.w	r3, sl, r3, lsr #7
  201d88:	eba0 000e 	sub.w	r0, r0, lr
  201d8c:	eb00 0e04 	add.w	lr, r0, r4
  201d90:	1b04      	subs	r4, r0, r4
  201d92:	b298      	uxth	r0, r3
  201d94:	b21f      	sxth	r7, r3
  201d96:	28ff      	cmp	r0, #255	; 0xff
  201d98:	bf88      	it	hi
  201d9a:	ea6f 33d7 	mvnhi.w	r3, r7, lsr #15
  201d9e:	fa06 f08e 	sxtah	r0, r6, lr
  201da2:	b2db      	uxtb	r3, r3
  201da4:	3040      	adds	r0, #64	; 0x40
  201da6:	eb0a 10d0 	add.w	r0, sl, r0, lsr #7
  201daa:	800b      	strh	r3, [r1, #0]
  201dac:	b283      	uxth	r3, r0
  201dae:	1b52      	subs	r2, r2, r5
  201db0:	b207      	sxth	r7, r0
  201db2:	2bff      	cmp	r3, #255	; 0xff
  201db4:	bf88      	it	hi
  201db6:	ea6f 30d7 	mvnhi.w	r0, r7, lsr #15
  201dba:	9d08      	ldr	r5, [sp, #32]
  201dbc:	b2c0      	uxtb	r0, r0
  201dbe:	fa05 f384 	sxtah	r3, r5, r4
  201dc2:	8208      	strh	r0, [r1, #16]
  201dc4:	3340      	adds	r3, #64	; 0x40
  201dc6:	eb0a 13d3 	add.w	r3, sl, r3, lsr #7
  201dca:	46b0      	mov	r8, r6
  201dcc:	b298      	uxth	r0, r3
  201dce:	b21f      	sxth	r7, r3
  201dd0:	28ff      	cmp	r0, #255	; 0xff
  201dd2:	bf88      	it	hi
  201dd4:	ea6f 33d7 	mvnhi.w	r3, r7, lsr #15
  201dd8:	9e09      	ldr	r6, [sp, #36]	; 0x24
  201dda:	b210      	sxth	r0, r2
  201ddc:	b237      	sxth	r7, r6
  201dde:	b2db      	uxtb	r3, r3
  201de0:	1bc0      	subs	r0, r0, r7
  201de2:	3040      	adds	r0, #64	; 0x40
  201de4:	eb0a 10d0 	add.w	r0, sl, r0, lsr #7
  201de8:	fa07 f282 	sxtah	r2, r7, r2
  201dec:	840b      	strh	r3, [r1, #32]
  201dee:	b283      	uxth	r3, r0
  201df0:	3240      	adds	r2, #64	; 0x40
  201df2:	b206      	sxth	r6, r0
  201df4:	2bff      	cmp	r3, #255	; 0xff
  201df6:	bf88      	it	hi
  201df8:	ea6f 30d6 	mvnhi.w	r0, r6, lsr #15
  201dfc:	eb0a 12d2 	add.w	r2, sl, r2, lsr #7
  201e00:	b2c0      	uxtb	r0, r0
  201e02:	8608      	strh	r0, [r1, #48]	; 0x30
  201e04:	b290      	uxth	r0, r2
  201e06:	f04f 0a80 	mov.w	sl, #128	; 0x80
  201e0a:	28ff      	cmp	r0, #255	; 0xff
  201e0c:	b220      	sxth	r0, r4
  201e0e:	b213      	sxth	r3, r2
  201e10:	bf88      	it	hi
  201e12:	ea6f 32d3 	mvnhi.w	r2, r3, lsr #15
  201e16:	1b40      	subs	r0, r0, r5
  201e18:	3040      	adds	r0, #64	; 0x40
  201e1a:	eb0a 10d0 	add.w	r0, sl, r0, lsr #7
  201e1e:	b2d2      	uxtb	r2, r2
  201e20:	f8a1 2040 	strh.w	r2, [r1, #64]	; 0x40
  201e24:	b282      	uxth	r2, r0
  201e26:	b203      	sxth	r3, r0
  201e28:	2aff      	cmp	r2, #255	; 0xff
  201e2a:	bf88      	it	hi
  201e2c:	ea6f 30d3 	mvnhi.w	r0, r3, lsr #15
  201e30:	fa0f f28e 	sxth.w	r2, lr
  201e34:	b2c0      	uxtb	r0, r0
  201e36:	eba2 0208 	sub.w	r2, r2, r8
  201e3a:	3240      	adds	r2, #64	; 0x40
  201e3c:	eb0a 12d2 	add.w	r2, sl, r2, lsr #7
  201e40:	f8a1 0050 	strh.w	r0, [r1, #80]	; 0x50
  201e44:	b290      	uxth	r0, r2
  201e46:	b213      	sxth	r3, r2
  201e48:	28ff      	cmp	r0, #255	; 0xff
  201e4a:	bf88      	it	hi
  201e4c:	ea6f 32d3 	mvnhi.w	r2, r3, lsr #15
  201e50:	fa0f f089 	sxth.w	r0, r9
  201e54:	b2d2      	uxtb	r2, r2
  201e56:	eba0 000c 	sub.w	r0, r0, ip
  201e5a:	3040      	adds	r0, #64	; 0x40
  201e5c:	eb0a 10d0 	add.w	r0, sl, r0, lsr #7
  201e60:	f8a1 2060 	strh.w	r2, [r1, #96]	; 0x60
  201e64:	b282      	uxth	r2, r0
  201e66:	b203      	sxth	r3, r0
  201e68:	2aff      	cmp	r2, #255	; 0xff
  201e6a:	bf88      	it	hi
  201e6c:	ea6f 30d3 	mvnhi.w	r0, r3, lsr #15
  201e70:	b2c2      	uxtb	r2, r0
  201e72:	f8a1 2070 	strh.w	r2, [r1, #112]	; 0x70
  201e76:	3102      	adds	r1, #2
  201e78:	f1bb 0f07 	cmp.w	fp, #7
  201e7c:	f10b 0b01 	add.w	fp, fp, #1
  201e80:	d250      	bcs.n	201f24 <benchmark_picojpeg+0x194c>
  201e82:	8a0b      	ldrh	r3, [r1, #16]
  201e84:	f8b1 9020 	ldrh.w	r9, [r1, #32]
  201e88:	8e0f      	ldrh	r7, [r1, #48]	; 0x30
  201e8a:	ea49 0003 	orr.w	r0, r9, r3
  201e8e:	f8b1 e040 	ldrh.w	lr, [r1, #64]	; 0x40
  201e92:	ea40 0607 	orr.w	r6, r0, r7
  201e96:	f8b1 0050 	ldrh.w	r0, [r1, #80]	; 0x50
  201e9a:	ea46 060e 	orr.w	r6, r6, lr
  201e9e:	f8b1 5060 	ldrh.w	r5, [r1, #96]	; 0x60
  201ea2:	ea46 0200 	orr.w	r2, r6, r0
  201ea6:	f8b1 6070 	ldrh.w	r6, [r1, #112]	; 0x70
  201eaa:	432a      	orrs	r2, r5
  201eac:	4332      	orrs	r2, r6
  201eae:	0412      	lsls	r2, r2, #16
  201eb0:	f47f af2e 	bne.w	201d10 <benchmark_picojpeg+0x1738>
  201eb4:	f9b1 0000 	ldrsh.w	r0, [r1]
  201eb8:	3040      	adds	r0, #64	; 0x40
  201eba:	eb0a 10d0 	add.w	r0, sl, r0, lsr #7
  201ebe:	b282      	uxth	r2, r0
  201ec0:	b203      	sxth	r3, r0
  201ec2:	2aff      	cmp	r2, #255	; 0xff
  201ec4:	bf88      	it	hi
  201ec6:	ea6f 30d3 	mvnhi.w	r0, r3, lsr #15
  201eca:	b2c2      	uxtb	r2, r0
  201ecc:	800a      	strh	r2, [r1, #0]
  201ece:	820a      	strh	r2, [r1, #16]
  201ed0:	840a      	strh	r2, [r1, #32]
  201ed2:	860a      	strh	r2, [r1, #48]	; 0x30
  201ed4:	f8a1 2040 	strh.w	r2, [r1, #64]	; 0x40
  201ed8:	f8a1 2050 	strh.w	r2, [r1, #80]	; 0x50
  201edc:	f8a1 2060 	strh.w	r2, [r1, #96]	; 0x60
  201ee0:	e7c7      	b.n	201e72 <benchmark_picojpeg+0x189a>
  201ee2:	bf00      	nop
  201ee4:	01000080 	.word	0x01000080
  201ee8:	04000200 	.word	0x04000200
  201eec:	10000800 	.word	0x10000800
  201ef0:	40002000 	.word	0x40002000
  201ef4:	00014000 	.word	0x00014000
  201ef8:	00040002 	.word	0x00040002
  201efc:	00100008 	.word	0x00100008
  201f00:	00400020 	.word	0x00400020
  201f04:	fe01ff01 	.word	0xfe01ff01
  201f08:	f801fc01 	.word	0xf801fc01
  201f0c:	e001f001 	.word	0xe001f001
  201f10:	8001c001 	.word	0x8001c001
  201f14:	ffff0000 	.word	0xffff0000
  201f18:	fff9fffd 	.word	0xfff9fffd
  201f1c:	ffe1fff1 	.word	0xffe1fff1
  201f20:	ff81ffc1 	.word	0xff81ffc1
  201f24:	f240 0007 	movw	r0, #7
  201f28:	f6c2 0020 	movt	r0, #10272	; 0x2820
  201f2c:	7800      	ldrb	r0, [r0, #0]
  201f2e:	2804      	cmp	r0, #4
  201f30:	f63f a9c4 	bhi.w	2012bc <benchmark_picojpeg+0xce4>
  201f34:	e8df f010 	tbh	[pc, r0, lsl #1]
  201f38:	02c60005 	.word	0x02c60005
  201f3c:	0216015c 	.word	0x0216015c
  201f40:	00aa      	.short	0x00aa
  201f42:	f240 40ea 	movw	r0, #1258	; 0x4ea
  201f46:	af01      	add	r7, sp, #4
  201f48:	f6c2 0020 	movt	r0, #10272	; 0x2820
  201f4c:	cf8c      	ldmia	r7, {r2, r3, r7}
  201f4e:	3840      	subs	r0, #64	; 0x40
  201f50:	f04f 0c40 	mov.w	ip, #64	; 0x40
  201f54:	f810 6f40 	ldrb.w	r6, [r0, #64]!
  201f58:	f1ac 0c20 	sub.w	ip, ip, #32
  201f5c:	f802 6f20 	strb.w	r6, [r2, #32]!
  201f60:	f803 6f20 	strb.w	r6, [r3, #32]!
  201f64:	f807 6f20 	strb.w	r6, [r7, #32]!
  201f68:	7a01      	ldrb	r1, [r0, #8]
  201f6a:	7886      	ldrb	r6, [r0, #2]
  201f6c:	7111      	strb	r1, [r2, #4]
  201f6e:	7119      	strb	r1, [r3, #4]
  201f70:	7139      	strb	r1, [r7, #4]
  201f72:	7a81      	ldrb	r1, [r0, #10]
  201f74:	7056      	strb	r6, [r2, #1]
  201f76:	7151      	strb	r1, [r2, #5]
  201f78:	7159      	strb	r1, [r3, #5]
  201f7a:	7179      	strb	r1, [r7, #5]
  201f7c:	7c81      	ldrb	r1, [r0, #18]
  201f7e:	705e      	strb	r6, [r3, #1]
  201f80:	707e      	strb	r6, [r7, #1]
  201f82:	7b06      	ldrb	r6, [r0, #12]
  201f84:	7251      	strb	r1, [r2, #9]
  201f86:	7259      	strb	r1, [r3, #9]
  201f88:	7279      	strb	r1, [r7, #9]
  201f8a:	7d01      	ldrb	r1, [r0, #20]
  201f8c:	7196      	strb	r6, [r2, #6]
  201f8e:	719e      	strb	r6, [r3, #6]
  201f90:	71be      	strb	r6, [r7, #6]
  201f92:	7d86      	ldrb	r6, [r0, #22]
  201f94:	7291      	strb	r1, [r2, #10]
  201f96:	7299      	strb	r1, [r3, #10]
  201f98:	72b9      	strb	r1, [r7, #10]
  201f9a:	7f01      	ldrb	r1, [r0, #28]
  201f9c:	72d6      	strb	r6, [r2, #11]
  201f9e:	72de      	strb	r6, [r3, #11]
  201fa0:	72fe      	strb	r6, [r7, #11]
  201fa2:	7f86      	ldrb	r6, [r0, #30]
  201fa4:	7391      	strb	r1, [r2, #14]
  201fa6:	7399      	strb	r1, [r3, #14]
  201fa8:	73b9      	strb	r1, [r7, #14]
  201faa:	f890 1020 	ldrb.w	r1, [r0, #32]
  201fae:	73d6      	strb	r6, [r2, #15]
  201fb0:	73de      	strb	r6, [r3, #15]
  201fb2:	73fe      	strb	r6, [r7, #15]
  201fb4:	f890 6022 	ldrb.w	r6, [r0, #34]	; 0x22
  201fb8:	7411      	strb	r1, [r2, #16]
  201fba:	7419      	strb	r1, [r3, #16]
  201fbc:	7439      	strb	r1, [r7, #16]
  201fbe:	f890 1024 	ldrb.w	r1, [r0, #36]	; 0x24
  201fc2:	7456      	strb	r6, [r2, #17]
  201fc4:	745e      	strb	r6, [r3, #17]
  201fc6:	747e      	strb	r6, [r7, #17]
  201fc8:	f890 6026 	ldrb.w	r6, [r0, #38]	; 0x26
  201fcc:	7491      	strb	r1, [r2, #18]
  201fce:	7499      	strb	r1, [r3, #18]
  201fd0:	74b9      	strb	r1, [r7, #18]
  201fd2:	f890 1028 	ldrb.w	r1, [r0, #40]	; 0x28
  201fd6:	74d6      	strb	r6, [r2, #19]
  201fd8:	74de      	strb	r6, [r3, #19]
  201fda:	74fe      	strb	r6, [r7, #19]
  201fdc:	f890 602a 	ldrb.w	r6, [r0, #42]	; 0x2a
  201fe0:	7511      	strb	r1, [r2, #20]
  201fe2:	7519      	strb	r1, [r3, #20]
  201fe4:	7539      	strb	r1, [r7, #20]
  201fe6:	f890 102c 	ldrb.w	r1, [r0, #44]	; 0x2c
  201fea:	7556      	strb	r6, [r2, #21]
  201fec:	755e      	strb	r6, [r3, #21]
  201fee:	757e      	strb	r6, [r7, #21]
  201ff0:	f890 602e 	ldrb.w	r6, [r0, #46]	; 0x2e
  201ff4:	7591      	strb	r1, [r2, #22]
  201ff6:	7599      	strb	r1, [r3, #22]
  201ff8:	75b9      	strb	r1, [r7, #22]
  201ffa:	f890 1030 	ldrb.w	r1, [r0, #48]	; 0x30
  201ffe:	75d6      	strb	r6, [r2, #23]
  202000:	75de      	strb	r6, [r3, #23]
  202002:	75fe      	strb	r6, [r7, #23]
  202004:	f890 6032 	ldrb.w	r6, [r0, #50]	; 0x32
  202008:	7611      	strb	r1, [r2, #24]
  20200a:	7619      	strb	r1, [r3, #24]
  20200c:	7639      	strb	r1, [r7, #24]
  20200e:	f890 1034 	ldrb.w	r1, [r0, #52]	; 0x34
  202012:	7905      	ldrb	r5, [r0, #4]
  202014:	7984      	ldrb	r4, [r0, #6]
  202016:	7656      	strb	r6, [r2, #25]
  202018:	765e      	strb	r6, [r3, #25]
  20201a:	767e      	strb	r6, [r7, #25]
  20201c:	f890 6036 	ldrb.w	r6, [r0, #54]	; 0x36
  202020:	7691      	strb	r1, [r2, #26]
  202022:	7699      	strb	r1, [r3, #26]
  202024:	76b9      	strb	r1, [r7, #26]
  202026:	f890 1038 	ldrb.w	r1, [r0, #56]	; 0x38
  20202a:	7095      	strb	r5, [r2, #2]
  20202c:	709d      	strb	r5, [r3, #2]
  20202e:	70bd      	strb	r5, [r7, #2]
  202030:	70d4      	strb	r4, [r2, #3]
  202032:	70dc      	strb	r4, [r3, #3]
  202034:	70fc      	strb	r4, [r7, #3]
  202036:	7b85      	ldrb	r5, [r0, #14]
  202038:	7c04      	ldrb	r4, [r0, #16]
  20203a:	76d6      	strb	r6, [r2, #27]
  20203c:	76de      	strb	r6, [r3, #27]
  20203e:	76fe      	strb	r6, [r7, #27]
  202040:	f890 603a 	ldrb.w	r6, [r0, #58]	; 0x3a
  202044:	7711      	strb	r1, [r2, #28]
  202046:	7719      	strb	r1, [r3, #28]
  202048:	7739      	strb	r1, [r7, #28]
  20204a:	f890 103c 	ldrb.w	r1, [r0, #60]	; 0x3c
  20204e:	71d5      	strb	r5, [r2, #7]
  202050:	71dd      	strb	r5, [r3, #7]
  202052:	71fd      	strb	r5, [r7, #7]
  202054:	7214      	strb	r4, [r2, #8]
  202056:	721c      	strb	r4, [r3, #8]
  202058:	723c      	strb	r4, [r7, #8]
  20205a:	7e05      	ldrb	r5, [r0, #24]
  20205c:	7e84      	ldrb	r4, [r0, #26]
  20205e:	7756      	strb	r6, [r2, #29]
  202060:	775e      	strb	r6, [r3, #29]
  202062:	777e      	strb	r6, [r7, #29]
  202064:	f890 603e 	ldrb.w	r6, [r0, #62]	; 0x3e
  202068:	7791      	strb	r1, [r2, #30]
  20206a:	7799      	strb	r1, [r3, #30]
  20206c:	77b9      	strb	r1, [r7, #30]
  20206e:	ea5f 610c 	movs.w	r1, ip, lsl #24
  202072:	7315      	strb	r5, [r2, #12]
  202074:	731d      	strb	r5, [r3, #12]
  202076:	733d      	strb	r5, [r7, #12]
  202078:	7354      	strb	r4, [r2, #13]
  20207a:	735c      	strb	r4, [r3, #13]
  20207c:	737c      	strb	r4, [r7, #13]
  20207e:	77d6      	strb	r6, [r2, #31]
  202080:	77de      	strb	r6, [r3, #31]
  202082:	77fe      	strb	r6, [r7, #31]
  202084:	f47f af66 	bne.w	201f54 <benchmark_picojpeg+0x197c>
  202088:	f7ff b918 	b.w	2012bc <benchmark_picojpeg+0xce4>
  20208c:	9806      	ldr	r0, [sp, #24]
  20208e:	b2c0      	uxtb	r0, r0
  202090:	2805      	cmp	r0, #5
  202092:	f63f a913 	bhi.w	2012bc <benchmark_picojpeg+0xce4>
  202096:	e8df f010 	tbh	[pc, r0, lsl #1]
  20209a:	0006      	.short	0x0006
  20209c:	056506c9 	.word	0x056506c9
  2020a0:	05530617 	.word	0x05530617
  2020a4:	077b      	.short	0x077b
  2020a6:	f240 40ea 	movw	r0, #1258	; 0x4ea
  2020aa:	af01      	add	r7, sp, #4
  2020ac:	f6c2 0020 	movt	r0, #10272	; 0x2820
  2020b0:	cf8c      	ldmia	r7, {r2, r3, r7}
  2020b2:	3840      	subs	r0, #64	; 0x40
  2020b4:	f04f 0c40 	mov.w	ip, #64	; 0x40
  2020b8:	f810 6f40 	ldrb.w	r6, [r0, #64]!
  2020bc:	f1ac 0c20 	sub.w	ip, ip, #32
  2020c0:	f802 6f20 	strb.w	r6, [r2, #32]!
  2020c4:	f803 6f20 	strb.w	r6, [r3, #32]!
  2020c8:	f807 6f20 	strb.w	r6, [r7, #32]!
  2020cc:	7a01      	ldrb	r1, [r0, #8]
  2020ce:	7886      	ldrb	r6, [r0, #2]
  2020d0:	7111      	strb	r1, [r2, #4]
  2020d2:	7119      	strb	r1, [r3, #4]
  2020d4:	7139      	strb	r1, [r7, #4]
  2020d6:	7a81      	ldrb	r1, [r0, #10]
  2020d8:	7056      	strb	r6, [r2, #1]
  2020da:	7151      	strb	r1, [r2, #5]
  2020dc:	7159      	strb	r1, [r3, #5]
  2020de:	7179      	strb	r1, [r7, #5]
  2020e0:	7c81      	ldrb	r1, [r0, #18]
  2020e2:	705e      	strb	r6, [r3, #1]
  2020e4:	707e      	strb	r6, [r7, #1]
  2020e6:	7b06      	ldrb	r6, [r0, #12]
  2020e8:	7251      	strb	r1, [r2, #9]
  2020ea:	7259      	strb	r1, [r3, #9]
  2020ec:	7279      	strb	r1, [r7, #9]
  2020ee:	7d01      	ldrb	r1, [r0, #20]
  2020f0:	7196      	strb	r6, [r2, #6]
  2020f2:	719e      	strb	r6, [r3, #6]
  2020f4:	71be      	strb	r6, [r7, #6]
  2020f6:	7d86      	ldrb	r6, [r0, #22]
  2020f8:	7291      	strb	r1, [r2, #10]
  2020fa:	7299      	strb	r1, [r3, #10]
  2020fc:	72b9      	strb	r1, [r7, #10]
  2020fe:	7f01      	ldrb	r1, [r0, #28]
  202100:	72d6      	strb	r6, [r2, #11]
  202102:	72de      	strb	r6, [r3, #11]
  202104:	72fe      	strb	r6, [r7, #11]
  202106:	7f86      	ldrb	r6, [r0, #30]
  202108:	7391      	strb	r1, [r2, #14]
  20210a:	7399      	strb	r1, [r3, #14]
  20210c:	73b9      	strb	r1, [r7, #14]
  20210e:	f890 1020 	ldrb.w	r1, [r0, #32]
  202112:	73d6      	strb	r6, [r2, #15]
  202114:	73de      	strb	r6, [r3, #15]
  202116:	73fe      	strb	r6, [r7, #15]
  202118:	f890 6022 	ldrb.w	r6, [r0, #34]	; 0x22
  20211c:	7411      	strb	r1, [r2, #16]
  20211e:	7419      	strb	r1, [r3, #16]
  202120:	7439      	strb	r1, [r7, #16]
  202122:	f890 1024 	ldrb.w	r1, [r0, #36]	; 0x24
  202126:	7456      	strb	r6, [r2, #17]
  202128:	745e      	strb	r6, [r3, #17]
  20212a:	747e      	strb	r6, [r7, #17]
  20212c:	f890 6026 	ldrb.w	r6, [r0, #38]	; 0x26
  202130:	7491      	strb	r1, [r2, #18]
  202132:	7499      	strb	r1, [r3, #18]
  202134:	74b9      	strb	r1, [r7, #18]
  202136:	f890 1028 	ldrb.w	r1, [r0, #40]	; 0x28
  20213a:	74d6      	strb	r6, [r2, #19]
  20213c:	74de      	strb	r6, [r3, #19]
  20213e:	74fe      	strb	r6, [r7, #19]
  202140:	f890 602a 	ldrb.w	r6, [r0, #42]	; 0x2a
  202144:	7511      	strb	r1, [r2, #20]
  202146:	7519      	strb	r1, [r3, #20]
  202148:	7539      	strb	r1, [r7, #20]
  20214a:	f890 102c 	ldrb.w	r1, [r0, #44]	; 0x2c
  20214e:	7556      	strb	r6, [r2, #21]
  202150:	755e      	strb	r6, [r3, #21]
  202152:	757e      	strb	r6, [r7, #21]
  202154:	f890 602e 	ldrb.w	r6, [r0, #46]	; 0x2e
  202158:	7591      	strb	r1, [r2, #22]
  20215a:	7599      	strb	r1, [r3, #22]
  20215c:	75b9      	strb	r1, [r7, #22]
  20215e:	f890 1030 	ldrb.w	r1, [r0, #48]	; 0x30
  202162:	75d6      	strb	r6, [r2, #23]
  202164:	75de      	strb	r6, [r3, #23]
  202166:	75fe      	strb	r6, [r7, #23]
  202168:	f890 6032 	ldrb.w	r6, [r0, #50]	; 0x32
  20216c:	7611      	strb	r1, [r2, #24]
  20216e:	7619      	strb	r1, [r3, #24]
  202170:	7639      	strb	r1, [r7, #24]
  202172:	f890 1034 	ldrb.w	r1, [r0, #52]	; 0x34
  202176:	7905      	ldrb	r5, [r0, #4]
  202178:	7984      	ldrb	r4, [r0, #6]
  20217a:	7656      	strb	r6, [r2, #25]
  20217c:	765e      	strb	r6, [r3, #25]
  20217e:	767e      	strb	r6, [r7, #25]
  202180:	f890 6036 	ldrb.w	r6, [r0, #54]	; 0x36
  202184:	7691      	strb	r1, [r2, #26]
  202186:	7699      	strb	r1, [r3, #26]
  202188:	76b9      	strb	r1, [r7, #26]
  20218a:	f890 1038 	ldrb.w	r1, [r0, #56]	; 0x38
  20218e:	7095      	strb	r5, [r2, #2]
  202190:	709d      	strb	r5, [r3, #2]
  202192:	70bd      	strb	r5, [r7, #2]
  202194:	70d4      	strb	r4, [r2, #3]
  202196:	70dc      	strb	r4, [r3, #3]
  202198:	70fc      	strb	r4, [r7, #3]
  20219a:	7b85      	ldrb	r5, [r0, #14]
  20219c:	7c04      	ldrb	r4, [r0, #16]
  20219e:	76d6      	strb	r6, [r2, #27]
  2021a0:	76de      	strb	r6, [r3, #27]
  2021a2:	76fe      	strb	r6, [r7, #27]
  2021a4:	f890 603a 	ldrb.w	r6, [r0, #58]	; 0x3a
  2021a8:	7711      	strb	r1, [r2, #28]
  2021aa:	7719      	strb	r1, [r3, #28]
  2021ac:	7739      	strb	r1, [r7, #28]
  2021ae:	f890 103c 	ldrb.w	r1, [r0, #60]	; 0x3c
  2021b2:	71d5      	strb	r5, [r2, #7]
  2021b4:	71dd      	strb	r5, [r3, #7]
  2021b6:	71fd      	strb	r5, [r7, #7]
  2021b8:	7214      	strb	r4, [r2, #8]
  2021ba:	721c      	strb	r4, [r3, #8]
  2021bc:	723c      	strb	r4, [r7, #8]
  2021be:	7e05      	ldrb	r5, [r0, #24]
  2021c0:	7e84      	ldrb	r4, [r0, #26]
  2021c2:	7756      	strb	r6, [r2, #29]
  2021c4:	775e      	strb	r6, [r3, #29]
  2021c6:	777e      	strb	r6, [r7, #29]
  2021c8:	f890 603e 	ldrb.w	r6, [r0, #62]	; 0x3e
  2021cc:	7791      	strb	r1, [r2, #30]
  2021ce:	7799      	strb	r1, [r3, #30]
  2021d0:	77b9      	strb	r1, [r7, #30]
  2021d2:	ea5f 610c 	movs.w	r1, ip, lsl #24
  2021d6:	7315      	strb	r5, [r2, #12]
  2021d8:	731d      	strb	r5, [r3, #12]
  2021da:	733d      	strb	r5, [r7, #12]
  2021dc:	7354      	strb	r4, [r2, #13]
  2021de:	735c      	strb	r4, [r3, #13]
  2021e0:	737c      	strb	r4, [r7, #13]
  2021e2:	77d6      	strb	r6, [r2, #31]
  2021e4:	77de      	strb	r6, [r3, #31]
  2021e6:	77fe      	strb	r6, [r7, #31]
  2021e8:	f47f af66 	bne.w	2020b8 <benchmark_picojpeg+0x1ae0>
  2021ec:	f7ff b866 	b.w	2012bc <benchmark_picojpeg+0xce4>
  2021f0:	9806      	ldr	r0, [sp, #24]
  2021f2:	b2c0      	uxtb	r0, r0
  2021f4:	2803      	cmp	r0, #3
  2021f6:	f63f a861 	bhi.w	2012bc <benchmark_picojpeg+0xce4>
  2021fa:	e8df f010 	tbh	[pc, r0, lsl #1]
  2021fe:	000e      	.short	0x000e
  202200:	00040333 	.word	0x00040333
  202204:	031f      	.short	0x031f
  202206:	2000      	movs	r0, #0
  202208:	2100      	movs	r1, #0
  20220a:	f004 f9c5 	bl	206598 <upsampleCbH>
  20220e:	2004      	movs	r0, #4
  202210:	2140      	movs	r1, #64	; 0x40
  202212:	f004 f9c1 	bl	206598 <upsampleCbH>
  202216:	f7ff b851 	b.w	2012bc <benchmark_picojpeg+0xce4>
  20221a:	f240 40ea 	movw	r0, #1258	; 0x4ea
  20221e:	af01      	add	r7, sp, #4
  202220:	f6c2 0020 	movt	r0, #10272	; 0x2820
  202224:	cf8c      	ldmia	r7, {r2, r3, r7}
  202226:	3840      	subs	r0, #64	; 0x40
  202228:	f04f 0c40 	mov.w	ip, #64	; 0x40
  20222c:	f810 6f40 	ldrb.w	r6, [r0, #64]!
  202230:	f1ac 0c20 	sub.w	ip, ip, #32
  202234:	f802 6f20 	strb.w	r6, [r2, #32]!
  202238:	f803 6f20 	strb.w	r6, [r3, #32]!
  20223c:	f807 6f20 	strb.w	r6, [r7, #32]!
  202240:	7a01      	ldrb	r1, [r0, #8]
  202242:	7886      	ldrb	r6, [r0, #2]
  202244:	7111      	strb	r1, [r2, #4]
  202246:	7119      	strb	r1, [r3, #4]
  202248:	7139      	strb	r1, [r7, #4]
  20224a:	7a81      	ldrb	r1, [r0, #10]
  20224c:	7056      	strb	r6, [r2, #1]
  20224e:	7151      	strb	r1, [r2, #5]
  202250:	7159      	strb	r1, [r3, #5]
  202252:	7179      	strb	r1, [r7, #5]
  202254:	7c81      	ldrb	r1, [r0, #18]
  202256:	705e      	strb	r6, [r3, #1]
  202258:	707e      	strb	r6, [r7, #1]
  20225a:	7b06      	ldrb	r6, [r0, #12]
  20225c:	7251      	strb	r1, [r2, #9]
  20225e:	7259      	strb	r1, [r3, #9]
  202260:	7279      	strb	r1, [r7, #9]
  202262:	7d01      	ldrb	r1, [r0, #20]
  202264:	7196      	strb	r6, [r2, #6]
  202266:	719e      	strb	r6, [r3, #6]
  202268:	71be      	strb	r6, [r7, #6]
  20226a:	7d86      	ldrb	r6, [r0, #22]
  20226c:	7291      	strb	r1, [r2, #10]
  20226e:	7299      	strb	r1, [r3, #10]
  202270:	72b9      	strb	r1, [r7, #10]
  202272:	7f01      	ldrb	r1, [r0, #28]
  202274:	72d6      	strb	r6, [r2, #11]
  202276:	72de      	strb	r6, [r3, #11]
  202278:	72fe      	strb	r6, [r7, #11]
  20227a:	7f86      	ldrb	r6, [r0, #30]
  20227c:	7391      	strb	r1, [r2, #14]
  20227e:	7399      	strb	r1, [r3, #14]
  202280:	73b9      	strb	r1, [r7, #14]
  202282:	f890 1020 	ldrb.w	r1, [r0, #32]
  202286:	73d6      	strb	r6, [r2, #15]
  202288:	73de      	strb	r6, [r3, #15]
  20228a:	73fe      	strb	r6, [r7, #15]
  20228c:	f890 6022 	ldrb.w	r6, [r0, #34]	; 0x22
  202290:	7411      	strb	r1, [r2, #16]
  202292:	7419      	strb	r1, [r3, #16]
  202294:	7439      	strb	r1, [r7, #16]
  202296:	f890 1024 	ldrb.w	r1, [r0, #36]	; 0x24
  20229a:	7456      	strb	r6, [r2, #17]
  20229c:	745e      	strb	r6, [r3, #17]
  20229e:	747e      	strb	r6, [r7, #17]
  2022a0:	f890 6026 	ldrb.w	r6, [r0, #38]	; 0x26
  2022a4:	7491      	strb	r1, [r2, #18]
  2022a6:	7499      	strb	r1, [r3, #18]
  2022a8:	74b9      	strb	r1, [r7, #18]
  2022aa:	f890 1028 	ldrb.w	r1, [r0, #40]	; 0x28
  2022ae:	74d6      	strb	r6, [r2, #19]
  2022b0:	74de      	strb	r6, [r3, #19]
  2022b2:	74fe      	strb	r6, [r7, #19]
  2022b4:	f890 602a 	ldrb.w	r6, [r0, #42]	; 0x2a
  2022b8:	7511      	strb	r1, [r2, #20]
  2022ba:	7519      	strb	r1, [r3, #20]
  2022bc:	7539      	strb	r1, [r7, #20]
  2022be:	f890 102c 	ldrb.w	r1, [r0, #44]	; 0x2c
  2022c2:	7556      	strb	r6, [r2, #21]
  2022c4:	755e      	strb	r6, [r3, #21]
  2022c6:	757e      	strb	r6, [r7, #21]
  2022c8:	f890 602e 	ldrb.w	r6, [r0, #46]	; 0x2e
  2022cc:	7591      	strb	r1, [r2, #22]
  2022ce:	7599      	strb	r1, [r3, #22]
  2022d0:	75b9      	strb	r1, [r7, #22]
  2022d2:	f890 1030 	ldrb.w	r1, [r0, #48]	; 0x30
  2022d6:	75d6      	strb	r6, [r2, #23]
  2022d8:	75de      	strb	r6, [r3, #23]
  2022da:	75fe      	strb	r6, [r7, #23]
  2022dc:	f890 6032 	ldrb.w	r6, [r0, #50]	; 0x32
  2022e0:	7611      	strb	r1, [r2, #24]
  2022e2:	7619      	strb	r1, [r3, #24]
  2022e4:	7639      	strb	r1, [r7, #24]
  2022e6:	f890 1034 	ldrb.w	r1, [r0, #52]	; 0x34
  2022ea:	7905      	ldrb	r5, [r0, #4]
  2022ec:	7984      	ldrb	r4, [r0, #6]
  2022ee:	7656      	strb	r6, [r2, #25]
  2022f0:	765e      	strb	r6, [r3, #25]
  2022f2:	767e      	strb	r6, [r7, #25]
  2022f4:	f890 6036 	ldrb.w	r6, [r0, #54]	; 0x36
  2022f8:	7691      	strb	r1, [r2, #26]
  2022fa:	7699      	strb	r1, [r3, #26]
  2022fc:	76b9      	strb	r1, [r7, #26]
  2022fe:	f890 1038 	ldrb.w	r1, [r0, #56]	; 0x38
  202302:	7095      	strb	r5, [r2, #2]
  202304:	709d      	strb	r5, [r3, #2]
  202306:	70bd      	strb	r5, [r7, #2]
  202308:	70d4      	strb	r4, [r2, #3]
  20230a:	70dc      	strb	r4, [r3, #3]
  20230c:	70fc      	strb	r4, [r7, #3]
  20230e:	7b85      	ldrb	r5, [r0, #14]
  202310:	7c04      	ldrb	r4, [r0, #16]
  202312:	76d6      	strb	r6, [r2, #27]
  202314:	76de      	strb	r6, [r3, #27]
  202316:	76fe      	strb	r6, [r7, #27]
  202318:	f890 603a 	ldrb.w	r6, [r0, #58]	; 0x3a
  20231c:	7711      	strb	r1, [r2, #28]
  20231e:	7719      	strb	r1, [r3, #28]
  202320:	7739      	strb	r1, [r7, #28]
  202322:	f890 103c 	ldrb.w	r1, [r0, #60]	; 0x3c
  202326:	71d5      	strb	r5, [r2, #7]
  202328:	71dd      	strb	r5, [r3, #7]
  20232a:	71fd      	strb	r5, [r7, #7]
  20232c:	7214      	strb	r4, [r2, #8]
  20232e:	721c      	strb	r4, [r3, #8]
  202330:	723c      	strb	r4, [r7, #8]
  202332:	7e05      	ldrb	r5, [r0, #24]
  202334:	7e84      	ldrb	r4, [r0, #26]
  202336:	7756      	strb	r6, [r2, #29]
  202338:	775e      	strb	r6, [r3, #29]
  20233a:	777e      	strb	r6, [r7, #29]
  20233c:	f890 603e 	ldrb.w	r6, [r0, #62]	; 0x3e
  202340:	7791      	strb	r1, [r2, #30]
  202342:	7799      	strb	r1, [r3, #30]
  202344:	77b9      	strb	r1, [r7, #30]
  202346:	ea5f 610c 	movs.w	r1, ip, lsl #24
  20234a:	7315      	strb	r5, [r2, #12]
  20234c:	731d      	strb	r5, [r3, #12]
  20234e:	733d      	strb	r5, [r7, #12]
  202350:	7354      	strb	r4, [r2, #13]
  202352:	735c      	strb	r4, [r3, #13]
  202354:	737c      	strb	r4, [r7, #13]
  202356:	77d6      	strb	r6, [r2, #31]
  202358:	77de      	strb	r6, [r3, #31]
  20235a:	77fe      	strb	r6, [r7, #31]
  20235c:	f47f af66 	bne.w	20222c <benchmark_picojpeg+0x1c54>
  202360:	f7fe bfac 	b.w	2012bc <benchmark_picojpeg+0xce4>
  202364:	9806      	ldr	r0, [sp, #24]
  202366:	b2c0      	uxtb	r0, r0
  202368:	2803      	cmp	r0, #3
  20236a:	f63e afa7 	bhi.w	2012bc <benchmark_picojpeg+0xce4>
  20236e:	e8df f010 	tbh	[pc, r0, lsl #1]
  202372:	0004      	.short	0x0004
  202374:	026f0335 	.word	0x026f0335
  202378:	032b      	.short	0x032b
  20237a:	f240 40ea 	movw	r0, #1258	; 0x4ea
  20237e:	af01      	add	r7, sp, #4
  202380:	f6c2 0020 	movt	r0, #10272	; 0x2820
  202384:	cf8c      	ldmia	r7, {r2, r3, r7}
  202386:	3840      	subs	r0, #64	; 0x40
  202388:	f04f 0c40 	mov.w	ip, #64	; 0x40
  20238c:	f810 6f40 	ldrb.w	r6, [r0, #64]!
  202390:	f1ac 0c20 	sub.w	ip, ip, #32
  202394:	f802 6f20 	strb.w	r6, [r2, #32]!
  202398:	f803 6f20 	strb.w	r6, [r3, #32]!
  20239c:	f807 6f20 	strb.w	r6, [r7, #32]!
  2023a0:	7a01      	ldrb	r1, [r0, #8]
  2023a2:	7886      	ldrb	r6, [r0, #2]
  2023a4:	7111      	strb	r1, [r2, #4]
  2023a6:	7119      	strb	r1, [r3, #4]
  2023a8:	7139      	strb	r1, [r7, #4]
  2023aa:	7a81      	ldrb	r1, [r0, #10]
  2023ac:	7056      	strb	r6, [r2, #1]
  2023ae:	7151      	strb	r1, [r2, #5]
  2023b0:	7159      	strb	r1, [r3, #5]
  2023b2:	7179      	strb	r1, [r7, #5]
  2023b4:	7c81      	ldrb	r1, [r0, #18]
  2023b6:	705e      	strb	r6, [r3, #1]
  2023b8:	707e      	strb	r6, [r7, #1]
  2023ba:	7b06      	ldrb	r6, [r0, #12]
  2023bc:	7251      	strb	r1, [r2, #9]
  2023be:	7259      	strb	r1, [r3, #9]
  2023c0:	7279      	strb	r1, [r7, #9]
  2023c2:	7d01      	ldrb	r1, [r0, #20]
  2023c4:	7196      	strb	r6, [r2, #6]
  2023c6:	719e      	strb	r6, [r3, #6]
  2023c8:	71be      	strb	r6, [r7, #6]
  2023ca:	7d86      	ldrb	r6, [r0, #22]
  2023cc:	7291      	strb	r1, [r2, #10]
  2023ce:	7299      	strb	r1, [r3, #10]
  2023d0:	72b9      	strb	r1, [r7, #10]
  2023d2:	7f01      	ldrb	r1, [r0, #28]
  2023d4:	72d6      	strb	r6, [r2, #11]
  2023d6:	72de      	strb	r6, [r3, #11]
  2023d8:	72fe      	strb	r6, [r7, #11]
  2023da:	7f86      	ldrb	r6, [r0, #30]
  2023dc:	7391      	strb	r1, [r2, #14]
  2023de:	7399      	strb	r1, [r3, #14]
  2023e0:	73b9      	strb	r1, [r7, #14]
  2023e2:	f890 1020 	ldrb.w	r1, [r0, #32]
  2023e6:	73d6      	strb	r6, [r2, #15]
  2023e8:	73de      	strb	r6, [r3, #15]
  2023ea:	73fe      	strb	r6, [r7, #15]
  2023ec:	f890 6022 	ldrb.w	r6, [r0, #34]	; 0x22
  2023f0:	7411      	strb	r1, [r2, #16]
  2023f2:	7419      	strb	r1, [r3, #16]
  2023f4:	7439      	strb	r1, [r7, #16]
  2023f6:	f890 1024 	ldrb.w	r1, [r0, #36]	; 0x24
  2023fa:	7456      	strb	r6, [r2, #17]
  2023fc:	745e      	strb	r6, [r3, #17]
  2023fe:	747e      	strb	r6, [r7, #17]
  202400:	f890 6026 	ldrb.w	r6, [r0, #38]	; 0x26
  202404:	7491      	strb	r1, [r2, #18]
  202406:	7499      	strb	r1, [r3, #18]
  202408:	74b9      	strb	r1, [r7, #18]
  20240a:	f890 1028 	ldrb.w	r1, [r0, #40]	; 0x28
  20240e:	74d6      	strb	r6, [r2, #19]
  202410:	74de      	strb	r6, [r3, #19]
  202412:	74fe      	strb	r6, [r7, #19]
  202414:	f890 602a 	ldrb.w	r6, [r0, #42]	; 0x2a
  202418:	7511      	strb	r1, [r2, #20]
  20241a:	7519      	strb	r1, [r3, #20]
  20241c:	7539      	strb	r1, [r7, #20]
  20241e:	f890 102c 	ldrb.w	r1, [r0, #44]	; 0x2c
  202422:	7556      	strb	r6, [r2, #21]
  202424:	755e      	strb	r6, [r3, #21]
  202426:	757e      	strb	r6, [r7, #21]
  202428:	f890 602e 	ldrb.w	r6, [r0, #46]	; 0x2e
  20242c:	7591      	strb	r1, [r2, #22]
  20242e:	7599      	strb	r1, [r3, #22]
  202430:	75b9      	strb	r1, [r7, #22]
  202432:	f890 1030 	ldrb.w	r1, [r0, #48]	; 0x30
  202436:	75d6      	strb	r6, [r2, #23]
  202438:	75de      	strb	r6, [r3, #23]
  20243a:	75fe      	strb	r6, [r7, #23]
  20243c:	f890 6032 	ldrb.w	r6, [r0, #50]	; 0x32
  202440:	7611      	strb	r1, [r2, #24]
  202442:	7619      	strb	r1, [r3, #24]
  202444:	7639      	strb	r1, [r7, #24]
  202446:	f890 1034 	ldrb.w	r1, [r0, #52]	; 0x34
  20244a:	7905      	ldrb	r5, [r0, #4]
  20244c:	7984      	ldrb	r4, [r0, #6]
  20244e:	7656      	strb	r6, [r2, #25]
  202450:	765e      	strb	r6, [r3, #25]
  202452:	767e      	strb	r6, [r7, #25]
  202454:	f890 6036 	ldrb.w	r6, [r0, #54]	; 0x36
  202458:	7691      	strb	r1, [r2, #26]
  20245a:	7699      	strb	r1, [r3, #26]
  20245c:	76b9      	strb	r1, [r7, #26]
  20245e:	f890 1038 	ldrb.w	r1, [r0, #56]	; 0x38
  202462:	7095      	strb	r5, [r2, #2]
  202464:	709d      	strb	r5, [r3, #2]
  202466:	70bd      	strb	r5, [r7, #2]
  202468:	70d4      	strb	r4, [r2, #3]
  20246a:	70dc      	strb	r4, [r3, #3]
  20246c:	70fc      	strb	r4, [r7, #3]
  20246e:	7b85      	ldrb	r5, [r0, #14]
  202470:	7c04      	ldrb	r4, [r0, #16]
  202472:	76d6      	strb	r6, [r2, #27]
  202474:	76de      	strb	r6, [r3, #27]
  202476:	76fe      	strb	r6, [r7, #27]
  202478:	f890 603a 	ldrb.w	r6, [r0, #58]	; 0x3a
  20247c:	7711      	strb	r1, [r2, #28]
  20247e:	7719      	strb	r1, [r3, #28]
  202480:	7739      	strb	r1, [r7, #28]
  202482:	f890 103c 	ldrb.w	r1, [r0, #60]	; 0x3c
  202486:	71d5      	strb	r5, [r2, #7]
  202488:	71dd      	strb	r5, [r3, #7]
  20248a:	71fd      	strb	r5, [r7, #7]
  20248c:	7214      	strb	r4, [r2, #8]
  20248e:	721c      	strb	r4, [r3, #8]
  202490:	723c      	strb	r4, [r7, #8]
  202492:	7e05      	ldrb	r5, [r0, #24]
  202494:	7e84      	ldrb	r4, [r0, #26]
  202496:	7756      	strb	r6, [r2, #29]
  202498:	775e      	strb	r6, [r3, #29]
  20249a:	777e      	strb	r6, [r7, #29]
  20249c:	f890 603e 	ldrb.w	r6, [r0, #62]	; 0x3e
  2024a0:	7791      	strb	r1, [r2, #30]
  2024a2:	7799      	strb	r1, [r3, #30]
  2024a4:	77b9      	strb	r1, [r7, #30]
  2024a6:	ea5f 610c 	movs.w	r1, ip, lsl #24
  2024aa:	7315      	strb	r5, [r2, #12]
  2024ac:	731d      	strb	r5, [r3, #12]
  2024ae:	733d      	strb	r5, [r7, #12]
  2024b0:	7354      	strb	r4, [r2, #13]
  2024b2:	735c      	strb	r4, [r3, #13]
  2024b4:	737c      	strb	r4, [r7, #13]
  2024b6:	77d6      	strb	r6, [r2, #31]
  2024b8:	77de      	strb	r6, [r3, #31]
  2024ba:	77fe      	strb	r6, [r7, #31]
  2024bc:	f47f af66 	bne.w	20238c <benchmark_picojpeg+0x1db4>
  2024c0:	f7fe befc 	b.w	2012bc <benchmark_picojpeg+0xce4>
  2024c4:	9806      	ldr	r0, [sp, #24]
  2024c6:	b2c0      	uxtb	r0, r0
  2024c8:	2800      	cmp	r0, #0
  2024ca:	f000 8111 	beq.w	2026f0 <benchmark_picojpeg+0x2118>
  2024ce:	2801      	cmp	r0, #1
  2024d0:	f000 808b 	beq.w	2025ea <benchmark_picojpeg+0x2012>
  2024d4:	2802      	cmp	r0, #2
  2024d6:	f47e aef1 	bne.w	2012bc <benchmark_picojpeg+0xce4>
  2024da:	f240 000e 	movw	r0, #14
  2024de:	f240 110e 	movw	r1, #270	; 0x10e
  2024e2:	f240 42ea 	movw	r2, #1258	; 0x4ea
  2024e6:	f6c2 0020 	movt	r0, #10272	; 0x2820
  2024ea:	f6c2 0120 	movt	r1, #10272	; 0x2820
  2024ee:	f6c2 0220 	movt	r2, #10272	; 0x2820
  2024f2:	3804      	subs	r0, #4
  2024f4:	3904      	subs	r1, #4
  2024f6:	3a08      	subs	r2, #8
  2024f8:	f04f 0c40 	mov.w	ip, #64	; 0x40
  2024fc:	f812 7f08 	ldrb.w	r7, [r2, #8]!
  202500:	f810 6f04 	ldrb.w	r6, [r0, #4]!
  202504:	f04f 0a67 	mov.w	sl, #103	; 0x67
  202508:	fb07 f50a 	mul.w	r5, r7, sl
  20250c:	443e      	add	r6, r7
  20250e:	f04f 0bb7 	mov.w	fp, #183	; 0xb7
  202512:	eb06 2615 	add.w	r6, r6, r5, lsr #8
  202516:	fb07 f70b 	mul.w	r7, r7, fp
  20251a:	f811 5f04 	ldrb.w	r5, [r1, #4]!
  20251e:	3eb3      	subs	r6, #179	; 0xb3
  202520:	eba5 2717 	sub.w	r7, r5, r7, lsr #8
  202524:	2eff      	cmp	r6, #255	; 0xff
  202526:	bf88      	it	hi
  202528:	ea6f 36d6 	mvnhi.w	r6, r6, lsr #15
  20252c:	375b      	adds	r7, #91	; 0x5b
  20252e:	7006      	strb	r6, [r0, #0]
  202530:	2fff      	cmp	r7, #255	; 0xff
  202532:	bf88      	it	hi
  202534:	ea6f 37d7 	mvnhi.w	r7, r7, lsr #15
  202538:	7894      	ldrb	r4, [r2, #2]
  20253a:	7843      	ldrb	r3, [r0, #1]
  20253c:	fb04 f60a 	mul.w	r6, r4, sl
  202540:	4423      	add	r3, r4
  202542:	eb03 2316 	add.w	r3, r3, r6, lsr #8
  202546:	700f      	strb	r7, [r1, #0]
  202548:	3bb3      	subs	r3, #179	; 0xb3
  20254a:	7915      	ldrb	r5, [r2, #4]
  20254c:	7997      	ldrb	r7, [r2, #6]
  20254e:	f890 e002 	ldrb.w	lr, [r0, #2]
  202552:	f890 8003 	ldrb.w	r8, [r0, #3]
  202556:	2bff      	cmp	r3, #255	; 0xff
  202558:	bf88      	it	hi
  20255a:	ea6f 33d3 	mvnhi.w	r3, r3, lsr #15
  20255e:	fb04 f40b 	mul.w	r4, r4, fp
  202562:	784e      	ldrb	r6, [r1, #1]
  202564:	7043      	strb	r3, [r0, #1]
  202566:	eba6 2314 	sub.w	r3, r6, r4, lsr #8
  20256a:	fb05 f60a 	mul.w	r6, r5, sl
  20256e:	eb05 040e 	add.w	r4, r5, lr
  202572:	335b      	adds	r3, #91	; 0x5b
  202574:	eb04 2616 	add.w	r6, r4, r6, lsr #8
  202578:	f891 9002 	ldrb.w	r9, [r1, #2]
  20257c:	2bff      	cmp	r3, #255	; 0xff
  20257e:	bf88      	it	hi
  202580:	ea6f 33d3 	mvnhi.w	r3, r3, lsr #15
  202584:	704b      	strb	r3, [r1, #1]
  202586:	f1a6 03b3 	sub.w	r3, r6, #179	; 0xb3
  20258a:	fb05 f60b 	mul.w	r6, r5, fp
  20258e:	2bff      	cmp	r3, #255	; 0xff
  202590:	bf88      	it	hi
  202592:	ea6f 33d3 	mvnhi.w	r3, r3, lsr #15
  202596:	eba9 2616 	sub.w	r6, r9, r6, lsr #8
  20259a:	7083      	strb	r3, [r0, #2]
  20259c:	f106 035b 	add.w	r3, r6, #91	; 0x5b
  2025a0:	fb07 f60a 	mul.w	r6, r7, sl
  2025a4:	eb07 0508 	add.w	r5, r7, r8
  2025a8:	eb05 2616 	add.w	r6, r5, r6, lsr #8
  2025ac:	2bff      	cmp	r3, #255	; 0xff
  2025ae:	bf88      	it	hi
  2025b0:	ea6f 33d3 	mvnhi.w	r3, r3, lsr #15
  2025b4:	708b      	strb	r3, [r1, #2]
  2025b6:	f1a6 03b3 	sub.w	r3, r6, #179	; 0xb3
  2025ba:	fb07 f70b 	mul.w	r7, r7, fp
  2025be:	78ce      	ldrb	r6, [r1, #3]
  2025c0:	2bff      	cmp	r3, #255	; 0xff
  2025c2:	bf88      	it	hi
  2025c4:	ea6f 33d3 	mvnhi.w	r3, r3, lsr #15
  2025c8:	eba6 2717 	sub.w	r7, r6, r7, lsr #8
  2025cc:	70c3      	strb	r3, [r0, #3]
  2025ce:	f107 035b 	add.w	r3, r7, #91	; 0x5b
  2025d2:	2bff      	cmp	r3, #255	; 0xff
  2025d4:	bf88      	it	hi
  2025d6:	ea6f 33d3 	mvnhi.w	r3, r3, lsr #15
  2025da:	f1ac 0c04 	sub.w	ip, ip, #4
  2025de:	ea5f 670c 	movs.w	r7, ip, lsl #24
  2025e2:	70cb      	strb	r3, [r1, #3]
  2025e4:	d18a      	bne.n	2024fc <benchmark_picojpeg+0x1f24>
  2025e6:	f7fe be69 	b.w	2012bc <benchmark_picojpeg+0xce4>
  2025ea:	f240 100e 	movw	r0, #270	; 0x10e
  2025ee:	f240 210e 	movw	r1, #526	; 0x20e
  2025f2:	f240 42ea 	movw	r2, #1258	; 0x4ea
  2025f6:	f6c2 0020 	movt	r0, #10272	; 0x2820
  2025fa:	f6c2 0120 	movt	r1, #10272	; 0x2820
  2025fe:	f6c2 0220 	movt	r2, #10272	; 0x2820
  202602:	3804      	subs	r0, #4
  202604:	3904      	subs	r1, #4
  202606:	3a08      	subs	r2, #8
  202608:	f04f 0c40 	mov.w	ip, #64	; 0x40
  20260c:	f812 7f08 	ldrb.w	r7, [r2, #8]!
  202610:	f04f 0958 	mov.w	r9, #88	; 0x58
  202614:	fb07 f609 	mul.w	r6, r7, r9
  202618:	f810 5f04 	ldrb.w	r5, [r0, #4]!
  20261c:	f04f 0ac6 	mov.w	sl, #198	; 0xc6
  202620:	eba5 2616 	sub.w	r6, r5, r6, lsr #8
  202624:	fb07 f50a 	mul.w	r5, r7, sl
  202628:	362c      	adds	r6, #44	; 0x2c
  20262a:	2eff      	cmp	r6, #255	; 0xff
  20262c:	bf88      	it	hi
  20262e:	ea6f 36d6 	mvnhi.w	r6, r6, lsr #15
  202632:	f811 4f04 	ldrb.w	r4, [r1, #4]!
  202636:	eb07 2715 	add.w	r7, r7, r5, lsr #8
  20263a:	7006      	strb	r6, [r0, #0]
  20263c:	4427      	add	r7, r4
  20263e:	3fe3      	subs	r7, #227	; 0xe3
  202640:	2fff      	cmp	r7, #255	; 0xff
  202642:	bf88      	it	hi
  202644:	ea6f 37d7 	mvnhi.w	r7, r7, lsr #15
  202648:	7894      	ldrb	r4, [r2, #2]
  20264a:	7843      	ldrb	r3, [r0, #1]
  20264c:	fb04 f609 	mul.w	r6, r4, r9
  202650:	700f      	strb	r7, [r1, #0]
  202652:	eba3 2316 	sub.w	r3, r3, r6, lsr #8
  202656:	fb04 f60a 	mul.w	r6, r4, sl
  20265a:	332c      	adds	r3, #44	; 0x2c
  20265c:	7915      	ldrb	r5, [r2, #4]
  20265e:	7997      	ldrb	r7, [r2, #6]
  202660:	f890 e002 	ldrb.w	lr, [r0, #2]
  202664:	f890 8003 	ldrb.w	r8, [r0, #3]
  202668:	2bff      	cmp	r3, #255	; 0xff
  20266a:	bf88      	it	hi
  20266c:	ea6f 33d3 	mvnhi.w	r3, r3, lsr #15
  202670:	7043      	strb	r3, [r0, #1]
  202672:	eb04 2316 	add.w	r3, r4, r6, lsr #8
  202676:	784c      	ldrb	r4, [r1, #1]
  202678:	788e      	ldrb	r6, [r1, #2]
  20267a:	4423      	add	r3, r4
  20267c:	fb05 f409 	mul.w	r4, r5, r9
  202680:	3be3      	subs	r3, #227	; 0xe3
  202682:	ebae 2414 	sub.w	r4, lr, r4, lsr #8
  202686:	2bff      	cmp	r3, #255	; 0xff
  202688:	bf88      	it	hi
  20268a:	ea6f 33d3 	mvnhi.w	r3, r3, lsr #15
  20268e:	704b      	strb	r3, [r1, #1]
  202690:	f104 032c 	add.w	r3, r4, #44	; 0x2c
  202694:	fb05 f40a 	mul.w	r4, r5, sl
  202698:	2bff      	cmp	r3, #255	; 0xff
  20269a:	bf88      	it	hi
  20269c:	ea6f 33d3 	mvnhi.w	r3, r3, lsr #15
  2026a0:	eb05 2514 	add.w	r5, r5, r4, lsr #8
  2026a4:	7083      	strb	r3, [r0, #2]
  2026a6:	19ab      	adds	r3, r5, r6
  2026a8:	fb07 f609 	mul.w	r6, r7, r9
  2026ac:	3be3      	subs	r3, #227	; 0xe3
  2026ae:	eba8 2616 	sub.w	r6, r8, r6, lsr #8
  2026b2:	2bff      	cmp	r3, #255	; 0xff
  2026b4:	bf88      	it	hi
  2026b6:	ea6f 33d3 	mvnhi.w	r3, r3, lsr #15
  2026ba:	708b      	strb	r3, [r1, #2]
  2026bc:	f106 032c 	add.w	r3, r6, #44	; 0x2c
  2026c0:	fb07 f60a 	mul.w	r6, r7, sl
  2026c4:	2bff      	cmp	r3, #255	; 0xff
  2026c6:	bf88      	it	hi
  2026c8:	ea6f 33d3 	mvnhi.w	r3, r3, lsr #15
  2026cc:	78cd      	ldrb	r5, [r1, #3]
  2026ce:	eb07 2716 	add.w	r7, r7, r6, lsr #8
  2026d2:	70c3      	strb	r3, [r0, #3]
  2026d4:	197b      	adds	r3, r7, r5
  2026d6:	3be3      	subs	r3, #227	; 0xe3
  2026d8:	2bff      	cmp	r3, #255	; 0xff
  2026da:	bf88      	it	hi
  2026dc:	ea6f 33d3 	mvnhi.w	r3, r3, lsr #15
  2026e0:	f1ac 0c04 	sub.w	ip, ip, #4
  2026e4:	ea5f 670c 	movs.w	r7, ip, lsl #24
  2026e8:	70cb      	strb	r3, [r1, #3]
  2026ea:	d18f      	bne.n	20260c <benchmark_picojpeg+0x2034>
  2026ec:	f7fe bde6 	b.w	2012bc <benchmark_picojpeg+0xce4>
  2026f0:	f240 40ea 	movw	r0, #1258	; 0x4ea
  2026f4:	af01      	add	r7, sp, #4
  2026f6:	f6c2 0020 	movt	r0, #10272	; 0x2820
  2026fa:	cf8c      	ldmia	r7, {r2, r3, r7}
  2026fc:	3840      	subs	r0, #64	; 0x40
  2026fe:	f04f 0c40 	mov.w	ip, #64	; 0x40
  202702:	bf00      	nop
  202704:	f810 6f40 	ldrb.w	r6, [r0, #64]!
  202708:	f1ac 0c20 	sub.w	ip, ip, #32
  20270c:	f802 6f20 	strb.w	r6, [r2, #32]!
  202710:	f803 6f20 	strb.w	r6, [r3, #32]!
  202714:	f807 6f20 	strb.w	r6, [r7, #32]!
  202718:	7a01      	ldrb	r1, [r0, #8]
  20271a:	7886      	ldrb	r6, [r0, #2]
  20271c:	7111      	strb	r1, [r2, #4]
  20271e:	7119      	strb	r1, [r3, #4]
  202720:	7139      	strb	r1, [r7, #4]
  202722:	7a81      	ldrb	r1, [r0, #10]
  202724:	7056      	strb	r6, [r2, #1]
  202726:	7151      	strb	r1, [r2, #5]
  202728:	7159      	strb	r1, [r3, #5]
  20272a:	7179      	strb	r1, [r7, #5]
  20272c:	7c81      	ldrb	r1, [r0, #18]
  20272e:	705e      	strb	r6, [r3, #1]
  202730:	707e      	strb	r6, [r7, #1]
  202732:	7b06      	ldrb	r6, [r0, #12]
  202734:	7251      	strb	r1, [r2, #9]
  202736:	7259      	strb	r1, [r3, #9]
  202738:	7279      	strb	r1, [r7, #9]
  20273a:	7d01      	ldrb	r1, [r0, #20]
  20273c:	7196      	strb	r6, [r2, #6]
  20273e:	719e      	strb	r6, [r3, #6]
  202740:	71be      	strb	r6, [r7, #6]
  202742:	7d86      	ldrb	r6, [r0, #22]
  202744:	7291      	strb	r1, [r2, #10]
  202746:	7299      	strb	r1, [r3, #10]
  202748:	72b9      	strb	r1, [r7, #10]
  20274a:	7f01      	ldrb	r1, [r0, #28]
  20274c:	72d6      	strb	r6, [r2, #11]
  20274e:	72de      	strb	r6, [r3, #11]
  202750:	72fe      	strb	r6, [r7, #11]
  202752:	7f86      	ldrb	r6, [r0, #30]
  202754:	7391      	strb	r1, [r2, #14]
  202756:	7399      	strb	r1, [r3, #14]
  202758:	73b9      	strb	r1, [r7, #14]
  20275a:	f890 1020 	ldrb.w	r1, [r0, #32]
  20275e:	73d6      	strb	r6, [r2, #15]
  202760:	73de      	strb	r6, [r3, #15]
  202762:	73fe      	strb	r6, [r7, #15]
  202764:	f890 6022 	ldrb.w	r6, [r0, #34]	; 0x22
  202768:	7411      	strb	r1, [r2, #16]
  20276a:	7419      	strb	r1, [r3, #16]
  20276c:	7439      	strb	r1, [r7, #16]
  20276e:	f890 1024 	ldrb.w	r1, [r0, #36]	; 0x24
  202772:	7456      	strb	r6, [r2, #17]
  202774:	745e      	strb	r6, [r3, #17]
  202776:	747e      	strb	r6, [r7, #17]
  202778:	f890 6026 	ldrb.w	r6, [r0, #38]	; 0x26
  20277c:	7491      	strb	r1, [r2, #18]
  20277e:	7499      	strb	r1, [r3, #18]
  202780:	74b9      	strb	r1, [r7, #18]
  202782:	f890 1028 	ldrb.w	r1, [r0, #40]	; 0x28
  202786:	74d6      	strb	r6, [r2, #19]
  202788:	74de      	strb	r6, [r3, #19]
  20278a:	74fe      	strb	r6, [r7, #19]
  20278c:	f890 602a 	ldrb.w	r6, [r0, #42]	; 0x2a
  202790:	7511      	strb	r1, [r2, #20]
  202792:	7519      	strb	r1, [r3, #20]
  202794:	7539      	strb	r1, [r7, #20]
  202796:	f890 102c 	ldrb.w	r1, [r0, #44]	; 0x2c
  20279a:	7556      	strb	r6, [r2, #21]
  20279c:	755e      	strb	r6, [r3, #21]
  20279e:	757e      	strb	r6, [r7, #21]
  2027a0:	f890 602e 	ldrb.w	r6, [r0, #46]	; 0x2e
  2027a4:	7591      	strb	r1, [r2, #22]
  2027a6:	7599      	strb	r1, [r3, #22]
  2027a8:	75b9      	strb	r1, [r7, #22]
  2027aa:	f890 1030 	ldrb.w	r1, [r0, #48]	; 0x30
  2027ae:	75d6      	strb	r6, [r2, #23]
  2027b0:	75de      	strb	r6, [r3, #23]
  2027b2:	75fe      	strb	r6, [r7, #23]
  2027b4:	f890 6032 	ldrb.w	r6, [r0, #50]	; 0x32
  2027b8:	7611      	strb	r1, [r2, #24]
  2027ba:	7619      	strb	r1, [r3, #24]
  2027bc:	7639      	strb	r1, [r7, #24]
  2027be:	f890 1034 	ldrb.w	r1, [r0, #52]	; 0x34
  2027c2:	7905      	ldrb	r5, [r0, #4]
  2027c4:	7984      	ldrb	r4, [r0, #6]
  2027c6:	7656      	strb	r6, [r2, #25]
  2027c8:	765e      	strb	r6, [r3, #25]
  2027ca:	767e      	strb	r6, [r7, #25]
  2027cc:	f890 6036 	ldrb.w	r6, [r0, #54]	; 0x36
  2027d0:	7691      	strb	r1, [r2, #26]
  2027d2:	7699      	strb	r1, [r3, #26]
  2027d4:	76b9      	strb	r1, [r7, #26]
  2027d6:	f890 1038 	ldrb.w	r1, [r0, #56]	; 0x38
  2027da:	7095      	strb	r5, [r2, #2]
  2027dc:	709d      	strb	r5, [r3, #2]
  2027de:	70bd      	strb	r5, [r7, #2]
  2027e0:	70d4      	strb	r4, [r2, #3]
  2027e2:	70dc      	strb	r4, [r3, #3]
  2027e4:	70fc      	strb	r4, [r7, #3]
  2027e6:	7b85      	ldrb	r5, [r0, #14]
  2027e8:	7c04      	ldrb	r4, [r0, #16]
  2027ea:	76d6      	strb	r6, [r2, #27]
  2027ec:	76de      	strb	r6, [r3, #27]
  2027ee:	76fe      	strb	r6, [r7, #27]
  2027f0:	f890 603a 	ldrb.w	r6, [r0, #58]	; 0x3a
  2027f4:	7711      	strb	r1, [r2, #28]
  2027f6:	7719      	strb	r1, [r3, #28]
  2027f8:	7739      	strb	r1, [r7, #28]
  2027fa:	f890 103c 	ldrb.w	r1, [r0, #60]	; 0x3c
  2027fe:	71d5      	strb	r5, [r2, #7]
  202800:	71dd      	strb	r5, [r3, #7]
  202802:	71fd      	strb	r5, [r7, #7]
  202804:	7214      	strb	r4, [r2, #8]
  202806:	721c      	strb	r4, [r3, #8]
  202808:	723c      	strb	r4, [r7, #8]
  20280a:	7e05      	ldrb	r5, [r0, #24]
  20280c:	7e84      	ldrb	r4, [r0, #26]
  20280e:	7756      	strb	r6, [r2, #29]
  202810:	775e      	strb	r6, [r3, #29]
  202812:	777e      	strb	r6, [r7, #29]
  202814:	f890 603e 	ldrb.w	r6, [r0, #62]	; 0x3e
  202818:	7791      	strb	r1, [r2, #30]
  20281a:	7799      	strb	r1, [r3, #30]
  20281c:	77b9      	strb	r1, [r7, #30]
  20281e:	ea5f 610c 	movs.w	r1, ip, lsl #24
  202822:	7315      	strb	r5, [r2, #12]
  202824:	731d      	strb	r5, [r3, #12]
  202826:	733d      	strb	r5, [r7, #12]
  202828:	7354      	strb	r4, [r2, #13]
  20282a:	735c      	strb	r4, [r3, #13]
  20282c:	737c      	strb	r4, [r7, #13]
  20282e:	77d6      	strb	r6, [r2, #31]
  202830:	77de      	strb	r6, [r3, #31]
  202832:	77fe      	strb	r6, [r7, #31]
  202834:	f47f af66 	bne.w	202704 <benchmark_picojpeg+0x212c>
  202838:	f7fe bd40 	b.w	2012bc <benchmark_picojpeg+0xce4>
  20283c:	2000      	movs	r0, #0
  20283e:	2100      	movs	r1, #0
  202840:	f004 fa00 	bl	206c44 <upsampleCrH>
  202844:	2004      	movs	r0, #4
  202846:	2140      	movs	r1, #64	; 0x40
  202848:	f004 f9fc 	bl	206c44 <upsampleCrH>
  20284c:	f7fe bd36 	b.w	2012bc <benchmark_picojpeg+0xce4>
  202850:	2000      	movs	r0, #0
  202852:	2100      	movs	r1, #0
  202854:	f003 ff64 	bl	206720 <upsampleCbV>
  202858:	2020      	movs	r0, #32
  20285a:	2180      	movs	r1, #128	; 0x80
  20285c:	f003 ff60 	bl	206720 <upsampleCbV>
  202860:	f7fe bd2c 	b.w	2012bc <benchmark_picojpeg+0xce4>
  202864:	f240 40ea 	movw	r0, #1258	; 0x4ea
  202868:	f240 210e 	movw	r1, #526	; 0x20e
  20286c:	f240 120e 	movw	r2, #270	; 0x10e
  202870:	f240 030e 	movw	r3, #14
  202874:	f6c2 0020 	movt	r0, #10272	; 0x2820
  202878:	f6c2 0120 	movt	r1, #10272	; 0x2820
  20287c:	f6c2 0220 	movt	r2, #10272	; 0x2820
  202880:	f6c2 0320 	movt	r3, #10272	; 0x2820
  202884:	3840      	subs	r0, #64	; 0x40
  202886:	3120      	adds	r1, #32
  202888:	3220      	adds	r2, #32
  20288a:	3320      	adds	r3, #32
  20288c:	f04f 0c40 	mov.w	ip, #64	; 0x40
  202890:	f810 6f40 	ldrb.w	r6, [r0, #64]!
  202894:	f1ac 0c20 	sub.w	ip, ip, #32
  202898:	f803 6f20 	strb.w	r6, [r3, #32]!
  20289c:	f802 6f20 	strb.w	r6, [r2, #32]!
  2028a0:	f801 6f20 	strb.w	r6, [r1, #32]!
  2028a4:	7a07      	ldrb	r7, [r0, #8]
  2028a6:	7886      	ldrb	r6, [r0, #2]
  2028a8:	711f      	strb	r7, [r3, #4]
  2028aa:	7117      	strb	r7, [r2, #4]
  2028ac:	710f      	strb	r7, [r1, #4]
  2028ae:	7a87      	ldrb	r7, [r0, #10]
  2028b0:	705e      	strb	r6, [r3, #1]
  2028b2:	715f      	strb	r7, [r3, #5]
  2028b4:	7157      	strb	r7, [r2, #5]
  2028b6:	714f      	strb	r7, [r1, #5]
  2028b8:	7c87      	ldrb	r7, [r0, #18]
  2028ba:	7056      	strb	r6, [r2, #1]
  2028bc:	704e      	strb	r6, [r1, #1]
  2028be:	7b06      	ldrb	r6, [r0, #12]
  2028c0:	725f      	strb	r7, [r3, #9]
  2028c2:	7257      	strb	r7, [r2, #9]
  2028c4:	724f      	strb	r7, [r1, #9]
  2028c6:	7d07      	ldrb	r7, [r0, #20]
  2028c8:	719e      	strb	r6, [r3, #6]
  2028ca:	7196      	strb	r6, [r2, #6]
  2028cc:	718e      	strb	r6, [r1, #6]
  2028ce:	7d86      	ldrb	r6, [r0, #22]
  2028d0:	729f      	strb	r7, [r3, #10]
  2028d2:	7297      	strb	r7, [r2, #10]
  2028d4:	728f      	strb	r7, [r1, #10]
  2028d6:	7f07      	ldrb	r7, [r0, #28]
  2028d8:	72de      	strb	r6, [r3, #11]
  2028da:	72d6      	strb	r6, [r2, #11]
  2028dc:	72ce      	strb	r6, [r1, #11]
  2028de:	7f86      	ldrb	r6, [r0, #30]
  2028e0:	739f      	strb	r7, [r3, #14]
  2028e2:	7397      	strb	r7, [r2, #14]
  2028e4:	738f      	strb	r7, [r1, #14]
  2028e6:	f890 7020 	ldrb.w	r7, [r0, #32]
  2028ea:	73de      	strb	r6, [r3, #15]
  2028ec:	73d6      	strb	r6, [r2, #15]
  2028ee:	73ce      	strb	r6, [r1, #15]
  2028f0:	f890 6022 	ldrb.w	r6, [r0, #34]	; 0x22
  2028f4:	741f      	strb	r7, [r3, #16]
  2028f6:	7417      	strb	r7, [r2, #16]
  2028f8:	740f      	strb	r7, [r1, #16]
  2028fa:	f890 7024 	ldrb.w	r7, [r0, #36]	; 0x24
  2028fe:	745e      	strb	r6, [r3, #17]
  202900:	7456      	strb	r6, [r2, #17]
  202902:	744e      	strb	r6, [r1, #17]
  202904:	f890 6026 	ldrb.w	r6, [r0, #38]	; 0x26
  202908:	749f      	strb	r7, [r3, #18]
  20290a:	7497      	strb	r7, [r2, #18]
  20290c:	748f      	strb	r7, [r1, #18]
  20290e:	f890 7028 	ldrb.w	r7, [r0, #40]	; 0x28
  202912:	74de      	strb	r6, [r3, #19]
  202914:	74d6      	strb	r6, [r2, #19]
  202916:	74ce      	strb	r6, [r1, #19]
  202918:	f890 602a 	ldrb.w	r6, [r0, #42]	; 0x2a
  20291c:	751f      	strb	r7, [r3, #20]
  20291e:	7517      	strb	r7, [r2, #20]
  202920:	750f      	strb	r7, [r1, #20]
  202922:	f890 702c 	ldrb.w	r7, [r0, #44]	; 0x2c
  202926:	755e      	strb	r6, [r3, #21]
  202928:	7556      	strb	r6, [r2, #21]
  20292a:	754e      	strb	r6, [r1, #21]
  20292c:	f890 602e 	ldrb.w	r6, [r0, #46]	; 0x2e
  202930:	759f      	strb	r7, [r3, #22]
  202932:	7597      	strb	r7, [r2, #22]
  202934:	758f      	strb	r7, [r1, #22]
  202936:	f890 7030 	ldrb.w	r7, [r0, #48]	; 0x30
  20293a:	75de      	strb	r6, [r3, #23]
  20293c:	75d6      	strb	r6, [r2, #23]
  20293e:	75ce      	strb	r6, [r1, #23]
  202940:	f890 6032 	ldrb.w	r6, [r0, #50]	; 0x32
  202944:	761f      	strb	r7, [r3, #24]
  202946:	7617      	strb	r7, [r2, #24]
  202948:	760f      	strb	r7, [r1, #24]
  20294a:	f890 7034 	ldrb.w	r7, [r0, #52]	; 0x34
  20294e:	7905      	ldrb	r5, [r0, #4]
  202950:	7984      	ldrb	r4, [r0, #6]
  202952:	765e      	strb	r6, [r3, #25]
  202954:	7656      	strb	r6, [r2, #25]
  202956:	764e      	strb	r6, [r1, #25]
  202958:	f890 6036 	ldrb.w	r6, [r0, #54]	; 0x36
  20295c:	769f      	strb	r7, [r3, #26]
  20295e:	7697      	strb	r7, [r2, #26]
  202960:	768f      	strb	r7, [r1, #26]
  202962:	f890 7038 	ldrb.w	r7, [r0, #56]	; 0x38
  202966:	709d      	strb	r5, [r3, #2]
  202968:	7095      	strb	r5, [r2, #2]
  20296a:	708d      	strb	r5, [r1, #2]
  20296c:	70dc      	strb	r4, [r3, #3]
  20296e:	70d4      	strb	r4, [r2, #3]
  202970:	70cc      	strb	r4, [r1, #3]
  202972:	7b85      	ldrb	r5, [r0, #14]
  202974:	7c04      	ldrb	r4, [r0, #16]
  202976:	76de      	strb	r6, [r3, #27]
  202978:	76d6      	strb	r6, [r2, #27]
  20297a:	76ce      	strb	r6, [r1, #27]
  20297c:	f890 603a 	ldrb.w	r6, [r0, #58]	; 0x3a
  202980:	771f      	strb	r7, [r3, #28]
  202982:	7717      	strb	r7, [r2, #28]
  202984:	770f      	strb	r7, [r1, #28]
  202986:	f890 703c 	ldrb.w	r7, [r0, #60]	; 0x3c
  20298a:	71dd      	strb	r5, [r3, #7]
  20298c:	71d5      	strb	r5, [r2, #7]
  20298e:	71cd      	strb	r5, [r1, #7]
  202990:	721c      	strb	r4, [r3, #8]
  202992:	7214      	strb	r4, [r2, #8]
  202994:	720c      	strb	r4, [r1, #8]
  202996:	7e05      	ldrb	r5, [r0, #24]
  202998:	7e84      	ldrb	r4, [r0, #26]
  20299a:	775e      	strb	r6, [r3, #29]
  20299c:	7756      	strb	r6, [r2, #29]
  20299e:	774e      	strb	r6, [r1, #29]
  2029a0:	f890 603e 	ldrb.w	r6, [r0, #62]	; 0x3e
  2029a4:	779f      	strb	r7, [r3, #30]
  2029a6:	7797      	strb	r7, [r2, #30]
  2029a8:	778f      	strb	r7, [r1, #30]
  2029aa:	ea5f 670c 	movs.w	r7, ip, lsl #24
  2029ae:	731d      	strb	r5, [r3, #12]
  2029b0:	7315      	strb	r5, [r2, #12]
  2029b2:	730d      	strb	r5, [r1, #12]
  2029b4:	735c      	strb	r4, [r3, #13]
  2029b6:	7354      	strb	r4, [r2, #13]
  2029b8:	734c      	strb	r4, [r1, #13]
  2029ba:	77de      	strb	r6, [r3, #31]
  2029bc:	77d6      	strb	r6, [r2, #31]
  2029be:	77ce      	strb	r6, [r1, #31]
  2029c0:	f47f af66 	bne.w	202890 <benchmark_picojpeg+0x22b8>
  2029c4:	f7fe bc7a 	b.w	2012bc <benchmark_picojpeg+0xce4>
  2029c8:	2000      	movs	r0, #0
  2029ca:	2100      	movs	r1, #0
  2029cc:	f004 f9fe 	bl	206dcc <upsampleCrV>
  2029d0:	2020      	movs	r0, #32
  2029d2:	2180      	movs	r1, #128	; 0x80
  2029d4:	f004 f9fa 	bl	206dcc <upsampleCrV>
  2029d8:	f7fe bc70 	b.w	2012bc <benchmark_picojpeg+0xce4>
  2029dc:	f240 40ea 	movw	r0, #1258	; 0x4ea
  2029e0:	f240 210e 	movw	r1, #526	; 0x20e
  2029e4:	f240 120e 	movw	r2, #270	; 0x10e
  2029e8:	f240 030e 	movw	r3, #14
  2029ec:	f6c2 0020 	movt	r0, #10272	; 0x2820
  2029f0:	f6c2 0120 	movt	r1, #10272	; 0x2820
  2029f4:	f6c2 0220 	movt	r2, #10272	; 0x2820
  2029f8:	f6c2 0320 	movt	r3, #10272	; 0x2820
  2029fc:	3840      	subs	r0, #64	; 0x40
  2029fe:	3160      	adds	r1, #96	; 0x60
  202a00:	3260      	adds	r2, #96	; 0x60
  202a02:	3360      	adds	r3, #96	; 0x60
  202a04:	f04f 0c40 	mov.w	ip, #64	; 0x40
  202a08:	f810 6f40 	ldrb.w	r6, [r0, #64]!
  202a0c:	f1ac 0c20 	sub.w	ip, ip, #32
  202a10:	f803 6f20 	strb.w	r6, [r3, #32]!
  202a14:	f802 6f20 	strb.w	r6, [r2, #32]!
  202a18:	f801 6f20 	strb.w	r6, [r1, #32]!
  202a1c:	7a07      	ldrb	r7, [r0, #8]
  202a1e:	7886      	ldrb	r6, [r0, #2]
  202a20:	711f      	strb	r7, [r3, #4]
  202a22:	7117      	strb	r7, [r2, #4]
  202a24:	710f      	strb	r7, [r1, #4]
  202a26:	7a87      	ldrb	r7, [r0, #10]
  202a28:	705e      	strb	r6, [r3, #1]
  202a2a:	715f      	strb	r7, [r3, #5]
  202a2c:	7157      	strb	r7, [r2, #5]
  202a2e:	714f      	strb	r7, [r1, #5]
  202a30:	7c87      	ldrb	r7, [r0, #18]
  202a32:	7056      	strb	r6, [r2, #1]
  202a34:	704e      	strb	r6, [r1, #1]
  202a36:	7b06      	ldrb	r6, [r0, #12]
  202a38:	725f      	strb	r7, [r3, #9]
  202a3a:	7257      	strb	r7, [r2, #9]
  202a3c:	724f      	strb	r7, [r1, #9]
  202a3e:	7d07      	ldrb	r7, [r0, #20]
  202a40:	719e      	strb	r6, [r3, #6]
  202a42:	7196      	strb	r6, [r2, #6]
  202a44:	718e      	strb	r6, [r1, #6]
  202a46:	7d86      	ldrb	r6, [r0, #22]
  202a48:	729f      	strb	r7, [r3, #10]
  202a4a:	7297      	strb	r7, [r2, #10]
  202a4c:	728f      	strb	r7, [r1, #10]
  202a4e:	7f07      	ldrb	r7, [r0, #28]
  202a50:	72de      	strb	r6, [r3, #11]
  202a52:	72d6      	strb	r6, [r2, #11]
  202a54:	72ce      	strb	r6, [r1, #11]
  202a56:	7f86      	ldrb	r6, [r0, #30]
  202a58:	739f      	strb	r7, [r3, #14]
  202a5a:	7397      	strb	r7, [r2, #14]
  202a5c:	738f      	strb	r7, [r1, #14]
  202a5e:	f890 7020 	ldrb.w	r7, [r0, #32]
  202a62:	73de      	strb	r6, [r3, #15]
  202a64:	73d6      	strb	r6, [r2, #15]
  202a66:	73ce      	strb	r6, [r1, #15]
  202a68:	f890 6022 	ldrb.w	r6, [r0, #34]	; 0x22
  202a6c:	741f      	strb	r7, [r3, #16]
  202a6e:	7417      	strb	r7, [r2, #16]
  202a70:	740f      	strb	r7, [r1, #16]
  202a72:	f890 7024 	ldrb.w	r7, [r0, #36]	; 0x24
  202a76:	745e      	strb	r6, [r3, #17]
  202a78:	7456      	strb	r6, [r2, #17]
  202a7a:	744e      	strb	r6, [r1, #17]
  202a7c:	f890 6026 	ldrb.w	r6, [r0, #38]	; 0x26
  202a80:	749f      	strb	r7, [r3, #18]
  202a82:	7497      	strb	r7, [r2, #18]
  202a84:	748f      	strb	r7, [r1, #18]
  202a86:	f890 7028 	ldrb.w	r7, [r0, #40]	; 0x28
  202a8a:	74de      	strb	r6, [r3, #19]
  202a8c:	74d6      	strb	r6, [r2, #19]
  202a8e:	74ce      	strb	r6, [r1, #19]
  202a90:	f890 602a 	ldrb.w	r6, [r0, #42]	; 0x2a
  202a94:	751f      	strb	r7, [r3, #20]
  202a96:	7517      	strb	r7, [r2, #20]
  202a98:	750f      	strb	r7, [r1, #20]
  202a9a:	f890 702c 	ldrb.w	r7, [r0, #44]	; 0x2c
  202a9e:	755e      	strb	r6, [r3, #21]
  202aa0:	7556      	strb	r6, [r2, #21]
  202aa2:	754e      	strb	r6, [r1, #21]
  202aa4:	f890 602e 	ldrb.w	r6, [r0, #46]	; 0x2e
  202aa8:	759f      	strb	r7, [r3, #22]
  202aaa:	7597      	strb	r7, [r2, #22]
  202aac:	758f      	strb	r7, [r1, #22]
  202aae:	f890 7030 	ldrb.w	r7, [r0, #48]	; 0x30
  202ab2:	75de      	strb	r6, [r3, #23]
  202ab4:	75d6      	strb	r6, [r2, #23]
  202ab6:	75ce      	strb	r6, [r1, #23]
  202ab8:	f890 6032 	ldrb.w	r6, [r0, #50]	; 0x32
  202abc:	761f      	strb	r7, [r3, #24]
  202abe:	7617      	strb	r7, [r2, #24]
  202ac0:	760f      	strb	r7, [r1, #24]
  202ac2:	f890 7034 	ldrb.w	r7, [r0, #52]	; 0x34
  202ac6:	7905      	ldrb	r5, [r0, #4]
  202ac8:	7984      	ldrb	r4, [r0, #6]
  202aca:	765e      	strb	r6, [r3, #25]
  202acc:	7656      	strb	r6, [r2, #25]
  202ace:	764e      	strb	r6, [r1, #25]
  202ad0:	f890 6036 	ldrb.w	r6, [r0, #54]	; 0x36
  202ad4:	769f      	strb	r7, [r3, #26]
  202ad6:	7697      	strb	r7, [r2, #26]
  202ad8:	768f      	strb	r7, [r1, #26]
  202ada:	f890 7038 	ldrb.w	r7, [r0, #56]	; 0x38
  202ade:	709d      	strb	r5, [r3, #2]
  202ae0:	7095      	strb	r5, [r2, #2]
  202ae2:	708d      	strb	r5, [r1, #2]
  202ae4:	70dc      	strb	r4, [r3, #3]
  202ae6:	70d4      	strb	r4, [r2, #3]
  202ae8:	70cc      	strb	r4, [r1, #3]
  202aea:	7b85      	ldrb	r5, [r0, #14]
  202aec:	7c04      	ldrb	r4, [r0, #16]
  202aee:	76de      	strb	r6, [r3, #27]
  202af0:	76d6      	strb	r6, [r2, #27]
  202af2:	76ce      	strb	r6, [r1, #27]
  202af4:	f890 603a 	ldrb.w	r6, [r0, #58]	; 0x3a
  202af8:	771f      	strb	r7, [r3, #28]
  202afa:	7717      	strb	r7, [r2, #28]
  202afc:	770f      	strb	r7, [r1, #28]
  202afe:	f890 703c 	ldrb.w	r7, [r0, #60]	; 0x3c
  202b02:	71dd      	strb	r5, [r3, #7]
  202b04:	71d5      	strb	r5, [r2, #7]
  202b06:	71cd      	strb	r5, [r1, #7]
  202b08:	721c      	strb	r4, [r3, #8]
  202b0a:	7214      	strb	r4, [r2, #8]
  202b0c:	720c      	strb	r4, [r1, #8]
  202b0e:	7e05      	ldrb	r5, [r0, #24]
  202b10:	7e84      	ldrb	r4, [r0, #26]
  202b12:	775e      	strb	r6, [r3, #29]
  202b14:	7756      	strb	r6, [r2, #29]
  202b16:	774e      	strb	r6, [r1, #29]
  202b18:	f890 603e 	ldrb.w	r6, [r0, #62]	; 0x3e
  202b1c:	779f      	strb	r7, [r3, #30]
  202b1e:	7797      	strb	r7, [r2, #30]
  202b20:	778f      	strb	r7, [r1, #30]
  202b22:	ea5f 670c 	movs.w	r7, ip, lsl #24
  202b26:	731d      	strb	r5, [r3, #12]
  202b28:	7315      	strb	r5, [r2, #12]
  202b2a:	730d      	strb	r5, [r1, #12]
  202b2c:	735c      	strb	r4, [r3, #13]
  202b2e:	7354      	strb	r4, [r2, #13]
  202b30:	734c      	strb	r4, [r1, #13]
  202b32:	77de      	strb	r6, [r3, #31]
  202b34:	77d6      	strb	r6, [r2, #31]
  202b36:	77ce      	strb	r6, [r1, #31]
  202b38:	f47f af66 	bne.w	202a08 <benchmark_picojpeg+0x2430>
  202b3c:	f7fe bbbe 	b.w	2012bc <benchmark_picojpeg+0xce4>
  202b40:	2000      	movs	r0, #0
  202b42:	2100      	movs	r1, #0
  202b44:	f003 fbf4 	bl	206330 <upsampleCb>
  202b48:	2004      	movs	r0, #4
  202b4a:	2140      	movs	r1, #64	; 0x40
  202b4c:	f003 fbf0 	bl	206330 <upsampleCb>
  202b50:	2020      	movs	r0, #32
  202b52:	2180      	movs	r1, #128	; 0x80
  202b54:	f003 fbec 	bl	206330 <upsampleCb>
  202b58:	2024      	movs	r0, #36	; 0x24
  202b5a:	21c0      	movs	r1, #192	; 0xc0
  202b5c:	f003 fbe8 	bl	206330 <upsampleCb>
  202b60:	f7fe bbac 	b.w	2012bc <benchmark_picojpeg+0xce4>
  202b64:	f240 40ea 	movw	r0, #1258	; 0x4ea
  202b68:	f240 210e 	movw	r1, #526	; 0x20e
  202b6c:	f240 120e 	movw	r2, #270	; 0x10e
  202b70:	f240 030e 	movw	r3, #14
  202b74:	f6c2 0020 	movt	r0, #10272	; 0x2820
  202b78:	f6c2 0120 	movt	r1, #10272	; 0x2820
  202b7c:	f6c2 0220 	movt	r2, #10272	; 0x2820
  202b80:	f6c2 0320 	movt	r3, #10272	; 0x2820
  202b84:	3840      	subs	r0, #64	; 0x40
  202b86:	3160      	adds	r1, #96	; 0x60
  202b88:	3260      	adds	r2, #96	; 0x60
  202b8a:	3360      	adds	r3, #96	; 0x60
  202b8c:	f04f 0c40 	mov.w	ip, #64	; 0x40
  202b90:	f810 6f40 	ldrb.w	r6, [r0, #64]!
  202b94:	f1ac 0c20 	sub.w	ip, ip, #32
  202b98:	f803 6f20 	strb.w	r6, [r3, #32]!
  202b9c:	f802 6f20 	strb.w	r6, [r2, #32]!
  202ba0:	f801 6f20 	strb.w	r6, [r1, #32]!
  202ba4:	7a07      	ldrb	r7, [r0, #8]
  202ba6:	7886      	ldrb	r6, [r0, #2]
  202ba8:	711f      	strb	r7, [r3, #4]
  202baa:	7117      	strb	r7, [r2, #4]
  202bac:	710f      	strb	r7, [r1, #4]
  202bae:	7a87      	ldrb	r7, [r0, #10]
  202bb0:	705e      	strb	r6, [r3, #1]
  202bb2:	715f      	strb	r7, [r3, #5]
  202bb4:	7157      	strb	r7, [r2, #5]
  202bb6:	714f      	strb	r7, [r1, #5]
  202bb8:	7c87      	ldrb	r7, [r0, #18]
  202bba:	7056      	strb	r6, [r2, #1]
  202bbc:	704e      	strb	r6, [r1, #1]
  202bbe:	7b06      	ldrb	r6, [r0, #12]
  202bc0:	725f      	strb	r7, [r3, #9]
  202bc2:	7257      	strb	r7, [r2, #9]
  202bc4:	724f      	strb	r7, [r1, #9]
  202bc6:	7d07      	ldrb	r7, [r0, #20]
  202bc8:	719e      	strb	r6, [r3, #6]
  202bca:	7196      	strb	r6, [r2, #6]
  202bcc:	718e      	strb	r6, [r1, #6]
  202bce:	7d86      	ldrb	r6, [r0, #22]
  202bd0:	729f      	strb	r7, [r3, #10]
  202bd2:	7297      	strb	r7, [r2, #10]
  202bd4:	728f      	strb	r7, [r1, #10]
  202bd6:	7f07      	ldrb	r7, [r0, #28]
  202bd8:	72de      	strb	r6, [r3, #11]
  202bda:	72d6      	strb	r6, [r2, #11]
  202bdc:	72ce      	strb	r6, [r1, #11]
  202bde:	7f86      	ldrb	r6, [r0, #30]
  202be0:	739f      	strb	r7, [r3, #14]
  202be2:	7397      	strb	r7, [r2, #14]
  202be4:	738f      	strb	r7, [r1, #14]
  202be6:	f890 7020 	ldrb.w	r7, [r0, #32]
  202bea:	73de      	strb	r6, [r3, #15]
  202bec:	73d6      	strb	r6, [r2, #15]
  202bee:	73ce      	strb	r6, [r1, #15]
  202bf0:	f890 6022 	ldrb.w	r6, [r0, #34]	; 0x22
  202bf4:	741f      	strb	r7, [r3, #16]
  202bf6:	7417      	strb	r7, [r2, #16]
  202bf8:	740f      	strb	r7, [r1, #16]
  202bfa:	f890 7024 	ldrb.w	r7, [r0, #36]	; 0x24
  202bfe:	745e      	strb	r6, [r3, #17]
  202c00:	7456      	strb	r6, [r2, #17]
  202c02:	744e      	strb	r6, [r1, #17]
  202c04:	f890 6026 	ldrb.w	r6, [r0, #38]	; 0x26
  202c08:	749f      	strb	r7, [r3, #18]
  202c0a:	7497      	strb	r7, [r2, #18]
  202c0c:	748f      	strb	r7, [r1, #18]
  202c0e:	f890 7028 	ldrb.w	r7, [r0, #40]	; 0x28
  202c12:	74de      	strb	r6, [r3, #19]
  202c14:	74d6      	strb	r6, [r2, #19]
  202c16:	74ce      	strb	r6, [r1, #19]
  202c18:	f890 602a 	ldrb.w	r6, [r0, #42]	; 0x2a
  202c1c:	751f      	strb	r7, [r3, #20]
  202c1e:	7517      	strb	r7, [r2, #20]
  202c20:	750f      	strb	r7, [r1, #20]
  202c22:	f890 702c 	ldrb.w	r7, [r0, #44]	; 0x2c
  202c26:	755e      	strb	r6, [r3, #21]
  202c28:	7556      	strb	r6, [r2, #21]
  202c2a:	754e      	strb	r6, [r1, #21]
  202c2c:	f890 602e 	ldrb.w	r6, [r0, #46]	; 0x2e
  202c30:	759f      	strb	r7, [r3, #22]
  202c32:	7597      	strb	r7, [r2, #22]
  202c34:	758f      	strb	r7, [r1, #22]
  202c36:	f890 7030 	ldrb.w	r7, [r0, #48]	; 0x30
  202c3a:	75de      	strb	r6, [r3, #23]
  202c3c:	75d6      	strb	r6, [r2, #23]
  202c3e:	75ce      	strb	r6, [r1, #23]
  202c40:	f890 6032 	ldrb.w	r6, [r0, #50]	; 0x32
  202c44:	761f      	strb	r7, [r3, #24]
  202c46:	7617      	strb	r7, [r2, #24]
  202c48:	760f      	strb	r7, [r1, #24]
  202c4a:	f890 7034 	ldrb.w	r7, [r0, #52]	; 0x34
  202c4e:	7905      	ldrb	r5, [r0, #4]
  202c50:	7984      	ldrb	r4, [r0, #6]
  202c52:	765e      	strb	r6, [r3, #25]
  202c54:	7656      	strb	r6, [r2, #25]
  202c56:	764e      	strb	r6, [r1, #25]
  202c58:	f890 6036 	ldrb.w	r6, [r0, #54]	; 0x36
  202c5c:	769f      	strb	r7, [r3, #26]
  202c5e:	7697      	strb	r7, [r2, #26]
  202c60:	768f      	strb	r7, [r1, #26]
  202c62:	f890 7038 	ldrb.w	r7, [r0, #56]	; 0x38
  202c66:	709d      	strb	r5, [r3, #2]
  202c68:	7095      	strb	r5, [r2, #2]
  202c6a:	708d      	strb	r5, [r1, #2]
  202c6c:	70dc      	strb	r4, [r3, #3]
  202c6e:	70d4      	strb	r4, [r2, #3]
  202c70:	70cc      	strb	r4, [r1, #3]
  202c72:	7b85      	ldrb	r5, [r0, #14]
  202c74:	7c04      	ldrb	r4, [r0, #16]
  202c76:	76de      	strb	r6, [r3, #27]
  202c78:	76d6      	strb	r6, [r2, #27]
  202c7a:	76ce      	strb	r6, [r1, #27]
  202c7c:	f890 603a 	ldrb.w	r6, [r0, #58]	; 0x3a
  202c80:	771f      	strb	r7, [r3, #28]
  202c82:	7717      	strb	r7, [r2, #28]
  202c84:	770f      	strb	r7, [r1, #28]
  202c86:	f890 703c 	ldrb.w	r7, [r0, #60]	; 0x3c
  202c8a:	71dd      	strb	r5, [r3, #7]
  202c8c:	71d5      	strb	r5, [r2, #7]
  202c8e:	71cd      	strb	r5, [r1, #7]
  202c90:	721c      	strb	r4, [r3, #8]
  202c92:	7214      	strb	r4, [r2, #8]
  202c94:	720c      	strb	r4, [r1, #8]
  202c96:	7e05      	ldrb	r5, [r0, #24]
  202c98:	7e84      	ldrb	r4, [r0, #26]
  202c9a:	775e      	strb	r6, [r3, #29]
  202c9c:	7756      	strb	r6, [r2, #29]
  202c9e:	774e      	strb	r6, [r1, #29]
  202ca0:	f890 603e 	ldrb.w	r6, [r0, #62]	; 0x3e
  202ca4:	779f      	strb	r7, [r3, #30]
  202ca6:	7797      	strb	r7, [r2, #30]
  202ca8:	778f      	strb	r7, [r1, #30]
  202caa:	ea5f 670c 	movs.w	r7, ip, lsl #24
  202cae:	731d      	strb	r5, [r3, #12]
  202cb0:	7315      	strb	r5, [r2, #12]
  202cb2:	730d      	strb	r5, [r1, #12]
  202cb4:	735c      	strb	r4, [r3, #13]
  202cb6:	7354      	strb	r4, [r2, #13]
  202cb8:	734c      	strb	r4, [r1, #13]
  202cba:	77de      	strb	r6, [r3, #31]
  202cbc:	77d6      	strb	r6, [r2, #31]
  202cbe:	77ce      	strb	r6, [r1, #31]
  202cc0:	f47f af66 	bne.w	202b90 <benchmark_picojpeg+0x25b8>
  202cc4:	f7fe bafa 	b.w	2012bc <benchmark_picojpeg+0xce4>
  202cc8:	f240 40ea 	movw	r0, #1258	; 0x4ea
  202ccc:	f240 210e 	movw	r1, #526	; 0x20e
  202cd0:	f240 120e 	movw	r2, #270	; 0x10e
  202cd4:	f240 030e 	movw	r3, #14
  202cd8:	f6c2 0020 	movt	r0, #10272	; 0x2820
  202cdc:	f6c2 0120 	movt	r1, #10272	; 0x2820
  202ce0:	f6c2 0220 	movt	r2, #10272	; 0x2820
  202ce4:	f6c2 0320 	movt	r3, #10272	; 0x2820
  202ce8:	3840      	subs	r0, #64	; 0x40
  202cea:	31a0      	adds	r1, #160	; 0xa0
  202cec:	32a0      	adds	r2, #160	; 0xa0
  202cee:	33a0      	adds	r3, #160	; 0xa0
  202cf0:	f04f 0c40 	mov.w	ip, #64	; 0x40
  202cf4:	f810 6f40 	ldrb.w	r6, [r0, #64]!
  202cf8:	f1ac 0c20 	sub.w	ip, ip, #32
  202cfc:	f803 6f20 	strb.w	r6, [r3, #32]!
  202d00:	f802 6f20 	strb.w	r6, [r2, #32]!
  202d04:	f801 6f20 	strb.w	r6, [r1, #32]!
  202d08:	7a07      	ldrb	r7, [r0, #8]
  202d0a:	7886      	ldrb	r6, [r0, #2]
  202d0c:	711f      	strb	r7, [r3, #4]
  202d0e:	7117      	strb	r7, [r2, #4]
  202d10:	710f      	strb	r7, [r1, #4]
  202d12:	7a87      	ldrb	r7, [r0, #10]
  202d14:	705e      	strb	r6, [r3, #1]
  202d16:	715f      	strb	r7, [r3, #5]
  202d18:	7157      	strb	r7, [r2, #5]
  202d1a:	714f      	strb	r7, [r1, #5]
  202d1c:	7c87      	ldrb	r7, [r0, #18]
  202d1e:	7056      	strb	r6, [r2, #1]
  202d20:	704e      	strb	r6, [r1, #1]
  202d22:	7b06      	ldrb	r6, [r0, #12]
  202d24:	725f      	strb	r7, [r3, #9]
  202d26:	7257      	strb	r7, [r2, #9]
  202d28:	724f      	strb	r7, [r1, #9]
  202d2a:	7d07      	ldrb	r7, [r0, #20]
  202d2c:	719e      	strb	r6, [r3, #6]
  202d2e:	7196      	strb	r6, [r2, #6]
  202d30:	718e      	strb	r6, [r1, #6]
  202d32:	7d86      	ldrb	r6, [r0, #22]
  202d34:	729f      	strb	r7, [r3, #10]
  202d36:	7297      	strb	r7, [r2, #10]
  202d38:	728f      	strb	r7, [r1, #10]
  202d3a:	7f07      	ldrb	r7, [r0, #28]
  202d3c:	72de      	strb	r6, [r3, #11]
  202d3e:	72d6      	strb	r6, [r2, #11]
  202d40:	72ce      	strb	r6, [r1, #11]
  202d42:	7f86      	ldrb	r6, [r0, #30]
  202d44:	739f      	strb	r7, [r3, #14]
  202d46:	7397      	strb	r7, [r2, #14]
  202d48:	738f      	strb	r7, [r1, #14]
  202d4a:	f890 7020 	ldrb.w	r7, [r0, #32]
  202d4e:	73de      	strb	r6, [r3, #15]
  202d50:	73d6      	strb	r6, [r2, #15]
  202d52:	73ce      	strb	r6, [r1, #15]
  202d54:	f890 6022 	ldrb.w	r6, [r0, #34]	; 0x22
  202d58:	741f      	strb	r7, [r3, #16]
  202d5a:	7417      	strb	r7, [r2, #16]
  202d5c:	740f      	strb	r7, [r1, #16]
  202d5e:	f890 7024 	ldrb.w	r7, [r0, #36]	; 0x24
  202d62:	745e      	strb	r6, [r3, #17]
  202d64:	7456      	strb	r6, [r2, #17]
  202d66:	744e      	strb	r6, [r1, #17]
  202d68:	f890 6026 	ldrb.w	r6, [r0, #38]	; 0x26
  202d6c:	749f      	strb	r7, [r3, #18]
  202d6e:	7497      	strb	r7, [r2, #18]
  202d70:	748f      	strb	r7, [r1, #18]
  202d72:	f890 7028 	ldrb.w	r7, [r0, #40]	; 0x28
  202d76:	74de      	strb	r6, [r3, #19]
  202d78:	74d6      	strb	r6, [r2, #19]
  202d7a:	74ce      	strb	r6, [r1, #19]
  202d7c:	f890 602a 	ldrb.w	r6, [r0, #42]	; 0x2a
  202d80:	751f      	strb	r7, [r3, #20]
  202d82:	7517      	strb	r7, [r2, #20]
  202d84:	750f      	strb	r7, [r1, #20]
  202d86:	f890 702c 	ldrb.w	r7, [r0, #44]	; 0x2c
  202d8a:	755e      	strb	r6, [r3, #21]
  202d8c:	7556      	strb	r6, [r2, #21]
  202d8e:	754e      	strb	r6, [r1, #21]
  202d90:	f890 602e 	ldrb.w	r6, [r0, #46]	; 0x2e
  202d94:	759f      	strb	r7, [r3, #22]
  202d96:	7597      	strb	r7, [r2, #22]
  202d98:	758f      	strb	r7, [r1, #22]
  202d9a:	f890 7030 	ldrb.w	r7, [r0, #48]	; 0x30
  202d9e:	75de      	strb	r6, [r3, #23]
  202da0:	75d6      	strb	r6, [r2, #23]
  202da2:	75ce      	strb	r6, [r1, #23]
  202da4:	f890 6032 	ldrb.w	r6, [r0, #50]	; 0x32
  202da8:	761f      	strb	r7, [r3, #24]
  202daa:	7617      	strb	r7, [r2, #24]
  202dac:	760f      	strb	r7, [r1, #24]
  202dae:	f890 7034 	ldrb.w	r7, [r0, #52]	; 0x34
  202db2:	7905      	ldrb	r5, [r0, #4]
  202db4:	7984      	ldrb	r4, [r0, #6]
  202db6:	765e      	strb	r6, [r3, #25]
  202db8:	7656      	strb	r6, [r2, #25]
  202dba:	764e      	strb	r6, [r1, #25]
  202dbc:	f890 6036 	ldrb.w	r6, [r0, #54]	; 0x36
  202dc0:	769f      	strb	r7, [r3, #26]
  202dc2:	7697      	strb	r7, [r2, #26]
  202dc4:	768f      	strb	r7, [r1, #26]
  202dc6:	f890 7038 	ldrb.w	r7, [r0, #56]	; 0x38
  202dca:	709d      	strb	r5, [r3, #2]
  202dcc:	7095      	strb	r5, [r2, #2]
  202dce:	708d      	strb	r5, [r1, #2]
  202dd0:	70dc      	strb	r4, [r3, #3]
  202dd2:	70d4      	strb	r4, [r2, #3]
  202dd4:	70cc      	strb	r4, [r1, #3]
  202dd6:	7b85      	ldrb	r5, [r0, #14]
  202dd8:	7c04      	ldrb	r4, [r0, #16]
  202dda:	76de      	strb	r6, [r3, #27]
  202ddc:	76d6      	strb	r6, [r2, #27]
  202dde:	76ce      	strb	r6, [r1, #27]
  202de0:	f890 603a 	ldrb.w	r6, [r0, #58]	; 0x3a
  202de4:	771f      	strb	r7, [r3, #28]
  202de6:	7717      	strb	r7, [r2, #28]
  202de8:	770f      	strb	r7, [r1, #28]
  202dea:	f890 703c 	ldrb.w	r7, [r0, #60]	; 0x3c
  202dee:	71dd      	strb	r5, [r3, #7]
  202df0:	71d5      	strb	r5, [r2, #7]
  202df2:	71cd      	strb	r5, [r1, #7]
  202df4:	721c      	strb	r4, [r3, #8]
  202df6:	7214      	strb	r4, [r2, #8]
  202df8:	720c      	strb	r4, [r1, #8]
  202dfa:	7e05      	ldrb	r5, [r0, #24]
  202dfc:	7e84      	ldrb	r4, [r0, #26]
  202dfe:	775e      	strb	r6, [r3, #29]
  202e00:	7756      	strb	r6, [r2, #29]
  202e02:	774e      	strb	r6, [r1, #29]
  202e04:	f890 603e 	ldrb.w	r6, [r0, #62]	; 0x3e
  202e08:	779f      	strb	r7, [r3, #30]
  202e0a:	7797      	strb	r7, [r2, #30]
  202e0c:	778f      	strb	r7, [r1, #30]
  202e0e:	ea5f 670c 	movs.w	r7, ip, lsl #24
  202e12:	731d      	strb	r5, [r3, #12]
  202e14:	7315      	strb	r5, [r2, #12]
  202e16:	730d      	strb	r5, [r1, #12]
  202e18:	735c      	strb	r4, [r3, #13]
  202e1a:	7354      	strb	r4, [r2, #13]
  202e1c:	734c      	strb	r4, [r1, #13]
  202e1e:	77de      	strb	r6, [r3, #31]
  202e20:	77d6      	strb	r6, [r2, #31]
  202e22:	77ce      	strb	r6, [r1, #31]
  202e24:	f47f af66 	bne.w	202cf4 <benchmark_picojpeg+0x271c>
  202e28:	f7fe ba48 	b.w	2012bc <benchmark_picojpeg+0xce4>
  202e2c:	f240 40ea 	movw	r0, #1258	; 0x4ea
  202e30:	f240 210e 	movw	r1, #526	; 0x20e
  202e34:	f240 120e 	movw	r2, #270	; 0x10e
  202e38:	f240 030e 	movw	r3, #14
  202e3c:	f6c2 0020 	movt	r0, #10272	; 0x2820
  202e40:	f6c2 0120 	movt	r1, #10272	; 0x2820
  202e44:	f6c2 0220 	movt	r2, #10272	; 0x2820
  202e48:	f6c2 0320 	movt	r3, #10272	; 0x2820
  202e4c:	3840      	subs	r0, #64	; 0x40
  202e4e:	3120      	adds	r1, #32
  202e50:	3220      	adds	r2, #32
  202e52:	3320      	adds	r3, #32
  202e54:	f04f 0c40 	mov.w	ip, #64	; 0x40
  202e58:	f810 6f40 	ldrb.w	r6, [r0, #64]!
  202e5c:	f1ac 0c20 	sub.w	ip, ip, #32
  202e60:	f803 6f20 	strb.w	r6, [r3, #32]!
  202e64:	f802 6f20 	strb.w	r6, [r2, #32]!
  202e68:	f801 6f20 	strb.w	r6, [r1, #32]!
  202e6c:	7a07      	ldrb	r7, [r0, #8]
  202e6e:	7886      	ldrb	r6, [r0, #2]
  202e70:	711f      	strb	r7, [r3, #4]
  202e72:	7117      	strb	r7, [r2, #4]
  202e74:	710f      	strb	r7, [r1, #4]
  202e76:	7a87      	ldrb	r7, [r0, #10]
  202e78:	705e      	strb	r6, [r3, #1]
  202e7a:	715f      	strb	r7, [r3, #5]
  202e7c:	7157      	strb	r7, [r2, #5]
  202e7e:	714f      	strb	r7, [r1, #5]
  202e80:	7c87      	ldrb	r7, [r0, #18]
  202e82:	7056      	strb	r6, [r2, #1]
  202e84:	704e      	strb	r6, [r1, #1]
  202e86:	7b06      	ldrb	r6, [r0, #12]
  202e88:	725f      	strb	r7, [r3, #9]
  202e8a:	7257      	strb	r7, [r2, #9]
  202e8c:	724f      	strb	r7, [r1, #9]
  202e8e:	7d07      	ldrb	r7, [r0, #20]
  202e90:	719e      	strb	r6, [r3, #6]
  202e92:	7196      	strb	r6, [r2, #6]
  202e94:	718e      	strb	r6, [r1, #6]
  202e96:	7d86      	ldrb	r6, [r0, #22]
  202e98:	729f      	strb	r7, [r3, #10]
  202e9a:	7297      	strb	r7, [r2, #10]
  202e9c:	728f      	strb	r7, [r1, #10]
  202e9e:	7f07      	ldrb	r7, [r0, #28]
  202ea0:	72de      	strb	r6, [r3, #11]
  202ea2:	72d6      	strb	r6, [r2, #11]
  202ea4:	72ce      	strb	r6, [r1, #11]
  202ea6:	7f86      	ldrb	r6, [r0, #30]
  202ea8:	739f      	strb	r7, [r3, #14]
  202eaa:	7397      	strb	r7, [r2, #14]
  202eac:	738f      	strb	r7, [r1, #14]
  202eae:	f890 7020 	ldrb.w	r7, [r0, #32]
  202eb2:	73de      	strb	r6, [r3, #15]
  202eb4:	73d6      	strb	r6, [r2, #15]
  202eb6:	73ce      	strb	r6, [r1, #15]
  202eb8:	f890 6022 	ldrb.w	r6, [r0, #34]	; 0x22
  202ebc:	741f      	strb	r7, [r3, #16]
  202ebe:	7417      	strb	r7, [r2, #16]
  202ec0:	740f      	strb	r7, [r1, #16]
  202ec2:	f890 7024 	ldrb.w	r7, [r0, #36]	; 0x24
  202ec6:	745e      	strb	r6, [r3, #17]
  202ec8:	7456      	strb	r6, [r2, #17]
  202eca:	744e      	strb	r6, [r1, #17]
  202ecc:	f890 6026 	ldrb.w	r6, [r0, #38]	; 0x26
  202ed0:	749f      	strb	r7, [r3, #18]
  202ed2:	7497      	strb	r7, [r2, #18]
  202ed4:	748f      	strb	r7, [r1, #18]
  202ed6:	f890 7028 	ldrb.w	r7, [r0, #40]	; 0x28
  202eda:	74de      	strb	r6, [r3, #19]
  202edc:	74d6      	strb	r6, [r2, #19]
  202ede:	74ce      	strb	r6, [r1, #19]
  202ee0:	f890 602a 	ldrb.w	r6, [r0, #42]	; 0x2a
  202ee4:	751f      	strb	r7, [r3, #20]
  202ee6:	7517      	strb	r7, [r2, #20]
  202ee8:	750f      	strb	r7, [r1, #20]
  202eea:	f890 702c 	ldrb.w	r7, [r0, #44]	; 0x2c
  202eee:	755e      	strb	r6, [r3, #21]
  202ef0:	7556      	strb	r6, [r2, #21]
  202ef2:	754e      	strb	r6, [r1, #21]
  202ef4:	f890 602e 	ldrb.w	r6, [r0, #46]	; 0x2e
  202ef8:	759f      	strb	r7, [r3, #22]
  202efa:	7597      	strb	r7, [r2, #22]
  202efc:	758f      	strb	r7, [r1, #22]
  202efe:	f890 7030 	ldrb.w	r7, [r0, #48]	; 0x30
  202f02:	75de      	strb	r6, [r3, #23]
  202f04:	75d6      	strb	r6, [r2, #23]
  202f06:	75ce      	strb	r6, [r1, #23]
  202f08:	f890 6032 	ldrb.w	r6, [r0, #50]	; 0x32
  202f0c:	761f      	strb	r7, [r3, #24]
  202f0e:	7617      	strb	r7, [r2, #24]
  202f10:	760f      	strb	r7, [r1, #24]
  202f12:	f890 7034 	ldrb.w	r7, [r0, #52]	; 0x34
  202f16:	7905      	ldrb	r5, [r0, #4]
  202f18:	7984      	ldrb	r4, [r0, #6]
  202f1a:	765e      	strb	r6, [r3, #25]
  202f1c:	7656      	strb	r6, [r2, #25]
  202f1e:	764e      	strb	r6, [r1, #25]
  202f20:	f890 6036 	ldrb.w	r6, [r0, #54]	; 0x36
  202f24:	769f      	strb	r7, [r3, #26]
  202f26:	7697      	strb	r7, [r2, #26]
  202f28:	768f      	strb	r7, [r1, #26]
  202f2a:	f890 7038 	ldrb.w	r7, [r0, #56]	; 0x38
  202f2e:	709d      	strb	r5, [r3, #2]
  202f30:	7095      	strb	r5, [r2, #2]
  202f32:	708d      	strb	r5, [r1, #2]
  202f34:	70dc      	strb	r4, [r3, #3]
  202f36:	70d4      	strb	r4, [r2, #3]
  202f38:	70cc      	strb	r4, [r1, #3]
  202f3a:	7b85      	ldrb	r5, [r0, #14]
  202f3c:	7c04      	ldrb	r4, [r0, #16]
  202f3e:	76de      	strb	r6, [r3, #27]
  202f40:	76d6      	strb	r6, [r2, #27]
  202f42:	76ce      	strb	r6, [r1, #27]
  202f44:	f890 603a 	ldrb.w	r6, [r0, #58]	; 0x3a
  202f48:	771f      	strb	r7, [r3, #28]
  202f4a:	7717      	strb	r7, [r2, #28]
  202f4c:	770f      	strb	r7, [r1, #28]
  202f4e:	f890 703c 	ldrb.w	r7, [r0, #60]	; 0x3c
  202f52:	71dd      	strb	r5, [r3, #7]
  202f54:	71d5      	strb	r5, [r2, #7]
  202f56:	71cd      	strb	r5, [r1, #7]
  202f58:	721c      	strb	r4, [r3, #8]
  202f5a:	7214      	strb	r4, [r2, #8]
  202f5c:	720c      	strb	r4, [r1, #8]
  202f5e:	7e05      	ldrb	r5, [r0, #24]
  202f60:	7e84      	ldrb	r4, [r0, #26]
  202f62:	775e      	strb	r6, [r3, #29]
  202f64:	7756      	strb	r6, [r2, #29]
  202f66:	774e      	strb	r6, [r1, #29]
  202f68:	f890 603e 	ldrb.w	r6, [r0, #62]	; 0x3e
  202f6c:	779f      	strb	r7, [r3, #30]
  202f6e:	7797      	strb	r7, [r2, #30]
  202f70:	778f      	strb	r7, [r1, #30]
  202f72:	ea5f 670c 	movs.w	r7, ip, lsl #24
  202f76:	731d      	strb	r5, [r3, #12]
  202f78:	7315      	strb	r5, [r2, #12]
  202f7a:	730d      	strb	r5, [r1, #12]
  202f7c:	735c      	strb	r4, [r3, #13]
  202f7e:	7354      	strb	r4, [r2, #13]
  202f80:	734c      	strb	r4, [r1, #13]
  202f82:	77de      	strb	r6, [r3, #31]
  202f84:	77d6      	strb	r6, [r2, #31]
  202f86:	77ce      	strb	r6, [r1, #31]
  202f88:	f47f af66 	bne.w	202e58 <benchmark_picojpeg+0x2880>
  202f8c:	f7fe b996 	b.w	2012bc <benchmark_picojpeg+0xce4>
  202f90:	2000      	movs	r0, #0
  202f92:	2100      	movs	r1, #0
  202f94:	f003 fd20 	bl	2069d8 <upsampleCr>
  202f98:	2004      	movs	r0, #4
  202f9a:	2140      	movs	r1, #64	; 0x40
  202f9c:	f003 fd1c 	bl	2069d8 <upsampleCr>
  202fa0:	2020      	movs	r0, #32
  202fa2:	2180      	movs	r1, #128	; 0x80
  202fa4:	f003 fd18 	bl	2069d8 <upsampleCr>
  202fa8:	2024      	movs	r0, #36	; 0x24
  202faa:	21c0      	movs	r1, #192	; 0xc0
  202fac:	f003 fd14 	bl	2069d8 <upsampleCr>
  202fb0:	f7fe b984 	b.w	2012bc <benchmark_picojpeg+0xce4>
  202fb4:	f640 1028 	movw	r0, #2344	; 0x928
  202fb8:	f6c2 0020 	movt	r0, #10272	; 0x2820
  202fbc:	6807      	ldr	r7, [r0, #0]
  202fbe:	f640 0012 	movw	r0, #2066	; 0x812
  202fc2:	f6c2 0020 	movt	r0, #10272	; 0x2820
  202fc6:	781e      	ldrb	r6, [r3, #0]
  202fc8:	f89e 4000 	ldrb.w	r4, [lr]
  202fcc:	f890 a000 	ldrb.w	sl, [r0]
  202fd0:	f44f 65c0 	mov.w	r5, #1536	; 0x600
  202fd4:	e019      	b.n	20300a <benchmark_picojpeg+0x2a32>
  202fd6:	bf00      	nop
  202fd8:	f640 0c10 	movw	ip, #2064	; 0x810
  202fdc:	f640 1e14 	movw	lr, #2324	; 0x914
  202fe0:	f6c2 0c20 	movt	ip, #10272	; 0x2820
  202fe4:	f6c2 0e20 	movt	lr, #10272	; 0x2820
  202fe8:	f640 0114 	movw	r1, #2068	; 0x814
  202fec:	b2e0      	uxtb	r0, r4
  202fee:	f6c2 0120 	movt	r1, #10272	; 0x2820
  202ff2:	5c08      	ldrb	r0, [r1, r0]
  202ff4:	3e01      	subs	r6, #1
  202ff6:	3401      	adds	r4, #1
  202ff8:	28ff      	cmp	r0, #255	; 0xff
  202ffa:	701e      	strb	r6, [r3, #0]
  202ffc:	f88e 4000 	strb.w	r4, [lr]
  203000:	d057      	beq.n	2030b2 <benchmark_picojpeg+0x2ada>
  203002:	3d01      	subs	r5, #1
  203004:	0428      	lsls	r0, r5, #16
  203006:	f43e a91d 	beq.w	201244 <benchmark_picojpeg+0xc6c>
  20300a:	0630      	lsls	r0, r6, #24
  20300c:	d1ec      	bne.n	202fe8 <benchmark_picojpeg+0x2a10>
  20300e:	f240 203a 	movw	r0, #570	; 0x23a
  203012:	2404      	movs	r4, #4
  203014:	1bc6      	subs	r6, r0, r7
  203016:	20fc      	movs	r0, #252	; 0xfc
  203018:	f88e 4000 	strb.w	r4, [lr]
  20301c:	2efc      	cmp	r6, #252	; 0xfc
  20301e:	bf28      	it	cs
  203020:	4606      	movcs	r6, r0
  203022:	f247 106c 	movw	r0, #29036	; 0x716c
  203026:	f2c0 0020 	movt	r0, #32
  20302a:	19c1      	adds	r1, r0, r7
  20302c:	9807      	ldr	r0, [sp, #28]
  20302e:	4632      	mov	r2, r6
  203030:	f7fd fa38 	bl	2004a4 <__rt_memcpy>
  203034:	0630      	lsls	r0, r6, #24
  203036:	f640 0311 	movw	r3, #2065	; 0x811
  20303a:	f640 1028 	movw	r0, #2344	; 0x928
  20303e:	f6c2 0320 	movt	r3, #10272	; 0x2820
  203042:	4437      	add	r7, r6
  203044:	f6c2 0020 	movt	r0, #10272	; 0x2820
  203048:	701e      	strb	r6, [r3, #0]
  20304a:	6007      	str	r7, [r0, #0]
  20304c:	d1c4      	bne.n	202fd8 <benchmark_picojpeg+0x2a00>
  20304e:	f640 0012 	movw	r0, #2066	; 0x812
  203052:	f640 0c10 	movw	ip, #2064	; 0x810
  203056:	f640 1e14 	movw	lr, #2324	; 0x914
  20305a:	f1ba 0fff 	cmp.w	sl, #255	; 0xff
  20305e:	f08a 0aff 	eor.w	sl, sl, #255	; 0xff
  203062:	f6c2 0020 	movt	r0, #10272	; 0x2820
  203066:	f04f 0600 	mov.w	r6, #0
  20306a:	f04f 0404 	mov.w	r4, #4
  20306e:	f6c2 0c20 	movt	ip, #10272	; 0x2820
  203072:	f6c2 0e20 	movt	lr, #10272	; 0x2820
  203076:	f880 a000 	strb.w	sl, [r0]
  20307a:	d0c2      	beq.n	203002 <benchmark_picojpeg+0x2a2a>
  20307c:	e019      	b.n	2030b2 <benchmark_picojpeg+0x2ada>
  20307e:	bf00      	nop
  203080:	f640 0c10 	movw	ip, #2064	; 0x810
  203084:	f640 1e14 	movw	lr, #2324	; 0x914
  203088:	f6c2 0c20 	movt	ip, #10272	; 0x2820
  20308c:	f6c2 0e20 	movt	lr, #10272	; 0x2820
  203090:	f640 0114 	movw	r1, #2068	; 0x814
  203094:	b2e0      	uxtb	r0, r4
  203096:	f6c2 0120 	movt	r1, #10272	; 0x2820
  20309a:	5c08      	ldrb	r0, [r1, r0]
  20309c:	3e01      	subs	r6, #1
  20309e:	3401      	adds	r4, #1
  2030a0:	28ff      	cmp	r0, #255	; 0xff
  2030a2:	701e      	strb	r6, [r3, #0]
  2030a4:	f88e 4000 	strb.w	r4, [lr]
  2030a8:	d144      	bne.n	203134 <benchmark_picojpeg+0x2b5c>
  2030aa:	3d01      	subs	r5, #1
  2030ac:	0428      	lsls	r0, r5, #16
  2030ae:	f43e a8c9 	beq.w	201244 <benchmark_picojpeg+0xc6c>
  2030b2:	0630      	lsls	r0, r6, #24
  2030b4:	d1ec      	bne.n	203090 <benchmark_picojpeg+0x2ab8>
  2030b6:	f240 203a 	movw	r0, #570	; 0x23a
  2030ba:	2404      	movs	r4, #4
  2030bc:	1bc6      	subs	r6, r0, r7
  2030be:	20fc      	movs	r0, #252	; 0xfc
  2030c0:	f88e 4000 	strb.w	r4, [lr]
  2030c4:	2efc      	cmp	r6, #252	; 0xfc
  2030c6:	bf28      	it	cs
  2030c8:	4606      	movcs	r6, r0
  2030ca:	f247 106c 	movw	r0, #29036	; 0x716c
  2030ce:	f2c0 0020 	movt	r0, #32
  2030d2:	19c1      	adds	r1, r0, r7
  2030d4:	9807      	ldr	r0, [sp, #28]
  2030d6:	4632      	mov	r2, r6
  2030d8:	f7fd f9e4 	bl	2004a4 <__rt_memcpy>
  2030dc:	0630      	lsls	r0, r6, #24
  2030de:	f640 0311 	movw	r3, #2065	; 0x811
  2030e2:	f640 1028 	movw	r0, #2344	; 0x928
  2030e6:	f6c2 0320 	movt	r3, #10272	; 0x2820
  2030ea:	4437      	add	r7, r6
  2030ec:	f6c2 0020 	movt	r0, #10272	; 0x2820
  2030f0:	701e      	strb	r6, [r3, #0]
  2030f2:	6007      	str	r7, [r0, #0]
  2030f4:	d1c4      	bne.n	203080 <benchmark_picojpeg+0x2aa8>
  2030f6:	f640 0112 	movw	r1, #2066	; 0x812
  2030fa:	f08a 00ff 	eor.w	r0, sl, #255	; 0xff
  2030fe:	f1ba 0fff 	cmp.w	sl, #255	; 0xff
  203102:	f6c2 0120 	movt	r1, #10272	; 0x2820
  203106:	7008      	strb	r0, [r1, #0]
  203108:	d00b      	beq.n	203122 <benchmark_picojpeg+0x2b4a>
  20310a:	f640 0c10 	movw	ip, #2064	; 0x810
  20310e:	f640 1e14 	movw	lr, #2324	; 0x914
  203112:	2600      	movs	r6, #0
  203114:	2404      	movs	r4, #4
  203116:	4682      	mov	sl, r0
  203118:	f6c2 0c20 	movt	ip, #10272	; 0x2820
  20311c:	f6c2 0e20 	movt	lr, #10272	; 0x2820
  203120:	e7c3      	b.n	2030aa <benchmark_picojpeg+0x2ad2>
  203122:	f640 0c10 	movw	ip, #2064	; 0x810
  203126:	f640 1e14 	movw	lr, #2324	; 0x914
  20312a:	20d9      	movs	r0, #217	; 0xd9
  20312c:	f6c2 0c20 	movt	ip, #10272	; 0x2820
  203130:	f6c2 0e20 	movt	lr, #10272	; 0x2820
  203134:	f640 010e 	movw	r1, #2062	; 0x80e
  203138:	f6c2 0120 	movt	r1, #10272	; 0x2820
  20313c:	8809      	ldrh	r1, [r1, #0]
  20313e:	f101 02d0 	add.w	r2, r1, #208	; 0xd0
  203142:	4282      	cmp	r2, r0
  203144:	f47e a87e 	bne.w	201244 <benchmark_picojpeg+0xc6c>
  203148:	f240 40e4 	movw	r0, #1252	; 0x4e4
  20314c:	f6c2 0020 	movt	r0, #10272	; 0x2820
  203150:	2200      	movs	r2, #0
  203152:	6002      	str	r2, [r0, #0]
  203154:	8082      	strh	r2, [r0, #4]
  203156:	1c48      	adds	r0, r1, #1
  203158:	f640 010e 	movw	r1, #2062	; 0x80e
  20315c:	f000 0007 	and.w	r0, r0, #7
  203160:	f6c2 0120 	movt	r1, #10272	; 0x2820
  203164:	8008      	strh	r0, [r1, #0]
  203166:	f88c 2000 	strb.w	r2, [ip]
  20316a:	f001 f81d 	bl	2041a8 <getOctet>
  20316e:	f640 1116 	movw	r1, #2326	; 0x916
  203172:	0200      	lsls	r0, r0, #8
  203174:	f6c2 0120 	movt	r1, #10272	; 0x2820
  203178:	f640 0311 	movw	r3, #2065	; 0x811
  20317c:	f640 1e14 	movw	lr, #2324	; 0x914
  203180:	f640 0c10 	movw	ip, #2064	; 0x810
  203184:	8008      	strh	r0, [r1, #0]
  203186:	f240 3114 	movw	r1, #788	; 0x314
  20318a:	f6c2 0320 	movt	r3, #10272	; 0x2820
  20318e:	f6c2 0e20 	movt	lr, #10272	; 0x2820
  203192:	f6c2 0c20 	movt	ip, #10272	; 0x2820
  203196:	4640      	mov	r0, r8
  203198:	f6c2 0120 	movt	r1, #10272	; 0x2820
  20319c:	f7fe b883 	b.w	2012a6 <benchmark_picojpeg+0xcce>
  2031a0:	9900      	ldr	r1, [sp, #0]
  2031a2:	f640 1016 	movw	r0, #2326	; 0x916
  2031a6:	2903      	cmp	r1, #3
  2031a8:	f6c2 0020 	movt	r0, #10272	; 0x2820
  2031ac:	8003      	strh	r3, [r0, #0]
  2031ae:	d03e      	beq.n	20322e <benchmark_picojpeg+0x2c56>
  2031b0:	f640 101e 	movw	r0, #2334	; 0x91e
  2031b4:	2901      	cmp	r1, #1
  2031b6:	f6c2 0020 	movt	r0, #10272	; 0x2820
  2031ba:	f47e a82c 	bne.w	201216 <benchmark_picojpeg+0xc3e>
  2031be:	7800      	ldrb	r0, [r0, #0]
  2031c0:	2801      	cmp	r0, #1
  2031c2:	f47e a828 	bne.w	201216 <benchmark_picojpeg+0xc3e>
  2031c6:	f640 1021 	movw	r0, #2337	; 0x921
  2031ca:	f6c2 0020 	movt	r0, #10272	; 0x2820
  2031ce:	7800      	ldrb	r0, [r0, #0]
  2031d0:	2801      	cmp	r0, #1
  2031d2:	f47e a820 	bne.w	201216 <benchmark_picojpeg+0xc3e>
  2031d6:	f240 0107 	movw	r1, #7
  2031da:	2000      	movs	r0, #0
  2031dc:	f6c2 0120 	movt	r1, #10272	; 0x2820
  2031e0:	f240 3216 	movw	r2, #790	; 0x316
  2031e4:	7008      	strb	r0, [r1, #0]
  2031e6:	2101      	movs	r1, #1
  2031e8:	f6c2 0220 	movt	r2, #10272	; 0x2820
  2031ec:	7011      	strb	r1, [r2, #0]
  2031ee:	f240 3118 	movw	r1, #792	; 0x318
  2031f2:	f8dd 9000 	ldr.w	r9, [sp]
  2031f6:	f6c2 0120 	movt	r1, #10272	; 0x2820
  2031fa:	7008      	strb	r0, [r1, #0]
  2031fc:	2107      	movs	r1, #7
  2031fe:	2003      	movs	r0, #3
  203200:	e07f      	b.n	203302 <benchmark_picojpeg+0x2d2a>
  203202:	f640 0212 	movw	r2, #2066	; 0x812
  203206:	f6c2 0220 	movt	r2, #10272	; 0x2820
  20320a:	7810      	ldrb	r0, [r2, #0]
  20320c:	f640 0c10 	movw	ip, #2064	; 0x810
  203210:	43c1      	mvns	r1, r0
  203212:	7011      	strb	r1, [r2, #0]
  203214:	f04f 31ff 	mov.w	r1, #4294967295
  203218:	28ff      	cmp	r0, #255	; 0xff
  20321a:	bf08      	it	eq
  20321c:	f06f 0126 	mvneq.w	r1, #38	; 0x26
  203220:	9f01      	ldr	r7, [sp, #4]
  203222:	2600      	movs	r6, #0
  203224:	2004      	movs	r0, #4
  203226:	f6c2 0c20 	movt	ip, #10272	; 0x2820
  20322a:	f7fd bd0f 	b.w	200c4c <benchmark_picojpeg+0x674>
  20322e:	f640 111e 	movw	r1, #2334	; 0x91e
  203232:	f6c2 0120 	movt	r1, #10272	; 0x2820
  203236:	7848      	ldrb	r0, [r1, #1]
  203238:	2801      	cmp	r0, #1
  20323a:	f47d afec 	bne.w	201216 <benchmark_picojpeg+0xc3e>
  20323e:	f640 1021 	movw	r0, #2337	; 0x921
  203242:	f6c2 0020 	movt	r0, #10272	; 0x2820
  203246:	7840      	ldrb	r0, [r0, #1]
  203248:	2801      	cmp	r0, #1
  20324a:	f47d afe4 	bne.w	201216 <benchmark_picojpeg+0xc3e>
  20324e:	7888      	ldrb	r0, [r1, #2]
  203250:	2801      	cmp	r0, #1
  203252:	f47d afe0 	bne.w	201216 <benchmark_picojpeg+0xc3e>
  203256:	f640 1021 	movw	r0, #2337	; 0x921
  20325a:	f6c2 0020 	movt	r0, #10272	; 0x2820
  20325e:	7880      	ldrb	r0, [r0, #2]
  203260:	2801      	cmp	r0, #1
  203262:	f47d afd8 	bne.w	201216 <benchmark_picojpeg+0xc3e>
  203266:	f640 1021 	movw	r0, #2337	; 0x921
  20326a:	7809      	ldrb	r1, [r1, #0]
  20326c:	f6c2 0020 	movt	r0, #10272	; 0x2820
  203270:	7800      	ldrb	r0, [r0, #0]
  203272:	2901      	cmp	r1, #1
  203274:	bf08      	it	eq
  203276:	2801      	cmpeq	r0, #1
  203278:	d02b      	beq.n	2032d2 <benchmark_picojpeg+0x2cfa>
  20327a:	2901      	cmp	r1, #1
  20327c:	bf08      	it	eq
  20327e:	2802      	cmpeq	r0, #2
  203280:	f000 808f 	beq.w	2033a2 <benchmark_picojpeg+0x2dca>
  203284:	2902      	cmp	r1, #2
  203286:	bf08      	it	eq
  203288:	2801      	cmpeq	r0, #1
  20328a:	f000 80a5 	beq.w	2033d8 <benchmark_picojpeg+0x2e00>
  20328e:	2902      	cmp	r1, #2
  203290:	bf08      	it	eq
  203292:	2802      	cmpeq	r0, #2
  203294:	f47d afbf 	bne.w	201216 <benchmark_picojpeg+0xc3e>
  203298:	f240 0107 	movw	r1, #7
  20329c:	2004      	movs	r0, #4
  20329e:	f6c2 0120 	movt	r1, #10272	; 0x2820
  2032a2:	f240 3216 	movw	r2, #790	; 0x316
  2032a6:	7008      	strb	r0, [r1, #0]
  2032a8:	2106      	movs	r1, #6
  2032aa:	f6c2 0220 	movt	r2, #10272	; 0x2820
  2032ae:	7011      	strb	r1, [r2, #0]
  2032b0:	f240 3218 	movw	r2, #792	; 0x318
  2032b4:	2100      	movs	r1, #0
  2032b6:	f6c2 0220 	movt	r2, #10272	; 0x2820
  2032ba:	f8dd 9000 	ldr.w	r9, [sp]
  2032be:	6011      	str	r1, [r2, #0]
  2032c0:	f240 2101 	movw	r1, #513	; 0x201
  2032c4:	8091      	strh	r1, [r2, #4]
  2032c6:	210f      	movs	r1, #15
  2032c8:	2310      	movs	r3, #16
  2032ca:	2610      	movs	r6, #16
  2032cc:	2204      	movs	r2, #4
  2032ce:	270f      	movs	r7, #15
  2032d0:	e01b      	b.n	20330a <benchmark_picojpeg+0x2d32>
  2032d2:	f240 0107 	movw	r1, #7
  2032d6:	2001      	movs	r0, #1
  2032d8:	f6c2 0120 	movt	r1, #10272	; 0x2820
  2032dc:	7008      	strb	r0, [r1, #0]
  2032de:	f240 3116 	movw	r1, #790	; 0x316
  2032e2:	2003      	movs	r0, #3
  2032e4:	f6c2 0120 	movt	r1, #10272	; 0x2820
  2032e8:	f240 3218 	movw	r2, #792	; 0x318
  2032ec:	7008      	strb	r0, [r1, #0]
  2032ee:	f44f 7180 	mov.w	r1, #256	; 0x100
  2032f2:	f6c2 0220 	movt	r2, #10272	; 0x2820
  2032f6:	f8dd 9000 	ldr.w	r9, [sp]
  2032fa:	8011      	strh	r1, [r2, #0]
  2032fc:	2102      	movs	r1, #2
  2032fe:	7091      	strb	r1, [r2, #2]
  203300:	2107      	movs	r1, #7
  203302:	2308      	movs	r3, #8
  203304:	2608      	movs	r6, #8
  203306:	2203      	movs	r2, #3
  203308:	2707      	movs	r7, #7
  20330a:	f240 050c 	movw	r5, #12
  20330e:	f6c2 0520 	movt	r5, #10272	; 0x2820
  203312:	702b      	strb	r3, [r5, #0]
  203314:	f240 030d 	movw	r3, #13
  203318:	f6c2 0320 	movt	r3, #10272	; 0x2820
  20331c:	701e      	strb	r6, [r3, #0]
  20331e:	9b01      	ldr	r3, [sp, #4]
  203320:	443b      	add	r3, r7
  203322:	fa23 f202 	lsr.w	r2, r3, r2
  203326:	f240 0308 	movw	r3, #8
  20332a:	f6c2 0320 	movt	r3, #10272	; 0x2820
  20332e:	801a      	strh	r2, [r3, #0]
  203330:	9b03      	ldr	r3, [sp, #12]
  203332:	4419      	add	r1, r3
  203334:	fa21 f000 	lsr.w	r0, r1, r0
  203338:	f240 010a 	movw	r1, #10
  20333c:	f6c2 0120 	movt	r1, #10272	; 0x2820
  203340:	fb00 f202 	mul.w	r2, r0, r2
  203344:	8008      	strh	r0, [r1, #0]
  203346:	f240 0000 	movw	r0, #0
  20334a:	f6c2 0020 	movt	r0, #10272	; 0x2820
  20334e:	8002      	strh	r2, [r0, #0]
  203350:	f10d 002b 	add.w	r0, sp, #43	; 0x2b
  203354:	f001 f812 	bl	20437c <processMarkers>
  203358:	f640 0c10 	movw	ip, #2064	; 0x810
  20335c:	f640 1e14 	movw	lr, #2324	; 0x914
  203360:	2800      	cmp	r0, #0
  203362:	f6c2 0c20 	movt	ip, #10272	; 0x2820
  203366:	f6c2 0e20 	movt	lr, #10272	; 0x2820
  20336a:	f47d af54 	bne.w	201216 <benchmark_picojpeg+0xc3e>
  20336e:	f89d 002b 	ldrb.w	r0, [sp, #43]	; 0x2b
  203372:	28d9      	cmp	r0, #217	; 0xd9
  203374:	f43d af4f 	beq.w	201216 <benchmark_picojpeg+0xc3e>
  203378:	28da      	cmp	r0, #218	; 0xda
  20337a:	f47d af4c 	bne.w	201216 <benchmark_picojpeg+0xc3e>
  20337e:	f640 1016 	movw	r0, #2326	; 0x916
  203382:	f640 0311 	movw	r3, #2065	; 0x811
  203386:	f6c2 0020 	movt	r0, #10272	; 0x2820
  20338a:	f6c2 0320 	movt	r3, #10272	; 0x2820
  20338e:	8804      	ldrh	r4, [r0, #0]
  203390:	781e      	ldrb	r6, [r3, #0]
  203392:	f89c 8000 	ldrb.w	r8, [ip]
  203396:	fa04 fa08 	lsl.w	sl, r4, r8
  20339a:	b3ce      	cbz	r6, 203410 <benchmark_picojpeg+0x2e38>
  20339c:	f89e 7000 	ldrb.w	r7, [lr]
  2033a0:	e05d      	b.n	20345e <benchmark_picojpeg+0x2e86>
  2033a2:	f240 0007 	movw	r0, #7
  2033a6:	2203      	movs	r2, #3
  2033a8:	f6c2 0020 	movt	r0, #10272	; 0x2820
  2033ac:	f240 3116 	movw	r1, #790	; 0x316
  2033b0:	7002      	strb	r2, [r0, #0]
  2033b2:	2004      	movs	r0, #4
  2033b4:	f6c2 0120 	movt	r1, #10272	; 0x2820
  2033b8:	7008      	strb	r0, [r1, #0]
  2033ba:	2100      	movs	r1, #0
  2033bc:	f240 3318 	movw	r3, #792	; 0x318
  2033c0:	f8dd 9000 	ldr.w	r9, [sp]
  2033c4:	f2c0 2101 	movt	r1, #513	; 0x201
  2033c8:	f6c2 0320 	movt	r3, #10272	; 0x2820
  2033cc:	6019      	str	r1, [r3, #0]
  2033ce:	2707      	movs	r7, #7
  2033d0:	210f      	movs	r1, #15
  2033d2:	2610      	movs	r6, #16
  2033d4:	2308      	movs	r3, #8
  2033d6:	e798      	b.n	20330a <benchmark_picojpeg+0x2d32>
  2033d8:	f240 0107 	movw	r1, #7
  2033dc:	2002      	movs	r0, #2
  2033de:	f6c2 0120 	movt	r1, #10272	; 0x2820
  2033e2:	7008      	strb	r0, [r1, #0]
  2033e4:	f240 3016 	movw	r0, #790	; 0x316
  2033e8:	2204      	movs	r2, #4
  2033ea:	f6c2 0020 	movt	r0, #10272	; 0x2820
  2033ee:	7002      	strb	r2, [r0, #0]
  2033f0:	2000      	movs	r0, #0
  2033f2:	f240 3118 	movw	r1, #792	; 0x318
  2033f6:	f8dd 9000 	ldr.w	r9, [sp]
  2033fa:	f2c0 2001 	movt	r0, #513	; 0x201
  2033fe:	f6c2 0120 	movt	r1, #10272	; 0x2820
  203402:	6008      	str	r0, [r1, #0]
  203404:	270f      	movs	r7, #15
  203406:	2107      	movs	r1, #7
  203408:	2003      	movs	r0, #3
  20340a:	2608      	movs	r6, #8
  20340c:	2310      	movs	r3, #16
  20340e:	e77c      	b.n	20330a <benchmark_picojpeg+0x2d32>
  203410:	f640 1b28 	movw	fp, #2344	; 0x928
  203414:	f6c2 0b20 	movt	fp, #10272	; 0x2820
  203418:	f8db 5000 	ldr.w	r5, [fp]
  20341c:	f240 203a 	movw	r0, #570	; 0x23a
  203420:	1b46      	subs	r6, r0, r5
  203422:	f247 106c 	movw	r0, #29036	; 0x716c
  203426:	2704      	movs	r7, #4
  203428:	f2c0 0020 	movt	r0, #32
  20342c:	f88e 7000 	strb.w	r7, [lr]
  203430:	2efc      	cmp	r6, #252	; 0xfc
  203432:	bf28      	it	cs
  203434:	26fc      	movcs	r6, #252	; 0xfc
  203436:	1941      	adds	r1, r0, r5
  203438:	9807      	ldr	r0, [sp, #28]
  20343a:	4632      	mov	r2, r6
  20343c:	f7fd f832 	bl	2004a4 <__rt_memcpy>
  203440:	f640 0311 	movw	r3, #2065	; 0x811
  203444:	f6c2 0320 	movt	r3, #10272	; 0x2820
  203448:	19a8      	adds	r0, r5, r6
  20344a:	0631      	lsls	r1, r6, #24
  20344c:	701e      	strb	r6, [r3, #0]
  20344e:	f8cb 0000 	str.w	r0, [fp]
  203452:	f000 822f 	beq.w	2038b4 <benchmark_picojpeg+0x32dc>
  203456:	f640 1e14 	movw	lr, #2324	; 0x914
  20345a:	f6c2 0e20 	movt	lr, #10272	; 0x2820
  20345e:	f640 0014 	movw	r0, #2068	; 0x814
  203462:	f6c2 0020 	movt	r0, #10272	; 0x2820
  203466:	3e01      	subs	r6, #1
  203468:	1c7a      	adds	r2, r7, #1
  20346a:	5dc0      	ldrb	r0, [r0, r7]
  20346c:	701e      	strb	r6, [r3, #0]
  20346e:	f88e 2000 	strb.w	r2, [lr]
  203472:	fa1f f18a 	uxth.w	r1, sl
  203476:	b2c0      	uxtb	r0, r0
  203478:	f1c8 0508 	rsb	r5, r8, #8
  20347c:	4308      	orrs	r0, r1
  20347e:	40a8      	lsls	r0, r5
  203480:	ea4f 2b10 	mov.w	fp, r0, lsr #8
  203484:	0a21      	lsrs	r1, r4, #8
  203486:	f1b8 0f07 	cmp.w	r8, #7
  20348a:	f361 2b1f 	bfi	fp, r1, #8, #24
  20348e:	d84b      	bhi.n	203528 <benchmark_picojpeg+0x2f50>
  203490:	fa00 fa08 	lsl.w	sl, r0, r8
  203494:	0630      	lsls	r0, r6, #24
  203496:	f640 1016 	movw	r0, #2326	; 0x916
  20349a:	f6c2 0020 	movt	r0, #10272	; 0x2820
  20349e:	f8a0 a000 	strh.w	sl, [r0]
  2034a2:	d12b      	bne.n	2034fc <benchmark_picojpeg+0x2f24>
  2034a4:	2004      	movs	r0, #4
  2034a6:	f88e 0000 	strb.w	r0, [lr]
  2034aa:	f640 1028 	movw	r0, #2344	; 0x928
  2034ae:	f6c2 0020 	movt	r0, #10272	; 0x2820
  2034b2:	6804      	ldr	r4, [r0, #0]
  2034b4:	f240 203a 	movw	r0, #570	; 0x23a
  2034b8:	1b06      	subs	r6, r0, r4
  2034ba:	f247 106c 	movw	r0, #29036	; 0x716c
  2034be:	f2c0 0020 	movt	r0, #32
  2034c2:	2efc      	cmp	r6, #252	; 0xfc
  2034c4:	bf28      	it	cs
  2034c6:	26fc      	movcs	r6, #252	; 0xfc
  2034c8:	1901      	adds	r1, r0, r4
  2034ca:	9807      	ldr	r0, [sp, #28]
  2034cc:	4632      	mov	r2, r6
  2034ce:	461f      	mov	r7, r3
  2034d0:	f7fc ffe8 	bl	2004a4 <__rt_memcpy>
  2034d4:	0631      	lsls	r1, r6, #24
  2034d6:	f640 1128 	movw	r1, #2344	; 0x928
  2034da:	eb04 0006 	add.w	r0, r4, r6
  2034de:	f6c2 0120 	movt	r1, #10272	; 0x2820
  2034e2:	703e      	strb	r6, [r7, #0]
  2034e4:	6008      	str	r0, [r1, #0]
  2034e6:	f000 8211 	beq.w	20390c <benchmark_picojpeg+0x3334>
  2034ea:	f640 1e14 	movw	lr, #2324	; 0x914
  2034ee:	f640 0311 	movw	r3, #2065	; 0x811
  2034f2:	f6c2 0e20 	movt	lr, #10272	; 0x2820
  2034f6:	f6c2 0320 	movt	r3, #10272	; 0x2820
  2034fa:	2204      	movs	r2, #4
  2034fc:	1c50      	adds	r0, r2, #1
  2034fe:	b2d1      	uxtb	r1, r2
  203500:	f640 0214 	movw	r2, #2068	; 0x814
  203504:	f6c2 0220 	movt	r2, #10272	; 0x2820
  203508:	3e01      	subs	r6, #1
  20350a:	5c51      	ldrb	r1, [r2, r1]
  20350c:	701e      	strb	r6, [r3, #0]
  20350e:	f88e 0000 	strb.w	r0, [lr]
  203512:	b2c9      	uxtb	r1, r1
  203514:	ea41 010a 	orr.w	r1, r1, sl
  203518:	f640 0c10 	movw	ip, #2064	; 0x810
  20351c:	fa01 f505 	lsl.w	r5, r1, r5
  203520:	4602      	mov	r2, r0
  203522:	f6c2 0c20 	movt	ip, #10272	; 0x2820
  203526:	e00d      	b.n	203544 <benchmark_picojpeg+0x2f6c>
  203528:	f1a8 0808 	sub.w	r8, r8, #8
  20352c:	fa5f f188 	uxtb.w	r1, r8
  203530:	f640 0c10 	movw	ip, #2064	; 0x810
  203534:	f6c2 0c20 	movt	ip, #10272	; 0x2820
  203538:	2907      	cmp	r1, #7
  20353a:	ea4f 2500 	mov.w	r5, r0, lsl #8
  20353e:	f88c 8000 	strb.w	r8, [ip]
  203542:	d84d      	bhi.n	2035e0 <benchmark_picojpeg+0x3008>
  203544:	b2a8      	uxth	r0, r5
  203546:	fa5f f488 	uxtb.w	r4, r8
  20354a:	0631      	lsls	r1, r6, #24
  20354c:	fa00 fa04 	lsl.w	sl, r0, r4
  203550:	d12e      	bne.n	2035b0 <benchmark_picojpeg+0x2fd8>
  203552:	2004      	movs	r0, #4
  203554:	f88e 0000 	strb.w	r0, [lr]
  203558:	f640 1028 	movw	r0, #2344	; 0x928
  20355c:	f6c2 0020 	movt	r0, #10272	; 0x2820
  203560:	6807      	ldr	r7, [r0, #0]
  203562:	f240 203a 	movw	r0, #570	; 0x23a
  203566:	1bc6      	subs	r6, r0, r7
  203568:	f247 106c 	movw	r0, #29036	; 0x716c
  20356c:	f2c0 0020 	movt	r0, #32
  203570:	2efc      	cmp	r6, #252	; 0xfc
  203572:	bf28      	it	cs
  203574:	26fc      	movcs	r6, #252	; 0xfc
  203576:	19c1      	adds	r1, r0, r7
  203578:	9807      	ldr	r0, [sp, #28]
  20357a:	4632      	mov	r2, r6
  20357c:	f7fc ff92 	bl	2004a4 <__rt_memcpy>
  203580:	f640 0011 	movw	r0, #2065	; 0x811
  203584:	0631      	lsls	r1, r6, #24
  203586:	f6c2 0020 	movt	r0, #10272	; 0x2820
  20358a:	f640 1128 	movw	r1, #2344	; 0x928
  20358e:	7006      	strb	r6, [r0, #0]
  203590:	eb07 0006 	add.w	r0, r7, r6
  203594:	f6c2 0120 	movt	r1, #10272	; 0x2820
  203598:	6008      	str	r0, [r1, #0]
  20359a:	f000 819f 	beq.w	2038dc <benchmark_picojpeg+0x3304>
  20359e:	f640 0c10 	movw	ip, #2064	; 0x810
  2035a2:	f640 1e14 	movw	lr, #2324	; 0x914
  2035a6:	f6c2 0c20 	movt	ip, #10272	; 0x2820
  2035aa:	f6c2 0e20 	movt	lr, #10272	; 0x2820
  2035ae:	2204      	movs	r2, #4
  2035b0:	f640 0011 	movw	r0, #2065	; 0x811
  2035b4:	3e01      	subs	r6, #1
  2035b6:	f6c2 0020 	movt	r0, #10272	; 0x2820
  2035ba:	7006      	strb	r6, [r0, #0]
  2035bc:	1c50      	adds	r0, r2, #1
  2035be:	b2d1      	uxtb	r1, r2
  2035c0:	f640 0214 	movw	r2, #2068	; 0x814
  2035c4:	f6c2 0220 	movt	r2, #10272	; 0x2820
  2035c8:	5c51      	ldrb	r1, [r2, r1]
  2035ca:	f88e 0000 	strb.w	r0, [lr]
  2035ce:	b2c9      	uxtb	r1, r1
  2035d0:	f1c4 0208 	rsb	r2, r4, #8
  2035d4:	ea41 010a 	orr.w	r1, r1, sl
  2035d8:	fa01 f402 	lsl.w	r4, r1, r2
  2035dc:	9009      	str	r0, [sp, #36]	; 0x24
  2035de:	e005      	b.n	2035ec <benchmark_picojpeg+0x3014>
  2035e0:	f1a8 0808 	sub.w	r8, r8, #8
  2035e4:	022c      	lsls	r4, r5, #8
  2035e6:	9209      	str	r2, [sp, #36]	; 0x24
  2035e8:	f88c 8000 	strb.w	r8, [ip]
  2035ec:	f3c5 2207 	ubfx	r2, r5, #8, #8
  2035f0:	f1ab 0303 	sub.w	r3, fp, #3
  2035f4:	2103      	movs	r1, #3
  2035f6:	b298      	uxth	r0, r3
  2035f8:	eb01 0142 	add.w	r1, r1, r2, lsl #1
  2035fc:	4281      	cmp	r1, r0
  2035fe:	f640 1016 	movw	r0, #2326	; 0x916
  203602:	f6c2 0020 	movt	r0, #10272	; 0x2820
  203606:	f640 1118 	movw	r1, #2328	; 0x918
  20360a:	8004      	strh	r4, [r0, #0]
  20360c:	ea4f 2015 	mov.w	r0, r5, lsr #8
  203610:	f6c2 0120 	movt	r1, #10272	; 0x2820
  203614:	7008      	strb	r0, [r1, #0]
  203616:	f47d adfe 	bne.w	201216 <benchmark_picojpeg+0xc3e>
  20361a:	b2a8      	uxth	r0, r5
  20361c:	f5b0 7f80 	cmp.w	r0, #256	; 0x100
  203620:	f4fd adf9 	bcc.w	201216 <benchmark_picojpeg+0xc3e>
  203624:	2100      	movs	r1, #0
  203626:	ebb1 2f90 	cmp.w	r1, r0, lsr #10
  20362a:	f47d adf4 	bne.w	201216 <benchmark_picojpeg+0xc3e>
  20362e:	2a00      	cmp	r2, #0
  203630:	9408      	str	r4, [sp, #32]
  203632:	9306      	str	r3, [sp, #24]
  203634:	9205      	str	r2, [sp, #20]
  203636:	f000 8183 	beq.w	203940 <benchmark_picojpeg+0x3368>
  20363a:	f640 1028 	movw	r0, #2344	; 0x928
  20363e:	f6c2 0020 	movt	r0, #10272	; 0x2820
  203642:	f8d0 c000 	ldr.w	ip, [r0]
  203646:	f64f 70ff 	movw	r0, #65535	; 0xffff
  20364a:	3801      	subs	r0, #1
  20364c:	f640 0112 	movw	r1, #2066	; 0x812
  203650:	fb02 b000 	mla	r0, r2, r0, fp
  203654:	f6c2 0120 	movt	r1, #10272	; 0x2820
  203658:	f891 b000 	ldrb.w	fp, [r1]
  20365c:	3803      	subs	r0, #3
  20365e:	f1c9 0700 	rsb	r7, r9, #0
  203662:	f04f 0900 	mov.w	r9, #0
  203666:	9006      	str	r0, [sp, #24]
  203668:	fa5f f588 	uxtb.w	r5, r8
  20366c:	2d07      	cmp	r5, #7
  20366e:	d84c      	bhi.n	20370a <benchmark_picojpeg+0x3132>
  203670:	0630      	lsls	r0, r6, #24
  203672:	d129      	bne.n	2036c8 <benchmark_picojpeg+0x30f0>
  203674:	f640 1014 	movw	r0, #2324	; 0x914
  203678:	2204      	movs	r2, #4
  20367a:	f6c2 0020 	movt	r0, #10272	; 0x2820
  20367e:	7002      	strb	r2, [r0, #0]
  203680:	f240 203a 	movw	r0, #570	; 0x23a
  203684:	2104      	movs	r1, #4
  203686:	eba0 060c 	sub.w	r6, r0, ip
  20368a:	20fc      	movs	r0, #252	; 0xfc
  20368c:	9109      	str	r1, [sp, #36]	; 0x24
  20368e:	2efc      	cmp	r6, #252	; 0xfc
  203690:	bf28      	it	cs
  203692:	4606      	movcs	r6, r0
  203694:	f247 106c 	movw	r0, #29036	; 0x716c
  203698:	f2c0 0020 	movt	r0, #32
  20369c:	eb00 010c 	add.w	r1, r0, ip
  2036a0:	9807      	ldr	r0, [sp, #28]
  2036a2:	4632      	mov	r2, r6
  2036a4:	4664      	mov	r4, ip
  2036a6:	f7fc fefd 	bl	2004a4 <__rt_memcpy>
  2036aa:	f640 0011 	movw	r0, #2065	; 0x811
  2036ae:	f6c2 0020 	movt	r0, #10272	; 0x2820
  2036b2:	7006      	strb	r6, [r0, #0]
  2036b4:	0630      	lsls	r0, r6, #24
  2036b6:	4434      	add	r4, r6
  2036b8:	f640 1028 	movw	r0, #2344	; 0x928
  2036bc:	f6c2 0020 	movt	r0, #10272	; 0x2820
  2036c0:	46a4      	mov	ip, r4
  2036c2:	6004      	str	r4, [r0, #0]
  2036c4:	f000 80d7 	beq.w	203876 <benchmark_picojpeg+0x329e>
  2036c8:	f640 0011 	movw	r0, #2065	; 0x811
  2036cc:	9909      	ldr	r1, [sp, #36]	; 0x24
  2036ce:	3e01      	subs	r6, #1
  2036d0:	f6c2 0020 	movt	r0, #10272	; 0x2820
  2036d4:	f640 0214 	movw	r2, #2068	; 0x814
  2036d8:	7006      	strb	r6, [r0, #0]
  2036da:	1c48      	adds	r0, r1, #1
  2036dc:	b2c9      	uxtb	r1, r1
  2036de:	f6c2 0220 	movt	r2, #10272	; 0x2820
  2036e2:	5c51      	ldrb	r1, [r2, r1]
  2036e4:	f640 1214 	movw	r2, #2324	; 0x914
  2036e8:	f6c2 0220 	movt	r2, #10272	; 0x2820
  2036ec:	7010      	strb	r0, [r2, #0]
  2036ee:	9a08      	ldr	r2, [sp, #32]
  2036f0:	b2c9      	uxtb	r1, r1
  2036f2:	b292      	uxth	r2, r2
  2036f4:	9009      	str	r0, [sp, #36]	; 0x24
  2036f6:	fa02 f305 	lsl.w	r3, r2, r5
  2036fa:	f1c5 0508 	rsb	r5, r5, #8
  2036fe:	4319      	orrs	r1, r3
  203700:	fa01 f405 	lsl.w	r4, r1, r5
  203704:	ea4f 2a12 	mov.w	sl, r2, lsr #8
  203708:	e010      	b.n	20372c <benchmark_picojpeg+0x3154>
  20370a:	f640 0110 	movw	r1, #2064	; 0x810
  20370e:	f1a8 0808 	sub.w	r8, r8, #8
  203712:	f6c2 0120 	movt	r1, #10272	; 0x2820
  203716:	f881 8000 	strb.w	r8, [r1]
  20371a:	9908      	ldr	r1, [sp, #32]
  20371c:	fa5f f088 	uxtb.w	r0, r8
  203720:	020c      	lsls	r4, r1, #8
  203722:	b289      	uxth	r1, r1
  203724:	2807      	cmp	r0, #7
  203726:	ea4f 2a11 	mov.w	sl, r1, lsr #8
  20372a:	d849      	bhi.n	2037c0 <benchmark_picojpeg+0x31e8>
  20372c:	0630      	lsls	r0, r6, #24
  20372e:	d128      	bne.n	203782 <benchmark_picojpeg+0x31aa>
  203730:	f640 1014 	movw	r0, #2324	; 0x914
  203734:	2204      	movs	r2, #4
  203736:	f6c2 0020 	movt	r0, #10272	; 0x2820
  20373a:	7002      	strb	r2, [r0, #0]
  20373c:	f240 203a 	movw	r0, #570	; 0x23a
  203740:	2104      	movs	r1, #4
  203742:	eba0 060c 	sub.w	r6, r0, ip
  203746:	20fc      	movs	r0, #252	; 0xfc
  203748:	9109      	str	r1, [sp, #36]	; 0x24
  20374a:	2efc      	cmp	r6, #252	; 0xfc
  20374c:	bf28      	it	cs
  20374e:	4606      	movcs	r6, r0
  203750:	f247 106c 	movw	r0, #29036	; 0x716c
  203754:	f2c0 0020 	movt	r0, #32
  203758:	eb00 010c 	add.w	r1, r0, ip
  20375c:	9807      	ldr	r0, [sp, #28]
  20375e:	4632      	mov	r2, r6
  203760:	4665      	mov	r5, ip
  203762:	f7fc fe9f 	bl	2004a4 <__rt_memcpy>
  203766:	f640 0011 	movw	r0, #2065	; 0x811
  20376a:	f6c2 0020 	movt	r0, #10272	; 0x2820
  20376e:	7006      	strb	r6, [r0, #0]
  203770:	0630      	lsls	r0, r6, #24
  203772:	4435      	add	r5, r6
  203774:	f640 1028 	movw	r0, #2344	; 0x928
  203778:	f6c2 0020 	movt	r0, #10272	; 0x2820
  20377c:	46ac      	mov	ip, r5
  20377e:	6005      	str	r5, [r0, #0]
  203780:	d066      	beq.n	203850 <benchmark_picojpeg+0x3278>
  203782:	f640 0011 	movw	r0, #2065	; 0x811
  203786:	9909      	ldr	r1, [sp, #36]	; 0x24
  203788:	3e01      	subs	r6, #1
  20378a:	f6c2 0020 	movt	r0, #10272	; 0x2820
  20378e:	f640 0214 	movw	r2, #2068	; 0x814
  203792:	7006      	strb	r6, [r0, #0]
  203794:	1c48      	adds	r0, r1, #1
  203796:	b2c9      	uxtb	r1, r1
  203798:	f6c2 0220 	movt	r2, #10272	; 0x2820
  20379c:	5c51      	ldrb	r1, [r2, r1]
  20379e:	f640 1214 	movw	r2, #2324	; 0x914
  2037a2:	f6c2 0220 	movt	r2, #10272	; 0x2820
  2037a6:	7010      	strb	r0, [r2, #0]
  2037a8:	b2a2      	uxth	r2, r4
  2037aa:	fa5f f388 	uxtb.w	r3, r8
  2037ae:	409a      	lsls	r2, r3
  2037b0:	b2c9      	uxtb	r1, r1
  2037b2:	f1c3 0308 	rsb	r3, r3, #8
  2037b6:	4311      	orrs	r1, r2
  2037b8:	4099      	lsls	r1, r3
  2037ba:	e9cd 1008 	strd	r1, r0, [sp, #32]
  2037be:	e009      	b.n	2037d4 <benchmark_picojpeg+0x31fc>
  2037c0:	f640 0010 	movw	r0, #2064	; 0x810
  2037c4:	f1a8 0808 	sub.w	r8, r8, #8
  2037c8:	f6c2 0020 	movt	r0, #10272	; 0x2820
  2037cc:	f880 8000 	strb.w	r8, [r0]
  2037d0:	0220      	lsls	r0, r4, #8
  2037d2:	9008      	str	r0, [sp, #32]
  2037d4:	b2a0      	uxth	r0, r4
  2037d6:	f640 141b 	movw	r4, #2331	; 0x91b
  2037da:	0a01      	lsrs	r1, r0, #8
  2037dc:	2000      	movs	r0, #0
  2037de:	f6c2 0420 	movt	r4, #10272	; 0x2820
  2037e2:	5c22      	ldrb	r2, [r4, r0]
  2037e4:	4552      	cmp	r2, sl
  2037e6:	d019      	beq.n	20381c <benchmark_picojpeg+0x3244>
  2037e8:	183a      	adds	r2, r7, r0
  2037ea:	1c53      	adds	r3, r2, #1
  2037ec:	d056      	beq.n	20389c <benchmark_picojpeg+0x32c4>
  2037ee:	1823      	adds	r3, r4, r0
  2037f0:	785d      	ldrb	r5, [r3, #1]
  2037f2:	4555      	cmp	r5, sl
  2037f4:	d00d      	beq.n	203812 <benchmark_picojpeg+0x323a>
  2037f6:	1c95      	adds	r5, r2, #2
  2037f8:	d050      	beq.n	20389c <benchmark_picojpeg+0x32c4>
  2037fa:	789d      	ldrb	r5, [r3, #2]
  2037fc:	4555      	cmp	r5, sl
  2037fe:	d00a      	beq.n	203816 <benchmark_picojpeg+0x323e>
  203800:	3203      	adds	r2, #3
  203802:	d04b      	beq.n	20389c <benchmark_picojpeg+0x32c4>
  203804:	78da      	ldrb	r2, [r3, #3]
  203806:	4552      	cmp	r2, sl
  203808:	d007      	beq.n	20381a <benchmark_picojpeg+0x3242>
  20380a:	3004      	adds	r0, #4
  20380c:	183a      	adds	r2, r7, r0
  20380e:	d1e8      	bne.n	2037e2 <benchmark_picojpeg+0x320a>
  203810:	e044      	b.n	20389c <benchmark_picojpeg+0x32c4>
  203812:	3001      	adds	r0, #1
  203814:	e002      	b.n	20381c <benchmark_picojpeg+0x3244>
  203816:	3002      	adds	r0, #2
  203818:	e000      	b.n	20381c <benchmark_picojpeg+0x3244>
  20381a:	3003      	adds	r0, #3
  20381c:	f640 1224 	movw	r2, #2340	; 0x924
  203820:	f6c2 0220 	movt	r2, #10272	; 0x2820
  203824:	f240 3321 	movw	r3, #801	; 0x321
  203828:	f802 0009 	strb.w	r0, [r2, r9]
  20382c:	090a      	lsrs	r2, r1, #4
  20382e:	f6c2 0320 	movt	r3, #10272	; 0x2820
  203832:	541a      	strb	r2, [r3, r0]
  203834:	9a05      	ldr	r2, [sp, #20]
  203836:	f109 0901 	add.w	r9, r9, #1
  20383a:	4591      	cmp	r9, r2
  20383c:	f240 526a 	movw	r2, #1386	; 0x56a
  203840:	f001 010f 	and.w	r1, r1, #15
  203844:	f6c2 0220 	movt	r2, #10272	; 0x2820
  203848:	5411      	strb	r1, [r2, r0]
  20384a:	f47f af0d 	bne.w	203668 <benchmark_picojpeg+0x3090>
  20384e:	e071      	b.n	203934 <benchmark_picojpeg+0x335c>
  203850:	f640 0012 	movw	r0, #2066	; 0x812
  203854:	f1bb 0fff 	cmp.w	fp, #255	; 0xff
  203858:	f08b 0bff 	eor.w	fp, fp, #255	; 0xff
  20385c:	f6c2 0020 	movt	r0, #10272	; 0x2820
  203860:	f880 b000 	strb.w	fp, [r0]
  203864:	f04f 31ff 	mov.w	r1, #4294967295
  203868:	f04f 0600 	mov.w	r6, #0
  20386c:	bf08      	it	eq
  20386e:	f06f 0126 	mvneq.w	r1, #38	; 0x26
  203872:	2004      	movs	r0, #4
  203874:	e798      	b.n	2037a8 <benchmark_picojpeg+0x31d0>
  203876:	f640 0012 	movw	r0, #2066	; 0x812
  20387a:	f1bb 0fff 	cmp.w	fp, #255	; 0xff
  20387e:	f08b 0bff 	eor.w	fp, fp, #255	; 0xff
  203882:	f6c2 0020 	movt	r0, #10272	; 0x2820
  203886:	f880 b000 	strb.w	fp, [r0]
  20388a:	f04f 31ff 	mov.w	r1, #4294967295
  20388e:	f04f 0600 	mov.w	r6, #0
  203892:	bf08      	it	eq
  203894:	f06f 0126 	mvneq.w	r1, #38	; 0x26
  203898:	2004      	movs	r0, #4
  20389a:	e728      	b.n	2036ee <benchmark_picojpeg+0x3116>
  20389c:	f640 1016 	movw	r0, #2326	; 0x916
  2038a0:	9908      	ldr	r1, [sp, #32]
  2038a2:	f640 0c10 	movw	ip, #2064	; 0x810
  2038a6:	f6c2 0020 	movt	r0, #10272	; 0x2820
  2038aa:	f6c2 0c20 	movt	ip, #10272	; 0x2820
  2038ae:	8001      	strh	r1, [r0, #0]
  2038b0:	f7fd bcad 	b.w	20120e <benchmark_picojpeg+0xc36>
  2038b4:	f640 0212 	movw	r2, #2066	; 0x812
  2038b8:	f6c2 0220 	movt	r2, #10272	; 0x2820
  2038bc:	7811      	ldrb	r1, [r2, #0]
  2038be:	f640 1e14 	movw	lr, #2324	; 0x914
  2038c2:	43c8      	mvns	r0, r1
  2038c4:	7010      	strb	r0, [r2, #0]
  2038c6:	f04f 30ff 	mov.w	r0, #4294967295
  2038ca:	2600      	movs	r6, #0
  2038cc:	2204      	movs	r2, #4
  2038ce:	f6c2 0e20 	movt	lr, #10272	; 0x2820
  2038d2:	29ff      	cmp	r1, #255	; 0xff
  2038d4:	bf08      	it	eq
  2038d6:	f06f 0026 	mvneq.w	r0, #38	; 0x26
  2038da:	e5ca      	b.n	203472 <benchmark_picojpeg+0x2e9a>
  2038dc:	f640 0212 	movw	r2, #2066	; 0x812
  2038e0:	f6c2 0220 	movt	r2, #10272	; 0x2820
  2038e4:	7810      	ldrb	r0, [r2, #0]
  2038e6:	f640 0c10 	movw	ip, #2064	; 0x810
  2038ea:	43c1      	mvns	r1, r0
  2038ec:	f640 1e14 	movw	lr, #2324	; 0x914
  2038f0:	7011      	strb	r1, [r2, #0]
  2038f2:	f04f 31ff 	mov.w	r1, #4294967295
  2038f6:	28ff      	cmp	r0, #255	; 0xff
  2038f8:	bf08      	it	eq
  2038fa:	f06f 0126 	mvneq.w	r1, #38	; 0x26
  2038fe:	2600      	movs	r6, #0
  203900:	2004      	movs	r0, #4
  203902:	f6c2 0c20 	movt	ip, #10272	; 0x2820
  203906:	f6c2 0e20 	movt	lr, #10272	; 0x2820
  20390a:	e660      	b.n	2035ce <benchmark_picojpeg+0x2ff6>
  20390c:	f640 0212 	movw	r2, #2066	; 0x812
  203910:	f6c2 0220 	movt	r2, #10272	; 0x2820
  203914:	7810      	ldrb	r0, [r2, #0]
  203916:	f640 1e14 	movw	lr, #2324	; 0x914
  20391a:	43c1      	mvns	r1, r0
  20391c:	7011      	strb	r1, [r2, #0]
  20391e:	f04f 31ff 	mov.w	r1, #4294967295
  203922:	28ff      	cmp	r0, #255	; 0xff
  203924:	bf08      	it	eq
  203926:	f06f 0126 	mvneq.w	r1, #38	; 0x26
  20392a:	2600      	movs	r6, #0
  20392c:	2004      	movs	r0, #4
  20392e:	f6c2 0e20 	movt	lr, #10272	; 0x2820
  203932:	e5ee      	b.n	203512 <benchmark_picojpeg+0x2f3a>
  203934:	f640 1016 	movw	r0, #2326	; 0x916
  203938:	9908      	ldr	r1, [sp, #32]
  20393a:	f6c2 0020 	movt	r0, #10272	; 0x2820
  20393e:	8001      	strh	r1, [r0, #0]
  203940:	fa5f f488 	uxtb.w	r4, r8
  203944:	f240 3a0e 	movw	sl, #782	; 0x30e
  203948:	2c07      	cmp	r4, #7
  20394a:	f6c2 0a20 	movt	sl, #10272	; 0x2820
  20394e:	d84c      	bhi.n	2039ea <benchmark_picojpeg+0x3412>
  203950:	9808      	ldr	r0, [sp, #32]
  203952:	0631      	lsls	r1, r6, #24
  203954:	b280      	uxth	r0, r0
  203956:	fa00 f504 	lsl.w	r5, r0, r4
  20395a:	d127      	bne.n	2039ac <benchmark_picojpeg+0x33d4>
  20395c:	f640 1b28 	movw	fp, #2344	; 0x928
  203960:	f640 1014 	movw	r0, #2324	; 0x914
  203964:	f6c2 0b20 	movt	fp, #10272	; 0x2820
  203968:	2204      	movs	r2, #4
  20396a:	f6c2 0020 	movt	r0, #10272	; 0x2820
  20396e:	f8db 7000 	ldr.w	r7, [fp]
  203972:	7002      	strb	r2, [r0, #0]
  203974:	f240 203a 	movw	r0, #570	; 0x23a
  203978:	1bc6      	subs	r6, r0, r7
  20397a:	f247 106c 	movw	r0, #29036	; 0x716c
  20397e:	2104      	movs	r1, #4
  203980:	f2c0 0020 	movt	r0, #32
  203984:	9109      	str	r1, [sp, #36]	; 0x24
  203986:	2efc      	cmp	r6, #252	; 0xfc
  203988:	bf28      	it	cs
  20398a:	26fc      	movcs	r6, #252	; 0xfc
  20398c:	19c1      	adds	r1, r0, r7
  20398e:	9807      	ldr	r0, [sp, #28]
  203990:	4632      	mov	r2, r6
  203992:	f7fc fd87 	bl	2004a4 <__rt_memcpy>
  203996:	f640 0011 	movw	r0, #2065	; 0x811
  20399a:	f6c2 0020 	movt	r0, #10272	; 0x2820
  20399e:	7006      	strb	r6, [r0, #0]
  2039a0:	19b8      	adds	r0, r7, r6
  2039a2:	0631      	lsls	r1, r6, #24
  2039a4:	f8cb 0000 	str.w	r0, [fp]
  2039a8:	f000 836d 	beq.w	204086 <benchmark_picojpeg+0x3aae>
  2039ac:	f640 0011 	movw	r0, #2065	; 0x811
  2039b0:	9909      	ldr	r1, [sp, #36]	; 0x24
  2039b2:	3e01      	subs	r6, #1
  2039b4:	f6c2 0020 	movt	r0, #10272	; 0x2820
  2039b8:	f640 0214 	movw	r2, #2068	; 0x814
  2039bc:	7006      	strb	r6, [r0, #0]
  2039be:	1c48      	adds	r0, r1, #1
  2039c0:	b2c9      	uxtb	r1, r1
  2039c2:	f6c2 0220 	movt	r2, #10272	; 0x2820
  2039c6:	5c51      	ldrb	r1, [r2, r1]
  2039c8:	f640 1214 	movw	r2, #2324	; 0x914
  2039cc:	f6c2 0220 	movt	r2, #10272	; 0x2820
  2039d0:	7010      	strb	r0, [r2, #0]
  2039d2:	b2c9      	uxtb	r1, r1
  2039d4:	f1c4 0208 	rsb	r2, r4, #8
  2039d8:	4329      	orrs	r1, r5
  2039da:	fa01 fb02 	lsl.w	fp, r1, r2
  2039de:	9908      	ldr	r1, [sp, #32]
  2039e0:	0a09      	lsrs	r1, r1, #8
  2039e2:	f88a 1000 	strb.w	r1, [sl]
  2039e6:	9009      	str	r0, [sp, #36]	; 0x24
  2039e8:	e00b      	b.n	203a02 <benchmark_picojpeg+0x342a>
  2039ea:	f1a8 0808 	sub.w	r8, r8, #8
  2039ee:	9908      	ldr	r1, [sp, #32]
  2039f0:	fa5f f088 	uxtb.w	r0, r8
  2039f4:	ea4f 2b01 	mov.w	fp, r1, lsl #8
  2039f8:	0a09      	lsrs	r1, r1, #8
  2039fa:	2807      	cmp	r0, #7
  2039fc:	f88a 1000 	strb.w	r1, [sl]
  203a00:	d84e      	bhi.n	203aa0 <benchmark_picojpeg+0x34c8>
  203a02:	fa1f f08b 	uxth.w	r0, fp
  203a06:	fa5f f788 	uxtb.w	r7, r8
  203a0a:	fa00 f407 	lsl.w	r4, r0, r7
  203a0e:	0630      	lsls	r0, r6, #24
  203a10:	f640 1016 	movw	r0, #2326	; 0x916
  203a14:	f6c2 0020 	movt	r0, #10272	; 0x2820
  203a18:	8004      	strh	r4, [r0, #0]
  203a1a:	d127      	bne.n	203a6c <benchmark_picojpeg+0x3494>
  203a1c:	f640 1a28 	movw	sl, #2344	; 0x928
  203a20:	f640 1014 	movw	r0, #2324	; 0x914
  203a24:	f6c2 0a20 	movt	sl, #10272	; 0x2820
  203a28:	2204      	movs	r2, #4
  203a2a:	f6c2 0020 	movt	r0, #10272	; 0x2820
  203a2e:	f8da 5000 	ldr.w	r5, [sl]
  203a32:	7002      	strb	r2, [r0, #0]
  203a34:	f240 203a 	movw	r0, #570	; 0x23a
  203a38:	1b46      	subs	r6, r0, r5
  203a3a:	f247 106c 	movw	r0, #29036	; 0x716c
  203a3e:	2104      	movs	r1, #4
  203a40:	f2c0 0020 	movt	r0, #32
  203a44:	9109      	str	r1, [sp, #36]	; 0x24
  203a46:	2efc      	cmp	r6, #252	; 0xfc
  203a48:	bf28      	it	cs
  203a4a:	26fc      	movcs	r6, #252	; 0xfc
  203a4c:	1941      	adds	r1, r0, r5
  203a4e:	9807      	ldr	r0, [sp, #28]
  203a50:	4632      	mov	r2, r6
  203a52:	f7fc fd27 	bl	2004a4 <__rt_memcpy>
  203a56:	f640 0011 	movw	r0, #2065	; 0x811
  203a5a:	f6c2 0020 	movt	r0, #10272	; 0x2820
  203a5e:	7006      	strb	r6, [r0, #0]
  203a60:	19a8      	adds	r0, r5, r6
  203a62:	0631      	lsls	r1, r6, #24
  203a64:	f8ca 0000 	str.w	r0, [sl]
  203a68:	f000 82fd 	beq.w	204066 <benchmark_picojpeg+0x3a8e>
  203a6c:	f640 0011 	movw	r0, #2065	; 0x811
  203a70:	3e01      	subs	r6, #1
  203a72:	f6c2 0020 	movt	r0, #10272	; 0x2820
  203a76:	7006      	strb	r6, [r0, #0]
  203a78:	9809      	ldr	r0, [sp, #36]	; 0x24
  203a7a:	f640 0214 	movw	r2, #2068	; 0x814
  203a7e:	1c41      	adds	r1, r0, #1
  203a80:	b2c0      	uxtb	r0, r0
  203a82:	f6c2 0220 	movt	r2, #10272	; 0x2820
  203a86:	5c10      	ldrb	r0, [r2, r0]
  203a88:	f640 1214 	movw	r2, #2324	; 0x914
  203a8c:	f6c2 0220 	movt	r2, #10272	; 0x2820
  203a90:	7011      	strb	r1, [r2, #0]
  203a92:	b2c0      	uxtb	r0, r0
  203a94:	f1c7 0208 	rsb	r2, r7, #8
  203a98:	4320      	orrs	r0, r4
  203a9a:	4090      	lsls	r0, r2
  203a9c:	9109      	str	r1, [sp, #36]	; 0x24
  203a9e:	e009      	b.n	203ab4 <benchmark_picojpeg+0x34dc>
  203aa0:	f640 0010 	movw	r0, #2064	; 0x810
  203aa4:	f1a8 0808 	sub.w	r8, r8, #8
  203aa8:	f6c2 0020 	movt	r0, #10272	; 0x2820
  203aac:	f880 8000 	strb.w	r8, [r0]
  203ab0:	ea4f 200b 	mov.w	r0, fp, lsl #8
  203ab4:	fa5f f488 	uxtb.w	r4, r8
  203ab8:	f240 320f 	movw	r2, #783	; 0x30f
  203abc:	f240 3a10 	movw	sl, #784	; 0x310
  203ac0:	ea4f 211b 	mov.w	r1, fp, lsr #8
  203ac4:	f6c2 0220 	movt	r2, #10272	; 0x2820
  203ac8:	2c03      	cmp	r4, #3
  203aca:	f6c2 0a20 	movt	sl, #10272	; 0x2820
  203ace:	7011      	strb	r1, [r2, #0]
  203ad0:	d84d      	bhi.n	203b6e <benchmark_picojpeg+0x3596>
  203ad2:	b287      	uxth	r7, r0
  203ad4:	0630      	lsls	r0, r6, #24
  203ad6:	fa07 fb04 	lsl.w	fp, r7, r4
  203ada:	d127      	bne.n	203b2c <benchmark_picojpeg+0x3554>
  203adc:	f640 1928 	movw	r9, #2344	; 0x928
  203ae0:	f640 1014 	movw	r0, #2324	; 0x914
  203ae4:	f6c2 0920 	movt	r9, #10272	; 0x2820
  203ae8:	2204      	movs	r2, #4
  203aea:	f6c2 0020 	movt	r0, #10272	; 0x2820
  203aee:	f8d9 5000 	ldr.w	r5, [r9]
  203af2:	7002      	strb	r2, [r0, #0]
  203af4:	f240 203a 	movw	r0, #570	; 0x23a
  203af8:	1b46      	subs	r6, r0, r5
  203afa:	f247 106c 	movw	r0, #29036	; 0x716c
  203afe:	2104      	movs	r1, #4
  203b00:	f2c0 0020 	movt	r0, #32
  203b04:	9109      	str	r1, [sp, #36]	; 0x24
  203b06:	2efc      	cmp	r6, #252	; 0xfc
  203b08:	bf28      	it	cs
  203b0a:	26fc      	movcs	r6, #252	; 0xfc
  203b0c:	1941      	adds	r1, r0, r5
  203b0e:	9807      	ldr	r0, [sp, #28]
  203b10:	4632      	mov	r2, r6
  203b12:	f7fc fcc7 	bl	2004a4 <__rt_memcpy>
  203b16:	f640 0011 	movw	r0, #2065	; 0x811
  203b1a:	f6c2 0020 	movt	r0, #10272	; 0x2820
  203b1e:	7006      	strb	r6, [r0, #0]
  203b20:	19a8      	adds	r0, r5, r6
  203b22:	0631      	lsls	r1, r6, #24
  203b24:	f8c9 0000 	str.w	r0, [r9]
  203b28:	f000 82bd 	beq.w	2040a6 <benchmark_picojpeg+0x3ace>
  203b2c:	f640 0011 	movw	r0, #2065	; 0x811
  203b30:	9909      	ldr	r1, [sp, #36]	; 0x24
  203b32:	3e01      	subs	r6, #1
  203b34:	f6c2 0020 	movt	r0, #10272	; 0x2820
  203b38:	f640 0214 	movw	r2, #2068	; 0x814
  203b3c:	7006      	strb	r6, [r0, #0]
  203b3e:	1c48      	adds	r0, r1, #1
  203b40:	b2c9      	uxtb	r1, r1
  203b42:	f6c2 0220 	movt	r2, #10272	; 0x2820
  203b46:	5c51      	ldrb	r1, [r2, r1]
  203b48:	f640 1214 	movw	r2, #2324	; 0x914
  203b4c:	f6c2 0220 	movt	r2, #10272	; 0x2820
  203b50:	7010      	strb	r0, [r2, #0]
  203b52:	b2c9      	uxtb	r1, r1
  203b54:	f1c4 0204 	rsb	r2, r4, #4
  203b58:	ea41 010b 	orr.w	r1, r1, fp
  203b5c:	fa01 f402 	lsl.w	r4, r1, r2
  203b60:	f108 0504 	add.w	r5, r8, #4
  203b64:	0b39      	lsrs	r1, r7, #12
  203b66:	f88a 1000 	strb.w	r1, [sl]
  203b6a:	9009      	str	r0, [sp, #36]	; 0x24
  203b6c:	e064      	b.n	203c38 <benchmark_picojpeg+0x3660>
  203b6e:	f1a8 0504 	sub.w	r5, r8, #4
  203b72:	b281      	uxth	r1, r0
  203b74:	b2ef      	uxtb	r7, r5
  203b76:	0104      	lsls	r4, r0, #4
  203b78:	0b08      	lsrs	r0, r1, #12
  203b7a:	2f03      	cmp	r7, #3
  203b7c:	f88a 0000 	strb.w	r0, [sl]
  203b80:	d85a      	bhi.n	203c38 <benchmark_picojpeg+0x3660>
  203b82:	b2a0      	uxth	r0, r4
  203b84:	0631      	lsls	r1, r6, #24
  203b86:	fa00 fa07 	lsl.w	sl, r0, r7
  203b8a:	d12a      	bne.n	203be2 <benchmark_picojpeg+0x360a>
  203b8c:	f640 1b28 	movw	fp, #2344	; 0x928
  203b90:	f640 1014 	movw	r0, #2324	; 0x914
  203b94:	f6c2 0b20 	movt	fp, #10272	; 0x2820
  203b98:	2204      	movs	r2, #4
  203b9a:	f6c2 0020 	movt	r0, #10272	; 0x2820
  203b9e:	f8db 8000 	ldr.w	r8, [fp]
  203ba2:	7002      	strb	r2, [r0, #0]
  203ba4:	f240 203a 	movw	r0, #570	; 0x23a
  203ba8:	eba0 0608 	sub.w	r6, r0, r8
  203bac:	f247 106c 	movw	r0, #29036	; 0x716c
  203bb0:	2104      	movs	r1, #4
  203bb2:	f2c0 0020 	movt	r0, #32
  203bb6:	9109      	str	r1, [sp, #36]	; 0x24
  203bb8:	2efc      	cmp	r6, #252	; 0xfc
  203bba:	bf28      	it	cs
  203bbc:	26fc      	movcs	r6, #252	; 0xfc
  203bbe:	eb00 0108 	add.w	r1, r0, r8
  203bc2:	9807      	ldr	r0, [sp, #28]
  203bc4:	4632      	mov	r2, r6
  203bc6:	f7fc fc6d 	bl	2004a4 <__rt_memcpy>
  203bca:	f640 0011 	movw	r0, #2065	; 0x811
  203bce:	f6c2 0020 	movt	r0, #10272	; 0x2820
  203bd2:	7006      	strb	r6, [r0, #0]
  203bd4:	eb08 0006 	add.w	r0, r8, r6
  203bd8:	0631      	lsls	r1, r6, #24
  203bda:	f8cb 0000 	str.w	r0, [fp]
  203bde:	f000 8272 	beq.w	2040c6 <benchmark_picojpeg+0x3aee>
  203be2:	f640 0011 	movw	r0, #2065	; 0x811
  203be6:	3e01      	subs	r6, #1
  203be8:	f6c2 0020 	movt	r0, #10272	; 0x2820
  203bec:	7006      	strb	r6, [r0, #0]
  203bee:	9809      	ldr	r0, [sp, #36]	; 0x24
  203bf0:	f640 0114 	movw	r1, #2068	; 0x814
  203bf4:	f100 0801 	add.w	r8, r0, #1
  203bf8:	b2c0      	uxtb	r0, r0
  203bfa:	f6c2 0120 	movt	r1, #10272	; 0x2820
  203bfe:	5c08      	ldrb	r0, [r1, r0]
  203c00:	f640 1114 	movw	r1, #2324	; 0x914
  203c04:	f6c2 0120 	movt	r1, #10272	; 0x2820
  203c08:	f881 8000 	strb.w	r8, [r1]
  203c0c:	b2c0      	uxtb	r0, r0
  203c0e:	f1c7 0104 	rsb	r1, r7, #4
  203c12:	ea40 000a 	orr.w	r0, r0, sl
  203c16:	fa00 fb01 	lsl.w	fp, r0, r1
  203c1a:	f640 1016 	movw	r0, #2326	; 0x916
  203c1e:	f6c2 0020 	movt	r0, #10272	; 0x2820
  203c22:	f8a0 b000 	strh.w	fp, [r0]
  203c26:	f640 0010 	movw	r0, #2064	; 0x810
  203c2a:	f105 0a04 	add.w	sl, r5, #4
  203c2e:	f6c2 0020 	movt	r0, #10272	; 0x2820
  203c32:	f880 a000 	strb.w	sl, [r0]
  203c36:	e011      	b.n	203c5c <benchmark_picojpeg+0x3684>
  203c38:	f640 0010 	movw	r0, #2064	; 0x810
  203c3c:	f1a5 0a04 	sub.w	sl, r5, #4
  203c40:	f6c2 0020 	movt	r0, #10272	; 0x2820
  203c44:	f880 a000 	strb.w	sl, [r0]
  203c48:	f640 1016 	movw	r0, #2326	; 0x916
  203c4c:	ea4f 1b04 	mov.w	fp, r4, lsl #4
  203c50:	f6c2 0020 	movt	r0, #10272	; 0x2820
  203c54:	f8dd 8024 	ldr.w	r8, [sp, #36]	; 0x24
  203c58:	f8a0 b000 	strh.w	fp, [r0]
  203c5c:	b2a0      	uxth	r0, r4
  203c5e:	f240 3211 	movw	r2, #785	; 0x311
  203c62:	0b01      	lsrs	r1, r0, #12
  203c64:	9806      	ldr	r0, [sp, #24]
  203c66:	f6c2 0220 	movt	r2, #10272	; 0x2820
  203c6a:	1ec4      	subs	r4, r0, #3
  203c6c:	fa1f f08b 	uxth.w	r0, fp
  203c70:	0423      	lsls	r3, r4, #16
  203c72:	7011      	strb	r1, [r2, #0]
  203c74:	d07a      	beq.n	203d6c <benchmark_picojpeg+0x3794>
  203c76:	f640 1128 	movw	r1, #2344	; 0x928
  203c7a:	f6c2 0120 	movt	r1, #10272	; 0x2820
  203c7e:	f8d1 9000 	ldr.w	r9, [r1]
  203c82:	f640 0112 	movw	r1, #2066	; 0x812
  203c86:	f6c2 0120 	movt	r1, #10272	; 0x2820
  203c8a:	7809      	ldrb	r1, [r1, #0]
  203c8c:	9109      	str	r1, [sp, #36]	; 0x24
  203c8e:	07e1      	lsls	r1, r4, #31
  203c90:	d057      	beq.n	203d42 <benchmark_picojpeg+0x376a>
  203c92:	fa5f f48a 	uxtb.w	r4, sl
  203c96:	2c08      	cmp	r4, #8
  203c98:	d247      	bcs.n	203d2a <benchmark_picojpeg+0x3752>
  203c9a:	0631      	lsls	r1, r6, #24
  203c9c:	fa00 f504 	lsl.w	r5, r0, r4
  203ca0:	d127      	bne.n	203cf2 <benchmark_picojpeg+0x371a>
  203ca2:	f640 1014 	movw	r0, #2324	; 0x914
  203ca6:	f04f 0804 	mov.w	r8, #4
  203caa:	f6c2 0020 	movt	r0, #10272	; 0x2820
  203cae:	f880 8000 	strb.w	r8, [r0]
  203cb2:	f240 203a 	movw	r0, #570	; 0x23a
  203cb6:	eba0 0609 	sub.w	r6, r0, r9
  203cba:	f247 106c 	movw	r0, #29036	; 0x716c
  203cbe:	f2c0 0020 	movt	r0, #32
  203cc2:	2efc      	cmp	r6, #252	; 0xfc
  203cc4:	bf28      	it	cs
  203cc6:	26fc      	movcs	r6, #252	; 0xfc
  203cc8:	eb00 0109 	add.w	r1, r0, r9
  203ccc:	9807      	ldr	r0, [sp, #28]
  203cce:	4632      	mov	r2, r6
  203cd0:	f7fc fbe8 	bl	2004a4 <__rt_memcpy>
  203cd4:	f640 0011 	movw	r0, #2065	; 0x811
  203cd8:	f6c2 0020 	movt	r0, #10272	; 0x2820
  203cdc:	7006      	strb	r6, [r0, #0]
  203cde:	0630      	lsls	r0, r6, #24
  203ce0:	f640 1028 	movw	r0, #2344	; 0x928
  203ce4:	44b1      	add	r9, r6
  203ce6:	f6c2 0020 	movt	r0, #10272	; 0x2820
  203cea:	f8c0 9000 	str.w	r9, [r0]
  203cee:	f000 81fb 	beq.w	2040e8 <benchmark_picojpeg+0x3b10>
  203cf2:	f640 0214 	movw	r2, #2068	; 0x814
  203cf6:	f640 0011 	movw	r0, #2065	; 0x811
  203cfa:	fa5f f188 	uxtb.w	r1, r8
  203cfe:	f6c2 0220 	movt	r2, #10272	; 0x2820
  203d02:	3e01      	subs	r6, #1
  203d04:	f6c2 0020 	movt	r0, #10272	; 0x2820
  203d08:	5c51      	ldrb	r1, [r2, r1]
  203d0a:	f640 1214 	movw	r2, #2324	; 0x914
  203d0e:	7006      	strb	r6, [r0, #0]
  203d10:	f108 0001 	add.w	r0, r8, #1
  203d14:	f6c2 0220 	movt	r2, #10272	; 0x2820
  203d18:	7010      	strb	r0, [r2, #0]
  203d1a:	b2c9      	uxtb	r1, r1
  203d1c:	f1c4 0208 	rsb	r2, r4, #8
  203d20:	4329      	orrs	r1, r5
  203d22:	fa01 fb02 	lsl.w	fp, r1, r2
  203d26:	4680      	mov	r8, r0
  203d28:	e009      	b.n	203d3e <benchmark_picojpeg+0x3766>
  203d2a:	f640 0010 	movw	r0, #2064	; 0x810
  203d2e:	f1aa 0a08 	sub.w	sl, sl, #8
  203d32:	f6c2 0020 	movt	r0, #10272	; 0x2820
  203d36:	f880 a000 	strb.w	sl, [r0]
  203d3a:	ea4f 2b0b 	mov.w	fp, fp, lsl #8
  203d3e:	9806      	ldr	r0, [sp, #24]
  203d40:	1f04      	subs	r4, r0, #4
  203d42:	9806      	ldr	r0, [sp, #24]
  203d44:	f640 0c10 	movw	ip, #2064	; 0x810
  203d48:	b280      	uxth	r0, r0
  203d4a:	f640 1714 	movw	r7, #2324	; 0x914
  203d4e:	2804      	cmp	r0, #4
  203d50:	f6c2 0c20 	movt	ip, #10272	; 0x2820
  203d54:	f6c2 0720 	movt	r7, #10272	; 0x2820
  203d58:	f040 80a8 	bne.w	203eac <benchmark_picojpeg+0x38d4>
  203d5c:	fa1f f08b 	uxth.w	r0, fp
  203d60:	f640 1116 	movw	r1, #2326	; 0x916
  203d64:	f6c2 0120 	movt	r1, #10272	; 0x2820
  203d68:	f8a1 b000 	strh.w	fp, [r1]
  203d6c:	9f05      	ldr	r7, [sp, #20]
  203d6e:	f640 0c10 	movw	ip, #2064	; 0x810
  203d72:	f640 1e14 	movw	lr, #2324	; 0x914
  203d76:	0a00      	lsrs	r0, r0, #8
  203d78:	2f00      	cmp	r7, #0
  203d7a:	f6c2 0c20 	movt	ip, #10272	; 0x2820
  203d7e:	f6c2 0e20 	movt	lr, #10272	; 0x2820
  203d82:	d03f      	beq.n	203e04 <benchmark_picojpeg+0x382c>
  203d84:	f640 1119 	movw	r1, #2329	; 0x919
  203d88:	f6c2 0120 	movt	r1, #10272	; 0x2820
  203d8c:	7809      	ldrb	r1, [r1, #0]
  203d8e:	f640 1224 	movw	r2, #2340	; 0x924
  203d92:	f6c2 0220 	movt	r2, #10272	; 0x2820
  203d96:	463b      	mov	r3, r7
  203d98:	7815      	ldrb	r5, [r2, #0]
  203d9a:	f240 3421 	movw	r4, #801	; 0x321
  203d9e:	f6c2 0420 	movt	r4, #10272	; 0x2820
  203da2:	5d64      	ldrb	r4, [r4, r5]
  203da4:	fa21 f404 	lsr.w	r4, r1, r4
  203da8:	07e4      	lsls	r4, r4, #31
  203daa:	f43d aa34 	beq.w	201216 <benchmark_picojpeg+0xc3e>
  203dae:	f240 546a 	movw	r4, #1386	; 0x56a
  203db2:	f6c2 0420 	movt	r4, #10272	; 0x2820
  203db6:	5d65      	ldrb	r5, [r4, r5]
  203db8:	3502      	adds	r5, #2
  203dba:	b2ed      	uxtb	r5, r5
  203dbc:	fa21 f505 	lsr.w	r5, r1, r5
  203dc0:	07ed      	lsls	r5, r5, #31
  203dc2:	f43d aa28 	beq.w	201216 <benchmark_picojpeg+0xc3e>
  203dc6:	3b01      	subs	r3, #1
  203dc8:	f102 0201 	add.w	r2, r2, #1
  203dcc:	d1e4      	bne.n	203d98 <benchmark_picojpeg+0x37c0>
  203dce:	f640 111a 	movw	r1, #2330	; 0x91a
  203dd2:	f6c2 0120 	movt	r1, #10272	; 0x2820
  203dd6:	7809      	ldrb	r1, [r1, #0]
  203dd8:	f640 1224 	movw	r2, #2340	; 0x924
  203ddc:	f240 341e 	movw	r4, #798	; 0x31e
  203de0:	f6c2 0220 	movt	r2, #10272	; 0x2820
  203de4:	f6c2 0420 	movt	r4, #10272	; 0x2820
  203de8:	7813      	ldrb	r3, [r2, #0]
  203dea:	5ce3      	ldrb	r3, [r4, r3]
  203dec:	2b00      	cmp	r3, #0
  203dee:	f04f 0302 	mov.w	r3, #2
  203df2:	bf08      	it	eq
  203df4:	2301      	moveq	r3, #1
  203df6:	420b      	tst	r3, r1
  203df8:	f43d aa0d 	beq.w	201216 <benchmark_picojpeg+0xc3e>
  203dfc:	3f01      	subs	r7, #1
  203dfe:	f102 0201 	add.w	r2, r2, #1
  203e02:	d1f1      	bne.n	203de8 <benchmark_picojpeg+0x3810>
  203e04:	f240 3212 	movw	r2, #786	; 0x312
  203e08:	f6c2 0220 	movt	r2, #10272	; 0x2820
  203e0c:	8812      	ldrh	r2, [r2, #0]
  203e0e:	f240 43e4 	movw	r3, #1252	; 0x4e4
  203e12:	2100      	movs	r1, #0
  203e14:	f6c2 0320 	movt	r3, #10272	; 0x2820
  203e18:	6019      	str	r1, [r3, #0]
  203e1a:	8099      	strh	r1, [r3, #4]
  203e1c:	b14a      	cbz	r2, 203e32 <benchmark_picojpeg+0x385a>
  203e1e:	f240 3314 	movw	r3, #788	; 0x314
  203e22:	f6c2 0320 	movt	r3, #10272	; 0x2820
  203e26:	801a      	strh	r2, [r3, #0]
  203e28:	f640 020e 	movw	r2, #2062	; 0x80e
  203e2c:	f6c2 0220 	movt	r2, #10272	; 0x2820
  203e30:	8011      	strh	r1, [r2, #0]
  203e32:	ea5f 610a 	movs.w	r1, sl, lsl #24
  203e36:	d00a      	beq.n	203e4e <benchmark_picojpeg+0x3876>
  203e38:	f1a8 0801 	sub.w	r8, r8, #1
  203e3c:	f640 0214 	movw	r2, #2068	; 0x814
  203e40:	fa5f f188 	uxtb.w	r1, r8
  203e44:	f6c2 0220 	movt	r2, #10272	; 0x2820
  203e48:	3601      	adds	r6, #1
  203e4a:	f802 b001 	strb.w	fp, [r2, r1]
  203e4e:	f640 1514 	movw	r5, #2324	; 0x914
  203e52:	f1a8 0101 	sub.w	r1, r8, #1
  203e56:	f6c2 0520 	movt	r5, #10272	; 0x2820
  203e5a:	f640 0214 	movw	r2, #2068	; 0x814
  203e5e:	7029      	strb	r1, [r5, #0]
  203e60:	b2c9      	uxtb	r1, r1
  203e62:	f6c2 0220 	movt	r2, #10272	; 0x2820
  203e66:	5450      	strb	r0, [r2, r1]
  203e68:	f640 0111 	movw	r1, #2065	; 0x811
  203e6c:	1c70      	adds	r0, r6, #1
  203e6e:	f6c2 0120 	movt	r1, #10272	; 0x2820
  203e72:	f640 0410 	movw	r4, #2064	; 0x810
  203e76:	7008      	strb	r0, [r1, #0]
  203e78:	2000      	movs	r0, #0
  203e7a:	f6c2 0420 	movt	r4, #10272	; 0x2820
  203e7e:	7020      	strb	r0, [r4, #0]
  203e80:	f000 f992 	bl	2041a8 <getOctet>
  203e84:	f640 1116 	movw	r1, #2326	; 0x916
  203e88:	46ae      	mov	lr, r5
  203e8a:	46a4      	mov	ip, r4
  203e8c:	0200      	lsls	r0, r0, #8
  203e8e:	f6c2 0120 	movt	r1, #10272	; 0x2820
  203e92:	8008      	strh	r0, [r1, #0]
  203e94:	f7fd b9bf 	b.w	201216 <benchmark_picojpeg+0xc3e>
  203e98:	f1aa 0a08 	sub.w	sl, sl, #8
  203e9c:	f88c a000 	strb.w	sl, [ip]
  203ea0:	ea4f 2b05 	mov.w	fp, r5, lsl #8
  203ea4:	3c02      	subs	r4, #2
  203ea6:	0420      	lsls	r0, r4, #16
  203ea8:	f43f af58 	beq.w	203d5c <benchmark_picojpeg+0x3784>
  203eac:	fa5f f58a 	uxtb.w	r5, sl
  203eb0:	2d07      	cmp	r5, #7
  203eb2:	d849      	bhi.n	203f48 <benchmark_picojpeg+0x3970>
  203eb4:	0630      	lsls	r0, r6, #24
  203eb6:	d12c      	bne.n	203f12 <benchmark_picojpeg+0x393a>
  203eb8:	f240 203a 	movw	r0, #570	; 0x23a
  203ebc:	f04f 0804 	mov.w	r8, #4
  203ec0:	eba0 0609 	sub.w	r6, r0, r9
  203ec4:	20fc      	movs	r0, #252	; 0xfc
  203ec6:	f887 8000 	strb.w	r8, [r7]
  203eca:	2efc      	cmp	r6, #252	; 0xfc
  203ecc:	bf28      	it	cs
  203ece:	4606      	movcs	r6, r0
  203ed0:	f247 106c 	movw	r0, #29036	; 0x716c
  203ed4:	f2c0 0020 	movt	r0, #32
  203ed8:	eb00 0109 	add.w	r1, r0, r9
  203edc:	9807      	ldr	r0, [sp, #28]
  203ede:	4632      	mov	r2, r6
  203ee0:	f7fc fae0 	bl	2004a4 <__rt_memcpy>
  203ee4:	f640 0011 	movw	r0, #2065	; 0x811
  203ee8:	f6c2 0020 	movt	r0, #10272	; 0x2820
  203eec:	7006      	strb	r6, [r0, #0]
  203eee:	0630      	lsls	r0, r6, #24
  203ef0:	f640 1028 	movw	r0, #2344	; 0x928
  203ef4:	44b1      	add	r9, r6
  203ef6:	f6c2 0020 	movt	r0, #10272	; 0x2820
  203efa:	f8c0 9000 	str.w	r9, [r0]
  203efe:	f000 8095 	beq.w	20402c <benchmark_picojpeg+0x3a54>
  203f02:	f640 0c10 	movw	ip, #2064	; 0x810
  203f06:	f640 1714 	movw	r7, #2324	; 0x914
  203f0a:	f6c2 0c20 	movt	ip, #10272	; 0x2820
  203f0e:	f6c2 0720 	movt	r7, #10272	; 0x2820
  203f12:	f640 0011 	movw	r0, #2065	; 0x811
  203f16:	f640 0214 	movw	r2, #2068	; 0x814
  203f1a:	f6c2 0020 	movt	r0, #10272	; 0x2820
  203f1e:	3e01      	subs	r6, #1
  203f20:	fa5f f188 	uxtb.w	r1, r8
  203f24:	f6c2 0220 	movt	r2, #10272	; 0x2820
  203f28:	7006      	strb	r6, [r0, #0]
  203f2a:	f108 0001 	add.w	r0, r8, #1
  203f2e:	5c51      	ldrb	r1, [r2, r1]
  203f30:	7038      	strb	r0, [r7, #0]
  203f32:	fa1f f28b 	uxth.w	r2, fp
  203f36:	b2c9      	uxtb	r1, r1
  203f38:	40aa      	lsls	r2, r5
  203f3a:	f1c5 0308 	rsb	r3, r5, #8
  203f3e:	4311      	orrs	r1, r2
  203f40:	fa01 f503 	lsl.w	r5, r1, r3
  203f44:	4680      	mov	r8, r0
  203f46:	e009      	b.n	203f5c <benchmark_picojpeg+0x3984>
  203f48:	f1aa 0a08 	sub.w	sl, sl, #8
  203f4c:	fa5f f08a 	uxtb.w	r0, sl
  203f50:	2808      	cmp	r0, #8
  203f52:	ea4f 250b 	mov.w	r5, fp, lsl #8
  203f56:	f88c a000 	strb.w	sl, [ip]
  203f5a:	d29d      	bcs.n	203e98 <benchmark_picojpeg+0x38c0>
  203f5c:	0630      	lsls	r0, r6, #24
  203f5e:	d004      	beq.n	203f6a <benchmark_picojpeg+0x3992>
  203f60:	f640 0111 	movw	r1, #2065	; 0x811
  203f64:	f6c2 0120 	movt	r1, #10272	; 0x2820
  203f68:	e02b      	b.n	203fc2 <benchmark_picojpeg+0x39ea>
  203f6a:	f240 203a 	movw	r0, #570	; 0x23a
  203f6e:	f04f 0804 	mov.w	r8, #4
  203f72:	eba0 0609 	sub.w	r6, r0, r9
  203f76:	20fc      	movs	r0, #252	; 0xfc
  203f78:	f887 8000 	strb.w	r8, [r7]
  203f7c:	2efc      	cmp	r6, #252	; 0xfc
  203f7e:	bf28      	it	cs
  203f80:	4606      	movcs	r6, r0
  203f82:	f247 106c 	movw	r0, #29036	; 0x716c
  203f86:	f2c0 0020 	movt	r0, #32
  203f8a:	eb00 0109 	add.w	r1, r0, r9
  203f8e:	9807      	ldr	r0, [sp, #28]
  203f90:	4632      	mov	r2, r6
  203f92:	f7fc fa87 	bl	2004a4 <__rt_memcpy>
  203f96:	0630      	lsls	r0, r6, #24
  203f98:	f640 0111 	movw	r1, #2065	; 0x811
  203f9c:	f640 1028 	movw	r0, #2344	; 0x928
  203fa0:	f6c2 0120 	movt	r1, #10272	; 0x2820
  203fa4:	44b1      	add	r9, r6
  203fa6:	f6c2 0020 	movt	r0, #10272	; 0x2820
  203faa:	700e      	strb	r6, [r1, #0]
  203fac:	f8c0 9000 	str.w	r9, [r0]
  203fb0:	d01f      	beq.n	203ff2 <benchmark_picojpeg+0x3a1a>
  203fb2:	f640 0c10 	movw	ip, #2064	; 0x810
  203fb6:	f640 1714 	movw	r7, #2324	; 0x914
  203fba:	f6c2 0c20 	movt	ip, #10272	; 0x2820
  203fbe:	f6c2 0720 	movt	r7, #10272	; 0x2820
  203fc2:	3e01      	subs	r6, #1
  203fc4:	f640 0214 	movw	r2, #2068	; 0x814
  203fc8:	700e      	strb	r6, [r1, #0]
  203fca:	fa5f f188 	uxtb.w	r1, r8
  203fce:	f6c2 0220 	movt	r2, #10272	; 0x2820
  203fd2:	f108 0001 	add.w	r0, r8, #1
  203fd6:	5c51      	ldrb	r1, [r2, r1]
  203fd8:	7038      	strb	r0, [r7, #0]
  203fda:	b2aa      	uxth	r2, r5
  203fdc:	fa5f f38a 	uxtb.w	r3, sl
  203fe0:	409a      	lsls	r2, r3
  203fe2:	b2c9      	uxtb	r1, r1
  203fe4:	f1c3 0308 	rsb	r3, r3, #8
  203fe8:	4311      	orrs	r1, r2
  203fea:	fa01 fb03 	lsl.w	fp, r1, r3
  203fee:	4680      	mov	r8, r0
  203ff0:	e758      	b.n	203ea4 <benchmark_picojpeg+0x38cc>
  203ff2:	9809      	ldr	r0, [sp, #36]	; 0x24
  203ff4:	f640 0c10 	movw	ip, #2064	; 0x810
  203ff8:	28ff      	cmp	r0, #255	; 0xff
  203ffa:	f080 08ff 	eor.w	r8, r0, #255	; 0xff
  203ffe:	f640 0012 	movw	r0, #2066	; 0x812
  204002:	f6c2 0020 	movt	r0, #10272	; 0x2820
  204006:	f640 1714 	movw	r7, #2324	; 0x914
  20400a:	f880 8000 	strb.w	r8, [r0]
  20400e:	f04f 31ff 	mov.w	r1, #4294967295
  204012:	f04f 0600 	mov.w	r6, #0
  204016:	bf08      	it	eq
  204018:	f06f 0126 	mvneq.w	r1, #38	; 0x26
  20401c:	2004      	movs	r0, #4
  20401e:	f6c2 0c20 	movt	ip, #10272	; 0x2820
  204022:	f6c2 0720 	movt	r7, #10272	; 0x2820
  204026:	f8cd 8024 	str.w	r8, [sp, #36]	; 0x24
  20402a:	e7d6      	b.n	203fda <benchmark_picojpeg+0x3a02>
  20402c:	9809      	ldr	r0, [sp, #36]	; 0x24
  20402e:	f640 0c10 	movw	ip, #2064	; 0x810
  204032:	28ff      	cmp	r0, #255	; 0xff
  204034:	f080 08ff 	eor.w	r8, r0, #255	; 0xff
  204038:	f640 0012 	movw	r0, #2066	; 0x812
  20403c:	f6c2 0020 	movt	r0, #10272	; 0x2820
  204040:	f640 1714 	movw	r7, #2324	; 0x914
  204044:	f880 8000 	strb.w	r8, [r0]
  204048:	f04f 31ff 	mov.w	r1, #4294967295
  20404c:	f04f 0600 	mov.w	r6, #0
  204050:	bf08      	it	eq
  204052:	f06f 0126 	mvneq.w	r1, #38	; 0x26
  204056:	2004      	movs	r0, #4
  204058:	f6c2 0c20 	movt	ip, #10272	; 0x2820
  20405c:	f6c2 0720 	movt	r7, #10272	; 0x2820
  204060:	f8cd 8024 	str.w	r8, [sp, #36]	; 0x24
  204064:	e765      	b.n	203f32 <benchmark_picojpeg+0x395a>
  204066:	f640 0212 	movw	r2, #2066	; 0x812
  20406a:	f6c2 0220 	movt	r2, #10272	; 0x2820
  20406e:	7811      	ldrb	r1, [r2, #0]
  204070:	2600      	movs	r6, #0
  204072:	43c8      	mvns	r0, r1
  204074:	7010      	strb	r0, [r2, #0]
  204076:	f04f 30ff 	mov.w	r0, #4294967295
  20407a:	29ff      	cmp	r1, #255	; 0xff
  20407c:	bf08      	it	eq
  20407e:	f06f 0026 	mvneq.w	r0, #38	; 0x26
  204082:	2104      	movs	r1, #4
  204084:	e505      	b.n	203a92 <benchmark_picojpeg+0x34ba>
  204086:	f640 0212 	movw	r2, #2066	; 0x812
  20408a:	f6c2 0220 	movt	r2, #10272	; 0x2820
  20408e:	7810      	ldrb	r0, [r2, #0]
  204090:	2600      	movs	r6, #0
  204092:	43c1      	mvns	r1, r0
  204094:	7011      	strb	r1, [r2, #0]
  204096:	f04f 31ff 	mov.w	r1, #4294967295
  20409a:	28ff      	cmp	r0, #255	; 0xff
  20409c:	bf08      	it	eq
  20409e:	f06f 0126 	mvneq.w	r1, #38	; 0x26
  2040a2:	2004      	movs	r0, #4
  2040a4:	e495      	b.n	2039d2 <benchmark_picojpeg+0x33fa>
  2040a6:	f640 0212 	movw	r2, #2066	; 0x812
  2040aa:	f6c2 0220 	movt	r2, #10272	; 0x2820
  2040ae:	7810      	ldrb	r0, [r2, #0]
  2040b0:	2600      	movs	r6, #0
  2040b2:	43c1      	mvns	r1, r0
  2040b4:	7011      	strb	r1, [r2, #0]
  2040b6:	f04f 31ff 	mov.w	r1, #4294967295
  2040ba:	28ff      	cmp	r0, #255	; 0xff
  2040bc:	bf08      	it	eq
  2040be:	f06f 0126 	mvneq.w	r1, #38	; 0x26
  2040c2:	2004      	movs	r0, #4
  2040c4:	e545      	b.n	203b52 <benchmark_picojpeg+0x357a>
  2040c6:	f640 0212 	movw	r2, #2066	; 0x812
  2040ca:	f6c2 0220 	movt	r2, #10272	; 0x2820
  2040ce:	7811      	ldrb	r1, [r2, #0]
  2040d0:	2600      	movs	r6, #0
  2040d2:	43c8      	mvns	r0, r1
  2040d4:	7010      	strb	r0, [r2, #0]
  2040d6:	f04f 30ff 	mov.w	r0, #4294967295
  2040da:	f04f 0804 	mov.w	r8, #4
  2040de:	29ff      	cmp	r1, #255	; 0xff
  2040e0:	bf08      	it	eq
  2040e2:	f06f 0026 	mvneq.w	r0, #38	; 0x26
  2040e6:	e591      	b.n	203c0c <benchmark_picojpeg+0x3634>
  2040e8:	9809      	ldr	r0, [sp, #36]	; 0x24
  2040ea:	f04f 31ff 	mov.w	r1, #4294967295
  2040ee:	28ff      	cmp	r0, #255	; 0xff
  2040f0:	f080 08ff 	eor.w	r8, r0, #255	; 0xff
  2040f4:	f640 0012 	movw	r0, #2066	; 0x812
  2040f8:	f6c2 0020 	movt	r0, #10272	; 0x2820
  2040fc:	f880 8000 	strb.w	r8, [r0]
  204100:	bf08      	it	eq
  204102:	f06f 0126 	mvneq.w	r1, #38	; 0x26
  204106:	2600      	movs	r6, #0
  204108:	2004      	movs	r0, #4
  20410a:	f8cd 8024 	str.w	r8, [sp, #36]	; 0x24
  20410e:	e604      	b.n	203d1a <benchmark_picojpeg+0x3742>

00204110 <getBits>:
  204110:	e92d 4ff0 	stmdb	sp!, {r4, r5, r6, r7, r8, r9, sl, fp, lr}
  204114:	b081      	sub	sp, #4
  204116:	f640 1816 	movw	r8, #2326	; 0x916
  20411a:	f6c2 0820 	movt	r8, #10272	; 0x2820
  20411e:	f8b8 5000 	ldrh.w	r5, [r8]
  204122:	f640 0910 	movw	r9, #2064	; 0x810
  204126:	4682      	mov	sl, r0
  204128:	2808      	cmp	r0, #8
  20412a:	f6c2 0920 	movt	r9, #10272	; 0x2820
  20412e:	d912      	bls.n	204156 <getBits+0x46>
  204130:	f899 7000 	ldrb.w	r7, [r9]
  204134:	f1aa 0b08 	sub.w	fp, sl, #8
  204138:	fa05 f407 	lsl.w	r4, r5, r7
  20413c:	f000 f834 	bl	2041a8 <getOctet>
  204140:	b2a1      	uxth	r1, r4
  204142:	f1c7 0208 	rsb	r2, r7, #8
  204146:	4308      	orrs	r0, r1
  204148:	0a29      	lsrs	r1, r5, #8
  20414a:	fa00 f502 	lsl.w	r5, r0, r2
  20414e:	0a2e      	lsrs	r6, r5, #8
  204150:	f361 261f 	bfi	r6, r1, #8, #24
  204154:	e003      	b.n	20415e <getBits+0x4e>
  204156:	f899 7000 	ldrb.w	r7, [r9]
  20415a:	46d3      	mov	fp, sl
  20415c:	462e      	mov	r6, r5
  20415e:	fa5f f48b 	uxtb.w	r4, fp
  204162:	42a7      	cmp	r7, r4
  204164:	d20f      	bcs.n	204186 <getBits+0x76>
  204166:	b2a8      	uxth	r0, r5
  204168:	fa00 f507 	lsl.w	r5, r0, r7
  20416c:	f000 f81c 	bl	2041a8 <getOctet>
  204170:	1be1      	subs	r1, r4, r7
  204172:	4328      	orrs	r0, r5
  204174:	4088      	lsls	r0, r1
  204176:	f8a8 0000 	strh.w	r0, [r8]
  20417a:	eba7 000b 	sub.w	r0, r7, fp
  20417e:	3008      	adds	r0, #8
  204180:	f889 0000 	strb.w	r0, [r9]
  204184:	e008      	b.n	204198 <getBits+0x88>
  204186:	b2a9      	uxth	r1, r5
  204188:	eba7 000b 	sub.w	r0, r7, fp
  20418c:	f889 0000 	strb.w	r0, [r9]
  204190:	fa01 f004 	lsl.w	r0, r1, r4
  204194:	f8a8 0000 	strh.w	r0, [r8]
  204198:	b2b0      	uxth	r0, r6
  20419a:	f1ca 0110 	rsb	r1, sl, #16
  20419e:	40c8      	lsrs	r0, r1
  2041a0:	b001      	add	sp, #4
  2041a2:	e8bd 8ff0 	ldmia.w	sp!, {r4, r5, r6, r7, r8, r9, sl, fp, pc}
	...

002041a8 <getOctet>:
  2041a8:	e92d 47f0 	stmdb	sp!, {r4, r5, r6, r7, r8, r9, sl, lr}
  2041ac:	f640 0a11 	movw	sl, #2065	; 0x811
  2041b0:	f6c2 0a20 	movt	sl, #10272	; 0x2820
  2041b4:	f89a 4000 	ldrb.w	r4, [sl]
  2041b8:	f640 1914 	movw	r9, #2324	; 0x914
  2041bc:	f640 0814 	movw	r8, #2068	; 0x814
  2041c0:	f6c2 0920 	movt	r9, #10272	; 0x2820
  2041c4:	f6c2 0820 	movt	r8, #10272	; 0x2820
  2041c8:	b114      	cbz	r4, 2041d0 <getOctet+0x28>
  2041ca:	f899 6000 	ldrb.w	r6, [r9]
  2041ce:	e01d      	b.n	20420c <getOctet+0x64>
  2041d0:	f640 1528 	movw	r5, #2344	; 0x928
  2041d4:	f6c2 0520 	movt	r5, #10272	; 0x2820
  2041d8:	682f      	ldr	r7, [r5, #0]
  2041da:	f240 203a 	movw	r0, #570	; 0x23a
  2041de:	1bc4      	subs	r4, r0, r7
  2041e0:	f247 106c 	movw	r0, #29036	; 0x716c
  2041e4:	2604      	movs	r6, #4
  2041e6:	f2c0 0020 	movt	r0, #32
  2041ea:	f889 6000 	strb.w	r6, [r9]
  2041ee:	2cfc      	cmp	r4, #252	; 0xfc
  2041f0:	bf28      	it	cs
  2041f2:	24fc      	movcs	r4, #252	; 0xfc
  2041f4:	19c1      	adds	r1, r0, r7
  2041f6:	f108 0004 	add.w	r0, r8, #4
  2041fa:	4622      	mov	r2, r4
  2041fc:	f7fc f952 	bl	2004a4 <__rt_memcpy>
  204200:	4427      	add	r7, r4
  204202:	0620      	lsls	r0, r4, #24
  204204:	f88a 4000 	strb.w	r4, [sl]
  204208:	602f      	str	r7, [r5, #0]
  20420a:	d011      	beq.n	204230 <getOctet+0x88>
  20420c:	f818 0006 	ldrb.w	r0, [r8, r6]
  204210:	3c01      	subs	r4, #1
  204212:	1c72      	adds	r2, r6, #1
  204214:	28ff      	cmp	r0, #255	; 0xff
  204216:	f88a 4000 	strb.w	r4, [sl]
  20421a:	f889 2000 	strb.w	r2, [r9]
  20421e:	d159      	bne.n	2042d4 <getOctet+0x12c>
  204220:	0620      	lsls	r0, r4, #24
  204222:	d12b      	bne.n	20427c <getOctet+0xd4>
  204224:	f640 1028 	movw	r0, #2344	; 0x928
  204228:	f6c2 0020 	movt	r0, #10272	; 0x2820
  20422c:	6807      	ldr	r7, [r0, #0]
  20422e:	e00c      	b.n	20424a <getOctet+0xa2>
  204230:	f640 0012 	movw	r0, #2066	; 0x812
  204234:	f6c2 0020 	movt	r0, #10272	; 0x2820
  204238:	7801      	ldrb	r1, [r0, #0]
  20423a:	43ca      	mvns	r2, r1
  20423c:	7002      	strb	r2, [r0, #0]
  20423e:	20ff      	movs	r0, #255	; 0xff
  204240:	29ff      	cmp	r1, #255	; 0xff
  204242:	bf04      	itt	eq
  204244:	20d9      	moveq	r0, #217	; 0xd9
  204246:	e8bd 87f0 	ldmiaeq.w	sp!, {r4, r5, r6, r7, r8, r9, sl, pc}
  20424a:	f240 203a 	movw	r0, #570	; 0x23a
  20424e:	1bc4      	subs	r4, r0, r7
  204250:	f247 106c 	movw	r0, #29036	; 0x716c
  204254:	f2c0 0020 	movt	r0, #32
  204258:	2cfc      	cmp	r4, #252	; 0xfc
  20425a:	bf28      	it	cs
  20425c:	24fc      	movcs	r4, #252	; 0xfc
  20425e:	19c1      	adds	r1, r0, r7
  204260:	f108 0004 	add.w	r0, r8, #4
  204264:	4622      	mov	r2, r4
  204266:	f7fc f91d 	bl	2004a4 <__rt_memcpy>
  20426a:	f640 1128 	movw	r1, #2344	; 0x928
  20426e:	1938      	adds	r0, r7, r4
  204270:	f6c2 0120 	movt	r1, #10272	; 0x2820
  204274:	0622      	lsls	r2, r4, #24
  204276:	6008      	str	r0, [r1, #0]
  204278:	d00f      	beq.n	20429a <getOctet+0xf2>
  20427a:	2204      	movs	r2, #4
  20427c:	b2d0      	uxtb	r0, r2
  20427e:	f818 0000 	ldrb.w	r0, [r8, r0]
  204282:	1e61      	subs	r1, r4, #1
  204284:	3201      	adds	r2, #1
  204286:	2800      	cmp	r0, #0
  204288:	f88a 1000 	strb.w	r1, [sl]
  20428c:	f889 2000 	strb.w	r2, [r9]
  204290:	bf04      	itt	eq
  204292:	20ff      	moveq	r0, #255	; 0xff
  204294:	e8bd 87f0 	ldmiaeq.w	sp!, {r4, r5, r6, r7, r8, r9, sl, pc}
  204298:	e00e      	b.n	2042b8 <getOctet+0x110>
  20429a:	f640 0012 	movw	r0, #2066	; 0x812
  20429e:	f6c2 0020 	movt	r0, #10272	; 0x2820
  2042a2:	7801      	ldrb	r1, [r0, #0]
  2042a4:	43ca      	mvns	r2, r1
  2042a6:	7002      	strb	r2, [r0, #0]
  2042a8:	f04f 30ff 	mov.w	r0, #4294967295
  2042ac:	29ff      	cmp	r1, #255	; 0xff
  2042ae:	bf08      	it	eq
  2042b0:	f06f 0026 	mvneq.w	r0, #38	; 0x26
  2042b4:	2204      	movs	r2, #4
  2042b6:	2100      	movs	r1, #0
  2042b8:	1e53      	subs	r3, r2, #1
  2042ba:	b2db      	uxtb	r3, r3
  2042bc:	f808 0003 	strb.w	r0, [r8, r3]
  2042c0:	1e90      	subs	r0, r2, #2
  2042c2:	f889 0000 	strb.w	r0, [r9]
  2042c6:	b2c2      	uxtb	r2, r0
  2042c8:	20ff      	movs	r0, #255	; 0xff
  2042ca:	3102      	adds	r1, #2
  2042cc:	f808 0002 	strb.w	r0, [r8, r2]
  2042d0:	f88a 1000 	strb.w	r1, [sl]
  2042d4:	e8bd 87f0 	ldmia.w	sp!, {r4, r5, r6, r7, r8, r9, sl, pc}

002042d8 <main>:
  2042d8:	b082      	sub	sp, #8
  2042da:	2500      	movs	r5, #0
  2042dc:	f241 0404 	movw	r4, #4100	; 0x1004
  2042e0:	f44f 3080 	mov.w	r0, #65536	; 0x10000
  2042e4:	f2ce 0400 	movt	r4, #57344	; 0xe000
  2042e8:	9501      	str	r5, [sp, #4]
  2042ea:	f002 feca 	bl	207082 <upsampleCrV+0x2b6>
  2042ee:	f44f 7680 	mov.w	r6, #256	; 0x100
  2042f2:	6025      	str	r5, [r4, #0]
  2042f4:	9801      	ldr	r0, [sp, #4]
  2042f6:	f7fc f96f 	bl	2005d8 <benchmark_picojpeg>
  2042fa:	9501      	str	r5, [sp, #4]
  2042fc:	9801      	ldr	r0, [sp, #4]
  2042fe:	3e01      	subs	r6, #1
  204300:	d1f8      	bne.n	2042f4 <main+0x1c>
  204302:	6820      	ldr	r0, [r4, #0]
  204304:	f002 fec2 	bl	20708c <upsampleCrV+0x2c0>
  204308:	2500      	movs	r5, #0
  20430a:	f44f 7680 	mov.w	r6, #256	; 0x100
  20430e:	6025      	str	r5, [r4, #0]
  204310:	9801      	ldr	r0, [sp, #4]
  204312:	f7fc f961 	bl	2005d8 <benchmark_picojpeg>
  204316:	9501      	str	r5, [sp, #4]
  204318:	9801      	ldr	r0, [sp, #4]
  20431a:	3e01      	subs	r6, #1
  20431c:	d1f8      	bne.n	204310 <main+0x38>
  20431e:	6820      	ldr	r0, [r4, #0]
  204320:	f002 feb4 	bl	20708c <upsampleCrV+0x2c0>
  204324:	2500      	movs	r5, #0
  204326:	f44f 7680 	mov.w	r6, #256	; 0x100
  20432a:	6025      	str	r5, [r4, #0]
  20432c:	9801      	ldr	r0, [sp, #4]
  20432e:	f7fc f953 	bl	2005d8 <benchmark_picojpeg>
  204332:	9501      	str	r5, [sp, #4]
  204334:	9801      	ldr	r0, [sp, #4]
  204336:	3e01      	subs	r6, #1
  204338:	d1f8      	bne.n	20432c <main+0x54>
  20433a:	6820      	ldr	r0, [r4, #0]
  20433c:	f002 fea6 	bl	20708c <upsampleCrV+0x2c0>
  204340:	2500      	movs	r5, #0
  204342:	f44f 7680 	mov.w	r6, #256	; 0x100
  204346:	6025      	str	r5, [r4, #0]
  204348:	9801      	ldr	r0, [sp, #4]
  20434a:	f7fc f945 	bl	2005d8 <benchmark_picojpeg>
  20434e:	9501      	str	r5, [sp, #4]
  204350:	9801      	ldr	r0, [sp, #4]
  204352:	3e01      	subs	r6, #1
  204354:	d1f8      	bne.n	204348 <main+0x70>
  204356:	6820      	ldr	r0, [r4, #0]
  204358:	f002 fe98 	bl	20708c <upsampleCrV+0x2c0>
  20435c:	2500      	movs	r5, #0
  20435e:	f44f 7680 	mov.w	r6, #256	; 0x100
  204362:	6025      	str	r5, [r4, #0]
  204364:	9801      	ldr	r0, [sp, #4]
  204366:	f7fc f937 	bl	2005d8 <benchmark_picojpeg>
  20436a:	9501      	str	r5, [sp, #4]
  20436c:	9801      	ldr	r0, [sp, #4]
  20436e:	3e01      	subs	r6, #1
  204370:	d1f8      	bne.n	204364 <main+0x8c>
  204372:	6820      	ldr	r0, [r4, #0]
  204374:	f002 fe8a 	bl	20708c <upsampleCrV+0x2c0>
  204378:	e7fe      	b.n	204378 <main+0xa0>
	...

0020437c <processMarkers>:
  20437c:	e92d 4ff0 	stmdb	sp!, {r4, r5, r6, r7, r8, r9, sl, fp, lr}
  204380:	b091      	sub	sp, #68	; 0x44
  204382:	9005      	str	r0, [sp, #20]
  204384:	f640 1016 	movw	r0, #2326	; 0x916
  204388:	f640 0c10 	movw	ip, #2064	; 0x810
  20438c:	f6c2 0020 	movt	r0, #10272	; 0x2820
  204390:	f6c2 0c20 	movt	ip, #10272	; 0x2820
  204394:	f640 0e14 	movw	lr, #2068	; 0x814
  204398:	f8b0 9000 	ldrh.w	r9, [r0]
  20439c:	f89c a000 	ldrb.w	sl, [ip]
  2043a0:	f6c2 0e20 	movt	lr, #10272	; 0x2820
  2043a4:	f640 0311 	movw	r3, #2065	; 0x811
  2043a8:	f10e 0004 	add.w	r0, lr, #4
  2043ac:	f6c2 0320 	movt	r3, #10272	; 0x2820
  2043b0:	900a      	str	r0, [sp, #40]	; 0x28
  2043b2:	fa5f f48a 	uxtb.w	r4, sl
  2043b6:	2c07      	cmp	r4, #7
  2043b8:	d808      	bhi.n	2043cc <processMarkers+0x50>
  2043ba:	781e      	ldrb	r6, [r3, #0]
  2043bc:	b16e      	cbz	r6, 2043da <processMarkers+0x5e>
  2043be:	f640 1214 	movw	r2, #2324	; 0x914
  2043c2:	f6c2 0220 	movt	r2, #10272	; 0x2820
  2043c6:	7815      	ldrb	r5, [r2, #0]
  2043c8:	e03a      	b.n	204440 <processMarkers+0xc4>
  2043ca:	bf00      	nop
  2043cc:	f1aa 0a08 	sub.w	sl, sl, #8
  2043d0:	ea4f 2009 	mov.w	r0, r9, lsl #8
  2043d4:	f88c a000 	strb.w	sl, [ip]
  2043d8:	e042      	b.n	204460 <processMarkers+0xe4>
  2043da:	f640 1828 	movw	r8, #2344	; 0x928
  2043de:	f6c2 0820 	movt	r8, #10272	; 0x2820
  2043e2:	f640 1014 	movw	r0, #2324	; 0x914
  2043e6:	2504      	movs	r5, #4
  2043e8:	f8d8 7000 	ldr.w	r7, [r8]
  2043ec:	f6c2 0020 	movt	r0, #10272	; 0x2820
  2043f0:	7005      	strb	r5, [r0, #0]
  2043f2:	f240 203a 	movw	r0, #570	; 0x23a
  2043f6:	1bc6      	subs	r6, r0, r7
  2043f8:	20fc      	movs	r0, #252	; 0xfc
  2043fa:	2efc      	cmp	r6, #252	; 0xfc
  2043fc:	bf28      	it	cs
  2043fe:	4606      	movcs	r6, r0
  204400:	f247 106c 	movw	r0, #29036	; 0x716c
  204404:	f2c0 0020 	movt	r0, #32
  204408:	19c1      	adds	r1, r0, r7
  20440a:	980a      	ldr	r0, [sp, #40]	; 0x28
  20440c:	4632      	mov	r2, r6
  20440e:	f7fc f849 	bl	2004a4 <__rt_memcpy>
  204412:	f640 0311 	movw	r3, #2065	; 0x811
  204416:	f6c2 0320 	movt	r3, #10272	; 0x2820
  20441a:	19b8      	adds	r0, r7, r6
  20441c:	0631      	lsls	r1, r6, #24
  20441e:	701e      	strb	r6, [r3, #0]
  204420:	f8c8 0000 	str.w	r0, [r8]
  204424:	f000 81bc 	beq.w	2047a0 <processMarkers+0x424>
  204428:	f640 0c10 	movw	ip, #2064	; 0x810
  20442c:	f640 0e14 	movw	lr, #2068	; 0x814
  204430:	f640 1214 	movw	r2, #2324	; 0x914
  204434:	f6c2 0c20 	movt	ip, #10272	; 0x2820
  204438:	f6c2 0e20 	movt	lr, #10272	; 0x2820
  20443c:	f6c2 0220 	movt	r2, #10272	; 0x2820
  204440:	1e70      	subs	r0, r6, #1
  204442:	7018      	strb	r0, [r3, #0]
  204444:	1c69      	adds	r1, r5, #1
  204446:	f81e 0005 	ldrb.w	r0, [lr, r5]
  20444a:	7011      	strb	r1, [r2, #0]
  20444c:	fa1f f189 	uxth.w	r1, r9
  204450:	f89c a000 	ldrb.w	sl, [ip]
  204454:	40a1      	lsls	r1, r4
  204456:	b2c0      	uxtb	r0, r0
  204458:	f1ca 0208 	rsb	r2, sl, #8
  20445c:	4308      	orrs	r0, r1
  20445e:	4090      	lsls	r0, r2
  204460:	f64f 71ff 	movw	r1, #65535	; 0xffff
  204464:	f5a1 7180 	sub.w	r1, r1, #256	; 0x100
  204468:	f640 1316 	movw	r3, #2326	; 0x916
  20446c:	b289      	uxth	r1, r1
  20446e:	fa1f f289 	uxth.w	r2, r9
  204472:	f6c2 0320 	movt	r3, #10272	; 0x2820
  204476:	8018      	strh	r0, [r3, #0]
  204478:	f640 0311 	movw	r3, #2065	; 0x811
  20447c:	428a      	cmp	r2, r1
  20447e:	4681      	mov	r9, r0
  204480:	f6c2 0320 	movt	r3, #10272	; 0x2820
  204484:	d995      	bls.n	2043b2 <processMarkers+0x36>
  204486:	f640 1114 	movw	r1, #2324	; 0x914
  20448a:	f6c2 0120 	movt	r1, #10272	; 0x2820
  20448e:	f891 8000 	ldrb.w	r8, [r1]
  204492:	f640 1128 	movw	r1, #2344	; 0x928
  204496:	f6c2 0120 	movt	r1, #10272	; 0x2820
  20449a:	6809      	ldr	r1, [r1, #0]
  20449c:	781e      	ldrb	r6, [r3, #0]
  20449e:	910b      	str	r1, [sp, #44]	; 0x2c
  2044a0:	f640 0112 	movw	r1, #2066	; 0x812
  2044a4:	f6c2 0120 	movt	r1, #10272	; 0x2820
  2044a8:	7809      	ldrb	r1, [r1, #0]
  2044aa:	9109      	str	r1, [sp, #36]	; 0x24
  2044ac:	fa5f f58a 	uxtb.w	r5, sl
  2044b0:	2d07      	cmp	r5, #7
  2044b2:	4604      	mov	r4, r0
  2044b4:	d84c      	bhi.n	204550 <processMarkers+0x1d4>
  2044b6:	0630      	lsls	r0, r6, #24
  2044b8:	d12f      	bne.n	20451a <processMarkers+0x19e>
  2044ba:	f640 1014 	movw	r0, #2324	; 0x914
  2044be:	f04f 0804 	mov.w	r8, #4
  2044c2:	f6c2 0020 	movt	r0, #10272	; 0x2820
  2044c6:	9f0b      	ldr	r7, [sp, #44]	; 0x2c
  2044c8:	f880 8000 	strb.w	r8, [r0]
  2044cc:	f240 203a 	movw	r0, #570	; 0x23a
  2044d0:	1bc6      	subs	r6, r0, r7
  2044d2:	20fc      	movs	r0, #252	; 0xfc
  2044d4:	2efc      	cmp	r6, #252	; 0xfc
  2044d6:	bf28      	it	cs
  2044d8:	4606      	movcs	r6, r0
  2044da:	f247 106c 	movw	r0, #29036	; 0x716c
  2044de:	f2c0 0020 	movt	r0, #32
  2044e2:	19c1      	adds	r1, r0, r7
  2044e4:	980a      	ldr	r0, [sp, #40]	; 0x28
  2044e6:	4632      	mov	r2, r6
  2044e8:	f7fb ffdc 	bl	2004a4 <__rt_memcpy>
  2044ec:	0630      	lsls	r0, r6, #24
  2044ee:	f640 0311 	movw	r3, #2065	; 0x811
  2044f2:	f640 1028 	movw	r0, #2344	; 0x928
  2044f6:	f6c2 0320 	movt	r3, #10272	; 0x2820
  2044fa:	4437      	add	r7, r6
  2044fc:	f6c2 0020 	movt	r0, #10272	; 0x2820
  204500:	701e      	strb	r6, [r3, #0]
  204502:	970b      	str	r7, [sp, #44]	; 0x2c
  204504:	6007      	str	r7, [r0, #0]
  204506:	f000 8130 	beq.w	20476a <processMarkers+0x3ee>
  20450a:	f640 0c10 	movw	ip, #2064	; 0x810
  20450e:	f640 0e14 	movw	lr, #2068	; 0x814
  204512:	f6c2 0c20 	movt	ip, #10272	; 0x2820
  204516:	f6c2 0e20 	movt	lr, #10272	; 0x2820
  20451a:	fa5f f088 	uxtb.w	r0, r8
  20451e:	f640 1214 	movw	r2, #2324	; 0x914
  204522:	3e01      	subs	r6, #1
  204524:	f108 0101 	add.w	r1, r8, #1
  204528:	f81e 0000 	ldrb.w	r0, [lr, r0]
  20452c:	f6c2 0220 	movt	r2, #10272	; 0x2820
  204530:	701e      	strb	r6, [r3, #0]
  204532:	7011      	strb	r1, [r2, #0]
  204534:	b2a2      	uxth	r2, r4
  204536:	b2c0      	uxtb	r0, r0
  204538:	40aa      	lsls	r2, r5
  20453a:	f1c5 0308 	rsb	r3, r5, #8
  20453e:	4310      	orrs	r0, r2
  204540:	4098      	lsls	r0, r3
  204542:	f640 0311 	movw	r3, #2065	; 0x811
  204546:	4688      	mov	r8, r1
  204548:	f6c2 0320 	movt	r3, #10272	; 0x2820
  20454c:	e005      	b.n	20455a <processMarkers+0x1de>
  20454e:	bf00      	nop
  204550:	f1aa 0a08 	sub.w	sl, sl, #8
  204554:	0220      	lsls	r0, r4, #8
  204556:	f88c a000 	strb.w	sl, [ip]
  20455a:	f3c4 2107 	ubfx	r1, r4, #8, #8
  20455e:	29ff      	cmp	r1, #255	; 0xff
  204560:	f200 813b 	bhi.w	2047da <processMarkers+0x45e>
  204564:	e8df f011 	tbh	[pc, r1, lsl #1]
  204568:	0ec10132 	.word	0x0ec10132
  20456c:	01390139 	.word	0x01390139
  204570:	01390139 	.word	0x01390139
  204574:	01390139 	.word	0x01390139
  204578:	01390139 	.word	0x01390139
  20457c:	01390139 	.word	0x01390139
  204580:	01390139 	.word	0x01390139
  204584:	01390139 	.word	0x01390139
  204588:	01390139 	.word	0x01390139
  20458c:	01390139 	.word	0x01390139
  204590:	01390139 	.word	0x01390139
  204594:	01390139 	.word	0x01390139
  204598:	01390139 	.word	0x01390139
  20459c:	01390139 	.word	0x01390139
  2045a0:	01390139 	.word	0x01390139
  2045a4:	01390139 	.word	0x01390139
  2045a8:	01390139 	.word	0x01390139
  2045ac:	01390139 	.word	0x01390139
  2045b0:	01390139 	.word	0x01390139
  2045b4:	01390139 	.word	0x01390139
  2045b8:	01390139 	.word	0x01390139
  2045bc:	01390139 	.word	0x01390139
  2045c0:	01390139 	.word	0x01390139
  2045c4:	01390139 	.word	0x01390139
  2045c8:	01390139 	.word	0x01390139
  2045cc:	01390139 	.word	0x01390139
  2045d0:	01390139 	.word	0x01390139
  2045d4:	01390139 	.word	0x01390139
  2045d8:	01390139 	.word	0x01390139
  2045dc:	01390139 	.word	0x01390139
  2045e0:	01390139 	.word	0x01390139
  2045e4:	01390139 	.word	0x01390139
  2045e8:	01390139 	.word	0x01390139
  2045ec:	01390139 	.word	0x01390139
  2045f0:	01390139 	.word	0x01390139
  2045f4:	01390139 	.word	0x01390139
  2045f8:	01390139 	.word	0x01390139
  2045fc:	01390139 	.word	0x01390139
  204600:	01390139 	.word	0x01390139
  204604:	01390139 	.word	0x01390139
  204608:	01390139 	.word	0x01390139
  20460c:	01390139 	.word	0x01390139
  204610:	01390139 	.word	0x01390139
  204614:	01390139 	.word	0x01390139
  204618:	01390139 	.word	0x01390139
  20461c:	01390139 	.word	0x01390139
  204620:	01390139 	.word	0x01390139
  204624:	01390139 	.word	0x01390139
  204628:	01390139 	.word	0x01390139
  20462c:	01390139 	.word	0x01390139
  204630:	01390139 	.word	0x01390139
  204634:	01390139 	.word	0x01390139
  204638:	01390139 	.word	0x01390139
  20463c:	01390139 	.word	0x01390139
  204640:	01390139 	.word	0x01390139
  204644:	01390139 	.word	0x01390139
  204648:	01390139 	.word	0x01390139
  20464c:	01390139 	.word	0x01390139
  204650:	01390139 	.word	0x01390139
  204654:	01390139 	.word	0x01390139
  204658:	01390139 	.word	0x01390139
  20465c:	01390139 	.word	0x01390139
  204660:	01390139 	.word	0x01390139
  204664:	01390139 	.word	0x01390139
  204668:	01390139 	.word	0x01390139
  20466c:	01390139 	.word	0x01390139
  204670:	01390139 	.word	0x01390139
  204674:	01390139 	.word	0x01390139
  204678:	01390139 	.word	0x01390139
  20467c:	01390139 	.word	0x01390139
  204680:	01390139 	.word	0x01390139
  204684:	01390139 	.word	0x01390139
  204688:	01390139 	.word	0x01390139
  20468c:	01390139 	.word	0x01390139
  204690:	01390139 	.word	0x01390139
  204694:	01390139 	.word	0x01390139
  204698:	01390139 	.word	0x01390139
  20469c:	01390139 	.word	0x01390139
  2046a0:	01390139 	.word	0x01390139
  2046a4:	01390139 	.word	0x01390139
  2046a8:	01390139 	.word	0x01390139
  2046ac:	01390139 	.word	0x01390139
  2046b0:	01390139 	.word	0x01390139
  2046b4:	01390139 	.word	0x01390139
  2046b8:	01390139 	.word	0x01390139
  2046bc:	01390139 	.word	0x01390139
  2046c0:	01390139 	.word	0x01390139
  2046c4:	01390139 	.word	0x01390139
  2046c8:	01390139 	.word	0x01390139
  2046cc:	01390139 	.word	0x01390139
  2046d0:	01390139 	.word	0x01390139
  2046d4:	01390139 	.word	0x01390139
  2046d8:	01390139 	.word	0x01390139
  2046dc:	01390139 	.word	0x01390139
  2046e0:	01390139 	.word	0x01390139
  2046e4:	01390139 	.word	0x01390139
  2046e8:	0eb60eb6 	.word	0x0eb60eb6
  2046ec:	0eb60eb6 	.word	0x0eb60eb6
  2046f0:	0eb601da 	.word	0x0eb601da
  2046f4:	0eb60eb6 	.word	0x0eb60eb6
  2046f8:	0eb60ec1 	.word	0x0eb60ec1
  2046fc:	0eb60eb6 	.word	0x0eb60eb6
  204700:	0eb60eca 	.word	0x0eb60eca
  204704:	0eb60eb6 	.word	0x0eb60eb6
  204708:	0ec10ec1 	.word	0x0ec10ec1
  20470c:	0ec10ec1 	.word	0x0ec10ec1
  204710:	0ec10ec1 	.word	0x0ec10ec1
  204714:	0ec10ec1 	.word	0x0ec10ec1
  204718:	0eb60eb6 	.word	0x0eb60eb6
  20471c:	02820eb6 	.word	0x02820eb6
  204720:	03230139 	.word	0x03230139
  204724:	01390139 	.word	0x01390139
  204728:	01390139 	.word	0x01390139
  20472c:	01390139 	.word	0x01390139
  204730:	01390139 	.word	0x01390139
  204734:	01390139 	.word	0x01390139
  204738:	01390139 	.word	0x01390139
  20473c:	01390139 	.word	0x01390139
  204740:	01390139 	.word	0x01390139
  204744:	01390139 	.word	0x01390139
  204748:	01390139 	.word	0x01390139
  20474c:	01390139 	.word	0x01390139
  204750:	01390139 	.word	0x01390139
  204754:	01390139 	.word	0x01390139
  204758:	01390139 	.word	0x01390139
  20475c:	01390139 	.word	0x01390139
  204760:	01390139 	.word	0x01390139
  204764:	01000139 	.word	0x01000139
  204768:	e6a0      	b.n	2044ac <processMarkers+0x130>
  20476a:	9809      	ldr	r0, [sp, #36]	; 0x24
  20476c:	f640 0c10 	movw	ip, #2064	; 0x810
  204770:	28ff      	cmp	r0, #255	; 0xff
  204772:	f080 02ff 	eor.w	r2, r0, #255	; 0xff
  204776:	f640 0012 	movw	r0, #2066	; 0x812
  20477a:	f6c2 0020 	movt	r0, #10272	; 0x2820
  20477e:	f640 0e14 	movw	lr, #2068	; 0x814
  204782:	7002      	strb	r2, [r0, #0]
  204784:	f04f 30ff 	mov.w	r0, #4294967295
  204788:	f04f 0104 	mov.w	r1, #4
  20478c:	bf08      	it	eq
  20478e:	f06f 0026 	mvneq.w	r0, #38	; 0x26
  204792:	2600      	movs	r6, #0
  204794:	f6c2 0c20 	movt	ip, #10272	; 0x2820
  204798:	f6c2 0e20 	movt	lr, #10272	; 0x2820
  20479c:	9209      	str	r2, [sp, #36]	; 0x24
  20479e:	e6c9      	b.n	204534 <processMarkers+0x1b8>
  2047a0:	f640 0212 	movw	r2, #2066	; 0x812
  2047a4:	f6c2 0220 	movt	r2, #10272	; 0x2820
  2047a8:	7810      	ldrb	r0, [r2, #0]
  2047aa:	f640 0c10 	movw	ip, #2064	; 0x810
  2047ae:	f640 0e14 	movw	lr, #2068	; 0x814
  2047b2:	43c1      	mvns	r1, r0
  2047b4:	28ff      	cmp	r0, #255	; 0xff
  2047b6:	f04f 30ff 	mov.w	r0, #4294967295
  2047ba:	f6c2 0c20 	movt	ip, #10272	; 0x2820
  2047be:	f6c2 0e20 	movt	lr, #10272	; 0x2820
  2047c2:	7011      	strb	r1, [r2, #0]
  2047c4:	bf08      	it	eq
  2047c6:	f06f 0026 	mvneq.w	r0, #38	; 0x26
  2047ca:	e63f      	b.n	20444c <processMarkers+0xd0>
  2047cc:	f640 1116 	movw	r1, #2326	; 0x916
  2047d0:	f6c2 0120 	movt	r1, #10272	; 0x2820
  2047d4:	8008      	strh	r0, [r1, #0]
  2047d6:	4681      	mov	r9, r0
  2047d8:	e5eb      	b.n	2043b2 <processMarkers+0x36>
  2047da:	b284      	uxth	r4, r0
  2047dc:	0630      	lsls	r0, r6, #24
  2047de:	f8cd a030 	str.w	sl, [sp, #48]	; 0x30
  2047e2:	fa5f fa8a 	uxtb.w	sl, sl
  2047e6:	f640 1016 	movw	r0, #2326	; 0x916
  2047ea:	fa04 f50a 	lsl.w	r5, r4, sl
  2047ee:	f6c2 0020 	movt	r0, #10272	; 0x2820
  2047f2:	8005      	strh	r5, [r0, #0]
  2047f4:	d131      	bne.n	20485a <processMarkers+0x4de>
  2047f6:	f640 1014 	movw	r0, #2324	; 0x914
  2047fa:	4627      	mov	r7, r4
  2047fc:	f04f 0804 	mov.w	r8, #4
  204800:	f6c2 0020 	movt	r0, #10272	; 0x2820
  204804:	9c0b      	ldr	r4, [sp, #44]	; 0x2c
  204806:	f880 8000 	strb.w	r8, [r0]
  20480a:	f240 203a 	movw	r0, #570	; 0x23a
  20480e:	1b06      	subs	r6, r0, r4
  204810:	20fc      	movs	r0, #252	; 0xfc
  204812:	2efc      	cmp	r6, #252	; 0xfc
  204814:	bf28      	it	cs
  204816:	4606      	movcs	r6, r0
  204818:	f247 106c 	movw	r0, #29036	; 0x716c
  20481c:	f2c0 0020 	movt	r0, #32
  204820:	1901      	adds	r1, r0, r4
  204822:	980a      	ldr	r0, [sp, #40]	; 0x28
  204824:	4632      	mov	r2, r6
  204826:	f7fb fe3d 	bl	2004a4 <__rt_memcpy>
  20482a:	0630      	lsls	r0, r6, #24
  20482c:	f640 0311 	movw	r3, #2065	; 0x811
  204830:	f640 1028 	movw	r0, #2344	; 0x928
  204834:	f6c2 0320 	movt	r3, #10272	; 0x2820
  204838:	4434      	add	r4, r6
  20483a:	f6c2 0020 	movt	r0, #10272	; 0x2820
  20483e:	701e      	strb	r6, [r3, #0]
  204840:	940b      	str	r4, [sp, #44]	; 0x2c
  204842:	6004      	str	r4, [r0, #0]
  204844:	f001 8312 	beq.w	205e6c <processMarkers+0x1af0>
  204848:	f640 0c10 	movw	ip, #2064	; 0x810
  20484c:	f640 0e14 	movw	lr, #2068	; 0x814
  204850:	f6c2 0c20 	movt	ip, #10272	; 0x2820
