
../../Example/out/eval/O3/elf_ns/qrduino.axf:     file format elf32-littlearm


Disassembly of section ER_ROM:

00200000 <__Vectors>:
  200000:	00 00 40 28 6d 07 20 00 65 07 20 00 69 07 20 00     ..@(m. .e. .i. .
  200010:	65 07 20 00 65 07 20 00 65 07 20 00 65 07 20 00     e. .e. .e. .e. .
	...
  20002c:	65 07 20 00 65 07 20 00 00 00 00 00 65 07 20 00     e. .e. .....e. .
  20003c:	65 07 20 00 65 07 20 00 65 07 20 00 65 07 20 00     e. .e. .e. .e. .
  20004c:	65 07 20 00 65 07 20 00 65 07 20 00 00 00 00 00     e. .e. .e. .....
	...
  200064:	65 07 20 00 65 07 20 00 65 07 20 00 65 07 20 00     e. .e. .e. .e. .
	...
  2000c0:	65 07 20 00 65 07 20 00 65 07 20 00 65 07 20 00     e. .e. .e. .e. .
  2000d0:	65 07 20 00 65 07 20 00 65 07 20 00 65 07 20 00     e. .e. .e. .e. .
  2000e0:	65 07 20 00 65 07 20 00 65 07 20 00 65 07 20 00     e. .e. .e. .e. .
  2000f0:	65 07 20 00 65 07 20 00 65 07 20 00 65 07 20 00     e. .e. .e. .e. .
  200100:	65 07 20 00 65 07 20 00 65 07 20 00 65 07 20 00     e. .e. .e. .e. .
  200110:	65 07 20 00 65 07 20 00 65 07 20 00 65 07 20 00     e. .e. .e. .e. .
  200120:	65 07 20 00 65 07 20 00 65 07 20 00 65 07 20 00     e. .e. .e. .e. .
  200130:	65 07 20 00 65 07 20 00 65 07 20 00 65 07 20 00     e. .e. .e. .e. .
  200140:	65 07 20 00 65 07 20 00 65 07 20 00 65 07 20 00     e. .e. .e. .e. .
  200150:	65 07 20 00 65 07 20 00 65 07 20 00 65 07 20 00     e. .e. .e. .e. .
  200160:	65 07 20 00 65 07 20 00 65 07 20 00 65 07 20 00     e. .e. .e. .e. .
  200170:	65 07 20 00 65 07 20 00 65 07 20 00 65 07 20 00     e. .e. .e. .e. .
  200180:	65 07 20 00 65 07 20 00 65 07 20 00 65 07 20 00     e. .e. .e. .e. .
  200190:	65 07 20 00 65 07 20 00 65 07 20 00 65 07 20 00     e. .e. .e. .e. .
  2001a0:	65 07 20 00 65 07 20 00 65 07 20 00 65 07 20 00     e. .e. .e. .e. .
  2001b0:	65 07 20 00 65 07 20 00 65 07 20 00 65 07 20 00     e. .e. .e. .e. .
  2001c0:	65 07 20 00 65 07 20 00 65 07 20 00 65 07 20 00     e. .e. .e. .e. .
  2001d0:	65 07 20 00 65 07 20 00 65 07 20 00 65 07 20 00     e. .e. .e. .e. .
  2001e0:	65 07 20 00 65 07 20 00 65 07 20 00 65 07 20 00     e. .e. .e. .e. .
  2001f0:	65 07 20 00 65 07 20 00 65 07 20 00 65 07 20 00     e. .e. .e. .e. .
  200200:	65 07 20 00 65 07 20 00 65 07 20 00 65 07 20 00     e. .e. .e. .e. .
  200210:	65 07 20 00 65 07 20 00 65 07 20 00 65 07 20 00     e. .e. .e. .e. .
  200220:	65 07 20 00 65 07 20 00 65 07 20 00 65 07 20 00     e. .e. .e. .e. .
	...

00200400 <__main>:
  200400:	f000 f802 	bl	200408 <__scatterload_rt2>
  200404:	f000 f82e 	bl	200464 <__rt_entry>

00200408 <__scatterload_rt2>:
  200408:	a00a      	add	r0, pc, #40	; (adr r0, 200434 <__scatterload_null+0x1e>)
  20040a:	e890 0c00 	ldmia.w	r0, {sl, fp}
  20040e:	4482      	add	sl, r0
  200410:	4483      	add	fp, r0
  200412:	f1aa 0701 	sub.w	r7, sl, #1

00200416 <__scatterload_null>:
  200416:	45da      	cmp	sl, fp
  200418:	d101      	bne.n	20041e <__scatterload_null+0x8>
  20041a:	f000 f823 	bl	200464 <__rt_entry>
  20041e:	f2af 0e09 	subw	lr, pc, #9
  200422:	e8ba 000f 	ldmia.w	sl!, {r0, r1, r2, r3}
  200426:	f013 0f01 	tst.w	r3, #1
  20042a:	bf18      	it	ne
  20042c:	1afb      	subne	r3, r7, r3
  20042e:	f043 0301 	orr.w	r3, r3, #1
  200432:	4718      	bx	r3
  200434:	00004684 	.word	0x00004684
  200438:	00004694 	.word	0x00004694

0020043c <__scatterload_zeroinit>:
  20043c:	2300      	movs	r3, #0
  20043e:	2400      	movs	r4, #0
  200440:	2500      	movs	r5, #0
  200442:	2600      	movs	r6, #0
  200444:	3a10      	subs	r2, #16
  200446:	bf28      	it	cs
  200448:	c178      	stmiacs	r1!, {r3, r4, r5, r6}
  20044a:	d8fb      	bhi.n	200444 <__scatterload_zeroinit+0x8>
  20044c:	0752      	lsls	r2, r2, #29
  20044e:	bf28      	it	cs
  200450:	c130      	stmiacs	r1!, {r4, r5}
  200452:	bf48      	it	mi
  200454:	600b      	strmi	r3, [r1, #0]
  200456:	4770      	bx	lr

00200458 <__rt_lib_init>:
  200458:	b51f      	push	{r0, r1, r2, r3, r4, lr}

0020045a <__rt_lib_init_fp_1>:
  20045a:	f004 f8d4 	bl	204606 <_fp_init>

0020045e <__rt_lib_init_alloca_1>:
  20045e:	bd1f      	pop	{r0, r1, r2, r3, r4, pc}

00200460 <__rt_lib_shutdown>:
  200460:	b510      	push	{r4, lr}

00200462 <__rt_lib_shutdown_cpp_1>:
  200462:	bd10      	pop	{r4, pc}

00200464 <__rt_entry>:
  200464:	f8df d00c 	ldr.w	sp, [pc, #12]	; 200474 <__lit__00000000>

00200468 <__rt_entry_li>:
  200468:	f7ff fff6 	bl	200458 <__rt_lib_init>

0020046c <__rt_entry_main>:
  20046c:	f003 fe60 	bl	204130 <main>
  200470:	f000 f827 	bl	2004c2 <exit>

00200474 <__lit__00000000>:
  200474:	0000 2840                                   ..@(

00200478 <__rt_exit>:
  200478:	b403      	push	{r0, r1}

0020047a <__rt_exit_ls>:
  20047a:	f7ff fff1 	bl	200460 <__rt_lib_shutdown>

0020047e <__rt_exit_exit>:
  20047e:	bc03      	pop	{r0, r1}
  200480:	f000 f82a 	bl	2004d8 <_sys_exit>

00200484 <strlen>:
  200484:	b510      	push	{r4, lr}
  200486:	1c43      	adds	r3, r0, #1
  200488:	e002      	b.n	200490 <strlen+0xc>
  20048a:	f810 1b01 	ldrb.w	r1, [r0], #1
  20048e:	b171      	cbz	r1, 2004ae <strlen+0x2a>
  200490:	0781      	lsls	r1, r0, #30
  200492:	d1fa      	bne.n	20048a <strlen+0x6>
  200494:	f04f 3201 	mov.w	r2, #16843009	; 0x1010101
  200498:	c802      	ldmia	r0!, {r1}
  20049a:	1a8c      	subs	r4, r1, r2
  20049c:	438c      	bics	r4, r1
  20049e:	ea14 11c2 	ands.w	r1, r4, r2, lsl #7
  2004a2:	d0f9      	beq.n	200498 <strlen+0x14>
  2004a4:	1ac0      	subs	r0, r0, r3
  2004a6:	060a      	lsls	r2, r1, #24
  2004a8:	d003      	beq.n	2004b2 <strlen+0x2e>
  2004aa:	1ec0      	subs	r0, r0, #3
  2004ac:	bd10      	pop	{r4, pc}
  2004ae:	1ac0      	subs	r0, r0, r3
  2004b0:	bd10      	pop	{r4, pc}
  2004b2:	040a      	lsls	r2, r1, #16
  2004b4:	d001      	beq.n	2004ba <strlen+0x36>
  2004b6:	1e80      	subs	r0, r0, #2
  2004b8:	bd10      	pop	{r4, pc}
  2004ba:	0209      	lsls	r1, r1, #8
  2004bc:	d0fc      	beq.n	2004b8 <strlen+0x34>
  2004be:	1e40      	subs	r0, r0, #1
  2004c0:	bd10      	pop	{r4, pc}

002004c2 <exit>:
  2004c2:	b510      	push	{r4, lr}
  2004c4:	4604      	mov	r4, r0
  2004c6:	f3af 8000 	nop.w
  2004ca:	4620      	mov	r0, r4
  2004cc:	e8bd 4010 	ldmia.w	sp!, {r4, lr}
  2004d0:	f7ff bfd2 	b.w	200478 <__rt_exit>

002004d4 <__use_no_semihosting_swi>:
  2004d4:	4770      	bx	lr

002004d6 <__semihosting_library_function>:
	...

002004d8 <_sys_exit>:
  2004d8:	4901      	ldr	r1, [pc, #4]	; (2004e0 <_sys_exit+0x8>)
  2004da:	2018      	movs	r0, #24
  2004dc:	beab      	bkpt	0x00ab
  2004de:	e7fe      	b.n	2004de <_sys_exit+0x6>
  2004e0:	00020026 	.word	0x00020026

002004e4 <__rt_memcpy>:
  2004e4:	2a03      	cmp	r2, #3
  2004e6:	f240 8030 	bls.w	20054a <_memcpy_lastbytes>
  2004ea:	f010 0c03 	ands.w	ip, r0, #3
  2004ee:	f000 8015 	beq.w	20051c <__rt_memcpy+0x38>
  2004f2:	f811 3b01 	ldrb.w	r3, [r1], #1
  2004f6:	f1bc 0f02 	cmp.w	ip, #2
  2004fa:	4462      	add	r2, ip
  2004fc:	bf98      	it	ls
  2004fe:	f811 cb01 	ldrbls.w	ip, [r1], #1
  200502:	f800 3b01 	strb.w	r3, [r0], #1
  200506:	bf38      	it	cc
  200508:	f811 3b01 	ldrbcc.w	r3, [r1], #1
  20050c:	f1a2 0204 	sub.w	r2, r2, #4
  200510:	bf98      	it	ls
  200512:	f800 cb01 	strbls.w	ip, [r0], #1
  200516:	bf38      	it	cc
  200518:	f800 3b01 	strbcc.w	r3, [r0], #1
  20051c:	f011 0303 	ands.w	r3, r1, #3
  200520:	f000 8089 	beq.w	200636 <__rt_memcpy_w>
  200524:	3a08      	subs	r2, #8
  200526:	f0c0 8008 	bcc.w	20053a <__rt_memcpy+0x56>
  20052a:	f851 3b04 	ldr.w	r3, [r1], #4
  20052e:	3a08      	subs	r2, #8
  200530:	f851 cb04 	ldr.w	ip, [r1], #4
  200534:	e8a0 1008 	stmia.w	r0!, {r3, ip}
  200538:	e7f5      	b.n	200526 <__rt_memcpy+0x42>
  20053a:	1d12      	adds	r2, r2, #4
  20053c:	bf5c      	itt	pl
  20053e:	f851 3b04 	ldrpl.w	r3, [r1], #4
  200542:	f840 3b04 	strpl.w	r3, [r0], #4
  200546:	f3af 8000 	nop.w

0020054a <_memcpy_lastbytes>:
  20054a:	07d2      	lsls	r2, r2, #31
  20054c:	bf24      	itt	cs
  20054e:	f811 3b01 	ldrbcs.w	r3, [r1], #1
  200552:	f811 cb01 	ldrbcs.w	ip, [r1], #1
  200556:	bf48      	it	mi
  200558:	f811 2b01 	ldrbmi.w	r2, [r1], #1
  20055c:	bf24      	itt	cs
  20055e:	f800 3b01 	strbcs.w	r3, [r0], #1
  200562:	f800 cb01 	strbcs.w	ip, [r0], #1
  200566:	bf48      	it	mi
  200568:	f800 2b01 	strbmi.w	r2, [r0], #1
  20056c:	4770      	bx	lr

0020056e <__rt_memmove>:
  20056e:	1a43      	subs	r3, r0, r1
  200570:	bf28      	it	cs
  200572:	429a      	cmpcs	r2, r3
  200574:	f67f afb6 	bls.w	2004e4 <__rt_memcpy>
  200578:	4410      	add	r0, r2
  20057a:	4411      	add	r1, r2
  20057c:	2a03      	cmp	r2, #3
  20057e:	f240 8026 	bls.w	2005ce <__memmove_lastfew>
  200582:	f010 0f03 	tst.w	r0, #3
  200586:	bf1e      	ittt	ne
  200588:	f811 3d01 	ldrbne.w	r3, [r1, #-1]!
  20058c:	1e52      	subne	r2, r2, #1
  20058e:	f800 3d01 	strbne.w	r3, [r0, #-1]!
  200592:	f010 0f03 	tst.w	r0, #3
  200596:	f47f aff6 	bne.w	200586 <__rt_memmove+0x18>
  20059a:	f011 0303 	ands.w	r3, r1, #3
  20059e:	f000 808f 	beq.w	2006c0 <__memmove_aligned>
  2005a2:	3a08      	subs	r2, #8
  2005a4:	f0c0 800b 	bcc.w	2005be <__rt_memmove+0x50>
  2005a8:	f851 3d04 	ldr.w	r3, [r1, #-4]!
  2005ac:	3a08      	subs	r2, #8
  2005ae:	f851 cd04 	ldr.w	ip, [r1, #-4]!
  2005b2:	f840 3d04 	str.w	r3, [r0, #-4]!
  2005b6:	f840 cd04 	str.w	ip, [r0, #-4]!
  2005ba:	f7ff bff3 	b.w	2005a4 <__rt_memmove+0x36>
  2005be:	1d12      	adds	r2, r2, #4
  2005c0:	bf5c      	itt	pl
  2005c2:	f851 3d04 	ldrpl.w	r3, [r1, #-4]!
  2005c6:	f840 3d04 	strpl.w	r3, [r0, #-4]!
  2005ca:	f3af 8000 	nop.w

002005ce <__memmove_lastfew>:
  2005ce:	07d2      	lsls	r2, r2, #31
  2005d0:	bf24      	itt	cs
  2005d2:	f811 3d01 	ldrbcs.w	r3, [r1, #-1]!
  2005d6:	f811 cd01 	ldrbcs.w	ip, [r1, #-1]!
  2005da:	bf48      	it	mi
  2005dc:	f811 2c01 	ldrbmi.w	r2, [r1, #-1]
  2005e0:	bf24      	itt	cs
  2005e2:	f800 3d01 	strbcs.w	r3, [r0, #-1]!
  2005e6:	f800 cd01 	strbcs.w	ip, [r0, #-1]!
  2005ea:	bf48      	it	mi
  2005ec:	f800 2c01 	strbmi.w	r2, [r0, #-1]
  2005f0:	4770      	bx	lr

002005f2 <__aeabi_memclr>:
  2005f2:	f04f 0200 	mov.w	r2, #0

002005f6 <_memset>:
  2005f6:	2904      	cmp	r1, #4
  2005f8:	f0c0 8012 	bcc.w	200620 <_memset+0x2a>
  2005fc:	f010 0c03 	ands.w	ip, r0, #3
  200600:	f000 808a 	beq.w	200718 <_memset_w>
  200604:	f1cc 0c04 	rsb	ip, ip, #4
  200608:	f1bc 0f02 	cmp.w	ip, #2
  20060c:	bf18      	it	ne
  20060e:	f800 2b01 	strbne.w	r2, [r0], #1
  200612:	bfa8      	it	ge
  200614:	f820 2b02 	strhge.w	r2, [r0], #2
  200618:	eba1 010c 	sub.w	r1, r1, ip
  20061c:	f000 b87c 	b.w	200718 <_memset_w>
  200620:	ea5f 7cc1 	movs.w	ip, r1, lsl #31
  200624:	bf24      	itt	cs
  200626:	f800 2b01 	strbcs.w	r2, [r0], #1
  20062a:	f800 2b01 	strbcs.w	r2, [r0], #1
  20062e:	bf48      	it	mi
  200630:	f800 2b01 	strbmi.w	r2, [r0], #1
  200634:	4770      	bx	lr

00200636 <__rt_memcpy_w>:
  200636:	b510      	push	{r4, lr}
  200638:	3a20      	subs	r2, #32
  20063a:	f0c0 800b 	bcc.w	200654 <__rt_memcpy_w+0x1e>
  20063e:	e8b1 5018 	ldmia.w	r1!, {r3, r4, ip, lr}
  200642:	e8a0 5018 	stmia.w	r0!, {r3, r4, ip, lr}
  200646:	e8b1 5018 	ldmia.w	r1!, {r3, r4, ip, lr}
  20064a:	e8a0 5018 	stmia.w	r0!, {r3, r4, ip, lr}
  20064e:	3a20      	subs	r2, #32
  200650:	f4bf aff5 	bcs.w	20063e <__rt_memcpy_w+0x8>
  200654:	ea5f 7c02 	movs.w	ip, r2, lsl #28
  200658:	bf24      	itt	cs
  20065a:	e8b1 5018 	ldmiacs.w	r1!, {r3, r4, ip, lr}
  20065e:	e8a0 5018 	stmiacs.w	r0!, {r3, r4, ip, lr}
  200662:	bf44      	itt	mi
  200664:	c918      	ldmiami	r1!, {r3, r4}
  200666:	c018      	stmiami	r0!, {r3, r4}
  200668:	e8bd 4010 	ldmia.w	sp!, {r4, lr}
  20066c:	ea5f 7c82 	movs.w	ip, r2, lsl #30
  200670:	bf24      	itt	cs
  200672:	f851 3b04 	ldrcs.w	r3, [r1], #4
  200676:	f840 3b04 	strcs.w	r3, [r0], #4
  20067a:	bf08      	it	eq
  20067c:	4770      	bxeq	lr

0020067e <_memcpy_lastbytes_aligned>:
  20067e:	07d2      	lsls	r2, r2, #31
  200680:	bf28      	it	cs
  200682:	f831 3b02 	ldrhcs.w	r3, [r1], #2
  200686:	bf48      	it	mi
  200688:	f811 2b01 	ldrbmi.w	r2, [r1], #1
  20068c:	bf28      	it	cs
  20068e:	f820 3b02 	strhcs.w	r3, [r0], #2
  200692:	bf48      	it	mi
  200694:	f800 2b01 	strbmi.w	r2, [r0], #1
  200698:	4770      	bx	lr

0020069a <__rt_memmove_w>:
  20069a:	1a43      	subs	r3, r0, r1
  20069c:	bf28      	it	cs
  20069e:	429a      	cmpcs	r2, r3
  2006a0:	f67f afc9 	bls.w	200636 <__rt_memcpy_w>
  2006a4:	4410      	add	r0, r2
  2006a6:	4411      	add	r1, r2
  2006a8:	f010 0f03 	tst.w	r0, #3
  2006ac:	bf1e      	ittt	ne
  2006ae:	f811 3d01 	ldrbne.w	r3, [r1, #-1]!
  2006b2:	1e52      	subne	r2, r2, #1
  2006b4:	f800 3d01 	strbne.w	r3, [r0, #-1]!
  2006b8:	f010 0f03 	tst.w	r0, #3
  2006bc:	f47f aff6 	bne.w	2006ac <__rt_memmove_w+0x12>

002006c0 <__memmove_aligned>:
  2006c0:	3a10      	subs	r2, #16
  2006c2:	f0c0 800a 	bcc.w	2006da <__memmove_aligned+0x1a>
  2006c6:	b510      	push	{r4, lr}
  2006c8:	e931 5018 	ldmdb	r1!, {r3, r4, ip, lr}
  2006cc:	e920 5018 	stmdb	r0!, {r3, r4, ip, lr}
  2006d0:	3a10      	subs	r2, #16
  2006d2:	f4bf aff9 	bcs.w	2006c8 <__memmove_aligned+0x8>
  2006d6:	e8bd 4010 	ldmia.w	sp!, {r4, lr}
  2006da:	0753      	lsls	r3, r2, #29
  2006dc:	bf24      	itt	cs
  2006de:	e931 1008 	ldmdbcs	r1!, {r3, ip}
  2006e2:	e920 1008 	stmdbcs	r0!, {r3, ip}
  2006e6:	bf44      	itt	mi
  2006e8:	f851 3d04 	ldrmi.w	r3, [r1, #-4]!
  2006ec:	f840 3d04 	strmi.w	r3, [r0, #-4]!
  2006f0:	f012 0f03 	tst.w	r2, #3
  2006f4:	bf08      	it	eq
  2006f6:	4770      	bxeq	lr

002006f8 <__memmove_lastfew_aligned>:
  2006f8:	07d2      	lsls	r2, r2, #31
  2006fa:	bf28      	it	cs
  2006fc:	f831 3d02 	ldrhcs.w	r3, [r1, #-2]!
  200700:	bf48      	it	mi
  200702:	f811 2c01 	ldrbmi.w	r2, [r1, #-1]
  200706:	bf28      	it	cs
  200708:	f820 3d02 	strhcs.w	r3, [r0, #-2]!
  20070c:	bf48      	it	mi
  20070e:	f800 2c01 	strbmi.w	r2, [r0, #-1]
  200712:	4770      	bx	lr

00200714 <__aeabi_memclr4>:
  200714:	f04f 0200 	mov.w	r2, #0

00200718 <_memset_w>:
  200718:	b500      	push	{lr}
  20071a:	4613      	mov	r3, r2
  20071c:	4694      	mov	ip, r2
  20071e:	4696      	mov	lr, r2
  200720:	3920      	subs	r1, #32
  200722:	bf22      	ittt	cs
  200724:	e8a0 500c 	stmiacs.w	r0!, {r2, r3, ip, lr}
  200728:	e8a0 500c 	stmiacs.w	r0!, {r2, r3, ip, lr}
  20072c:	f1b1 0120 	subscs.w	r1, r1, #32
  200730:	f4bf aff7 	bcs.w	200722 <_memset_w+0xa>
  200734:	0709      	lsls	r1, r1, #28
  200736:	bf28      	it	cs
  200738:	e8a0 500c 	stmiacs.w	r0!, {r2, r3, ip, lr}
  20073c:	bf48      	it	mi
  20073e:	c00c      	stmiami	r0!, {r2, r3}
  200740:	f85d eb04 	ldr.w	lr, [sp], #4
  200744:	0089      	lsls	r1, r1, #2
  200746:	bf28      	it	cs
  200748:	f840 2b04 	strcs.w	r2, [r0], #4
  20074c:	bf08      	it	eq
  20074e:	4770      	bxeq	lr
  200750:	bf48      	it	mi
  200752:	f820 2b02 	strhmi.w	r2, [r0], #2
  200756:	f011 4f80 	tst.w	r1, #1073741824	; 0x40000000
  20075a:	bf18      	it	ne
  20075c:	f800 2b01 	strbne.w	r2, [r0], #1
  200760:	4770      	bx	lr
	...

00200764 <Default_Handler>:
  200764:	e7fe      	b.n	200764 <Default_Handler>
	...

00200768 <HardFault_Handler>:
  200768:	e7fe      	b.n	200768 <HardFault_Handler>
	...

0020076c <Reset_Handler>:
  20076c:	f240 0000 	movw	r0, #0
  200770:	f6c2 0040 	movt	r0, #10304	; 0x2840
  200774:	f380 8809 	msr	PSP, r0
  200778:	f240 0000 	movw	r0, #0
  20077c:	f64e 5288 	movw	r2, #60808	; 0xed88
  200780:	f64f 4100 	movw	r1, #64512	; 0xfc00
  200784:	f2c0 0020 	movt	r0, #32
  200788:	f2ce 0200 	movt	r2, #57344	; 0xe000
  20078c:	f6c2 013f 	movt	r1, #10303	; 0x283f
  200790:	f381 880a 	msr	MSPLIM, r1
  200794:	f381 880b 	msr	PSPLIM, r1
  200798:	f842 0c80 	str.w	r0, [r2, #-128]
  20079c:	6810      	ldr	r0, [r2, #0]
  20079e:	f440 0070 	orr.w	r0, r0, #15728640	; 0xf00000
  2007a2:	6010      	str	r0, [r2, #0]
  2007a4:	f7ff fe2c 	bl	200400 <__main>

002007a8 <appendrs>:
  2007a8:	e92d 4ff0 	stmdb	sp!, {r4, r5, r6, r7, r8, r9, sl, fp, lr}
  2007ac:	b087      	sub	sp, #28
  2007ae:	460c      	mov	r4, r1
  2007b0:	9006      	str	r0, [sp, #24]
  2007b2:	4610      	mov	r0, r2
  2007b4:	4619      	mov	r1, r3
  2007b6:	4690      	mov	r8, r2
  2007b8:	9303      	str	r3, [sp, #12]
  2007ba:	f7ff ff1a 	bl	2005f2 <__aeabi_memclr>
  2007be:	2c00      	cmp	r4, #0
  2007c0:	f000 81f2 	beq.w	200ba8 <appendrs+0x400>
  2007c4:	9903      	ldr	r1, [sp, #12]
  2007c6:	9f10      	ldr	r7, [sp, #64]	; 0x40
  2007c8:	46a6      	mov	lr, r4
  2007ca:	1e4c      	subs	r4, r1, #1
  2007cc:	f108 0001 	add.w	r0, r8, #1
  2007d0:	9005      	str	r0, [sp, #20]
  2007d2:	f240 80df 	bls.w	200994 <appendrs+0x1ec>
  2007d6:	1e88      	subs	r0, r1, #2
  2007d8:	f644 19b6 	movw	r9, #18870	; 0x49b6
  2007dc:	f004 0503 	and.w	r5, r4, #3
  2007e0:	f024 0a03 	bic.w	sl, r4, #3
  2007e4:	9002      	str	r0, [sp, #8]
  2007e6:	4438      	add	r0, r7
  2007e8:	f04f 0b00 	mov.w	fp, #0
  2007ec:	f2c0 0920 	movt	r9, #32
  2007f0:	9001      	str	r0, [sp, #4]
  2007f2:	9504      	str	r5, [sp, #16]
  2007f4:	e015      	b.n	200822 <appendrs+0x7a>
  2007f6:	bf00      	nop
  2007f8:	7839      	ldrb	r1, [r7, #0]
  2007fa:	4664      	mov	r4, ip
  2007fc:	4408      	add	r0, r1
  2007fe:	1c41      	adds	r1, r0, #1
  200800:	b2c9      	uxtb	r1, r1
  200802:	f1b1 02ff 	subs.w	r2, r1, #255	; 0xff
  200806:	bf18      	it	ne
  200808:	460a      	movne	r2, r1
  20080a:	28fe      	cmp	r0, #254	; 0xfe
  20080c:	bf98      	it	ls
  20080e:	4602      	movls	r2, r0
  200810:	f819 0002 	ldrb.w	r0, [r9, r2]
  200814:	f10b 0b01 	add.w	fp, fp, #1
  200818:	45f3      	cmp	fp, lr
  20081a:	f808 0004 	strb.w	r0, [r8, r4]
  20081e:	f000 81c3 	beq.w	200ba8 <appendrs+0x400>
  200822:	9806      	ldr	r0, [sp, #24]
  200824:	f898 1000 	ldrb.w	r1, [r8]
  200828:	f810 000b 	ldrb.w	r0, [r0, fp]
  20082c:	4048      	eors	r0, r1
  20082e:	d00b      	beq.n	200848 <appendrs+0xa0>
  200830:	f244 6120 	movw	r1, #17952	; 0x4620
  200834:	f2c0 0120 	movt	r1, #32
  200838:	5c08      	ldrb	r0, [r1, r0]
  20083a:	9902      	ldr	r1, [sp, #8]
  20083c:	46a4      	mov	ip, r4
  20083e:	2903      	cmp	r1, #3
  200840:	d20c      	bcs.n	20085c <appendrs+0xb4>
  200842:	2101      	movs	r1, #1
  200844:	e05a      	b.n	2008fc <appendrs+0x154>
  200846:	bf00      	nop
  200848:	9905      	ldr	r1, [sp, #20]
  20084a:	4640      	mov	r0, r8
  20084c:	4622      	mov	r2, r4
  20084e:	4675      	mov	r5, lr
  200850:	f7ff fe8d 	bl	20056e <__rt_memmove>
  200854:	46ae      	mov	lr, r5
  200856:	9d04      	ldr	r5, [sp, #16]
  200858:	2000      	movs	r0, #0
  20085a:	e7db      	b.n	200814 <appendrs+0x6c>
  20085c:	9a01      	ldr	r2, [sp, #4]
  20085e:	2100      	movs	r1, #0
  200860:	7857      	ldrb	r7, [r2, #1]
  200862:	eb08 0301 	add.w	r3, r8, r1
  200866:	4407      	add	r7, r0
  200868:	1c7e      	adds	r6, r7, #1
  20086a:	b2f6      	uxtb	r6, r6
  20086c:	f1b6 05ff 	subs.w	r5, r6, #255	; 0xff
  200870:	bf18      	it	ne
  200872:	4635      	movne	r5, r6
  200874:	2ffe      	cmp	r7, #254	; 0xfe
  200876:	bf98      	it	ls
  200878:	463d      	movls	r5, r7
  20087a:	f819 7005 	ldrb.w	r7, [r9, r5]
  20087e:	785e      	ldrb	r6, [r3, #1]
  200880:	4077      	eors	r7, r6
  200882:	f808 7001 	strb.w	r7, [r8, r1]
  200886:	7817      	ldrb	r7, [r2, #0]
  200888:	789e      	ldrb	r6, [r3, #2]
  20088a:	4407      	add	r7, r0
  20088c:	1c7d      	adds	r5, r7, #1
  20088e:	b2ed      	uxtb	r5, r5
  200890:	f1b5 04ff 	subs.w	r4, r5, #255	; 0xff
  200894:	bf18      	it	ne
  200896:	462c      	movne	r4, r5
  200898:	2ffe      	cmp	r7, #254	; 0xfe
  20089a:	bf98      	it	ls
  20089c:	463c      	movls	r4, r7
  20089e:	f819 7004 	ldrb.w	r7, [r9, r4]
  2008a2:	3104      	adds	r1, #4
  2008a4:	4077      	eors	r7, r6
  2008a6:	705f      	strb	r7, [r3, #1]
  2008a8:	f812 7c01 	ldrb.w	r7, [r2, #-1]
  2008ac:	78de      	ldrb	r6, [r3, #3]
  2008ae:	4407      	add	r7, r0
  2008b0:	1c7d      	adds	r5, r7, #1
  2008b2:	b2ed      	uxtb	r5, r5
  2008b4:	f1b5 04ff 	subs.w	r4, r5, #255	; 0xff
  2008b8:	bf18      	it	ne
  2008ba:	462c      	movne	r4, r5
  2008bc:	2ffe      	cmp	r7, #254	; 0xfe
  2008be:	bf98      	it	ls
  2008c0:	463c      	movls	r4, r7
  2008c2:	f819 7004 	ldrb.w	r7, [r9, r4]
  2008c6:	4077      	eors	r7, r6
  2008c8:	709f      	strb	r7, [r3, #2]
  2008ca:	f812 7c02 	ldrb.w	r7, [r2, #-2]
  2008ce:	791e      	ldrb	r6, [r3, #4]
  2008d0:	4407      	add	r7, r0
  2008d2:	1c7d      	adds	r5, r7, #1
  2008d4:	b2ed      	uxtb	r5, r5
  2008d6:	f1b5 04ff 	subs.w	r4, r5, #255	; 0xff
  2008da:	bf18      	it	ne
  2008dc:	462c      	movne	r4, r5
  2008de:	2ffe      	cmp	r7, #254	; 0xfe
  2008e0:	bf98      	it	ls
  2008e2:	463c      	movls	r4, r7
  2008e4:	f819 7004 	ldrb.w	r7, [r9, r4]
  2008e8:	458a      	cmp	sl, r1
  2008ea:	ea87 0706 	eor.w	r7, r7, r6
  2008ee:	f1a2 0204 	sub.w	r2, r2, #4
  2008f2:	70df      	strb	r7, [r3, #3]
  2008f4:	d1b4      	bne.n	200860 <appendrs+0xb8>
  2008f6:	9f10      	ldr	r7, [sp, #64]	; 0x40
  2008f8:	9d04      	ldr	r5, [sp, #16]
  2008fa:	3101      	adds	r1, #1
  2008fc:	9c03      	ldr	r4, [sp, #12]
  2008fe:	2d00      	cmp	r5, #0
  200900:	f43f af7a 	beq.w	2007f8 <appendrs+0x50>
  200904:	1a62      	subs	r2, r4, r1
  200906:	5cba      	ldrb	r2, [r7, r2]
  200908:	f818 3001 	ldrb.w	r3, [r8, r1]
  20090c:	4402      	add	r2, r0
  20090e:	1c57      	adds	r7, r2, #1
  200910:	b2ff      	uxtb	r7, r7
  200912:	f1b7 06ff 	subs.w	r6, r7, #255	; 0xff
  200916:	bf18      	it	ne
  200918:	463e      	movne	r6, r7
  20091a:	2afe      	cmp	r2, #254	; 0xfe
  20091c:	bf98      	it	ls
  20091e:	4616      	movls	r6, r2
  200920:	f819 2006 	ldrb.w	r2, [r9, r6]
  200924:	eb08 0701 	add.w	r7, r8, r1
  200928:	405a      	eors	r2, r3
  20092a:	f807 2c01 	strb.w	r2, [r7, #-1]
  20092e:	9f10      	ldr	r7, [sp, #64]	; 0x40
  200930:	2d01      	cmp	r5, #1
  200932:	f43f af61 	beq.w	2007f8 <appendrs+0x50>
  200936:	1c4a      	adds	r2, r1, #1
  200938:	1aa3      	subs	r3, r4, r2
  20093a:	5cfb      	ldrb	r3, [r7, r3]
  20093c:	f818 7002 	ldrb.w	r7, [r8, r2]
  200940:	4403      	add	r3, r0
  200942:	1c5e      	adds	r6, r3, #1
  200944:	b2f6      	uxtb	r6, r6
  200946:	f1b6 05ff 	subs.w	r5, r6, #255	; 0xff
  20094a:	bf18      	it	ne
  20094c:	4635      	movne	r5, r6
  20094e:	2bfe      	cmp	r3, #254	; 0xfe
  200950:	bf98      	it	ls
  200952:	461d      	movls	r5, r3
  200954:	f819 3005 	ldrb.w	r3, [r9, r5]
  200958:	9d04      	ldr	r5, [sp, #16]
  20095a:	407b      	eors	r3, r7
  20095c:	9f10      	ldr	r7, [sp, #64]	; 0x40
  20095e:	2d02      	cmp	r5, #2
  200960:	f808 3001 	strb.w	r3, [r8, r1]
  200964:	f43f af48 	beq.w	2007f8 <appendrs+0x50>
  200968:	3102      	adds	r1, #2
  20096a:	1a63      	subs	r3, r4, r1
  20096c:	5cfb      	ldrb	r3, [r7, r3]
  20096e:	f818 1001 	ldrb.w	r1, [r8, r1]
  200972:	4403      	add	r3, r0
  200974:	1c5f      	adds	r7, r3, #1
  200976:	b2ff      	uxtb	r7, r7
  200978:	f1b7 06ff 	subs.w	r6, r7, #255	; 0xff
  20097c:	bf18      	it	ne
  20097e:	463e      	movne	r6, r7
  200980:	2bfe      	cmp	r3, #254	; 0xfe
  200982:	bf98      	it	ls
  200984:	461e      	movls	r6, r3
  200986:	f819 3006 	ldrb.w	r3, [r9, r6]
  20098a:	9f10      	ldr	r7, [sp, #64]	; 0x40
  20098c:	4059      	eors	r1, r3
  20098e:	f808 1002 	strb.w	r1, [r8, r2]
  200992:	e731      	b.n	2007f8 <appendrs+0x50>
  200994:	f1ae 0001 	sub.w	r0, lr, #1
  200998:	2803      	cmp	r0, #3
  20099a:	f00e 0003 	and.w	r0, lr, #3
  20099e:	9004      	str	r0, [sp, #16]
  2009a0:	d221      	bcs.n	2009e6 <appendrs+0x23e>
  2009a2:	2600      	movs	r6, #0
  2009a4:	9d04      	ldr	r5, [sp, #16]
  2009a6:	2d00      	cmp	r5, #0
  2009a8:	f000 80fe 	beq.w	200ba8 <appendrs+0x400>
  2009ac:	9806      	ldr	r0, [sp, #24]
  2009ae:	f898 1000 	ldrb.w	r1, [r8]
  2009b2:	5d80      	ldrb	r0, [r0, r6]
  2009b4:	4048      	eors	r0, r1
  2009b6:	f000 80a3 	beq.w	200b00 <appendrs+0x358>
  2009ba:	f244 6120 	movw	r1, #17952	; 0x4620
  2009be:	f2c0 0120 	movt	r1, #32
  2009c2:	5c08      	ldrb	r0, [r1, r0]
  2009c4:	7839      	ldrb	r1, [r7, #0]
  2009c6:	4408      	add	r0, r1
  2009c8:	1c41      	adds	r1, r0, #1
  2009ca:	b2c9      	uxtb	r1, r1
  2009cc:	f1b1 02ff 	subs.w	r2, r1, #255	; 0xff
  2009d0:	bf18      	it	ne
  2009d2:	460a      	movne	r2, r1
  2009d4:	28fe      	cmp	r0, #254	; 0xfe
  2009d6:	bf98      	it	ls
  2009d8:	4602      	movls	r2, r0
  2009da:	f644 10b6 	movw	r0, #18870	; 0x49b6
  2009de:	f2c0 0020 	movt	r0, #32
  2009e2:	5c80      	ldrb	r0, [r0, r2]
  2009e4:	e092      	b.n	200b0c <appendrs+0x364>
  2009e6:	f244 6a20 	movw	sl, #17952	; 0x4620
  2009ea:	f644 1bb6 	movw	fp, #18870	; 0x49b6
  2009ee:	f00e 05fc 	and.w	r5, lr, #252	; 0xfc
  2009f2:	2600      	movs	r6, #0
  2009f4:	f2c0 0a20 	movt	sl, #32
  2009f8:	f2c0 0b20 	movt	fp, #32
  2009fc:	e00b      	b.n	200a16 <appendrs+0x26e>
  2009fe:	bf00      	nop
  200a00:	9905      	ldr	r1, [sp, #20]
  200a02:	4640      	mov	r0, r8
  200a04:	4622      	mov	r2, r4
  200a06:	f7ff fdb2 	bl	20056e <__rt_memmove>
  200a0a:	2000      	movs	r0, #0
  200a0c:	3604      	adds	r6, #4
  200a0e:	42b5      	cmp	r5, r6
  200a10:	f808 0004 	strb.w	r0, [r8, r4]
  200a14:	d0c6      	beq.n	2009a4 <appendrs+0x1fc>
  200a16:	9806      	ldr	r0, [sp, #24]
  200a18:	f898 1000 	ldrb.w	r1, [r8]
  200a1c:	5d80      	ldrb	r0, [r0, r6]
  200a1e:	4048      	eors	r0, r1
  200a20:	d010      	beq.n	200a44 <appendrs+0x29c>
  200a22:	f81a 0000 	ldrb.w	r0, [sl, r0]
  200a26:	7839      	ldrb	r1, [r7, #0]
  200a28:	4408      	add	r0, r1
  200a2a:	1c41      	adds	r1, r0, #1
  200a2c:	b2c9      	uxtb	r1, r1
  200a2e:	f1b1 02ff 	subs.w	r2, r1, #255	; 0xff
  200a32:	bf18      	it	ne
  200a34:	460a      	movne	r2, r1
  200a36:	28fe      	cmp	r0, #254	; 0xfe
  200a38:	bf98      	it	ls
  200a3a:	4602      	movls	r2, r0
  200a3c:	f81b 0002 	ldrb.w	r0, [fp, r2]
  200a40:	e006      	b.n	200a50 <appendrs+0x2a8>
  200a42:	bf00      	nop
  200a44:	9905      	ldr	r1, [sp, #20]
  200a46:	4640      	mov	r0, r8
  200a48:	4622      	mov	r2, r4
  200a4a:	f7ff fd90 	bl	20056e <__rt_memmove>
  200a4e:	2000      	movs	r0, #0
  200a50:	f808 0004 	strb.w	r0, [r8, r4]
  200a54:	9806      	ldr	r0, [sp, #24]
  200a56:	f898 1000 	ldrb.w	r1, [r8]
  200a5a:	eb00 0906 	add.w	r9, r0, r6
  200a5e:	f899 0001 	ldrb.w	r0, [r9, #1]
  200a62:	4048      	eors	r0, r1
  200a64:	d010      	beq.n	200a88 <appendrs+0x2e0>
  200a66:	f81a 0000 	ldrb.w	r0, [sl, r0]
  200a6a:	7839      	ldrb	r1, [r7, #0]
  200a6c:	4408      	add	r0, r1
  200a6e:	1c41      	adds	r1, r0, #1
  200a70:	b2c9      	uxtb	r1, r1
  200a72:	f1b1 02ff 	subs.w	r2, r1, #255	; 0xff
  200a76:	bf18      	it	ne
  200a78:	460a      	movne	r2, r1
  200a7a:	28fe      	cmp	r0, #254	; 0xfe
  200a7c:	bf98      	it	ls
  200a7e:	4602      	movls	r2, r0
  200a80:	f81b 0002 	ldrb.w	r0, [fp, r2]
  200a84:	e006      	b.n	200a94 <appendrs+0x2ec>
  200a86:	bf00      	nop
  200a88:	9905      	ldr	r1, [sp, #20]
  200a8a:	4640      	mov	r0, r8
  200a8c:	4622      	mov	r2, r4
  200a8e:	f7ff fd6e 	bl	20056e <__rt_memmove>
  200a92:	2000      	movs	r0, #0
  200a94:	f808 0004 	strb.w	r0, [r8, r4]
  200a98:	f899 0002 	ldrb.w	r0, [r9, #2]
  200a9c:	f898 1000 	ldrb.w	r1, [r8]
  200aa0:	4048      	eors	r0, r1
  200aa2:	d00f      	beq.n	200ac4 <appendrs+0x31c>
  200aa4:	f81a 0000 	ldrb.w	r0, [sl, r0]
  200aa8:	7839      	ldrb	r1, [r7, #0]
  200aaa:	4408      	add	r0, r1
  200aac:	1c41      	adds	r1, r0, #1
  200aae:	b2c9      	uxtb	r1, r1
  200ab0:	f1b1 02ff 	subs.w	r2, r1, #255	; 0xff
  200ab4:	bf18      	it	ne
  200ab6:	460a      	movne	r2, r1
  200ab8:	28fe      	cmp	r0, #254	; 0xfe
  200aba:	bf98      	it	ls
  200abc:	4602      	movls	r2, r0
  200abe:	f81b 0002 	ldrb.w	r0, [fp, r2]
  200ac2:	e005      	b.n	200ad0 <appendrs+0x328>
  200ac4:	9905      	ldr	r1, [sp, #20]
  200ac6:	4640      	mov	r0, r8
  200ac8:	4622      	mov	r2, r4
  200aca:	f7ff fd50 	bl	20056e <__rt_memmove>
  200ace:	2000      	movs	r0, #0
  200ad0:	f808 0004 	strb.w	r0, [r8, r4]
  200ad4:	f899 0003 	ldrb.w	r0, [r9, #3]
  200ad8:	f898 1000 	ldrb.w	r1, [r8]
  200adc:	4048      	eors	r0, r1
  200ade:	d08f      	beq.n	200a00 <appendrs+0x258>
  200ae0:	f81a 0000 	ldrb.w	r0, [sl, r0]
  200ae4:	7839      	ldrb	r1, [r7, #0]
  200ae6:	4408      	add	r0, r1
  200ae8:	1c41      	adds	r1, r0, #1
  200aea:	b2c9      	uxtb	r1, r1
  200aec:	f1b1 02ff 	subs.w	r2, r1, #255	; 0xff
  200af0:	bf18      	it	ne
  200af2:	460a      	movne	r2, r1
  200af4:	28fe      	cmp	r0, #254	; 0xfe
  200af6:	bf98      	it	ls
  200af8:	4602      	movls	r2, r0
  200afa:	f81b 0002 	ldrb.w	r0, [fp, r2]
  200afe:	e785      	b.n	200a0c <appendrs+0x264>
  200b00:	9905      	ldr	r1, [sp, #20]
  200b02:	4640      	mov	r0, r8
  200b04:	4622      	mov	r2, r4
  200b06:	f7ff fd32 	bl	20056e <__rt_memmove>
  200b0a:	2000      	movs	r0, #0
  200b0c:	2d01      	cmp	r5, #1
  200b0e:	f808 0004 	strb.w	r0, [r8, r4]
  200b12:	d049      	beq.n	200ba8 <appendrs+0x400>
  200b14:	9806      	ldr	r0, [sp, #24]
  200b16:	f898 1000 	ldrb.w	r1, [r8]
  200b1a:	4406      	add	r6, r0
  200b1c:	7870      	ldrb	r0, [r6, #1]
  200b1e:	4048      	eors	r0, r1
  200b20:	d015      	beq.n	200b4e <appendrs+0x3a6>
  200b22:	f244 6120 	movw	r1, #17952	; 0x4620
  200b26:	f2c0 0120 	movt	r1, #32
  200b2a:	5c08      	ldrb	r0, [r1, r0]
  200b2c:	7839      	ldrb	r1, [r7, #0]
  200b2e:	4408      	add	r0, r1
  200b30:	1c41      	adds	r1, r0, #1
  200b32:	b2c9      	uxtb	r1, r1
  200b34:	f1b1 02ff 	subs.w	r2, r1, #255	; 0xff
  200b38:	bf18      	it	ne
  200b3a:	460a      	movne	r2, r1
  200b3c:	28fe      	cmp	r0, #254	; 0xfe
  200b3e:	bf98      	it	ls
  200b40:	4602      	movls	r2, r0
  200b42:	f644 10b6 	movw	r0, #18870	; 0x49b6
  200b46:	f2c0 0020 	movt	r0, #32
  200b4a:	5c80      	ldrb	r0, [r0, r2]
  200b4c:	e005      	b.n	200b5a <appendrs+0x3b2>
  200b4e:	9905      	ldr	r1, [sp, #20]
  200b50:	4640      	mov	r0, r8
  200b52:	4622      	mov	r2, r4
  200b54:	f7ff fd0b 	bl	20056e <__rt_memmove>
  200b58:	2000      	movs	r0, #0
  200b5a:	2d02      	cmp	r5, #2
  200b5c:	f808 0004 	strb.w	r0, [r8, r4]
  200b60:	d022      	beq.n	200ba8 <appendrs+0x400>
  200b62:	78b0      	ldrb	r0, [r6, #2]
  200b64:	f898 1000 	ldrb.w	r1, [r8]
  200b68:	4048      	eors	r0, r1
  200b6a:	d015      	beq.n	200b98 <appendrs+0x3f0>
  200b6c:	f244 6120 	movw	r1, #17952	; 0x4620
  200b70:	f2c0 0120 	movt	r1, #32
  200b74:	5c08      	ldrb	r0, [r1, r0]
  200b76:	7839      	ldrb	r1, [r7, #0]
  200b78:	4408      	add	r0, r1
  200b7a:	1c41      	adds	r1, r0, #1
  200b7c:	b2c9      	uxtb	r1, r1
  200b7e:	f1b1 02ff 	subs.w	r2, r1, #255	; 0xff
  200b82:	bf18      	it	ne
  200b84:	460a      	movne	r2, r1
  200b86:	28fe      	cmp	r0, #254	; 0xfe
  200b88:	bf98      	it	ls
  200b8a:	4602      	movls	r2, r0
  200b8c:	f644 10b6 	movw	r0, #18870	; 0x49b6
  200b90:	f2c0 0020 	movt	r0, #32
  200b94:	5c80      	ldrb	r0, [r0, r2]
  200b96:	e005      	b.n	200ba4 <appendrs+0x3fc>
  200b98:	9905      	ldr	r1, [sp, #20]
  200b9a:	4640      	mov	r0, r8
  200b9c:	4622      	mov	r2, r4
  200b9e:	f7ff fce6 	bl	20056e <__rt_memmove>
  200ba2:	2000      	movs	r0, #0
  200ba4:	f808 0004 	strb.w	r0, [r8, r4]
  200ba8:	b007      	add	sp, #28
  200baa:	e8bd 8ff0 	ldmia.w	sp!, {r4, r5, r6, r7, r8, r9, sl, fp, pc}
	...

00200bb0 <applymask>:
  200bb0:	e92d 4ff0 	stmdb	sp!, {r4, r5, r6, r7, r8, r9, sl, fp, lr}
  200bb4:	b082      	sub	sp, #8
  200bb6:	2807      	cmp	r0, #7
  200bb8:	f200 8348 	bhi.w	20124c <applymask+0x69c>
  200bbc:	e8df f010 	tbh	[pc, r0, lsl #1]
  200bc0:	005e0008 	.word	0x005e0008
  200bc4:	011200b4 	.word	0x011200b4
  200bc8:	01e30176 	.word	0x01e30176
  200bcc:	02d3025b 	.word	0x02d3025b
  200bd0:	f242 0011 	movw	r0, #8209	; 0x2011
  200bd4:	f6c2 0020 	movt	r0, #10272	; 0x2820
  200bd8:	f890 8000 	ldrb.w	r8, [r0]
  200bdc:	f1b8 0f00 	cmp.w	r8, #0
  200be0:	f000 8334 	beq.w	20124c <applymask+0x69c>
  200be4:	f242 0018 	movw	r0, #8216	; 0x2018
  200be8:	f6c2 0020 	movt	r0, #10272	; 0x2820
  200bec:	6801      	ldr	r1, [r0, #0]
  200bee:	f242 0024 	movw	r0, #8228	; 0x2024
  200bf2:	f6c2 0020 	movt	r0, #10272	; 0x2820
  200bf6:	6802      	ldr	r2, [r0, #0]
  200bf8:	f242 0010 	movw	r0, #8208	; 0x2010
  200bfc:	f6c2 0020 	movt	r0, #10272	; 0x2820
  200c00:	f890 c000 	ldrb.w	ip, [r0]
  200c04:	2300      	movs	r3, #0
  200c06:	f04f 0907 	mov.w	r9, #7
  200c0a:	f04f 0e80 	mov.w	lr, #128	; 0x80
  200c0e:	4640      	mov	r0, r8
  200c10:	e005      	b.n	200c1e <applymask+0x6e>
  200c12:	bf00      	nop
  200c14:	2000      	movs	r0, #0
  200c16:	3301      	adds	r3, #1
  200c18:	4283      	cmp	r3, r0
  200c1a:	f080 8317 	bcs.w	20124c <applymask+0x69c>
  200c1e:	2800      	cmp	r0, #0
  200c20:	d0f8      	beq.n	200c14 <applymask+0x64>
  200c22:	fb03 fa0c 	mul.w	sl, r3, ip
  200c26:	2400      	movs	r4, #0
  200c28:	e003      	b.n	200c32 <applymask+0x82>
  200c2a:	bf00      	nop
  200c2c:	3401      	adds	r4, #1
  200c2e:	4284      	cmp	r4, r0
  200c30:	d2f1      	bcs.n	200c16 <applymask+0x66>
  200c32:	191f      	adds	r7, r3, r4
  200c34:	07ff      	lsls	r7, r7, #31
  200c36:	d1f9      	bne.n	200c2c <applymask+0x7c>
  200c38:	461f      	mov	r7, r3
  200c3a:	429c      	cmp	r4, r3
  200c3c:	bf88      	it	hi
  200c3e:	4627      	movhi	r7, r4
  200c40:	b2fd      	uxtb	r5, r7
  200c42:	fb05 f505 	mul.w	r5, r5, r5
  200c46:	461e      	mov	r6, r3
  200c48:	fa55 f587 	uxtab	r5, r5, r7
  200c4c:	bf38      	it	cc
  200c4e:	4626      	movcc	r6, r4
  200c50:	086d      	lsrs	r5, r5, #1
  200c52:	fa55 f586 	uxtab	r5, r5, r6
  200c56:	08ee      	lsrs	r6, r5, #3
  200c58:	5d8e      	ldrb	r6, [r1, r6]
  200c5a:	ea29 0505 	bic.w	r5, r9, r5
  200c5e:	fa26 f505 	lsr.w	r5, r6, r5
  200c62:	07ed      	lsls	r5, r5, #31
  200c64:	d1e2      	bne.n	200c2c <applymask+0x7c>
  200c66:	eb0a 00d4 	add.w	r0, sl, r4, lsr #3
  200c6a:	f004 0507 	and.w	r5, r4, #7
  200c6e:	5c16      	ldrb	r6, [r2, r0]
  200c70:	fa2e f505 	lsr.w	r5, lr, r5
  200c74:	4075      	eors	r5, r6
  200c76:	5415      	strb	r5, [r2, r0]
  200c78:	4640      	mov	r0, r8
  200c7a:	e7d7      	b.n	200c2c <applymask+0x7c>
  200c7c:	f242 0011 	movw	r0, #8209	; 0x2011
  200c80:	f6c2 0020 	movt	r0, #10272	; 0x2820
  200c84:	f890 8000 	ldrb.w	r8, [r0]
  200c88:	f1b8 0f00 	cmp.w	r8, #0
  200c8c:	f000 82de 	beq.w	20124c <applymask+0x69c>
  200c90:	f242 0018 	movw	r0, #8216	; 0x2018
  200c94:	f6c2 0020 	movt	r0, #10272	; 0x2820
  200c98:	6801      	ldr	r1, [r0, #0]
  200c9a:	f242 0024 	movw	r0, #8228	; 0x2024
  200c9e:	f6c2 0020 	movt	r0, #10272	; 0x2820
  200ca2:	6802      	ldr	r2, [r0, #0]
  200ca4:	f242 0010 	movw	r0, #8208	; 0x2010
  200ca8:	f6c2 0020 	movt	r0, #10272	; 0x2820
  200cac:	f890 c000 	ldrb.w	ip, [r0]
  200cb0:	2700      	movs	r7, #0
  200cb2:	f04f 0907 	mov.w	r9, #7
  200cb6:	f04f 0e80 	mov.w	lr, #128	; 0x80
  200cba:	4640      	mov	r0, r8
  200cbc:	e005      	b.n	200cca <applymask+0x11a>
  200cbe:	bf00      	nop
  200cc0:	2000      	movs	r0, #0
  200cc2:	3701      	adds	r7, #1
  200cc4:	4287      	cmp	r7, r0
  200cc6:	f080 82c1 	bcs.w	20124c <applymask+0x69c>
  200cca:	2800      	cmp	r0, #0
  200ccc:	d0f8      	beq.n	200cc0 <applymask+0x110>
  200cce:	07fb      	lsls	r3, r7, #31
  200cd0:	d1f7      	bne.n	200cc2 <applymask+0x112>
  200cd2:	fb07 fa0c 	mul.w	sl, r7, ip
  200cd6:	2300      	movs	r3, #0
  200cd8:	e003      	b.n	200ce2 <applymask+0x132>
  200cda:	bf00      	nop
  200cdc:	3301      	adds	r3, #1
  200cde:	4283      	cmp	r3, r0
  200ce0:	d2ef      	bcs.n	200cc2 <applymask+0x112>
  200ce2:	463e      	mov	r6, r7
  200ce4:	429f      	cmp	r7, r3
  200ce6:	bf38      	it	cc
  200ce8:	461e      	movcc	r6, r3
  200cea:	b2f5      	uxtb	r5, r6
  200cec:	fb05 f505 	mul.w	r5, r5, r5
  200cf0:	461c      	mov	r4, r3
  200cf2:	fa55 f586 	uxtab	r5, r5, r6
  200cf6:	bf38      	it	cc
  200cf8:	463c      	movcc	r4, r7
  200cfa:	086d      	lsrs	r5, r5, #1
  200cfc:	fa55 f484 	uxtab	r4, r5, r4
  200d00:	08e5      	lsrs	r5, r4, #3
  200d02:	5d4d      	ldrb	r5, [r1, r5]
  200d04:	ea29 0404 	bic.w	r4, r9, r4
  200d08:	fa25 f404 	lsr.w	r4, r5, r4
  200d0c:	07e4      	lsls	r4, r4, #31
  200d0e:	d1e5      	bne.n	200cdc <applymask+0x12c>
  200d10:	f3c3 00c4 	ubfx	r0, r3, #3, #5
  200d14:	f003 0407 	and.w	r4, r3, #7
  200d18:	4450      	add	r0, sl
  200d1a:	5c15      	ldrb	r5, [r2, r0]
  200d1c:	fa2e f404 	lsr.w	r4, lr, r4
  200d20:	406c      	eors	r4, r5
  200d22:	5414      	strb	r4, [r2, r0]
  200d24:	4640      	mov	r0, r8
  200d26:	e7d9      	b.n	200cdc <applymask+0x12c>
  200d28:	f242 0011 	movw	r0, #8209	; 0x2011
  200d2c:	f6c2 0020 	movt	r0, #10272	; 0x2820
  200d30:	f890 8000 	ldrb.w	r8, [r0]
  200d34:	f1b8 0f00 	cmp.w	r8, #0
  200d38:	f000 8288 	beq.w	20124c <applymask+0x69c>
  200d3c:	f242 0018 	movw	r0, #8216	; 0x2018
  200d40:	f6c2 0020 	movt	r0, #10272	; 0x2820
  200d44:	6801      	ldr	r1, [r0, #0]
  200d46:	f242 0024 	movw	r0, #8228	; 0x2024
  200d4a:	f6c2 0020 	movt	r0, #10272	; 0x2820
  200d4e:	f8d0 b000 	ldr.w	fp, [r0]
  200d52:	f242 0010 	movw	r0, #8208	; 0x2010
  200d56:	f6c2 0020 	movt	r0, #10272	; 0x2820
  200d5a:	f890 c000 	ldrb.w	ip, [r0]
  200d5e:	2600      	movs	r6, #0
  200d60:	f04f 0907 	mov.w	r9, #7
  200d64:	f04f 0e80 	mov.w	lr, #128	; 0x80
  200d68:	4640      	mov	r0, r8
  200d6a:	e004      	b.n	200d76 <applymask+0x1c6>
  200d6c:	2000      	movs	r0, #0
  200d6e:	3601      	adds	r6, #1
  200d70:	4286      	cmp	r6, r0
  200d72:	f080 826b 	bcs.w	20124c <applymask+0x69c>
  200d76:	2800      	cmp	r0, #0
  200d78:	d0f8      	beq.n	200d6c <applymask+0x1bc>
  200d7a:	fb06 fa0c 	mul.w	sl, r6, ip
  200d7e:	2400      	movs	r4, #0
  200d80:	2500      	movs	r5, #0
  200d82:	e004      	b.n	200d8e <applymask+0x1de>
  200d84:	3401      	adds	r4, #1
  200d86:	4284      	cmp	r4, r0
  200d88:	f103 0501 	add.w	r5, r3, #1
  200d8c:	d2ef      	bcs.n	200d6e <applymask+0x1be>
  200d8e:	b2eb      	uxtb	r3, r5
  200d90:	3b03      	subs	r3, #3
  200d92:	bf18      	it	ne
  200d94:	462b      	movne	r3, r5
  200d96:	061d      	lsls	r5, r3, #24
  200d98:	d1f4      	bne.n	200d84 <applymask+0x1d4>
  200d9a:	4635      	mov	r5, r6
  200d9c:	42a6      	cmp	r6, r4
  200d9e:	bf38      	it	cc
  200da0:	4625      	movcc	r5, r4
  200da2:	b2ef      	uxtb	r7, r5
  200da4:	fb07 f707 	mul.w	r7, r7, r7
  200da8:	4622      	mov	r2, r4
  200daa:	fa57 f585 	uxtab	r5, r7, r5
  200dae:	bf38      	it	cc
  200db0:	4632      	movcc	r2, r6
  200db2:	086d      	lsrs	r5, r5, #1
  200db4:	fa55 f282 	uxtab	r2, r5, r2
  200db8:	08d5      	lsrs	r5, r2, #3
  200dba:	5d4d      	ldrb	r5, [r1, r5]
  200dbc:	ea29 0202 	bic.w	r2, r9, r2
  200dc0:	fa25 f202 	lsr.w	r2, r5, r2
  200dc4:	07d2      	lsls	r2, r2, #31
  200dc6:	d1dd      	bne.n	200d84 <applymask+0x1d4>
  200dc8:	f3c4 00c4 	ubfx	r0, r4, #3, #5
  200dcc:	f004 0207 	and.w	r2, r4, #7
  200dd0:	4450      	add	r0, sl
  200dd2:	f81b 5000 	ldrb.w	r5, [fp, r0]
  200dd6:	fa2e f202 	lsr.w	r2, lr, r2
  200dda:	406a      	eors	r2, r5
  200ddc:	f80b 2000 	strb.w	r2, [fp, r0]
  200de0:	4640      	mov	r0, r8
  200de2:	e7cf      	b.n	200d84 <applymask+0x1d4>
  200de4:	f242 0011 	movw	r0, #8209	; 0x2011
  200de8:	f6c2 0020 	movt	r0, #10272	; 0x2820
  200dec:	f890 8000 	ldrb.w	r8, [r0]
  200df0:	f1b8 0f00 	cmp.w	r8, #0
  200df4:	f000 822a 	beq.w	20124c <applymask+0x69c>
  200df8:	f242 0018 	movw	r0, #8216	; 0x2018
  200dfc:	f6c2 0020 	movt	r0, #10272	; 0x2820
  200e00:	6801      	ldr	r1, [r0, #0]
  200e02:	f242 0024 	movw	r0, #8228	; 0x2024
  200e06:	f6c2 0020 	movt	r0, #10272	; 0x2820
  200e0a:	6802      	ldr	r2, [r0, #0]
  200e0c:	f242 0010 	movw	r0, #8208	; 0x2010
  200e10:	f6c2 0020 	movt	r0, #10272	; 0x2820
  200e14:	7800      	ldrb	r0, [r0, #0]
  200e16:	2400      	movs	r4, #0
  200e18:	9001      	str	r0, [sp, #4]
  200e1a:	f04f 0907 	mov.w	r9, #7
  200e1e:	f04f 0e80 	mov.w	lr, #128	; 0x80
  200e22:	4645      	mov	r5, r8
  200e24:	2000      	movs	r0, #0
  200e26:	e006      	b.n	200e36 <applymask+0x286>
  200e28:	2500      	movs	r5, #0
  200e2a:	3401      	adds	r4, #1
  200e2c:	42ac      	cmp	r4, r5
  200e2e:	f10b 0001 	add.w	r0, fp, #1
  200e32:	f080 820b 	bcs.w	20124c <applymask+0x69c>
  200e36:	b2c3      	uxtb	r3, r0
  200e38:	f1b3 0b03 	subs.w	fp, r3, #3
  200e3c:	bf18      	it	ne
  200e3e:	4683      	movne	fp, r0
  200e40:	2d00      	cmp	r5, #0
  200e42:	d0f1      	beq.n	200e28 <applymask+0x278>
  200e44:	9801      	ldr	r0, [sp, #4]
  200e46:	465e      	mov	r6, fp
  200e48:	fb04 fa00 	mul.w	sl, r4, r0
  200e4c:	2000      	movs	r0, #0
  200e4e:	e004      	b.n	200e5a <applymask+0x2aa>
  200e50:	3001      	adds	r0, #1
  200e52:	42a8      	cmp	r0, r5
  200e54:	f103 0601 	add.w	r6, r3, #1
  200e58:	d2e7      	bcs.n	200e2a <applymask+0x27a>
  200e5a:	b2f3      	uxtb	r3, r6
  200e5c:	3b03      	subs	r3, #3
  200e5e:	bf18      	it	ne
  200e60:	4633      	movne	r3, r6
  200e62:	061e      	lsls	r6, r3, #24
  200e64:	d1f4      	bne.n	200e50 <applymask+0x2a0>
  200e66:	4626      	mov	r6, r4
  200e68:	4284      	cmp	r4, r0
  200e6a:	bf38      	it	cc
  200e6c:	4606      	movcc	r6, r0
  200e6e:	b2f7      	uxtb	r7, r6
  200e70:	fb07 f707 	mul.w	r7, r7, r7
  200e74:	4684      	mov	ip, r0
  200e76:	fa57 f686 	uxtab	r6, r7, r6
  200e7a:	bf38      	it	cc
  200e7c:	46a4      	movcc	ip, r4
  200e7e:	0876      	lsrs	r6, r6, #1
  200e80:	fa56 f78c 	uxtab	r7, r6, ip
  200e84:	08fe      	lsrs	r6, r7, #3
  200e86:	5d8e      	ldrb	r6, [r1, r6]
  200e88:	ea29 0707 	bic.w	r7, r9, r7
  200e8c:	fa26 f707 	lsr.w	r7, r6, r7
  200e90:	07ff      	lsls	r7, r7, #31
  200e92:	d1dd      	bne.n	200e50 <applymask+0x2a0>
  200e94:	f3c0 07c4 	ubfx	r7, r0, #3, #5
  200e98:	f000 0607 	and.w	r6, r0, #7
  200e9c:	4457      	add	r7, sl
  200e9e:	5dd5      	ldrb	r5, [r2, r7]
  200ea0:	fa2e f606 	lsr.w	r6, lr, r6
  200ea4:	406e      	eors	r6, r5
  200ea6:	4645      	mov	r5, r8
  200ea8:	55d6      	strb	r6, [r2, r7]
  200eaa:	e7d1      	b.n	200e50 <applymask+0x2a0>
  200eac:	f242 0011 	movw	r0, #8209	; 0x2011
  200eb0:	f6c2 0020 	movt	r0, #10272	; 0x2820
  200eb4:	7800      	ldrb	r0, [r0, #0]
  200eb6:	2800      	cmp	r0, #0
  200eb8:	9001      	str	r0, [sp, #4]
  200eba:	f000 81c7 	beq.w	20124c <applymask+0x69c>
  200ebe:	f242 0018 	movw	r0, #8216	; 0x2018
  200ec2:	f6c2 0020 	movt	r0, #10272	; 0x2820
  200ec6:	f8d0 e000 	ldr.w	lr, [r0]
  200eca:	f242 0024 	movw	r0, #8228	; 0x2024
  200ece:	f6c2 0020 	movt	r0, #10272	; 0x2820
  200ed2:	f8d0 b000 	ldr.w	fp, [r0]
  200ed6:	f242 0010 	movw	r0, #8208	; 0x2010
  200eda:	f6c2 0020 	movt	r0, #10272	; 0x2820
  200ede:	7800      	ldrb	r0, [r0, #0]
  200ee0:	f8dd 8004 	ldr.w	r8, [sp, #4]
  200ee4:	2400      	movs	r4, #0
  200ee6:	f04f 0907 	mov.w	r9, #7
  200eea:	9000      	str	r0, [sp, #0]
  200eec:	e006      	b.n	200efc <applymask+0x34c>
  200eee:	bf00      	nop
  200ef0:	f04f 0800 	mov.w	r8, #0
  200ef4:	3401      	adds	r4, #1
  200ef6:	4544      	cmp	r4, r8
  200ef8:	f080 81a8 	bcs.w	20124c <applymask+0x69c>
  200efc:	f1b8 0f00 	cmp.w	r8, #0
  200f00:	d0f6      	beq.n	200ef0 <applymask+0x340>
  200f02:	9800      	ldr	r0, [sp, #0]
  200f04:	f3c4 0640 	ubfx	r6, r4, #1, #1
  200f08:	fb04 fa00 	mul.w	sl, r4, r0
  200f0c:	2000      	movs	r0, #0
  200f0e:	2300      	movs	r3, #0
  200f10:	e007      	b.n	200f22 <applymask+0x372>
  200f12:	bf00      	nop
  200f14:	3001      	adds	r0, #1
  200f16:	3301      	adds	r3, #1
  200f18:	2f03      	cmp	r7, #3
  200f1a:	bf08      	it	eq
  200f1c:	2301      	moveq	r3, #1
  200f1e:	4540      	cmp	r0, r8
  200f20:	d2e8      	bcs.n	200ef4 <applymask+0x344>
  200f22:	b2df      	uxtb	r7, r3
  200f24:	b2f2      	uxtb	r2, r6
  200f26:	fab2 f282 	clz	r2, r2
  200f2a:	2f03      	cmp	r7, #3
  200f2c:	bf08      	it	eq
  200f2e:	0956      	lsreq	r6, r2, #5
  200f30:	0632      	lsls	r2, r6, #24
  200f32:	d1ef      	bne.n	200f14 <applymask+0x364>
  200f34:	4602      	mov	r2, r0
  200f36:	4284      	cmp	r4, r0
  200f38:	bf88      	it	hi
  200f3a:	4622      	movhi	r2, r4
  200f3c:	fa5f fc82 	uxtb.w	ip, r2
  200f40:	fb0c f10c 	mul.w	r1, ip, ip
  200f44:	4605      	mov	r5, r0
  200f46:	fa51 f182 	uxtab	r1, r1, r2
  200f4a:	bf38      	it	cc
  200f4c:	4625      	movcc	r5, r4
  200f4e:	0849      	lsrs	r1, r1, #1
  200f50:	fa51 f185 	uxtab	r1, r1, r5
  200f54:	08ca      	lsrs	r2, r1, #3
  200f56:	f81e 2002 	ldrb.w	r2, [lr, r2]
  200f5a:	ea29 0101 	bic.w	r1, r9, r1
  200f5e:	fa22 f101 	lsr.w	r1, r2, r1
  200f62:	07c9      	lsls	r1, r1, #31
  200f64:	d1d6      	bne.n	200f14 <applymask+0x364>
  200f66:	f3c0 01c4 	ubfx	r1, r0, #3, #5
  200f6a:	f000 0c07 	and.w	ip, r0, #7
  200f6e:	4451      	add	r1, sl
  200f70:	f81b 5001 	ldrb.w	r5, [fp, r1]
  200f74:	2280      	movs	r2, #128	; 0x80
  200f76:	fa22 f20c 	lsr.w	r2, r2, ip
  200f7a:	f8dd 8004 	ldr.w	r8, [sp, #4]
  200f7e:	406a      	eors	r2, r5
  200f80:	f80b 2001 	strb.w	r2, [fp, r1]
  200f84:	e7c6      	b.n	200f14 <applymask+0x364>
  200f86:	f242 0011 	movw	r0, #8209	; 0x2011
  200f8a:	f6c2 0020 	movt	r0, #10272	; 0x2820
  200f8e:	7800      	ldrb	r0, [r0, #0]
  200f90:	2800      	cmp	r0, #0
  200f92:	9001      	str	r0, [sp, #4]
  200f94:	f000 815a 	beq.w	20124c <applymask+0x69c>
  200f98:	f242 0018 	movw	r0, #8216	; 0x2018
  200f9c:	f6c2 0020 	movt	r0, #10272	; 0x2820
  200fa0:	f8d0 e000 	ldr.w	lr, [r0]
  200fa4:	f242 0024 	movw	r0, #8228	; 0x2024
  200fa8:	f6c2 0020 	movt	r0, #10272	; 0x2820
  200fac:	f8d0 b000 	ldr.w	fp, [r0]
  200fb0:	f242 0010 	movw	r0, #8208	; 0x2010
  200fb4:	f6c2 0020 	movt	r0, #10272	; 0x2820
  200fb8:	7800      	ldrb	r0, [r0, #0]
  200fba:	9d01      	ldr	r5, [sp, #4]
  200fbc:	9000      	str	r0, [sp, #0]
  200fbe:	2300      	movs	r3, #0
  200fc0:	2000      	movs	r0, #0
  200fc2:	e006      	b.n	200fd2 <applymask+0x422>
  200fc4:	2500      	movs	r5, #0
  200fc6:	3301      	adds	r3, #1
  200fc8:	42ab      	cmp	r3, r5
  200fca:	f109 0001 	add.w	r0, r9, #1
  200fce:	f080 813d 	bcs.w	20124c <applymask+0x69c>
  200fd2:	b2c2      	uxtb	r2, r0
  200fd4:	f1b2 0903 	subs.w	r9, r2, #3
  200fd8:	bf18      	it	ne
  200fda:	4681      	movne	r9, r0
  200fdc:	2d00      	cmp	r5, #0
  200fde:	d0f1      	beq.n	200fc4 <applymask+0x414>
  200fe0:	9800      	ldr	r0, [sp, #0]
  200fe2:	f003 0701 	and.w	r7, r3, #1
  200fe6:	fb03 fa00 	mul.w	sl, r3, r0
  200fea:	2000      	movs	r0, #0
  200fec:	2200      	movs	r2, #0
  200fee:	e004      	b.n	200ffa <applymask+0x44a>
  200ff0:	3001      	adds	r0, #1
  200ff2:	42a8      	cmp	r0, r5
  200ff4:	f104 0201 	add.w	r2, r4, #1
  200ff8:	d2e5      	bcs.n	200fc6 <applymask+0x416>
  200ffa:	fa5f fc89 	uxtb.w	ip, r9
  200ffe:	f1bc 0f00 	cmp.w	ip, #0
  201002:	bf18      	it	ne
  201004:	f04f 0c01 	movne.w	ip, #1
  201008:	b2d4      	uxtb	r4, r2
  20100a:	3c03      	subs	r4, #3
  20100c:	bf18      	it	ne
  20100e:	4614      	movne	r4, r2
  201010:	b2e2      	uxtb	r2, r4
  201012:	2a00      	cmp	r2, #0
  201014:	bf18      	it	ne
  201016:	2201      	movne	r2, #1
  201018:	ea07 0800 	and.w	r8, r7, r0
  20101c:	ea02 020c 	and.w	r2, r2, ip
  201020:	eb18 0f02 	cmn.w	r8, r2
  201024:	d1e4      	bne.n	200ff0 <applymask+0x440>
  201026:	461a      	mov	r2, r3
  201028:	4283      	cmp	r3, r0
  20102a:	bf38      	it	cc
  20102c:	4602      	movcc	r2, r0
  20102e:	b2d1      	uxtb	r1, r2
  201030:	fb01 f101 	mul.w	r1, r1, r1
  201034:	4606      	mov	r6, r0
  201036:	fa51 f182 	uxtab	r1, r1, r2
  20103a:	bf38      	it	cc
  20103c:	461e      	movcc	r6, r3
  20103e:	0849      	lsrs	r1, r1, #1
  201040:	fa51 f186 	uxtab	r1, r1, r6
  201044:	2607      	movs	r6, #7
  201046:	08ca      	lsrs	r2, r1, #3
  201048:	f81e 2002 	ldrb.w	r2, [lr, r2]
  20104c:	ea26 0101 	bic.w	r1, r6, r1
  201050:	fa22 f101 	lsr.w	r1, r2, r1
  201054:	07c9      	lsls	r1, r1, #31
  201056:	d1cb      	bne.n	200ff0 <applymask+0x440>
  201058:	f3c0 01c4 	ubfx	r1, r0, #3, #5
  20105c:	f000 0207 	and.w	r2, r0, #7
  201060:	4451      	add	r1, sl
  201062:	f81b 6001 	ldrb.w	r6, [fp, r1]
  201066:	2580      	movs	r5, #128	; 0x80
  201068:	fa25 f202 	lsr.w	r2, r5, r2
  20106c:	9d01      	ldr	r5, [sp, #4]
  20106e:	4072      	eors	r2, r6
  201070:	f80b 2001 	strb.w	r2, [fp, r1]
  201074:	e7bc      	b.n	200ff0 <applymask+0x440>
  201076:	f242 0011 	movw	r0, #8209	; 0x2011
  20107a:	f6c2 0020 	movt	r0, #10272	; 0x2820
  20107e:	f890 e000 	ldrb.w	lr, [r0]
  201082:	f1be 0f00 	cmp.w	lr, #0
  201086:	f000 80e1 	beq.w	20124c <applymask+0x69c>
  20108a:	f242 0018 	movw	r0, #8216	; 0x2018
  20108e:	f6c2 0020 	movt	r0, #10272	; 0x2820
  201092:	f8d0 8000 	ldr.w	r8, [r0]
  201096:	f242 0024 	movw	r0, #8228	; 0x2024
  20109a:	f6c2 0020 	movt	r0, #10272	; 0x2820
  20109e:	f8d0 b000 	ldr.w	fp, [r0]
  2010a2:	f242 0010 	movw	r0, #8208	; 0x2010
  2010a6:	f6c2 0020 	movt	r0, #10272	; 0x2820
  2010aa:	7800      	ldrb	r0, [r0, #0]
  2010ac:	2300      	movs	r3, #0
  2010ae:	9001      	str	r0, [sp, #4]
  2010b0:	f04f 0907 	mov.w	r9, #7
  2010b4:	4675      	mov	r5, lr
  2010b6:	2000      	movs	r0, #0
  2010b8:	e007      	b.n	2010ca <applymask+0x51a>
  2010ba:	bf00      	nop
  2010bc:	2500      	movs	r5, #0
  2010be:	3301      	adds	r3, #1
  2010c0:	42ab      	cmp	r3, r5
  2010c2:	f106 0001 	add.w	r0, r6, #1
  2010c6:	f080 80c1 	bcs.w	20124c <applymask+0x69c>
  2010ca:	b2c4      	uxtb	r4, r0
  2010cc:	1ee6      	subs	r6, r4, #3
  2010ce:	bf18      	it	ne
  2010d0:	4606      	movne	r6, r0
  2010d2:	2d00      	cmp	r5, #0
  2010d4:	d0f2      	beq.n	2010bc <applymask+0x50c>
  2010d6:	9801      	ldr	r0, [sp, #4]
  2010d8:	2400      	movs	r4, #0
  2010da:	fb03 fa00 	mul.w	sl, r3, r0
  2010de:	2700      	movs	r7, #0
  2010e0:	e005      	b.n	2010ee <applymask+0x53e>
  2010e2:	bf00      	nop
  2010e4:	3401      	adds	r4, #1
  2010e6:	42ac      	cmp	r4, r5
  2010e8:	f100 0701 	add.w	r7, r0, #1
  2010ec:	d2e7      	bcs.n	2010be <applymask+0x50e>
  2010ee:	b2f8      	uxtb	r0, r7
  2010f0:	3803      	subs	r0, #3
  2010f2:	bf18      	it	ne
  2010f4:	4638      	movne	r0, r7
  2010f6:	b2c7      	uxtb	r7, r0
  2010f8:	fa5f fc86 	uxtb.w	ip, r6
  2010fc:	eba7 010c 	sub.w	r1, r7, ip
  201100:	fab1 f181 	clz	r1, r1
  201104:	0949      	lsrs	r1, r1, #5
  201106:	ea04 0203 	and.w	r2, r4, r3
  20110a:	2f00      	cmp	r7, #0
  20110c:	bf18      	it	ne
  20110e:	2701      	movne	r7, #1
  201110:	4039      	ands	r1, r7
  201112:	4411      	add	r1, r2
  201114:	07c9      	lsls	r1, r1, #31
  201116:	d1e5      	bne.n	2010e4 <applymask+0x534>
  201118:	4619      	mov	r1, r3
  20111a:	42a3      	cmp	r3, r4
  20111c:	bf38      	it	cc
  20111e:	4621      	movcc	r1, r4
  201120:	b2ca      	uxtb	r2, r1
  201122:	fb02 f202 	mul.w	r2, r2, r2
  201126:	4627      	mov	r7, r4
  201128:	fa52 f181 	uxtab	r1, r2, r1
  20112c:	bf38      	it	cc
  20112e:	461f      	movcc	r7, r3
  201130:	0849      	lsrs	r1, r1, #1
  201132:	fa51 f187 	uxtab	r1, r1, r7
  201136:	08ca      	lsrs	r2, r1, #3
  201138:	f818 2002 	ldrb.w	r2, [r8, r2]
  20113c:	ea29 0101 	bic.w	r1, r9, r1
  201140:	fa22 f101 	lsr.w	r1, r2, r1
  201144:	07c9      	lsls	r1, r1, #31
  201146:	d1cd      	bne.n	2010e4 <applymask+0x534>
  201148:	f3c4 01c4 	ubfx	r1, r4, #3, #5
  20114c:	f004 0207 	and.w	r2, r4, #7
  201150:	4451      	add	r1, sl
  201152:	f81b 7001 	ldrb.w	r7, [fp, r1]
  201156:	2580      	movs	r5, #128	; 0x80
  201158:	fa25 f202 	lsr.w	r2, r5, r2
  20115c:	407a      	eors	r2, r7
  20115e:	4675      	mov	r5, lr
  201160:	f80b 2001 	strb.w	r2, [fp, r1]
  201164:	e7be      	b.n	2010e4 <applymask+0x534>
  201166:	f242 0011 	movw	r0, #8209	; 0x2011
  20116a:	f6c2 0020 	movt	r0, #10272	; 0x2820
  20116e:	f890 e000 	ldrb.w	lr, [r0]
  201172:	f1be 0f00 	cmp.w	lr, #0
  201176:	d069      	beq.n	20124c <applymask+0x69c>
  201178:	f242 0018 	movw	r0, #8216	; 0x2018
  20117c:	f6c2 0020 	movt	r0, #10272	; 0x2820
  201180:	6801      	ldr	r1, [r0, #0]
  201182:	f242 0024 	movw	r0, #8228	; 0x2024
  201186:	f6c2 0020 	movt	r0, #10272	; 0x2820
  20118a:	f8d0 b000 	ldr.w	fp, [r0]
  20118e:	f242 0010 	movw	r0, #8208	; 0x2010
  201192:	f6c2 0020 	movt	r0, #10272	; 0x2820
  201196:	7800      	ldrb	r0, [r0, #0]
  201198:	f04f 0c00 	mov.w	ip, #0
  20119c:	9001      	str	r0, [sp, #4]
  20119e:	f04f 0907 	mov.w	r9, #7
  2011a2:	f04f 0880 	mov.w	r8, #128	; 0x80
  2011a6:	4675      	mov	r5, lr
  2011a8:	2000      	movs	r0, #0
  2011aa:	e006      	b.n	2011ba <applymask+0x60a>
  2011ac:	2500      	movs	r5, #0
  2011ae:	f10c 0c01 	add.w	ip, ip, #1
  2011b2:	45ac      	cmp	ip, r5
  2011b4:	f106 0001 	add.w	r0, r6, #1
  2011b8:	d248      	bcs.n	20124c <applymask+0x69c>
  2011ba:	b2c4      	uxtb	r4, r0
  2011bc:	1ee6      	subs	r6, r4, #3
  2011be:	bf18      	it	ne
  2011c0:	4606      	movne	r6, r0
  2011c2:	2d00      	cmp	r5, #0
  2011c4:	d0f2      	beq.n	2011ac <applymask+0x5fc>
  2011c6:	9801      	ldr	r0, [sp, #4]
  2011c8:	2400      	movs	r4, #0
  2011ca:	fb0c fa00 	mul.w	sl, ip, r0
  2011ce:	2700      	movs	r7, #0
  2011d0:	e005      	b.n	2011de <applymask+0x62e>
  2011d2:	bf00      	nop
  2011d4:	3401      	adds	r4, #1
  2011d6:	42ac      	cmp	r4, r5
  2011d8:	f100 0701 	add.w	r7, r0, #1
  2011dc:	d2e7      	bcs.n	2011ae <applymask+0x5fe>
  2011de:	b2f8      	uxtb	r0, r7
  2011e0:	3803      	subs	r0, #3
  2011e2:	bf18      	it	ne
  2011e4:	4638      	movne	r0, r7
  2011e6:	b2c7      	uxtb	r7, r0
  2011e8:	b2f2      	uxtb	r2, r6
  2011ea:	1aba      	subs	r2, r7, r2
  2011ec:	fab2 f282 	clz	r2, r2
  2011f0:	2f00      	cmp	r7, #0
  2011f2:	bf18      	it	ne
  2011f4:	2701      	movne	r7, #1
  2011f6:	0952      	lsrs	r2, r2, #5
  2011f8:	403a      	ands	r2, r7
  2011fa:	eb0c 0704 	add.w	r7, ip, r4
  2011fe:	443a      	add	r2, r7
  201200:	07d2      	lsls	r2, r2, #31
  201202:	d1e7      	bne.n	2011d4 <applymask+0x624>
  201204:	4662      	mov	r2, ip
  201206:	4564      	cmp	r4, ip
  201208:	bf88      	it	hi
  20120a:	4622      	movhi	r2, r4
  20120c:	b2d7      	uxtb	r7, r2
  20120e:	fb07 f707 	mul.w	r7, r7, r7
  201212:	4663      	mov	r3, ip
  201214:	fa57 f282 	uxtab	r2, r7, r2
  201218:	bf38      	it	cc
  20121a:	4623      	movcc	r3, r4
  20121c:	0852      	lsrs	r2, r2, #1
  20121e:	fa52 f283 	uxtab	r2, r2, r3
  201222:	08d3      	lsrs	r3, r2, #3
  201224:	5ccb      	ldrb	r3, [r1, r3]
  201226:	ea29 0202 	bic.w	r2, r9, r2
  20122a:	fa23 f202 	lsr.w	r2, r3, r2
  20122e:	07d2      	lsls	r2, r2, #31
  201230:	d1d0      	bne.n	2011d4 <applymask+0x624>
  201232:	eb0a 02d4 	add.w	r2, sl, r4, lsr #3
  201236:	f004 0307 	and.w	r3, r4, #7
  20123a:	f81b 5002 	ldrb.w	r5, [fp, r2]
  20123e:	fa28 f303 	lsr.w	r3, r8, r3
  201242:	406b      	eors	r3, r5
  201244:	4675      	mov	r5, lr
  201246:	f80b 3002 	strb.w	r3, [fp, r2]
  20124a:	e7c3      	b.n	2011d4 <applymask+0x624>
  20124c:	b002      	add	sp, #8
  20124e:	e8bd 8ff0 	ldmia.w	sp!, {r4, r5, r6, r7, r8, r9, sl, fp, pc}
	...

00201254 <benchmark_qrduino>:
  201254:	e92d 4ff0 	stmdb	sp!, {r4, r5, r6, r7, r8, r9, sl, fp, lr}
  201258:	b099      	sub	sp, #100	; 0x64
  20125a:	f240 0000 	movw	r0, #0
  20125e:	f6c2 0020 	movt	r0, #10272	; 0x2820
  201262:	7802      	ldrb	r2, [r0, #0]
  201264:	2701      	movs	r7, #1
  201266:	2118      	movs	r1, #24
  201268:	2a00      	cmp	r2, #0
  20126a:	bf18      	it	ne
  20126c:	2702      	movne	r7, #2
  20126e:	00b8      	lsls	r0, r7, #2
  201270:	f242 0611 	movw	r6, #8209	; 0x2011
  201274:	eb01 0187 	add.w	r1, r1, r7, lsl #2
  201278:	3011      	adds	r0, #17
  20127a:	f6c2 0620 	movt	r6, #10272	; 0x2820
  20127e:	f242 0808 	movw	r8, #8200	; 0x2008
  201282:	7030      	strb	r0, [r6, #0]
  201284:	08c8      	lsrs	r0, r1, #3
  201286:	f242 0110 	movw	r1, #8208	; 0x2010
  20128a:	f6c2 0820 	movt	r8, #10272	; 0x2820
  20128e:	f242 090c 	movw	r9, #8204	; 0x200c
  201292:	f6c2 0120 	movt	r1, #10272	; 0x2820
  201296:	f8d8 6000 	ldr.w	r6, [r8]
  20129a:	f6c2 0920 	movt	r9, #10272	; 0x2820
  20129e:	7008      	strb	r0, [r1, #0]
  2012a0:	f8d9 c000 	ldr.w	ip, [r9]
  2012a4:	f242 0120 	movw	r1, #8224	; 0x2020
  2012a8:	f506 7040 	add.w	r0, r6, #768	; 0x300
  2012ac:	f6c2 0120 	movt	r1, #10272	; 0x2820
  2012b0:	f242 0524 	movw	r5, #8228	; 0x2024
  2012b4:	4560      	cmp	r0, ip
  2012b6:	700f      	strb	r7, [r1, #0]
  2012b8:	bf92      	itee	ls
  2012ba:	f8c8 0000 	strls.w	r0, [r8]
  2012be:	4630      	movhi	r0, r6
  2012c0:	2600      	movhi	r6, #0
  2012c2:	f6c2 0520 	movt	r5, #10272	; 0x2820
  2012c6:	602e      	str	r6, [r5, #0]
  2012c8:	f244 7620 	movw	r6, #18208	; 0x4720
  2012cc:	f2c0 0620 	movt	r6, #32
  2012d0:	f242 0528 	movw	r5, #8232	; 0x2028
  2012d4:	eb06 1707 	add.w	r7, r6, r7, lsl #4
  2012d8:	2301      	movs	r3, #1
  2012da:	f6c2 0520 	movt	r5, #10272	; 0x2820
  2012de:	702b      	strb	r3, [r5, #0]
  2012e0:	f817 3c10 	ldrb.w	r3, [r7, #-16]
  2012e4:	f242 0129 	movw	r1, #8233	; 0x2029
  2012e8:	f6c2 0120 	movt	r1, #10272	; 0x2820
  2012ec:	f817 6c0f 	ldrb.w	r6, [r7, #-15]
  2012f0:	700b      	strb	r3, [r1, #0]
  2012f2:	f242 012a 	movw	r1, #8234	; 0x202a
  2012f6:	f817 4c0e 	ldrb.w	r4, [r7, #-14]
  2012fa:	f817 7c0d 	ldrb.w	r7, [r7, #-13]
  2012fe:	f6c2 0120 	movt	r1, #10272	; 0x2820
  201302:	700e      	strb	r6, [r1, #0]
  201304:	f242 012b 	movw	r1, #8235	; 0x202b
  201308:	193d      	adds	r5, r7, r4
  20130a:	4433      	add	r3, r6
  20130c:	4426      	add	r6, r4
  20130e:	f6c2 0120 	movt	r1, #10272	; 0x2820
  201312:	fb15 6303 	smlabb	r3, r5, r3, r6
  201316:	700c      	strb	r4, [r1, #0]
  201318:	f242 012c 	movw	r1, #8236	; 0x202c
  20131c:	f6c2 0120 	movt	r1, #10272	; 0x2820
  201320:	f5b3 7f40 	cmp.w	r3, #768	; 0x300
  201324:	bf98      	it	ls
  201326:	f44f 7340 	movls.w	r3, #768	; 0x300
  20132a:	700f      	strb	r7, [r1, #0]
  20132c:	f242 0130 	movw	r1, #8240	; 0x2030
  201330:	4403      	add	r3, r0
  201332:	f6c2 0120 	movt	r1, #10272	; 0x2820
  201336:	4563      	cmp	r3, ip
  201338:	bf94      	ite	ls
  20133a:	f8c8 3000 	strls.w	r3, [r8]
  20133e:	2000      	movhi	r0, #0
  201340:	6008      	str	r0, [r1, #0]
  201342:	f240 0104 	movw	r1, #4
  201346:	f6c2 0120 	movt	r1, #10272	; 0x2820
  20134a:	6809      	ldr	r1, [r1, #0]
  20134c:	2a00      	cmp	r2, #0
  20134e:	bf18      	it	ne
  201350:	2216      	movne	r2, #22
  201352:	f7ff f8c7 	bl	2004e4 <__rt_memcpy>
  201356:	f242 0010 	movw	r0, #8208	; 0x2010
  20135a:	f6c2 0020 	movt	r0, #10272	; 0x2820
  20135e:	7801      	ldrb	r1, [r0, #0]
  201360:	f242 0011 	movw	r0, #8209	; 0x2011
  201364:	f6c2 0020 	movt	r0, #10272	; 0x2820
  201368:	7805      	ldrb	r5, [r0, #0]
  20136a:	460b      	mov	r3, r1
  20136c:	fb05 f101 	mul.w	r1, r5, r1
  201370:	f8d8 b000 	ldr.w	fp, [r8]
  201374:	f8d9 9000 	ldr.w	r9, [r9]
  201378:	b171      	cbz	r1, 201398 <benchmark_qrduino+0x144>
  20137a:	fb15 b603 	smlabb	r6, r5, r3, fp
  20137e:	454e      	cmp	r6, r9
  201380:	d80a      	bhi.n	201398 <benchmark_qrduino+0x144>
  201382:	f1bb 0f00 	cmp.w	fp, #0
  201386:	f8c8 6000 	str.w	r6, [r8]
  20138a:	d006      	beq.n	20139a <benchmark_qrduino+0x146>
  20138c:	4658      	mov	r0, fp
  20138e:	461c      	mov	r4, r3
  201390:	f7ff f92f 	bl	2005f2 <__aeabi_memclr>
  201394:	4623      	mov	r3, r4
  201396:	e002      	b.n	20139e <benchmark_qrduino+0x14a>
  201398:	465e      	mov	r6, fp
  20139a:	f04f 0b00 	mov.w	fp, #0
  20139e:	f105 0a01 	add.w	sl, r5, #1
  2013a2:	fb0a f005 	mul.w	r0, sl, r5
  2013a6:	f242 0114 	movw	r1, #8212	; 0x2014
  2013aa:	f6c2 0120 	movt	r1, #10272	; 0x2820
  2013ae:	2802      	cmp	r0, #2
  2013b0:	f8c1 b000 	str.w	fp, [r1]
  2013b4:	d310      	bcc.n	2013d8 <benchmark_qrduino+0x184>
  2013b6:	2107      	movs	r1, #7
  2013b8:	eb01 0050 	add.w	r0, r1, r0, lsr #1
  2013bc:	eb06 04d0 	add.w	r4, r6, r0, lsr #3
  2013c0:	454c      	cmp	r4, r9
  2013c2:	d809      	bhi.n	2013d8 <benchmark_qrduino+0x184>
  2013c4:	f8c8 4000 	str.w	r4, [r8]
  2013c8:	b13e      	cbz	r6, 2013da <benchmark_qrduino+0x186>
  2013ca:	08c1      	lsrs	r1, r0, #3
  2013cc:	4630      	mov	r0, r6
  2013ce:	461f      	mov	r7, r3
  2013d0:	f7ff f90f 	bl	2005f2 <__aeabi_memclr>
  2013d4:	463b      	mov	r3, r7
  2013d6:	e001      	b.n	2013dc <benchmark_qrduino+0x188>
  2013d8:	4634      	mov	r4, r6
  2013da:	2600      	movs	r6, #0
  2013dc:	f242 0018 	movw	r0, #8216	; 0x2018
  2013e0:	f6c2 0020 	movt	r0, #10272	; 0x2820
  2013e4:	6006      	str	r6, [r0, #0]
  2013e6:	eb04 000a 	add.w	r0, r4, sl
  2013ea:	2100      	movs	r1, #0
  2013ec:	4548      	cmp	r0, r9
  2013ee:	bf9c      	itt	ls
  2013f0:	f8c8 0000 	strls.w	r0, [r8]
  2013f4:	4621      	movls	r1, r4
  2013f6:	f242 001c 	movw	r0, #8220	; 0x201c
  2013fa:	f6c2 0020 	movt	r0, #10272	; 0x2820
  2013fe:	2200      	movs	r2, #0
  201400:	6001      	str	r1, [r0, #0]
  201402:	1fe8      	subs	r0, r5, #7
  201404:	9603      	str	r6, [sp, #12]
  201406:	9004      	str	r0, [sp, #16]
  201408:	9302      	str	r3, [sp, #8]
  20140a:	bf00      	nop
  20140c:	2a01      	cmp	r2, #1
  20140e:	f04f 0400 	mov.w	r4, #0
  201412:	9804      	ldr	r0, [sp, #16]
  201414:	f04f 0700 	mov.w	r7, #0
  201418:	920d      	str	r2, [sp, #52]	; 0x34
  20141a:	bf08      	it	eq
  20141c:	4604      	moveq	r4, r0
  20141e:	2a02      	cmp	r2, #2
  201420:	bf08      	it	eq
  201422:	4607      	moveq	r7, r0
  201424:	2003      	movs	r0, #3
  201426:	fa50 f184 	uxtab	r1, r0, r4
  20142a:	fa50 f087 	uxtab	r0, r0, r7
  20142e:	fb01 f203 	mul.w	r2, r1, r3
  201432:	f000 0107 	and.w	r1, r0, #7
  201436:	9212      	str	r2, [sp, #72]	; 0x48
  201438:	eb02 02d0 	add.w	r2, r2, r0, lsr #3
  20143c:	2680      	movs	r6, #128	; 0x80
  20143e:	9014      	str	r0, [sp, #80]	; 0x50
  201440:	fa26 f001 	lsr.w	r0, r6, r1
  201444:	f81b 1002 	ldrb.w	r1, [fp, r2]
  201448:	4699      	mov	r9, r3
  20144a:	b2e5      	uxtb	r5, r4
  20144c:	4301      	orrs	r1, r0
  20144e:	f80b 1002 	strb.w	r1, [fp, r2]
  201452:	f007 0107 	and.w	r1, r7, #7
  201456:	fb05 f209 	mul.w	r2, r5, r9
  20145a:	fa5f fc87 	uxtb.w	ip, r7
  20145e:	9013      	str	r0, [sp, #76]	; 0x4c
  201460:	4623      	mov	r3, r4
  201462:	fa26 f001 	lsr.w	r0, r6, r1
  201466:	2106      	movs	r1, #6
  201468:	f04f 0801 	mov.w	r8, #1
  20146c:	fa51 f687 	uxtab	r6, r1, r7
  201470:	463c      	mov	r4, r7
  201472:	eb02 05dc 	add.w	r5, r2, ip, lsr #3
  201476:	fa58 f783 	uxtab	r7, r8, r3
  20147a:	f81b 1005 	ldrb.w	r1, [fp, r5]
  20147e:	fb07 fa09 	mul.w	sl, r7, r9
  201482:	4301      	orrs	r1, r0
  201484:	eb0a 07dc 	add.w	r7, sl, ip, lsr #3
  201488:	f80b 1005 	strb.w	r1, [fp, r5]
  20148c:	f81b 5007 	ldrb.w	r5, [fp, r7]
  201490:	f006 0e07 	and.w	lr, r6, #7
  201494:	2180      	movs	r1, #128	; 0x80
  201496:	fa21 f10e 	lsr.w	r1, r1, lr
  20149a:	ea45 0e00 	orr.w	lr, r5, r0
  20149e:	eb02 05d6 	add.w	r5, r2, r6, lsr #3
  2014a2:	f8cd c054 	str.w	ip, [sp, #84]	; 0x54
  2014a6:	4684      	mov	ip, r0
  2014a8:	9011      	str	r0, [sp, #68]	; 0x44
  2014aa:	f80b e007 	strb.w	lr, [fp, r7]
  2014ae:	2006      	movs	r0, #6
  2014b0:	9617      	str	r6, [sp, #92]	; 0x5c
  2014b2:	f81b 7005 	ldrb.w	r7, [fp, r5]
  2014b6:	fa50 f683 	uxtab	r6, r0, r3
  2014ba:	910f      	str	r1, [sp, #60]	; 0x3c
  2014bc:	4618      	mov	r0, r3
  2014be:	9318      	str	r3, [sp, #96]	; 0x60
  2014c0:	430f      	orrs	r7, r1
  2014c2:	fa58 f384 	uxtab	r3, r8, r4
  2014c6:	fb06 f109 	mul.w	r1, r6, r9
  2014ca:	f80b 7005 	strb.w	r7, [fp, r5]
  2014ce:	eb01 05d3 	add.w	r5, r1, r3, lsr #3
  2014d2:	46a6      	mov	lr, r4
  2014d4:	9416      	str	r4, [sp, #88]	; 0x58
  2014d6:	460c      	mov	r4, r1
  2014d8:	f003 0607 	and.w	r6, r3, #7
  2014dc:	f81b 7005 	ldrb.w	r7, [fp, r5]
  2014e0:	2180      	movs	r1, #128	; 0x80
  2014e2:	fa21 f606 	lsr.w	r6, r1, r6
  2014e6:	4337      	orrs	r7, r6
  2014e8:	2102      	movs	r1, #2
  2014ea:	f80b 7005 	strb.w	r7, [fp, r5]
  2014ee:	eb02 03d3 	add.w	r3, r2, r3, lsr #3
  2014f2:	fa51 f580 	uxtab	r5, r1, r0
  2014f6:	f81b 7003 	ldrb.w	r7, [fp, r3]
  2014fa:	fb05 f809 	mul.w	r8, r5, r9
  2014fe:	9815      	ldr	r0, [sp, #84]	; 0x54
  201500:	ea47 0506 	orr.w	r5, r7, r6
  201504:	eb08 06d0 	add.w	r6, r8, r0, lsr #3
  201508:	f80b 5003 	strb.w	r5, [fp, r3]
  20150c:	f81b 3006 	ldrb.w	r3, [fp, r6]
  201510:	9917      	ldr	r1, [sp, #92]	; 0x5c
  201512:	ea43 030c 	orr.w	r3, r3, ip
  201516:	eb0a 05d1 	add.w	r5, sl, r1, lsr #3
  20151a:	f80b 3006 	strb.w	r3, [fp, r6]
  20151e:	f81b 3005 	ldrb.w	r3, [fp, r5]
  201522:	f8dd a03c 	ldr.w	sl, [sp, #60]	; 0x3c
  201526:	2702      	movs	r7, #2
  201528:	fa57 f78e 	uxtab	r7, r7, lr
  20152c:	ea43 030a 	orr.w	r3, r3, sl
  201530:	f80b 3005 	strb.w	r3, [fp, r5]
  201534:	eb04 03d7 	add.w	r3, r4, r7, lsr #3
  201538:	f007 0c07 	and.w	ip, r7, #7
  20153c:	f81b 6003 	ldrb.w	r6, [fp, r3]
  201540:	2580      	movs	r5, #128	; 0x80
  201542:	fa25 f50c 	lsr.w	r5, r5, ip
  201546:	ea46 0e05 	orr.w	lr, r6, r5
  20154a:	eb02 06d7 	add.w	r6, r2, r7, lsr #3
  20154e:	f80b e003 	strb.w	lr, [fp, r3]
  201552:	970c      	str	r7, [sp, #48]	; 0x30
  201554:	f81b 3006 	ldrb.w	r3, [fp, r6]
  201558:	9f12      	ldr	r7, [sp, #72]	; 0x48
  20155a:	950b      	str	r5, [sp, #44]	; 0x2c
  20155c:	432b      	orrs	r3, r5
  20155e:	eb07 05d0 	add.w	r5, r7, r0, lsr #3
  201562:	f80b 3006 	strb.w	r3, [fp, r6]
  201566:	4684      	mov	ip, r0
  201568:	f81b 3005 	ldrb.w	r3, [fp, r5]
  20156c:	9811      	ldr	r0, [sp, #68]	; 0x44
  20156e:	eb08 06d1 	add.w	r6, r8, r1, lsr #3
  201572:	4303      	orrs	r3, r0
  201574:	f80b 3005 	strb.w	r3, [fp, r5]
  201578:	f81b 3006 	ldrb.w	r3, [fp, r6]
  20157c:	9d14      	ldr	r5, [sp, #80]	; 0x50
  20157e:	ea43 030a 	orr.w	r3, r3, sl
  201582:	eb04 0ed5 	add.w	lr, r4, r5, lsr #3
  201586:	f80b 3006 	strb.w	r3, [fp, r6]
  20158a:	f81b 300e 	ldrb.w	r3, [fp, lr]
  20158e:	9e13      	ldr	r6, [sp, #76]	; 0x4c
  201590:	9918      	ldr	r1, [sp, #96]	; 0x60
  201592:	4333      	orrs	r3, r6
  201594:	f80b 300e 	strb.w	r3, [fp, lr]
  201598:	f04f 0e04 	mov.w	lr, #4
  20159c:	eb02 03d5 	add.w	r3, r2, r5, lsr #3
  2015a0:	fa5e f581 	uxtab	r5, lr, r1
  2015a4:	f81b a003 	ldrb.w	sl, [fp, r3]
  2015a8:	fb05 f509 	mul.w	r5, r5, r9
  2015ac:	f8cd 8028 	str.w	r8, [sp, #40]	; 0x28
  2015b0:	ea4a 0806 	orr.w	r8, sl, r6
  2015b4:	eb05 06dc 	add.w	r6, r5, ip, lsr #3
  2015b8:	f80b 8003 	strb.w	r8, [fp, r3]
  2015bc:	920e      	str	r2, [sp, #56]	; 0x38
  2015be:	f81b 3006 	ldrb.w	r3, [fp, r6]
  2015c2:	9a17      	ldr	r2, [sp, #92]	; 0x5c
  2015c4:	46aa      	mov	sl, r5
  2015c6:	9507      	str	r5, [sp, #28]
  2015c8:	4303      	orrs	r3, r0
  2015ca:	eb07 05d2 	add.w	r5, r7, r2, lsr #3
  2015ce:	f80b 3006 	strb.w	r3, [fp, r6]
  2015d2:	f8dd 8058 	ldr.w	r8, [sp, #88]	; 0x58
  2015d6:	f81b 3005 	ldrb.w	r3, [fp, r5]
  2015da:	f8dd c03c 	ldr.w	ip, [sp, #60]	; 0x3c
  2015de:	fa5e f788 	uxtab	r7, lr, r8
  2015e2:	ea43 030c 	orr.w	r3, r3, ip
  2015e6:	f80b 3005 	strb.w	r3, [fp, r5]
  2015ea:	eb04 03d7 	add.w	r3, r4, r7, lsr #3
  2015ee:	f007 0507 	and.w	r5, r7, #7
  2015f2:	f81b e003 	ldrb.w	lr, [fp, r3]
  2015f6:	2080      	movs	r0, #128	; 0x80
  2015f8:	9410      	str	r4, [sp, #64]	; 0x40
  2015fa:	fa20 f605 	lsr.w	r6, r0, r5
  2015fe:	9c0e      	ldr	r4, [sp, #56]	; 0x38
  201600:	ea4e 0506 	orr.w	r5, lr, r6
  201604:	2005      	movs	r0, #5
  201606:	f80b 5003 	strb.w	r5, [fp, r3]
  20160a:	eb04 03d7 	add.w	r3, r4, r7, lsr #3
  20160e:	fa50 f581 	uxtab	r5, r0, r1
  201612:	9709      	str	r7, [sp, #36]	; 0x24
  201614:	f81b 7003 	ldrb.w	r7, [fp, r3]
  201618:	fb05 f909 	mul.w	r9, r5, r9
  20161c:	f8dd e054 	ldr.w	lr, [sp, #84]	; 0x54
  201620:	ea47 0006 	orr.w	r0, r7, r6
  201624:	eb09 07de 	add.w	r7, r9, lr, lsr #3
  201628:	f80b 0003 	strb.w	r0, [fp, r3]
  20162c:	f81b 3007 	ldrb.w	r3, [fp, r7]
  201630:	9911      	ldr	r1, [sp, #68]	; 0x44
  201632:	9608      	str	r6, [sp, #32]
  201634:	430b      	orrs	r3, r1
  201636:	eb0a 06d2 	add.w	r6, sl, r2, lsr #3
  20163a:	2005      	movs	r0, #5
  20163c:	f80b 3007 	strb.w	r3, [fp, r7]
  201640:	fa50 f788 	uxtab	r7, r0, r8
  201644:	f81b 3006 	ldrb.w	r3, [fp, r6]
  201648:	4615      	mov	r5, r2
  20164a:	eb04 02d7 	add.w	r2, r4, r7, lsr #3
  20164e:	9c10      	ldr	r4, [sp, #64]	; 0x40
  201650:	ea43 030c 	orr.w	r3, r3, ip
  201654:	f80b 3006 	strb.w	r3, [fp, r6]
  201658:	eb04 03d7 	add.w	r3, r4, r7, lsr #3
  20165c:	f007 0607 	and.w	r6, r7, #7
  201660:	f81b 7003 	ldrb.w	r7, [fp, r3]
  201664:	2080      	movs	r0, #128	; 0x80
  201666:	fa20 f606 	lsr.w	r6, r0, r6
  20166a:	4337      	orrs	r7, r6
  20166c:	f80b 7003 	strb.w	r7, [fp, r3]
  201670:	f81b 3002 	ldrb.w	r3, [fp, r2]
  201674:	eb04 07de 	add.w	r7, r4, lr, lsr #3
  201678:	4333      	orrs	r3, r6
  20167a:	f80b 3002 	strb.w	r3, [fp, r2]
  20167e:	f81b 2007 	ldrb.w	r2, [fp, r7]
  201682:	eb09 03d5 	add.w	r3, r9, r5, lsr #3
  201686:	430a      	orrs	r2, r1
  201688:	4628      	mov	r0, r5
  20168a:	f80b 2007 	strb.w	r2, [fp, r7]
  20168e:	f81b 2003 	ldrb.w	r2, [fp, r3]
  201692:	9818      	ldr	r0, [sp, #96]	; 0x60
  201694:	46c2      	mov	sl, r8
  201696:	ea42 020c 	orr.w	r2, r2, ip
  20169a:	f100 0801 	add.w	r8, r0, #1
  20169e:	f10a 0e01 	add.w	lr, sl, #1
  2016a2:	f80b 2003 	strb.w	r2, [fp, r3]
  2016a6:	fa5f f388 	uxtb.w	r3, r8
  2016aa:	fa5f f28e 	uxtb.w	r2, lr
  2016ae:	429a      	cmp	r2, r3
  2016b0:	4699      	mov	r9, r3
  2016b2:	9317      	str	r3, [sp, #92]	; 0x5c
  2016b4:	4613      	mov	r3, r2
  2016b6:	9210      	str	r2, [sp, #64]	; 0x40
  2016b8:	4642      	mov	r2, r8
  2016ba:	bf88      	it	hi
  2016bc:	4672      	movhi	r2, lr
  2016be:	b2d6      	uxtb	r6, r2
  2016c0:	fb06 f606 	mul.w	r6, r6, r6
  2016c4:	eb04 01d5 	add.w	r1, r4, r5, lsr #3
  2016c8:	fa56 f282 	uxtab	r2, r6, r2
  2016cc:	f81b 7001 	ldrb.w	r7, [fp, r1]
  2016d0:	4676      	mov	r6, lr
  2016d2:	ea4f 0252 	mov.w	r2, r2, lsr #1
  2016d6:	bf88      	it	hi
  2016d8:	4646      	movhi	r6, r8
  2016da:	fa52 f286 	uxtab	r2, r2, r6
  2016de:	ea47 070c 	orr.w	r7, r7, ip
  2016e2:	1c86      	adds	r6, r0, #2
  2016e4:	f80b 7001 	strb.w	r7, [fp, r1]
  2016e8:	f002 0107 	and.w	r1, r2, #7
  2016ec:	2780      	movs	r7, #128	; 0x80
  2016ee:	b2f0      	uxtb	r0, r6
  2016f0:	4635      	mov	r5, r6
  2016f2:	fa27 fc01 	lsr.w	ip, r7, r1
  2016f6:	9006      	str	r0, [sp, #24]
  2016f8:	4283      	cmp	r3, r0
  2016fa:	bf88      	it	hi
  2016fc:	4675      	movhi	r5, lr
  2016fe:	b2e9      	uxtb	r1, r5
  201700:	fb01 f101 	mul.w	r1, r1, r1
  201704:	9c03      	ldr	r4, [sp, #12]
  201706:	fa51 f185 	uxtab	r1, r1, r5
  20170a:	ea4f 02d2 	mov.w	r2, r2, lsr #3
  20170e:	5ca7      	ldrb	r7, [r4, r2]
  201710:	4675      	mov	r5, lr
  201712:	ea4f 0151 	mov.w	r1, r1, lsr #1
  201716:	bf88      	it	hi
  201718:	4635      	movhi	r5, r6
  20171a:	fa51 f185 	uxtab	r1, r1, r5
  20171e:	ea47 070c 	orr.w	r7, r7, ip
  201722:	54a7      	strb	r7, [r4, r2]
  201724:	f001 0207 	and.w	r2, r1, #7
  201728:	2080      	movs	r0, #128	; 0x80
  20172a:	f10a 0505 	add.w	r5, sl, #5
  20172e:	fa20 fc02 	lsr.w	ip, r0, r2
  201732:	b2e8      	uxtb	r0, r5
  201734:	4642      	mov	r2, r8
  201736:	9515      	str	r5, [sp, #84]	; 0x54
  201738:	900f      	str	r0, [sp, #60]	; 0x3c
  20173a:	4548      	cmp	r0, r9
  20173c:	bf88      	it	hi
  20173e:	462a      	movhi	r2, r5
  201740:	b2d7      	uxtb	r7, r2
  201742:	fb07 f707 	mul.w	r7, r7, r7
  201746:	ea4f 01d1 	mov.w	r1, r1, lsr #3
  20174a:	fa57 f282 	uxtab	r2, r7, r2
  20174e:	f814 9001 	ldrb.w	r9, [r4, r1]
  201752:	462f      	mov	r7, r5
  201754:	ea4f 0252 	mov.w	r2, r2, lsr #1
  201758:	bf88      	it	hi
  20175a:	4647      	movhi	r7, r8
  20175c:	fa52 f287 	uxtab	r2, r2, r7
  201760:	ea4c 0c09 	orr.w	ip, ip, r9
  201764:	f804 c001 	strb.w	ip, [r4, r1]
  201768:	f002 0107 	and.w	r1, r2, #7
  20176c:	08d2      	lsrs	r2, r2, #3
  20176e:	2080      	movs	r0, #128	; 0x80
  201770:	5ca7      	ldrb	r7, [r4, r2]
  201772:	fa20 f101 	lsr.w	r1, r0, r1
  201776:	9818      	ldr	r0, [sp, #96]	; 0x60
  201778:	4653      	mov	r3, sl
  20177a:	ea47 0a01 	orr.w	sl, r7, r1
  20177e:	1d45      	adds	r5, r0, #5
  201780:	1c9f      	adds	r7, r3, #2
  201782:	fa5f fc85 	uxtb.w	ip, r5
  201786:	b2f9      	uxtb	r1, r7
  201788:	46a9      	mov	r9, r5
  20178a:	f8cd c044 	str.w	ip, [sp, #68]	; 0x44
  20178e:	4561      	cmp	r1, ip
  201790:	950e      	str	r5, [sp, #56]	; 0x38
  201792:	bf88      	it	hi
  201794:	46b9      	movhi	r9, r7
  201796:	fa5f fc89 	uxtb.w	ip, r9
  20179a:	fb0c fc0c 	mul.w	ip, ip, ip
  20179e:	f804 a002 	strb.w	sl, [r4, r2]
  2017a2:	fa5c fc89 	uxtab	ip, ip, r9
  2017a6:	463a      	mov	r2, r7
  2017a8:	bf88      	it	hi
  2017aa:	462a      	movhi	r2, r5
  2017ac:	9b17      	ldr	r3, [sp, #92]	; 0x5c
  2017ae:	ea4f 055c 	mov.w	r5, ip, lsr #1
  2017b2:	fa55 f282 	uxtab	r2, r5, r2
  2017b6:	4299      	cmp	r1, r3
  2017b8:	463d      	mov	r5, r7
  2017ba:	bf98      	it	ls
  2017bc:	4647      	movls	r7, r8
  2017be:	b2fb      	uxtb	r3, r7
  2017c0:	fb03 f303 	mul.w	r3, r3, r3
  2017c4:	f002 0107 	and.w	r1, r2, #7
  2017c8:	fa53 f387 	uxtab	r3, r3, r7
  2017cc:	f04f 0980 	mov.w	r9, #128	; 0x80
  2017d0:	ea4f 02d2 	mov.w	r2, r2, lsr #3
  2017d4:	fa29 fc01 	lsr.w	ip, r9, r1
  2017d8:	5ca1      	ldrb	r1, [r4, r2]
  2017da:	bf88      	it	hi
  2017dc:	4645      	movhi	r5, r8
  2017de:	085b      	lsrs	r3, r3, #1
  2017e0:	fa53 f385 	uxtab	r3, r3, r5
  2017e4:	ea41 010c 	orr.w	r1, r1, ip
  2017e8:	54a1      	strb	r1, [r4, r2]
  2017ea:	f003 0107 	and.w	r1, r3, #7
  2017ee:	08db      	lsrs	r3, r3, #3
  2017f0:	5ce2      	ldrb	r2, [r4, r3]
  2017f2:	fa29 f101 	lsr.w	r1, r9, r1
  2017f6:	f100 0a03 	add.w	sl, r0, #3
  2017fa:	f8dd 9040 	ldr.w	r9, [sp, #64]	; 0x40
  2017fe:	4311      	orrs	r1, r2
  201800:	fa5f f08a 	uxtb.w	r0, sl
  201804:	4657      	mov	r7, sl
  201806:	9005      	str	r0, [sp, #20]
  201808:	4581      	cmp	r9, r0
  20180a:	bf88      	it	hi
  20180c:	4677      	movhi	r7, lr
  20180e:	54e1      	strb	r1, [r4, r3]
  201810:	4673      	mov	r3, lr
  201812:	bf88      	it	hi
  201814:	4653      	movhi	r3, sl
  201816:	f8dd c03c 	ldr.w	ip, [sp, #60]	; 0x3c
  20181a:	9806      	ldr	r0, [sp, #24]
  20181c:	b2fd      	uxtb	r5, r7
  20181e:	fb05 f505 	mul.w	r5, r5, r5
  201822:	4584      	cmp	ip, r0
  201824:	9815      	ldr	r0, [sp, #84]	; 0x54
  201826:	fa55 f187 	uxtab	r1, r5, r7
  20182a:	4607      	mov	r7, r0
  20182c:	bf84      	itt	hi
  20182e:	4637      	movhi	r7, r6
  201830:	4606      	movhi	r6, r0
  201832:	b2f5      	uxtb	r5, r6
  201834:	0849      	lsrs	r1, r1, #1
  201836:	fb05 f505 	mul.w	r5, r5, r5
  20183a:	fa51 f183 	uxtab	r1, r1, r3
  20183e:	fa55 f386 	uxtab	r3, r5, r6
  201842:	f001 0607 	and.w	r6, r1, #7
  201846:	08c9      	lsrs	r1, r1, #3
  201848:	5c65      	ldrb	r5, [r4, r1]
  20184a:	2280      	movs	r2, #128	; 0x80
  20184c:	085b      	lsrs	r3, r3, #1
  20184e:	fa22 f606 	lsr.w	r6, r2, r6
  201852:	fa53 f387 	uxtab	r3, r3, r7
  201856:	432e      	orrs	r6, r5
  201858:	5466      	strb	r6, [r4, r1]
  20185a:	f003 0107 	and.w	r1, r3, #7
  20185e:	08db      	lsrs	r3, r3, #3
  201860:	5ce7      	ldrb	r7, [r4, r3]
  201862:	fa22 f101 	lsr.w	r1, r2, r1
  201866:	9a16      	ldr	r2, [sp, #88]	; 0x58
  201868:	4339      	orrs	r1, r7
  20186a:	1cd7      	adds	r7, r2, #3
  20186c:	9811      	ldr	r0, [sp, #68]	; 0x44
  20186e:	b2fe      	uxtb	r6, r7
  201870:	4286      	cmp	r6, r0
  201872:	980e      	ldr	r0, [sp, #56]	; 0x38
  201874:	4605      	mov	r5, r0
  201876:	bf88      	it	hi
  201878:	463d      	movhi	r5, r7
  20187a:	b2ea      	uxtb	r2, r5
  20187c:	fb02 f202 	mul.w	r2, r2, r2
  201880:	54e1      	strb	r1, [r4, r3]
  201882:	fa52 f185 	uxtab	r1, r2, r5
  201886:	463a      	mov	r2, r7
  201888:	bf88      	it	hi
  20188a:	4602      	movhi	r2, r0
  20188c:	0849      	lsrs	r1, r1, #1
  20188e:	fa51 f182 	uxtab	r1, r1, r2
  201892:	9a17      	ldr	r2, [sp, #92]	; 0x5c
  201894:	463b      	mov	r3, r7
  201896:	4296      	cmp	r6, r2
  201898:	bf98      	it	ls
  20189a:	4647      	movls	r7, r8
  20189c:	f001 0207 	and.w	r2, r1, #7
  2018a0:	ea4f 01d1 	mov.w	r1, r1, lsr #3
  2018a4:	b2fe      	uxtb	r6, r7
  2018a6:	f04f 0080 	mov.w	r0, #128	; 0x80
  2018aa:	5c65      	ldrb	r5, [r4, r1]
  2018ac:	bf88      	it	hi
  2018ae:	4643      	movhi	r3, r8
  2018b0:	fb06 f606 	mul.w	r6, r6, r6
  2018b4:	fa20 f202 	lsr.w	r2, r0, r2
  2018b8:	432a      	orrs	r2, r5
  2018ba:	fa56 f587 	uxtab	r5, r6, r7
  2018be:	5462      	strb	r2, [r4, r1]
  2018c0:	086d      	lsrs	r5, r5, #1
  2018c2:	fa55 f383 	uxtab	r3, r5, r3
  2018c6:	f003 0107 	and.w	r1, r3, #7
  2018ca:	08da      	lsrs	r2, r3, #3
  2018cc:	fa20 f101 	lsr.w	r1, r0, r1
  2018d0:	9818      	ldr	r0, [sp, #96]	; 0x60
  2018d2:	5ca3      	ldrb	r3, [r4, r2]
  2018d4:	1d06      	adds	r6, r0, #4
  2018d6:	430b      	orrs	r3, r1
  2018d8:	b2f0      	uxtb	r0, r6
  2018da:	4635      	mov	r5, r6
  2018dc:	9018      	str	r0, [sp, #96]	; 0x60
  2018de:	4581      	cmp	r9, r0
  2018e0:	bf88      	it	hi
  2018e2:	4675      	movhi	r5, lr
  2018e4:	54a3      	strb	r3, [r4, r2]
  2018e6:	4673      	mov	r3, lr
  2018e8:	bf88      	it	hi
  2018ea:	4633      	movhi	r3, r6
  2018ec:	9805      	ldr	r0, [sp, #20]
  2018ee:	b2ef      	uxtb	r7, r5
  2018f0:	fb07 f707 	mul.w	r7, r7, r7
  2018f4:	4584      	cmp	ip, r0
  2018f6:	9815      	ldr	r0, [sp, #84]	; 0x54
  2018f8:	fa57 f285 	uxtab	r2, r7, r5
  2018fc:	4607      	mov	r7, r0
  2018fe:	bf84      	itt	hi
  201900:	4657      	movhi	r7, sl
  201902:	4682      	movhi	sl, r0
  201904:	fa5f f58a 	uxtb.w	r5, sl
  201908:	0852      	lsrs	r2, r2, #1
  20190a:	fb05 f505 	mul.w	r5, r5, r5
  20190e:	fa52 f283 	uxtab	r2, r2, r3
  201912:	fa55 f38a 	uxtab	r3, r5, sl
  201916:	f002 0507 	and.w	r5, r2, #7
  20191a:	08d2      	lsrs	r2, r2, #3
  20191c:	5ca1      	ldrb	r1, [r4, r2]
  20191e:	f04f 0c80 	mov.w	ip, #128	; 0x80
  201922:	085b      	lsrs	r3, r3, #1
  201924:	fa2c f505 	lsr.w	r5, ip, r5
  201928:	fa53 f387 	uxtab	r3, r3, r7
  20192c:	4329      	orrs	r1, r5
  20192e:	54a1      	strb	r1, [r4, r2]
  201930:	08da      	lsrs	r2, r3, #3
  201932:	f003 0107 	and.w	r1, r3, #7
  201936:	5ca3      	ldrb	r3, [r4, r2]
  201938:	fa2c f101 	lsr.w	r1, ip, r1
  20193c:	4319      	orrs	r1, r3
  20193e:	54a1      	strb	r1, [r4, r2]
  201940:	9916      	ldr	r1, [sp, #88]	; 0x58
  201942:	980e      	ldr	r0, [sp, #56]	; 0x38
  201944:	3104      	adds	r1, #4
  201946:	f8dd 9044 	ldr.w	r9, [sp, #68]	; 0x44
  20194a:	b2ca      	uxtb	r2, r1
  20194c:	460b      	mov	r3, r1
  20194e:	4607      	mov	r7, r0
  201950:	454a      	cmp	r2, r9
  201952:	bf84      	itt	hi
  201954:	4603      	movhi	r3, r0
  201956:	460f      	movhi	r7, r1
  201958:	b2fd      	uxtb	r5, r7
  20195a:	fb05 fa05 	mul.w	sl, r5, r5
  20195e:	9d17      	ldr	r5, [sp, #92]	; 0x5c
  201960:	f04f 0c80 	mov.w	ip, #128	; 0x80
  201964:	42aa      	cmp	r2, r5
  201966:	fa5a f287 	uxtab	r2, sl, r7
  20196a:	460f      	mov	r7, r1
  20196c:	bf84      	itt	hi
  20196e:	4647      	movhi	r7, r8
  201970:	4688      	movhi	r8, r1
  201972:	0851      	lsrs	r1, r2, #1
  201974:	fa5f f288 	uxtb.w	r2, r8
  201978:	fb02 f202 	mul.w	r2, r2, r2
  20197c:	fa51 f183 	uxtab	r1, r1, r3
  201980:	fa52 f288 	uxtab	r2, r2, r8
  201984:	f001 0307 	and.w	r3, r1, #7
  201988:	08c9      	lsrs	r1, r1, #3
  20198a:	5c65      	ldrb	r5, [r4, r1]
  20198c:	0852      	lsrs	r2, r2, #1
  20198e:	fa2c f303 	lsr.w	r3, ip, r3
  201992:	fa52 f287 	uxtab	r2, r2, r7
  201996:	432b      	orrs	r3, r5
  201998:	5463      	strb	r3, [r4, r1]
  20199a:	f002 0107 	and.w	r1, r2, #7
  20199e:	08d2      	lsrs	r2, r2, #3
  2019a0:	5ca3      	ldrb	r3, [r4, r2]
  2019a2:	fa2c f101 	lsr.w	r1, ip, r1
  2019a6:	4319      	orrs	r1, r3
  2019a8:	9b10      	ldr	r3, [sp, #64]	; 0x40
  2019aa:	454b      	cmp	r3, r9
  2019ac:	4673      	mov	r3, lr
  2019ae:	bf98      	it	ls
  2019b0:	4686      	movls	lr, r0
  2019b2:	fa5f f78e 	uxtb.w	r7, lr
  2019b6:	fb07 f707 	mul.w	r7, r7, r7
  2019ba:	54a1      	strb	r1, [r4, r2]
  2019bc:	bf88      	it	hi
  2019be:	4603      	movhi	r3, r0
  2019c0:	fa57 f18e 	uxtab	r1, r7, lr
  2019c4:	f8dd a03c 	ldr.w	sl, [sp, #60]	; 0x3c
  2019c8:	0849      	lsrs	r1, r1, #1
  2019ca:	fa51 f183 	uxtab	r1, r1, r3
  2019ce:	9a18      	ldr	r2, [sp, #96]	; 0x60
  2019d0:	9b15      	ldr	r3, [sp, #84]	; 0x54
  2019d2:	4592      	cmp	sl, r2
  2019d4:	f001 0207 	and.w	r2, r1, #7
  2019d8:	fa2c f802 	lsr.w	r8, ip, r2
  2019dc:	461a      	mov	r2, r3
  2019de:	ea4f 01d1 	mov.w	r1, r1, lsr #3
  2019e2:	bf84      	itt	hi
  2019e4:	4632      	movhi	r2, r6
  2019e6:	461e      	movhi	r6, r3
  2019e8:	b2f5      	uxtb	r5, r6
  2019ea:	5c67      	ldrb	r7, [r4, r1]
  2019ec:	fb05 f505 	mul.w	r5, r5, r5
  2019f0:	469e      	mov	lr, r3
  2019f2:	ea47 0308 	orr.w	r3, r7, r8
  2019f6:	fa55 f786 	uxtab	r7, r5, r6
  2019fa:	5463      	strb	r3, [r4, r1]
  2019fc:	4673      	mov	r3, lr
  2019fe:	0879      	lsrs	r1, r7, #1
  201a00:	45ca      	cmp	sl, r9
  201a02:	bf84      	itt	hi
  201a04:	4603      	movhi	r3, r0
  201a06:	4670      	movhi	r0, lr
  201a08:	b2c7      	uxtb	r7, r0
  201a0a:	fb07 f707 	mul.w	r7, r7, r7
  201a0e:	fa51 f182 	uxtab	r1, r1, r2
  201a12:	fa57 f080 	uxtab	r0, r7, r0
  201a16:	f001 0207 	and.w	r2, r1, #7
  201a1a:	08c9      	lsrs	r1, r1, #3
  201a1c:	5c67      	ldrb	r7, [r4, r1]
  201a1e:	0840      	lsrs	r0, r0, #1
  201a20:	fa2c f202 	lsr.w	r2, ip, r2
  201a24:	fa50 f083 	uxtab	r0, r0, r3
  201a28:	433a      	orrs	r2, r7
  201a2a:	5462      	strb	r2, [r4, r1]
  201a2c:	f000 0107 	and.w	r1, r0, #7
  201a30:	08c0      	lsrs	r0, r0, #3
  201a32:	5c22      	ldrb	r2, [r4, r0]
  201a34:	9b0a      	ldr	r3, [sp, #40]	; 0x28
  201a36:	9e0c      	ldr	r6, [sp, #48]	; 0x30
  201a38:	fa2c f101 	lsr.w	r1, ip, r1
  201a3c:	4311      	orrs	r1, r2
  201a3e:	eb03 02d6 	add.w	r2, r3, r6, lsr #3
  201a42:	5421      	strb	r1, [r4, r0]
  201a44:	f81b 0002 	ldrb.w	r0, [fp, r2]
  201a48:	9f0b      	ldr	r7, [sp, #44]	; 0x2c
  201a4a:	f8dd c048 	ldr.w	ip, [sp, #72]	; 0x48
  201a4e:	4338      	orrs	r0, r7
  201a50:	eb0c 01d6 	add.w	r1, ip, r6, lsr #3
  201a54:	f80b 0002 	strb.w	r0, [fp, r2]
  201a58:	f81b 0001 	ldrb.w	r0, [fp, r1]
  201a5c:	f8dd e024 	ldr.w	lr, [sp, #36]	; 0x24
  201a60:	4338      	orrs	r0, r7
  201a62:	eb03 02de 	add.w	r2, r3, lr, lsr #3
  201a66:	f80b 0001 	strb.w	r0, [fp, r1]
  201a6a:	f81b 0002 	ldrb.w	r0, [fp, r2]
  201a6e:	f8dd 8020 	ldr.w	r8, [sp, #32]
  201a72:	9d07      	ldr	r5, [sp, #28]
  201a74:	9c14      	ldr	r4, [sp, #80]	; 0x50
  201a76:	ea40 0008 	orr.w	r0, r0, r8
  201a7a:	eb05 01d4 	add.w	r1, r5, r4, lsr #3
  201a7e:	f80b 0002 	strb.w	r0, [fp, r2]
  201a82:	f81b 0001 	ldrb.w	r0, [fp, r1]
  201a86:	eb03 02d4 	add.w	r2, r3, r4, lsr #3
  201a8a:	9b13      	ldr	r3, [sp, #76]	; 0x4c
  201a8c:	4318      	orrs	r0, r3
  201a8e:	f80b 0001 	strb.w	r0, [fp, r1]
  201a92:	f81b 0002 	ldrb.w	r0, [fp, r2]
  201a96:	eb05 01d6 	add.w	r1, r5, r6, lsr #3
  201a9a:	4318      	orrs	r0, r3
  201a9c:	f80b 0002 	strb.w	r0, [fp, r2]
  201aa0:	f81b 0001 	ldrb.w	r0, [fp, r1]
  201aa4:	eb0c 02de 	add.w	r2, ip, lr, lsr #3
  201aa8:	4338      	orrs	r0, r7
  201aaa:	f80b 0001 	strb.w	r0, [fp, r1]
  201aae:	f81b 0002 	ldrb.w	r0, [fp, r2]
  201ab2:	eb05 01de 	add.w	r1, r5, lr, lsr #3
  201ab6:	ea40 0008 	orr.w	r0, r0, r8
  201aba:	f80b 0002 	strb.w	r0, [fp, r2]
  201abe:	9a0d      	ldr	r2, [sp, #52]	; 0x34
  201ac0:	f81b 0001 	ldrb.w	r0, [fp, r1]
  201ac4:	4673      	mov	r3, lr
  201ac6:	ea40 0008 	orr.w	r0, r0, r8
  201aca:	2a01      	cmp	r2, #1
  201acc:	4643      	mov	r3, r8
  201ace:	f80b 0001 	strb.w	r0, [fp, r1]
  201ad2:	d802      	bhi.n	201ada <benchmark_qrduino+0x886>
  201ad4:	9b02      	ldr	r3, [sp, #8]
  201ad6:	3201      	adds	r2, #1
  201ad8:	e498      	b.n	20140c <benchmark_qrduino+0x1b8>
  201ada:	f242 0020 	movw	r0, #8224	; 0x2020
  201ade:	f6c2 0020 	movt	r0, #10272	; 0x2820
  201ae2:	7800      	ldrb	r0, [r0, #0]
  201ae4:	2802      	cmp	r0, #2
  201ae6:	f080 850a 	bcs.w	2024fe <benchmark_qrduino+0x12aa>
  201aea:	f242 0b11 	movw	fp, #8209	; 0x2011
  201aee:	f242 0014 	movw	r0, #8212	; 0x2014
  201af2:	f6c2 0b20 	movt	fp, #10272	; 0x2820
  201af6:	f242 0110 	movw	r1, #8208	; 0x2010
  201afa:	f6c2 0020 	movt	r0, #10272	; 0x2820
  201afe:	f89b e000 	ldrb.w	lr, [fp]
  201b02:	f6c2 0120 	movt	r1, #10272	; 0x2820
  201b06:	6800      	ldr	r0, [r0, #0]
  201b08:	780a      	ldrb	r2, [r1, #0]
  201b0a:	f1ae 0808 	sub.w	r8, lr, #8
  201b0e:	fb18 0002 	smlabb	r0, r8, r2, r0
  201b12:	f242 0118 	movw	r1, #8216	; 0x2018
  201b16:	7842      	ldrb	r2, [r0, #1]
  201b18:	f6c2 0120 	movt	r1, #10272	; 0x2820
  201b1c:	f042 0280 	orr.w	r2, r2, #128	; 0x80
  201b20:	7042      	strb	r2, [r0, #1]
  201b22:	6808      	ldr	r0, [r1, #0]
  201b24:	f1ae 0507 	sub.w	r5, lr, #7
  201b28:	78c7      	ldrb	r7, [r0, #3]
  201b2a:	b2ec      	uxtb	r4, r5
  201b2c:	fa5f fc88 	uxtb.w	ip, r8
  201b30:	f047 0708 	orr.w	r7, r7, #8
  201b34:	2c07      	cmp	r4, #7
  201b36:	f04f 0407 	mov.w	r4, #7
  201b3a:	fb0c f60c 	mul.w	r6, ip, ip
  201b3e:	70c7      	strb	r7, [r0, #3]
  201b40:	bf3c      	itt	cc
  201b42:	462c      	movcc	r4, r5
  201b44:	2507      	movcc	r5, #7
  201b46:	b2ea      	uxtb	r2, r5
  201b48:	fb02 f202 	mul.w	r2, r2, r2
  201b4c:	fa56 f688 	uxtab	r6, r6, r8
  201b50:	fa52 f285 	uxtab	r2, r2, r5
  201b54:	f3c6 0742 	ubfx	r7, r6, #1, #3
  201b58:	0936      	lsrs	r6, r6, #4
  201b5a:	f04f 0980 	mov.w	r9, #128	; 0x80
  201b5e:	5d83      	ldrb	r3, [r0, r6]
  201b60:	0852      	lsrs	r2, r2, #1
  201b62:	fa29 f707 	lsr.w	r7, r9, r7
  201b66:	fa52 f284 	uxtab	r2, r2, r4
  201b6a:	433b      	orrs	r3, r7
  201b6c:	5583      	strb	r3, [r0, r6]
  201b6e:	f002 0307 	and.w	r3, r2, #7
  201b72:	08d2      	lsrs	r2, r2, #3
  201b74:	5c84      	ldrb	r4, [r0, r2]
  201b76:	fa29 f303 	lsr.w	r3, r9, r3
  201b7a:	4323      	orrs	r3, r4
  201b7c:	5483      	strb	r3, [r0, r2]
  201b7e:	2301      	movs	r3, #1
  201b80:	78c2      	ldrb	r2, [r0, #3]
  201b82:	f1bc 0f01 	cmp.w	ip, #1
  201b86:	bf88      	it	hi
  201b88:	4643      	movhi	r3, r8
  201b8a:	b2dc      	uxtb	r4, r3
  201b8c:	fb04 f404 	mul.w	r4, r4, r4
  201b90:	f1ae 0706 	sub.w	r7, lr, #6
  201b94:	fa54 f383 	uxtab	r3, r4, r3
  201b98:	4645      	mov	r5, r8
  201b9a:	b2fe      	uxtb	r6, r7
  201b9c:	bf88      	it	hi
  201b9e:	2501      	movhi	r5, #1
  201ba0:	f042 0204 	orr.w	r2, r2, #4
  201ba4:	085b      	lsrs	r3, r3, #1
  201ba6:	2e07      	cmp	r6, #7
  201ba8:	f04f 0607 	mov.w	r6, #7
  201bac:	fa53 f385 	uxtab	r3, r3, r5
  201bb0:	70c2      	strb	r2, [r0, #3]
  201bb2:	bf3c      	itt	cc
  201bb4:	463e      	movcc	r6, r7
  201bb6:	2707      	movcc	r7, #7
  201bb8:	b2fd      	uxtb	r5, r7
  201bba:	fb05 f505 	mul.w	r5, r5, r5
  201bbe:	f003 0207 	and.w	r2, r3, #7
  201bc2:	fa55 f787 	uxtab	r7, r5, r7
  201bc6:	08db      	lsrs	r3, r3, #3
  201bc8:	5cc4      	ldrb	r4, [r0, r3]
  201bca:	087f      	lsrs	r7, r7, #1
  201bcc:	fa29 f202 	lsr.w	r2, r9, r2
  201bd0:	fa57 f786 	uxtab	r7, r7, r6
  201bd4:	4322      	orrs	r2, r4
  201bd6:	54c2      	strb	r2, [r0, r3]
  201bd8:	08fb      	lsrs	r3, r7, #3
  201bda:	f007 0207 	and.w	r2, r7, #7
  201bde:	5cc7      	ldrb	r7, [r0, r3]
  201be0:	fa29 f202 	lsr.w	r2, r9, r2
  201be4:	433a      	orrs	r2, r7
  201be6:	54c2      	strb	r2, [r0, r3]
  201be8:	468a      	mov	sl, r1
  201bea:	78c3      	ldrb	r3, [r0, #3]
  201bec:	f1bc 0f02 	cmp.w	ip, #2
  201bf0:	4641      	mov	r1, r8
  201bf2:	f04f 0c02 	mov.w	ip, #2
  201bf6:	bf98      	it	ls
  201bf8:	46e0      	movls	r8, ip
  201bfa:	fa5f f788 	uxtb.w	r7, r8
  201bfe:	bf88      	it	hi
  201c00:	2102      	movhi	r1, #2
  201c02:	fb07 f707 	mul.w	r7, r7, r7
  201c06:	f043 0302 	orr.w	r3, r3, #2
  201c0a:	fa57 f788 	uxtab	r7, r7, r8
  201c0e:	70c3      	strb	r3, [r0, #3]
  201c10:	087f      	lsrs	r7, r7, #1
  201c12:	fa57 f181 	uxtab	r1, r7, r1
  201c16:	2503      	movs	r5, #3
  201c18:	f001 0307 	and.w	r3, r1, #7
  201c1c:	08c9      	lsrs	r1, r1, #3
  201c1e:	5c47      	ldrb	r7, [r0, r1]
  201c20:	fa29 f303 	lsr.w	r3, r9, r3
  201c24:	433b      	orrs	r3, r7
  201c26:	5443      	strb	r3, [r0, r1]
  201c28:	f89b 8000 	ldrb.w	r8, [fp]
  201c2c:	f1a8 0105 	sub.w	r1, r8, #5
  201c30:	b2cb      	uxtb	r3, r1
  201c32:	2b07      	cmp	r3, #7
  201c34:	f04f 0307 	mov.w	r3, #7
  201c38:	bf3c      	itt	cc
  201c3a:	460b      	movcc	r3, r1
  201c3c:	2107      	movcc	r1, #7
  201c3e:	b2cf      	uxtb	r7, r1
  201c40:	fb07 f707 	mul.w	r7, r7, r7
  201c44:	f1a8 0208 	sub.w	r2, r8, #8
  201c48:	fa57 f181 	uxtab	r1, r7, r1
  201c4c:	fa5f fe82 	uxtb.w	lr, r2
  201c50:	0849      	lsrs	r1, r1, #1
  201c52:	fa51 f383 	uxtab	r3, r1, r3
  201c56:	f8da 1000 	ldr.w	r1, [sl]
  201c5a:	f003 0707 	and.w	r7, r3, #7
  201c5e:	08db      	lsrs	r3, r3, #3
  201c60:	5cce      	ldrb	r6, [r1, r3]
  201c62:	fa29 f707 	lsr.w	r7, r9, r7
  201c66:	4337      	orrs	r7, r6
  201c68:	54cf      	strb	r7, [r1, r3]
  201c6a:	78cb      	ldrb	r3, [r1, #3]
  201c6c:	f1be 0f03 	cmp.w	lr, #3
  201c70:	bf88      	it	hi
  201c72:	4615      	movhi	r5, r2
  201c74:	b2ec      	uxtb	r4, r5
  201c76:	fb04 f404 	mul.w	r4, r4, r4
  201c7a:	4617      	mov	r7, r2
  201c7c:	fa54 f585 	uxtab	r5, r4, r5
  201c80:	bf88      	it	hi
  201c82:	2703      	movhi	r7, #3
  201c84:	f043 0601 	orr.w	r6, r3, #1
  201c88:	086d      	lsrs	r5, r5, #1
  201c8a:	fa55 f787 	uxtab	r7, r5, r7
  201c8e:	f1a8 0504 	sub.w	r5, r8, #4
  201c92:	b2ec      	uxtb	r4, r5
  201c94:	2c07      	cmp	r4, #7
  201c96:	f04f 0407 	mov.w	r4, #7
  201c9a:	70ce      	strb	r6, [r1, #3]
  201c9c:	bf3c      	itt	cc
  201c9e:	462c      	movcc	r4, r5
  201ca0:	2507      	movcc	r5, #7
  201ca2:	b2eb      	uxtb	r3, r5
  201ca4:	fb03 f303 	mul.w	r3, r3, r3
  201ca8:	f007 0607 	and.w	r6, r7, #7
  201cac:	fa53 f385 	uxtab	r3, r3, r5
  201cb0:	08ff      	lsrs	r7, r7, #3
  201cb2:	5dc8      	ldrb	r0, [r1, r7]
  201cb4:	085b      	lsrs	r3, r3, #1
  201cb6:	fa29 f606 	lsr.w	r6, r9, r6
  201cba:	fa53 f384 	uxtab	r3, r3, r4
  201cbe:	4330      	orrs	r0, r6
  201cc0:	55c8      	strb	r0, [r1, r7]
  201cc2:	f003 0007 	and.w	r0, r3, #7
  201cc6:	08db      	lsrs	r3, r3, #3
  201cc8:	5ccc      	ldrb	r4, [r1, r3]
  201cca:	fa29 f000 	lsr.w	r0, r9, r0
  201cce:	4320      	orrs	r0, r4
  201cd0:	54c8      	strb	r0, [r1, r3]
  201cd2:	7908      	ldrb	r0, [r1, #4]
  201cd4:	f1be 0f04 	cmp.w	lr, #4
  201cd8:	4617      	mov	r7, r2
  201cda:	f04f 0e04 	mov.w	lr, #4
  201cde:	bf98      	it	ls
  201ce0:	4672      	movls	r2, lr
  201ce2:	b2d6      	uxtb	r6, r2
  201ce4:	bf88      	it	hi
  201ce6:	2704      	movhi	r7, #4
  201ce8:	fb06 f606 	mul.w	r6, r6, r6
  201cec:	f040 0080 	orr.w	r0, r0, #128	; 0x80
  201cf0:	fa56 f282 	uxtab	r2, r6, r2
  201cf4:	7108      	strb	r0, [r1, #4]
  201cf6:	0852      	lsrs	r2, r2, #1
  201cf8:	fa52 f287 	uxtab	r2, r2, r7
  201cfc:	f1a8 0703 	sub.w	r7, r8, #3
  201d00:	b2fe      	uxtb	r6, r7
  201d02:	2e07      	cmp	r6, #7
  201d04:	f04f 0607 	mov.w	r6, #7
  201d08:	bf3c      	itt	cc
  201d0a:	463e      	movcc	r6, r7
  201d0c:	2707      	movcc	r7, #7
  201d0e:	b2fd      	uxtb	r5, r7
  201d10:	fb05 f505 	mul.w	r5, r5, r5
  201d14:	f002 0007 	and.w	r0, r2, #7
  201d18:	fa55 f787 	uxtab	r7, r5, r7
  201d1c:	08d2      	lsrs	r2, r2, #3
  201d1e:	5c8c      	ldrb	r4, [r1, r2]
  201d20:	087f      	lsrs	r7, r7, #1
  201d22:	fa29 f000 	lsr.w	r0, r9, r0
  201d26:	fa57 f786 	uxtab	r7, r7, r6
  201d2a:	4320      	orrs	r0, r4
  201d2c:	5488      	strb	r0, [r1, r2]
  201d2e:	08fa      	lsrs	r2, r7, #3
  201d30:	f007 0007 	and.w	r0, r7, #7
  201d34:	5c8f      	ldrb	r7, [r1, r2]
  201d36:	fa29 f000 	lsr.w	r0, r9, r0
  201d3a:	4338      	orrs	r0, r7
  201d3c:	5488      	strb	r0, [r1, r2]
  201d3e:	f89b a000 	ldrb.w	sl, [fp]
  201d42:	2205      	movs	r2, #5
  201d44:	f1aa 0308 	sub.w	r3, sl, #8
  201d48:	fa5f f883 	uxtb.w	r8, r3
  201d4c:	7908      	ldrb	r0, [r1, #4]
  201d4e:	f1b8 0f05 	cmp.w	r8, #5
  201d52:	bf88      	it	hi
  201d54:	461a      	movhi	r2, r3
  201d56:	b2d4      	uxtb	r4, r2
  201d58:	fb04 f404 	mul.w	r4, r4, r4
  201d5c:	461f      	mov	r7, r3
  201d5e:	fa54 f282 	uxtab	r2, r4, r2
  201d62:	bf88      	it	hi
  201d64:	2705      	movhi	r7, #5
  201d66:	f1aa 0402 	sub.w	r4, sl, #2
  201d6a:	0852      	lsrs	r2, r2, #1
  201d6c:	fa52 f287 	uxtab	r2, r2, r7
  201d70:	b2e7      	uxtb	r7, r4
  201d72:	f040 0040 	orr.w	r0, r0, #64	; 0x40
  201d76:	2f07      	cmp	r7, #7
  201d78:	f04f 0707 	mov.w	r7, #7
  201d7c:	7108      	strb	r0, [r1, #4]
  201d7e:	bf3c      	itt	cc
  201d80:	4627      	movcc	r7, r4
  201d82:	2407      	movcc	r4, #7
  201d84:	b2e6      	uxtb	r6, r4
  201d86:	f002 0007 	and.w	r0, r2, #7
  201d8a:	08d2      	lsrs	r2, r2, #3
  201d8c:	fb06 f606 	mul.w	r6, r6, r6
  201d90:	5c8d      	ldrb	r5, [r1, r2]
  201d92:	fa29 f000 	lsr.w	r0, r9, r0
  201d96:	fa56 f484 	uxtab	r4, r6, r4
  201d9a:	4328      	orrs	r0, r5
  201d9c:	0864      	lsrs	r4, r4, #1
  201d9e:	5488      	strb	r0, [r1, r2]
  201da0:	f242 0018 	movw	r0, #8216	; 0x2018
  201da4:	fa54 f487 	uxtab	r4, r4, r7
  201da8:	f6c2 0020 	movt	r0, #10272	; 0x2820
  201dac:	6800      	ldr	r0, [r0, #0]
  201dae:	08e2      	lsrs	r2, r4, #3
  201db0:	f004 0107 	and.w	r1, r4, #7
  201db4:	5c84      	ldrb	r4, [r0, r2]
  201db6:	fa29 f101 	lsr.w	r1, r9, r1
  201dba:	4321      	orrs	r1, r4
  201dbc:	5481      	strb	r1, [r0, r2]
  201dbe:	2206      	movs	r2, #6
  201dc0:	7901      	ldrb	r1, [r0, #4]
  201dc2:	f1b8 0f06 	cmp.w	r8, #6
  201dc6:	bf88      	it	hi
  201dc8:	461a      	movhi	r2, r3
  201dca:	b2d4      	uxtb	r4, r2
  201dcc:	fb04 f404 	mul.w	r4, r4, r4
  201dd0:	461d      	mov	r5, r3
  201dd2:	fa54 f282 	uxtab	r2, r4, r2
  201dd6:	bf88      	it	hi
  201dd8:	2506      	movhi	r5, #6
  201dda:	f1aa 0401 	sub.w	r4, sl, #1
  201dde:	0852      	lsrs	r2, r2, #1
  201de0:	fa52 f285 	uxtab	r2, r2, r5
  201de4:	b2e5      	uxtb	r5, r4
  201de6:	f041 0120 	orr.w	r1, r1, #32
  201dea:	2d07      	cmp	r5, #7
  201dec:	f04f 0507 	mov.w	r5, #7
  201df0:	7101      	strb	r1, [r0, #4]
  201df2:	bf3c      	itt	cc
  201df4:	4625      	movcc	r5, r4
  201df6:	2407      	movcc	r4, #7
  201df8:	b2e6      	uxtb	r6, r4
  201dfa:	fb06 f606 	mul.w	r6, r6, r6
  201dfe:	f002 0107 	and.w	r1, r2, #7
  201e02:	fa56 f484 	uxtab	r4, r6, r4
  201e06:	08d2      	lsrs	r2, r2, #3
  201e08:	5c87      	ldrb	r7, [r0, r2]
  201e0a:	0864      	lsrs	r4, r4, #1
  201e0c:	fa29 f101 	lsr.w	r1, r9, r1
  201e10:	fa54 f485 	uxtab	r4, r4, r5
  201e14:	4339      	orrs	r1, r7
  201e16:	5481      	strb	r1, [r0, r2]
  201e18:	08e2      	lsrs	r2, r4, #3
  201e1a:	f004 0107 	and.w	r1, r4, #7
  201e1e:	5c84      	ldrb	r4, [r0, r2]
  201e20:	fa29 f101 	lsr.w	r1, r9, r1
  201e24:	4321      	orrs	r1, r4
  201e26:	5481      	strb	r1, [r0, r2]
  201e28:	2207      	movs	r2, #7
  201e2a:	78c1      	ldrb	r1, [r0, #3]
  201e2c:	f1b8 0f07 	cmp.w	r8, #7
  201e30:	bf88      	it	hi
  201e32:	461a      	movhi	r2, r3
  201e34:	b2d4      	uxtb	r4, r2
  201e36:	fb04 f404 	mul.w	r4, r4, r4
  201e3a:	fb08 f508 	mul.w	r5, r8, r8
  201e3e:	fa54 f282 	uxtab	r2, r4, r2
  201e42:	fa55 f583 	uxtab	r5, r5, r3
  201e46:	bf88      	it	hi
  201e48:	2307      	movhi	r3, #7
  201e4a:	0852      	lsrs	r2, r2, #1
  201e4c:	fa52 f283 	uxtab	r2, r2, r3
  201e50:	f041 0108 	orr.w	r1, r1, #8
  201e54:	70c1      	strb	r1, [r0, #3]
  201e56:	f002 0107 	and.w	r1, r2, #7
  201e5a:	08d2      	lsrs	r2, r2, #3
  201e5c:	5c83      	ldrb	r3, [r0, r2]
  201e5e:	fa29 f101 	lsr.w	r1, r9, r1
  201e62:	4319      	orrs	r1, r3
  201e64:	5481      	strb	r1, [r0, r2]
  201e66:	f3c5 0142 	ubfx	r1, r5, #1, #3
  201e6a:	092a      	lsrs	r2, r5, #4
  201e6c:	5c83      	ldrb	r3, [r0, r2]
  201e6e:	fa29 f101 	lsr.w	r1, r9, r1
  201e72:	4319      	orrs	r1, r3
  201e74:	5481      	strb	r1, [r0, r2]
  201e76:	f89b 8000 	ldrb.w	r8, [fp]
  201e7a:	f04f 0a07 	mov.w	sl, #7
  201e7e:	f1a8 0207 	sub.w	r2, r8, #7
  201e82:	b2d3      	uxtb	r3, r2
  201e84:	78c1      	ldrb	r1, [r0, #3]
  201e86:	2b07      	cmp	r3, #7
  201e88:	4613      	mov	r3, r2
  201e8a:	bf98      	it	ls
  201e8c:	4652      	movls	r2, sl
  201e8e:	b2d4      	uxtb	r4, r2
  201e90:	bf88      	it	hi
  201e92:	2307      	movhi	r3, #7
  201e94:	fb04 f404 	mul.w	r4, r4, r4
  201e98:	f041 0104 	orr.w	r1, r1, #4
  201e9c:	fa54 f282 	uxtab	r2, r4, r2
  201ea0:	70c1      	strb	r1, [r0, #3]
  201ea2:	0852      	lsrs	r2, r2, #1
  201ea4:	fa52 f283 	uxtab	r2, r2, r3
  201ea8:	f1a8 0708 	sub.w	r7, r8, #8
  201eac:	f002 0107 	and.w	r1, r2, #7
  201eb0:	08d2      	lsrs	r2, r2, #3
  201eb2:	5c83      	ldrb	r3, [r0, r2]
  201eb4:	fa29 f101 	lsr.w	r1, r9, r1
  201eb8:	4319      	orrs	r1, r3
  201eba:	b2fe      	uxtb	r6, r7
  201ebc:	463b      	mov	r3, r7
  201ebe:	2e00      	cmp	r6, #0
  201ec0:	bf08      	it	eq
  201ec2:	2301      	moveq	r3, #1
  201ec4:	b2dc      	uxtb	r4, r3
  201ec6:	fb04 f404 	mul.w	r4, r4, r4
  201eca:	4635      	mov	r5, r6
  201ecc:	fa54 f383 	uxtab	r3, r4, r3
  201ed0:	bf18      	it	ne
  201ed2:	2501      	movne	r5, #1
  201ed4:	5481      	strb	r1, [r0, r2]
  201ed6:	f242 0118 	movw	r1, #8216	; 0x2018
  201eda:	eb05 0353 	add.w	r3, r5, r3, lsr #1
  201ede:	f6c2 0120 	movt	r1, #10272	; 0x2820
  201ee2:	6809      	ldr	r1, [r1, #0]
  201ee4:	08da      	lsrs	r2, r3, #3
  201ee6:	f003 0007 	and.w	r0, r3, #7
  201eea:	5c8b      	ldrb	r3, [r1, r2]
  201eec:	fa29 f000 	lsr.w	r0, r9, r0
  201ef0:	4318      	orrs	r0, r3
  201ef2:	5488      	strb	r0, [r1, r2]
  201ef4:	f1a8 0206 	sub.w	r2, r8, #6
  201ef8:	b2d3      	uxtb	r3, r2
  201efa:	78c8      	ldrb	r0, [r1, #3]
  201efc:	2b07      	cmp	r3, #7
  201efe:	4613      	mov	r3, r2
  201f00:	bf98      	it	ls
  201f02:	4652      	movls	r2, sl
  201f04:	b2d4      	uxtb	r4, r2
  201f06:	bf88      	it	hi
  201f08:	2307      	movhi	r3, #7
  201f0a:	fb04 f404 	mul.w	r4, r4, r4
  201f0e:	f040 0002 	orr.w	r0, r0, #2
  201f12:	fa54 f282 	uxtab	r2, r4, r2
  201f16:	70c8      	strb	r0, [r1, #3]
  201f18:	0852      	lsrs	r2, r2, #1
  201f1a:	fa52 f283 	uxtab	r2, r2, r3
  201f1e:	463c      	mov	r4, r7
  201f20:	f002 0007 	and.w	r0, r2, #7
  201f24:	08d2      	lsrs	r2, r2, #3
  201f26:	5c8b      	ldrb	r3, [r1, r2]
  201f28:	2e02      	cmp	r6, #2
  201f2a:	bf38      	it	cc
  201f2c:	2402      	movcc	r4, #2
  201f2e:	b2e5      	uxtb	r5, r4
  201f30:	bf38      	it	cc
  201f32:	46bc      	movcc	ip, r7
  201f34:	fb05 f505 	mul.w	r5, r5, r5
  201f38:	fa29 f000 	lsr.w	r0, r9, r0
  201f3c:	fa55 f484 	uxtab	r4, r5, r4
  201f40:	4303      	orrs	r3, r0
  201f42:	0864      	lsrs	r4, r4, #1
  201f44:	fa54 f58c 	uxtab	r5, r4, ip
  201f48:	548b      	strb	r3, [r1, r2]
  201f4a:	08eb      	lsrs	r3, r5, #3
  201f4c:	f005 0207 	and.w	r2, r5, #7
  201f50:	5ccd      	ldrb	r5, [r1, r3]
  201f52:	fa29 f202 	lsr.w	r2, r9, r2
  201f56:	432a      	orrs	r2, r5
  201f58:	54ca      	strb	r2, [r1, r3]
  201f5a:	f1a8 0305 	sub.w	r3, r8, #5
  201f5e:	b2dd      	uxtb	r5, r3
  201f60:	78ca      	ldrb	r2, [r1, #3]
  201f62:	2d07      	cmp	r5, #7
  201f64:	461d      	mov	r5, r3
  201f66:	bf98      	it	ls
  201f68:	4653      	movls	r3, sl
  201f6a:	b2dc      	uxtb	r4, r3
  201f6c:	bf88      	it	hi
  201f6e:	2507      	movhi	r5, #7
  201f70:	fb04 f404 	mul.w	r4, r4, r4
  201f74:	2003      	movs	r0, #3
  201f76:	f042 0201 	orr.w	r2, r2, #1
  201f7a:	fa54 f383 	uxtab	r3, r4, r3
  201f7e:	70ca      	strb	r2, [r1, #3]
  201f80:	2e03      	cmp	r6, #3
  201f82:	bf3c      	itt	cc
  201f84:	4638      	movcc	r0, r7
  201f86:	2703      	movcc	r7, #3
  201f88:	b2fe      	uxtb	r6, r7
  201f8a:	085b      	lsrs	r3, r3, #1
  201f8c:	fb06 f606 	mul.w	r6, r6, r6
  201f90:	fa53 f385 	uxtab	r3, r3, r5
  201f94:	fa56 f787 	uxtab	r7, r6, r7
  201f98:	f003 0207 	and.w	r2, r3, #7
  201f9c:	08db      	lsrs	r3, r3, #3
  201f9e:	5ccd      	ldrb	r5, [r1, r3]
  201fa0:	087f      	lsrs	r7, r7, #1
  201fa2:	fa29 f202 	lsr.w	r2, r9, r2
  201fa6:	fa57 f080 	uxtab	r0, r7, r0
  201faa:	432a      	orrs	r2, r5
  201fac:	54ca      	strb	r2, [r1, r3]
  201fae:	f000 0207 	and.w	r2, r0, #7
  201fb2:	08c0      	lsrs	r0, r0, #3
  201fb4:	5c0b      	ldrb	r3, [r1, r0]
  201fb6:	fa29 f202 	lsr.w	r2, r9, r2
  201fba:	431a      	orrs	r2, r3
  201fbc:	540a      	strb	r2, [r1, r0]
  201fbe:	f89b 2000 	ldrb.w	r2, [fp]
  201fc2:	7908      	ldrb	r0, [r1, #4]
  201fc4:	1f13      	subs	r3, r2, #4
  201fc6:	b2df      	uxtb	r7, r3
  201fc8:	2f07      	cmp	r7, #7
  201fca:	461f      	mov	r7, r3
  201fcc:	bf98      	it	ls
  201fce:	4653      	movls	r3, sl
  201fd0:	b2de      	uxtb	r6, r3
  201fd2:	bf88      	it	hi
  201fd4:	2707      	movhi	r7, #7
  201fd6:	fb06 f606 	mul.w	r6, r6, r6
  201fda:	f040 0080 	orr.w	r0, r0, #128	; 0x80
  201fde:	fa56 f383 	uxtab	r3, r6, r3
  201fe2:	7108      	strb	r0, [r1, #4]
  201fe4:	085b      	lsrs	r3, r3, #1
  201fe6:	fa53 f387 	uxtab	r3, r3, r7
  201fea:	f1a2 0408 	sub.w	r4, r2, #8
  201fee:	f003 0007 	and.w	r0, r3, #7
  201ff2:	fa29 f600 	lsr.w	r6, r9, r0
  201ff6:	08db      	lsrs	r3, r3, #3
  201ff8:	fa5f fc84 	uxtb.w	ip, r4
  201ffc:	4620      	mov	r0, r4
  201ffe:	5ccd      	ldrb	r5, [r1, r3]
  202000:	f1bc 0f04 	cmp.w	ip, #4
  202004:	bf38      	it	cc
  202006:	2004      	movcc	r0, #4
  202008:	b2c7      	uxtb	r7, r0
  20200a:	bf38      	it	cc
  20200c:	46a6      	movcc	lr, r4
  20200e:	fb07 f707 	mul.w	r7, r7, r7
  202012:	4335      	orrs	r5, r6
  202014:	fa57 f080 	uxtab	r0, r7, r0
  202018:	54cd      	strb	r5, [r1, r3]
  20201a:	0840      	lsrs	r0, r0, #1
  20201c:	fa50 f08e 	uxtab	r0, r0, lr
  202020:	f242 0e18 	movw	lr, #8216	; 0x2018
  202024:	f6c2 0e20 	movt	lr, #10272	; 0x2820
  202028:	f8de 1000 	ldr.w	r1, [lr]
  20202c:	f000 0307 	and.w	r3, r0, #7
  202030:	08c0      	lsrs	r0, r0, #3
  202032:	5c0f      	ldrb	r7, [r1, r0]
  202034:	fa29 f303 	lsr.w	r3, r9, r3
  202038:	433b      	orrs	r3, r7
  20203a:	540b      	strb	r3, [r1, r0]
  20203c:	1ed3      	subs	r3, r2, #3
  20203e:	b2df      	uxtb	r7, r3
  202040:	7908      	ldrb	r0, [r1, #4]
  202042:	2f07      	cmp	r7, #7
  202044:	461f      	mov	r7, r3
  202046:	bf98      	it	ls
  202048:	4653      	movls	r3, sl
  20204a:	b2de      	uxtb	r6, r3
  20204c:	bf88      	it	hi
  20204e:	2707      	movhi	r7, #7
  202050:	fb06 f606 	mul.w	r6, r6, r6
  202054:	f040 0040 	orr.w	r0, r0, #64	; 0x40
  202058:	fa56 f383 	uxtab	r3, r6, r3
  20205c:	7108      	strb	r0, [r1, #4]
  20205e:	085b      	lsrs	r3, r3, #1
  202060:	fa53 f387 	uxtab	r3, r3, r7
  202064:	f1bc 0f05 	cmp.w	ip, #5
  202068:	ea4f 07d3 	mov.w	r7, r3, lsr #3
  20206c:	f003 0007 	and.w	r0, r3, #7
  202070:	5dcb      	ldrb	r3, [r1, r7]
  202072:	fa29 f000 	lsr.w	r0, r9, r0
  202076:	ea40 0003 	orr.w	r0, r0, r3
  20207a:	4623      	mov	r3, r4
  20207c:	bf38      	it	cc
  20207e:	2305      	movcc	r3, #5
  202080:	b2de      	uxtb	r6, r3
  202082:	fb06 f606 	mul.w	r6, r6, r6
  202086:	f04f 0505 	mov.w	r5, #5
  20208a:	fa56 f683 	uxtab	r6, r6, r3
  20208e:	bf38      	it	cc
  202090:	4625      	movcc	r5, r4
  202092:	55c8      	strb	r0, [r1, r7]
  202094:	0876      	lsrs	r6, r6, #1
  202096:	fa56 f685 	uxtab	r6, r6, r5
  20209a:	3a02      	subs	r2, #2
  20209c:	08f7      	lsrs	r7, r6, #3
  20209e:	f006 0007 	and.w	r0, r6, #7
  2020a2:	5dce      	ldrb	r6, [r1, r7]
  2020a4:	fa29 f000 	lsr.w	r0, r9, r0
  2020a8:	4330      	orrs	r0, r6
  2020aa:	55c8      	strb	r0, [r1, r7]
  2020ac:	b2d7      	uxtb	r7, r2
  2020ae:	7908      	ldrb	r0, [r1, #4]
  2020b0:	2f07      	cmp	r7, #7
  2020b2:	4617      	mov	r7, r2
  2020b4:	bf98      	it	ls
  2020b6:	4652      	movls	r2, sl
  2020b8:	b2d6      	uxtb	r6, r2
  2020ba:	bf88      	it	hi
  2020bc:	2707      	movhi	r7, #7
  2020be:	fb06 f606 	mul.w	r6, r6, r6
  2020c2:	2306      	movs	r3, #6
  2020c4:	fa56 f282 	uxtab	r2, r6, r2
  2020c8:	f040 0020 	orr.w	r0, r0, #32
  2020cc:	0852      	lsrs	r2, r2, #1
  2020ce:	fa52 f287 	uxtab	r2, r2, r7
  2020d2:	7108      	strb	r0, [r1, #4]
  2020d4:	f1bc 0f06 	cmp.w	ip, #6
  2020d8:	bf3c      	itt	cc
  2020da:	4623      	movcc	r3, r4
  2020dc:	2406      	movcc	r4, #6
  2020de:	b2e7      	uxtb	r7, r4
  2020e0:	fb07 f707 	mul.w	r7, r7, r7
  2020e4:	f002 0007 	and.w	r0, r2, #7
  2020e8:	fa57 f784 	uxtab	r7, r7, r4
  2020ec:	08d2      	lsrs	r2, r2, #3
  2020ee:	5c8e      	ldrb	r6, [r1, r2]
  2020f0:	087f      	lsrs	r7, r7, #1
  2020f2:	fa29 f000 	lsr.w	r0, r9, r0
  2020f6:	fa57 f383 	uxtab	r3, r7, r3
  2020fa:	4330      	orrs	r0, r6
  2020fc:	5488      	strb	r0, [r1, r2]
  2020fe:	08da      	lsrs	r2, r3, #3
  202100:	f003 0007 	and.w	r0, r3, #7
  202104:	5c8b      	ldrb	r3, [r1, r2]
  202106:	fa29 f000 	lsr.w	r0, r9, r0
  20210a:	4318      	orrs	r0, r3
  20210c:	5488      	strb	r0, [r1, r2]
  20210e:	f89b c000 	ldrb.w	ip, [fp]
  202112:	790a      	ldrb	r2, [r1, #4]
  202114:	f1ac 0301 	sub.w	r3, ip, #1
  202118:	b2df      	uxtb	r7, r3
  20211a:	2f07      	cmp	r7, #7
  20211c:	461f      	mov	r7, r3
  20211e:	bf98      	it	ls
  202120:	4653      	movls	r3, sl
  202122:	b2de      	uxtb	r6, r3
  202124:	bf88      	it	hi
  202126:	2707      	movhi	r7, #7
  202128:	fb06 f606 	mul.w	r6, r6, r6
  20212c:	f042 0210 	orr.w	r2, r2, #16
  202130:	fa56 f383 	uxtab	r3, r6, r3
  202134:	710a      	strb	r2, [r1, #4]
  202136:	085b      	lsrs	r3, r3, #1
  202138:	fa53 f387 	uxtab	r3, r3, r7
  20213c:	f1ac 0408 	sub.w	r4, ip, #8
  202140:	f003 0207 	and.w	r2, r3, #7
  202144:	fa29 f702 	lsr.w	r7, r9, r2
  202148:	08db      	lsrs	r3, r3, #3
  20214a:	b2e5      	uxtb	r5, r4
  20214c:	4622      	mov	r2, r4
  20214e:	5cce      	ldrb	r6, [r1, r3]
  202150:	2d07      	cmp	r5, #7
  202152:	bf38      	it	cc
  202154:	2207      	movcc	r2, #7
  202156:	b2d0      	uxtb	r0, r2
  202158:	fb00 f000 	mul.w	r0, r0, r0
  20215c:	ea47 0706 	orr.w	r7, r7, r6
  202160:	fa50 f082 	uxtab	r0, r0, r2
  202164:	f04f 0207 	mov.w	r2, #7
  202168:	ea4f 0050 	mov.w	r0, r0, lsr #1
  20216c:	bf38      	it	cc
  20216e:	4622      	movcc	r2, r4
  202170:	fa50 f082 	uxtab	r0, r0, r2
  202174:	54cf      	strb	r7, [r1, r3]
  202176:	f8de 1000 	ldr.w	r1, [lr]
  20217a:	f000 0207 	and.w	r2, r0, #7
  20217e:	08c0      	lsrs	r0, r0, #3
  202180:	5c0b      	ldrb	r3, [r1, r0]
  202182:	fa29 f202 	lsr.w	r2, r9, r2
  202186:	431a      	orrs	r2, r3
  202188:	540a      	strb	r2, [r1, r0]
  20218a:	7908      	ldrb	r0, [r1, #4]
  20218c:	794a      	ldrb	r2, [r1, #5]
  20218e:	f040 000f 	orr.w	r0, r0, #15
  202192:	7108      	strb	r0, [r1, #4]
  202194:	2d08      	cmp	r5, #8
  202196:	4620      	mov	r0, r4
  202198:	f04f 0708 	mov.w	r7, #8
  20219c:	bf98      	it	ls
  20219e:	463c      	movls	r4, r7
  2021a0:	b2e3      	uxtb	r3, r4
  2021a2:	bf88      	it	hi
  2021a4:	2008      	movhi	r0, #8
  2021a6:	fb03 f303 	mul.w	r3, r3, r3
  2021aa:	f042 02f8 	orr.w	r2, r2, #248	; 0xf8
  2021ae:	fa53 f384 	uxtab	r3, r3, r4
  2021b2:	714a      	strb	r2, [r1, #5]
  2021b4:	085b      	lsrs	r3, r3, #1
  2021b6:	fa53 f080 	uxtab	r0, r3, r0
  2021ba:	f000 0207 	and.w	r2, r0, #7
  2021be:	08c0      	lsrs	r0, r0, #3
  2021c0:	5c0b      	ldrb	r3, [r1, r0]
  2021c2:	fa29 f202 	lsr.w	r2, r9, r2
  2021c6:	431a      	orrs	r2, r3
  2021c8:	540a      	strb	r2, [r1, r0]
  2021ca:	f1ac 0207 	sub.w	r2, ip, #7
  2021ce:	b2d3      	uxtb	r3, r2
  2021d0:	7908      	ldrb	r0, [r1, #4]
  2021d2:	2b08      	cmp	r3, #8
  2021d4:	4613      	mov	r3, r2
  2021d6:	bf98      	it	ls
  2021d8:	463a      	movls	r2, r7
  2021da:	b2d6      	uxtb	r6, r2
  2021dc:	bf88      	it	hi
  2021de:	2308      	movhi	r3, #8
  2021e0:	fb06 f606 	mul.w	r6, r6, r6
  2021e4:	f040 0008 	orr.w	r0, r0, #8
  2021e8:	fa56 f282 	uxtab	r2, r6, r2
  2021ec:	7108      	strb	r0, [r1, #4]
  2021ee:	0852      	lsrs	r2, r2, #1
  2021f0:	fa52 f283 	uxtab	r2, r2, r3
  2021f4:	f002 0007 	and.w	r0, r2, #7
  2021f8:	08d2      	lsrs	r2, r2, #3
  2021fa:	5c8b      	ldrb	r3, [r1, r2]
  2021fc:	fa29 f000 	lsr.w	r0, r9, r0
  202200:	4318      	orrs	r0, r3
  202202:	5488      	strb	r0, [r1, r2]
  202204:	f1ac 0206 	sub.w	r2, ip, #6
  202208:	b2d3      	uxtb	r3, r2
  20220a:	7908      	ldrb	r0, [r1, #4]
  20220c:	2b08      	cmp	r3, #8
  20220e:	4613      	mov	r3, r2
  202210:	bf98      	it	ls
  202212:	463a      	movls	r2, r7
  202214:	b2d6      	uxtb	r6, r2
  202216:	bf88      	it	hi
  202218:	2308      	movhi	r3, #8
  20221a:	fb06 f606 	mul.w	r6, r6, r6
  20221e:	f040 0004 	orr.w	r0, r0, #4
  202222:	fa56 f282 	uxtab	r2, r6, r2
  202226:	7108      	strb	r0, [r1, #4]
  202228:	0852      	lsrs	r2, r2, #1
  20222a:	fa52 f283 	uxtab	r2, r2, r3
  20222e:	f002 0007 	and.w	r0, r2, #7
  202232:	08d2      	lsrs	r2, r2, #3
  202234:	5c8b      	ldrb	r3, [r1, r2]
  202236:	fa29 f000 	lsr.w	r0, r9, r0
  20223a:	4318      	orrs	r0, r3
  20223c:	5488      	strb	r0, [r1, r2]
  20223e:	f89b 0000 	ldrb.w	r0, [fp]
  202242:	790a      	ldrb	r2, [r1, #4]
  202244:	1f43      	subs	r3, r0, #5
  202246:	b2de      	uxtb	r6, r3
  202248:	2e08      	cmp	r6, #8
  20224a:	461e      	mov	r6, r3
  20224c:	bf98      	it	ls
  20224e:	463b      	movls	r3, r7
  202250:	b2dd      	uxtb	r5, r3
  202252:	bf88      	it	hi
  202254:	2608      	movhi	r6, #8
  202256:	fb05 f505 	mul.w	r5, r5, r5
  20225a:	f042 0202 	orr.w	r2, r2, #2
  20225e:	fa55 f383 	uxtab	r3, r5, r3
  202262:	710a      	strb	r2, [r1, #4]
  202264:	085b      	lsrs	r3, r3, #1
  202266:	fa53 f386 	uxtab	r3, r3, r6
  20226a:	f003 0207 	and.w	r2, r3, #7
  20226e:	08db      	lsrs	r3, r3, #3
  202270:	5cce      	ldrb	r6, [r1, r3]
  202272:	fa29 f202 	lsr.w	r2, r9, r2
  202276:	4332      	orrs	r2, r6
  202278:	54ca      	strb	r2, [r1, r3]
  20227a:	1f03      	subs	r3, r0, #4
  20227c:	b2de      	uxtb	r6, r3
  20227e:	790a      	ldrb	r2, [r1, #4]
  202280:	2e08      	cmp	r6, #8
  202282:	461e      	mov	r6, r3
  202284:	bf98      	it	ls
  202286:	463b      	movls	r3, r7
  202288:	b2dd      	uxtb	r5, r3
  20228a:	bf88      	it	hi
  20228c:	2608      	movhi	r6, #8
  20228e:	fb05 f505 	mul.w	r5, r5, r5
  202292:	f042 0201 	orr.w	r2, r2, #1
  202296:	fa55 f383 	uxtab	r3, r5, r3
  20229a:	710a      	strb	r2, [r1, #4]
  20229c:	085b      	lsrs	r3, r3, #1
  20229e:	fa53 f386 	uxtab	r3, r3, r6
  2022a2:	f003 0207 	and.w	r2, r3, #7
  2022a6:	08db      	lsrs	r3, r3, #3
  2022a8:	5cce      	ldrb	r6, [r1, r3]
  2022aa:	fa29 f202 	lsr.w	r2, r9, r2
  2022ae:	4332      	orrs	r2, r6
  2022b0:	54ca      	strb	r2, [r1, r3]
  2022b2:	f8de 1000 	ldr.w	r1, [lr]
  2022b6:	1ec3      	subs	r3, r0, #3
  2022b8:	b2de      	uxtb	r6, r3
  2022ba:	794a      	ldrb	r2, [r1, #5]
  2022bc:	2e08      	cmp	r6, #8
  2022be:	461e      	mov	r6, r3
  2022c0:	bf98      	it	ls
  2022c2:	463b      	movls	r3, r7
  2022c4:	b2dd      	uxtb	r5, r3
  2022c6:	bf88      	it	hi
  2022c8:	2608      	movhi	r6, #8
  2022ca:	fb05 f505 	mul.w	r5, r5, r5
  2022ce:	f042 0280 	orr.w	r2, r2, #128	; 0x80
  2022d2:	fa55 f383 	uxtab	r3, r5, r3
  2022d6:	714a      	strb	r2, [r1, #5]
  2022d8:	085b      	lsrs	r3, r3, #1
  2022da:	fa53 f386 	uxtab	r3, r3, r6
  2022de:	f003 0207 	and.w	r2, r3, #7
  2022e2:	08db      	lsrs	r3, r3, #3
  2022e4:	5cce      	ldrb	r6, [r1, r3]
  2022e6:	fa29 f202 	lsr.w	r2, r9, r2
  2022ea:	4332      	orrs	r2, r6
  2022ec:	54ca      	strb	r2, [r1, r3]
  2022ee:	1e83      	subs	r3, r0, #2
  2022f0:	b2de      	uxtb	r6, r3
  2022f2:	794a      	ldrb	r2, [r1, #5]
  2022f4:	2e08      	cmp	r6, #8
  2022f6:	461e      	mov	r6, r3
  2022f8:	bf98      	it	ls
  2022fa:	463b      	movls	r3, r7
  2022fc:	b2dd      	uxtb	r5, r3
  2022fe:	bf88      	it	hi
  202300:	2608      	movhi	r6, #8
  202302:	fb05 f505 	mul.w	r5, r5, r5
  202306:	f042 0240 	orr.w	r2, r2, #64	; 0x40
  20230a:	fa55 f383 	uxtab	r3, r5, r3
  20230e:	714a      	strb	r2, [r1, #5]
  202310:	085b      	lsrs	r3, r3, #1
  202312:	fa53 f386 	uxtab	r3, r3, r6
  202316:	3801      	subs	r0, #1
  202318:	f003 0207 	and.w	r2, r3, #7
  20231c:	08db      	lsrs	r3, r3, #3
  20231e:	5cce      	ldrb	r6, [r1, r3]
  202320:	fa29 f202 	lsr.w	r2, r9, r2
  202324:	4332      	orrs	r2, r6
  202326:	54ca      	strb	r2, [r1, r3]
  202328:	b2c3      	uxtb	r3, r0
  20232a:	794a      	ldrb	r2, [r1, #5]
  20232c:	2b08      	cmp	r3, #8
  20232e:	4603      	mov	r3, r0
  202330:	bf98      	it	ls
  202332:	4638      	movls	r0, r7
  202334:	b2c6      	uxtb	r6, r0
  202336:	bf88      	it	hi
  202338:	2308      	movhi	r3, #8
  20233a:	fb06 f606 	mul.w	r6, r6, r6
  20233e:	f042 0220 	orr.w	r2, r2, #32
  202342:	fa56 f080 	uxtab	r0, r6, r0
  202346:	714a      	strb	r2, [r1, #5]
  202348:	0840      	lsrs	r0, r0, #1
  20234a:	fa50 f083 	uxtab	r0, r0, r3
  20234e:	f000 0207 	and.w	r2, r0, #7
  202352:	08c0      	lsrs	r0, r0, #3
  202354:	5c0b      	ldrb	r3, [r1, r0]
  202356:	fa29 f202 	lsr.w	r2, r9, r2
  20235a:	431a      	orrs	r2, r3
  20235c:	540a      	strb	r2, [r1, r0]
  20235e:	f89b 0000 	ldrb.w	r0, [fp]
  202362:	1fc2      	subs	r2, r0, #7
  202364:	b2d3      	uxtb	r3, r2
  202366:	2b08      	cmp	r3, #8
  202368:	f04f 0308 	mov.w	r3, #8
  20236c:	bf3c      	itt	cc
  20236e:	4613      	movcc	r3, r2
  202370:	2208      	movcc	r2, #8
  202372:	b2d6      	uxtb	r6, r2
  202374:	fb06 f606 	mul.w	r6, r6, r6
  202378:	794d      	ldrb	r5, [r1, #5]
  20237a:	fa56 f282 	uxtab	r2, r6, r2
  20237e:	f045 0610 	orr.w	r6, r5, #16
  202382:	714e      	strb	r6, [r1, #5]
  202384:	1f86      	subs	r6, r0, #6
  202386:	b2f5      	uxtb	r5, r6
  202388:	0852      	lsrs	r2, r2, #1
  20238a:	2d08      	cmp	r5, #8
  20238c:	f04f 0508 	mov.w	r5, #8
  202390:	fa52 f283 	uxtab	r2, r2, r3
  202394:	bf3c      	itt	cc
  202396:	4635      	movcc	r5, r6
  202398:	2608      	movcc	r6, #8
  20239a:	b2f4      	uxtb	r4, r6
  20239c:	fb04 f404 	mul.w	r4, r4, r4
  2023a0:	f002 0307 	and.w	r3, r2, #7
  2023a4:	08d2      	lsrs	r2, r2, #3
  2023a6:	fa54 f686 	uxtab	r6, r4, r6
  2023aa:	5c8c      	ldrb	r4, [r1, r2]
  2023ac:	fa29 f303 	lsr.w	r3, r9, r3
  2023b0:	4323      	orrs	r3, r4
  2023b2:	0876      	lsrs	r6, r6, #1
  2023b4:	548b      	strb	r3, [r1, r2]
  2023b6:	1f43      	subs	r3, r0, #5
  2023b8:	fa56 f685 	uxtab	r6, r6, r5
  2023bc:	b2dd      	uxtb	r5, r3
  2023be:	2d08      	cmp	r5, #8
  2023c0:	f04f 0508 	mov.w	r5, #8
  2023c4:	bf3c      	itt	cc
  2023c6:	461d      	movcc	r5, r3
  2023c8:	2308      	movcc	r3, #8
  2023ca:	b2dc      	uxtb	r4, r3
  2023cc:	fb04 f404 	mul.w	r4, r4, r4
  2023d0:	f006 0207 	and.w	r2, r6, #7
  2023d4:	08f6      	lsrs	r6, r6, #3
  2023d6:	fa54 f383 	uxtab	r3, r4, r3
  2023da:	5d8c      	ldrb	r4, [r1, r6]
  2023dc:	fa29 f202 	lsr.w	r2, r9, r2
  2023e0:	4322      	orrs	r2, r4
  2023e2:	085b      	lsrs	r3, r3, #1
  2023e4:	558a      	strb	r2, [r1, r6]
  2023e6:	1f06      	subs	r6, r0, #4
  2023e8:	fa53 f385 	uxtab	r3, r3, r5
  2023ec:	b2f5      	uxtb	r5, r6
  2023ee:	2d08      	cmp	r5, #8
  2023f0:	f04f 0508 	mov.w	r5, #8
  2023f4:	f8de 8000 	ldr.w	r8, [lr]
  2023f8:	bf3c      	itt	cc
  2023fa:	4635      	movcc	r5, r6
  2023fc:	2608      	movcc	r6, #8
  2023fe:	b2f4      	uxtb	r4, r6
  202400:	fb04 f404 	mul.w	r4, r4, r4
  202404:	f003 0107 	and.w	r1, r3, #7
  202408:	08db      	lsrs	r3, r3, #3
  20240a:	fa54 f686 	uxtab	r6, r4, r6
  20240e:	f818 4003 	ldrb.w	r4, [r8, r3]
  202412:	fa29 f101 	lsr.w	r1, r9, r1
  202416:	4321      	orrs	r1, r4
  202418:	0876      	lsrs	r6, r6, #1
  20241a:	f808 1003 	strb.w	r1, [r8, r3]
  20241e:	1ec3      	subs	r3, r0, #3
  202420:	fa56 f685 	uxtab	r6, r6, r5
  202424:	b2dd      	uxtb	r5, r3
  202426:	2d08      	cmp	r5, #8
  202428:	f04f 0508 	mov.w	r5, #8
  20242c:	bf3c      	itt	cc
  20242e:	461d      	movcc	r5, r3
  202430:	2308      	movcc	r3, #8
  202432:	b2dc      	uxtb	r4, r3
  202434:	fb04 f404 	mul.w	r4, r4, r4
  202438:	f006 0107 	and.w	r1, r6, #7
  20243c:	08f6      	lsrs	r6, r6, #3
  20243e:	fa54 f383 	uxtab	r3, r4, r3
  202442:	f818 4006 	ldrb.w	r4, [r8, r6]
  202446:	fa29 f101 	lsr.w	r1, r9, r1
  20244a:	4321      	orrs	r1, r4
  20244c:	3802      	subs	r0, #2
  20244e:	f808 1006 	strb.w	r1, [r8, r6]
  202452:	b2c6      	uxtb	r6, r0
  202454:	085b      	lsrs	r3, r3, #1
  202456:	2e08      	cmp	r6, #8
  202458:	f04f 0608 	mov.w	r6, #8
  20245c:	fa53 f385 	uxtab	r3, r3, r5
  202460:	bf3c      	itt	cc
  202462:	4606      	movcc	r6, r0
  202464:	2008      	movcc	r0, #8
  202466:	b2c5      	uxtb	r5, r0
  202468:	fb05 f505 	mul.w	r5, r5, r5
  20246c:	f003 0107 	and.w	r1, r3, #7
  202470:	fa55 f080 	uxtab	r0, r5, r0
  202474:	08db      	lsrs	r3, r3, #3
  202476:	f818 5003 	ldrb.w	r5, [r8, r3]
  20247a:	0840      	lsrs	r0, r0, #1
  20247c:	fa29 f101 	lsr.w	r1, r9, r1
  202480:	fa50 f086 	uxtab	r0, r0, r6
  202484:	4329      	orrs	r1, r5
  202486:	f808 1003 	strb.w	r1, [r8, r3]
  20248a:	f000 0107 	and.w	r1, r0, #7
  20248e:	08c0      	lsrs	r0, r0, #3
  202490:	f818 3000 	ldrb.w	r3, [r8, r0]
  202494:	fa29 f101 	lsr.w	r1, r9, r1
  202498:	4319      	orrs	r1, r3
  20249a:	f808 1000 	strb.w	r1, [r8, r0]
  20249e:	f89b 2000 	ldrb.w	r2, [fp]
  2024a2:	f04f 0b01 	mov.w	fp, #1
  2024a6:	1e50      	subs	r0, r2, #1
  2024a8:	b2c1      	uxtb	r1, r0
  2024aa:	2908      	cmp	r1, #8
  2024ac:	bf3c      	itt	cc
  2024ae:	4607      	movcc	r7, r0
  2024b0:	2008      	movcc	r0, #8
  2024b2:	b2c1      	uxtb	r1, r0
  2024b4:	fb01 f101 	mul.w	r1, r1, r1
  2024b8:	2a0e      	cmp	r2, #14
  2024ba:	fa51 f080 	uxtab	r0, r1, r0
  2024be:	ea4f 0050 	mov.w	r0, r0, lsr #1
  2024c2:	fa50 f087 	uxtab	r0, r0, r7
  2024c6:	f000 0107 	and.w	r1, r0, #7
  2024ca:	ea4f 00d0 	mov.w	r0, r0, lsr #3
  2024ce:	f818 3000 	ldrb.w	r3, [r8, r0]
  2024d2:	fa29 f101 	lsr.w	r1, r9, r1
  2024d6:	ea41 0103 	orr.w	r1, r1, r3
  2024da:	f808 1000 	strb.w	r1, [r8, r0]
  2024de:	f242 0014 	movw	r0, #8212	; 0x2014
  2024e2:	f6c2 0020 	movt	r0, #10272	; 0x2820
  2024e6:	f8d0 c000 	ldr.w	ip, [r0]
  2024ea:	f242 0010 	movw	r0, #8208	; 0x2010
  2024ee:	f6c2 0020 	movt	r0, #10272	; 0x2820
  2024f2:	f890 a000 	ldrb.w	sl, [r0]
  2024f6:	f040 80a8 	bne.w	20264a <benchmark_qrduino+0x13f6>
  2024fa:	220e      	movs	r2, #14
  2024fc:	e1e0      	b.n	2028c0 <benchmark_qrduino+0x166c>
  2024fe:	f242 0011 	movw	r0, #8209	; 0x2011
  202502:	f6c2 0020 	movt	r0, #10272	; 0x2820
  202506:	7800      	ldrb	r0, [r0, #0]
  202508:	f06f 070e 	mvn.w	r7, #14
  20250c:	1fc1      	subs	r1, r0, #7
  20250e:	b2cc      	uxtb	r4, r1
  202510:	1fc6      	subs	r6, r0, #7
  202512:	b2f5      	uxtb	r5, r6
  202514:	2d0d      	cmp	r5, #13
  202516:	f0c0 8083 	bcc.w	202620 <benchmark_qrduino+0x13cc>
  20251a:	4628      	mov	r0, r5
  20251c:	4621      	mov	r1, r4
  20251e:	f001 fec1 	bl	2042a4 <putalign>
  202522:	2d1c      	cmp	r5, #28
  202524:	d37c      	bcc.n	202620 <benchmark_qrduino+0x13cc>
  202526:	fa57 f686 	uxtab	r6, r7, r6
  20252a:	4621      	mov	r1, r4
  20252c:	4630      	mov	r0, r6
  20252e:	f001 feb9 	bl	2042a4 <putalign>
  202532:	2e1c      	cmp	r6, #28
  202534:	d374      	bcc.n	202620 <benchmark_qrduino+0x13cc>
  202536:	f1a5 061e 	sub.w	r6, r5, #30
  20253a:	4630      	mov	r0, r6
  20253c:	4621      	mov	r1, r4
  20253e:	f001 feb1 	bl	2042a4 <putalign>
  202542:	2e1c      	cmp	r6, #28
  202544:	d36c      	bcc.n	202620 <benchmark_qrduino+0x13cc>
  202546:	f1a5 062d 	sub.w	r6, r5, #45	; 0x2d
  20254a:	4630      	mov	r0, r6
  20254c:	4621      	mov	r1, r4
  20254e:	f001 fea9 	bl	2042a4 <putalign>
  202552:	2e1c      	cmp	r6, #28
  202554:	d364      	bcc.n	202620 <benchmark_qrduino+0x13cc>
  202556:	f1a5 063c 	sub.w	r6, r5, #60	; 0x3c
  20255a:	4630      	mov	r0, r6
  20255c:	4621      	mov	r1, r4
  20255e:	f001 fea1 	bl	2042a4 <putalign>
  202562:	2e1c      	cmp	r6, #28
  202564:	d35c      	bcc.n	202620 <benchmark_qrduino+0x13cc>
  202566:	f1a5 064b 	sub.w	r6, r5, #75	; 0x4b
  20256a:	4630      	mov	r0, r6
  20256c:	4621      	mov	r1, r4
  20256e:	f001 fe99 	bl	2042a4 <putalign>
  202572:	2e1c      	cmp	r6, #28
  202574:	d354      	bcc.n	202620 <benchmark_qrduino+0x13cc>
  202576:	f1a5 065a 	sub.w	r6, r5, #90	; 0x5a
  20257a:	4630      	mov	r0, r6
  20257c:	4621      	mov	r1, r4
  20257e:	f001 fe91 	bl	2042a4 <putalign>
  202582:	2e1c      	cmp	r6, #28
  202584:	d34c      	bcc.n	202620 <benchmark_qrduino+0x13cc>
  202586:	f1a5 0669 	sub.w	r6, r5, #105	; 0x69
  20258a:	4630      	mov	r0, r6
  20258c:	4621      	mov	r1, r4
  20258e:	f001 fe89 	bl	2042a4 <putalign>
  202592:	2e1c      	cmp	r6, #28
  202594:	d344      	bcc.n	202620 <benchmark_qrduino+0x13cc>
  202596:	f1a5 0678 	sub.w	r6, r5, #120	; 0x78
  20259a:	4630      	mov	r0, r6
  20259c:	4621      	mov	r1, r4
  20259e:	f001 fe81 	bl	2042a4 <putalign>
  2025a2:	2e1c      	cmp	r6, #28
  2025a4:	d33c      	bcc.n	202620 <benchmark_qrduino+0x13cc>
  2025a6:	f1a5 0687 	sub.w	r6, r5, #135	; 0x87
  2025aa:	4630      	mov	r0, r6
  2025ac:	4621      	mov	r1, r4
  2025ae:	f001 fe79 	bl	2042a4 <putalign>
  2025b2:	2e1c      	cmp	r6, #28
  2025b4:	d334      	bcc.n	202620 <benchmark_qrduino+0x13cc>
  2025b6:	f1a5 0696 	sub.w	r6, r5, #150	; 0x96
  2025ba:	4630      	mov	r0, r6
  2025bc:	4621      	mov	r1, r4
  2025be:	f001 fe71 	bl	2042a4 <putalign>
  2025c2:	2e1c      	cmp	r6, #28
  2025c4:	d32c      	bcc.n	202620 <benchmark_qrduino+0x13cc>
  2025c6:	f1a5 06a5 	sub.w	r6, r5, #165	; 0xa5
  2025ca:	4630      	mov	r0, r6
  2025cc:	4621      	mov	r1, r4
  2025ce:	f001 fe69 	bl	2042a4 <putalign>
  2025d2:	2e1c      	cmp	r6, #28
  2025d4:	d324      	bcc.n	202620 <benchmark_qrduino+0x13cc>
  2025d6:	f1a5 06b4 	sub.w	r6, r5, #180	; 0xb4
  2025da:	4630      	mov	r0, r6
  2025dc:	4621      	mov	r1, r4
  2025de:	f001 fe61 	bl	2042a4 <putalign>
  2025e2:	2e1c      	cmp	r6, #28
  2025e4:	d31c      	bcc.n	202620 <benchmark_qrduino+0x13cc>
  2025e6:	f1a5 06c3 	sub.w	r6, r5, #195	; 0xc3
  2025ea:	4630      	mov	r0, r6
  2025ec:	4621      	mov	r1, r4
  2025ee:	f001 fe59 	bl	2042a4 <putalign>
  2025f2:	2e1c      	cmp	r6, #28
  2025f4:	d314      	bcc.n	202620 <benchmark_qrduino+0x13cc>
  2025f6:	f1a5 06d2 	sub.w	r6, r5, #210	; 0xd2
  2025fa:	4630      	mov	r0, r6
  2025fc:	4621      	mov	r1, r4
  2025fe:	f001 fe51 	bl	2042a4 <putalign>
  202602:	2e1c      	cmp	r6, #28
  202604:	d30c      	bcc.n	202620 <benchmark_qrduino+0x13cc>
  202606:	f1a5 06e1 	sub.w	r6, r5, #225	; 0xe1
  20260a:	4630      	mov	r0, r6
  20260c:	4621      	mov	r1, r4
  20260e:	f001 fe49 	bl	2042a4 <putalign>
  202612:	2e1c      	cmp	r6, #28
  202614:	d304      	bcc.n	202620 <benchmark_qrduino+0x13cc>
  202616:	f1a5 00f0 	sub.w	r0, r5, #240	; 0xf0
  20261a:	4621      	mov	r1, r4
  20261c:	f001 fe42 	bl	2042a4 <putalign>
  202620:	2c19      	cmp	r4, #25
  202622:	f4ff aa62 	bcc.w	201aea <benchmark_qrduino+0x896>
  202626:	f104 00f1 	add.w	r0, r4, #241	; 0xf1
  20262a:	b2c5      	uxtb	r5, r0
  20262c:	2006      	movs	r0, #6
  20262e:	4629      	mov	r1, r5
  202630:	f001 fe38 	bl	2042a4 <putalign>
  202634:	4628      	mov	r0, r5
  202636:	2106      	movs	r1, #6
  202638:	f001 fe34 	bl	2042a4 <putalign>
  20263c:	f242 0011 	movw	r0, #8209	; 0x2011
  202640:	f6c2 0020 	movt	r0, #10272	; 0x2820
  202644:	7800      	ldrb	r0, [r0, #0]
  202646:	3c0f      	subs	r4, #15
  202648:	e762      	b.n	202510 <benchmark_qrduino+0x12bc>
  20264a:	eb0a 004a 	add.w	r0, sl, sl, lsl #1
  20264e:	f1a2 030f 	sub.w	r3, r2, #15
  202652:	0040      	lsls	r0, r0, #1
  202654:	9018      	str	r0, [sp, #96]	; 0x60
  202656:	f1a2 000e 	sub.w	r0, r2, #14
  20265a:	2b03      	cmp	r3, #3
  20265c:	f000 0103 	and.w	r1, r0, #3
  202660:	9114      	str	r1, [sp, #80]	; 0x50
  202662:	d201      	bcs.n	202668 <benchmark_qrduino+0x1414>
  202664:	2400      	movs	r4, #0
  202666:	e071      	b.n	20274c <benchmark_qrduino+0x14f8>
  202668:	eb0a 038a 	add.w	r3, sl, sl, lsl #2
  20266c:	f020 0003 	bic.w	r0, r0, #3
  202670:	9017      	str	r0, [sp, #92]	; 0x5c
  202672:	0058      	lsls	r0, r3, #1
  202674:	9016      	str	r0, [sp, #88]	; 0x58
  202676:	ea4f 008a 	mov.w	r0, sl, lsl #2
  20267a:	2400      	movs	r4, #0
  20267c:	4667      	mov	r7, ip
  20267e:	f04f 0b06 	mov.w	fp, #6
  202682:	9015      	str	r0, [sp, #84]	; 0x54
  202684:	9818      	ldr	r0, [sp, #96]	; 0x60
  202686:	f104 0e08 	add.w	lr, r4, #8
  20268a:	eb00 01de 	add.w	r1, r0, lr, lsr #3
  20268e:	f004 0904 	and.w	r9, r4, #4
  202692:	f81c 6001 	ldrb.w	r6, [ip, r1]
  202696:	f04f 0e80 	mov.w	lr, #128	; 0x80
  20269a:	fa2e f509 	lsr.w	r5, lr, r9
  20269e:	432e      	orrs	r6, r5
  2026a0:	f80c 6001 	strb.w	r6, [ip, r1]
  2026a4:	f104 0109 	add.w	r1, r4, #9
  2026a8:	b2ce      	uxtb	r6, r1
  2026aa:	2e06      	cmp	r6, #6
  2026ac:	460e      	mov	r6, r1
  2026ae:	bf98      	it	ls
  2026b0:	4659      	movls	r1, fp
  2026b2:	b2cd      	uxtb	r5, r1
  2026b4:	fb05 f505 	mul.w	r5, r5, r5
  2026b8:	f817 303a 	ldrb.w	r3, [r7, sl, lsl #3]
  2026bc:	bf88      	it	hi
  2026be:	2606      	movhi	r6, #6
  2026c0:	fa55 f181 	uxtab	r1, r5, r1
  2026c4:	f043 0302 	orr.w	r3, r3, #2
  2026c8:	0849      	lsrs	r1, r1, #1
  2026ca:	fa51 f186 	uxtab	r1, r1, r6
  2026ce:	f807 303a 	strb.w	r3, [r7, sl, lsl #3]
  2026d2:	f001 0307 	and.w	r3, r1, #7
  2026d6:	08c9      	lsrs	r1, r1, #3
  2026d8:	f818 6001 	ldrb.w	r6, [r8, r1]
  2026dc:	fa2e f303 	lsr.w	r3, lr, r3
  2026e0:	4333      	orrs	r3, r6
  2026e2:	f808 3001 	strb.w	r3, [r8, r1]
  2026e6:	f104 010a 	add.w	r1, r4, #10
  2026ea:	eb00 01d1 	add.w	r1, r0, r1, lsr #3
  2026ee:	f109 0002 	add.w	r0, r9, #2
  2026f2:	f81c 3001 	ldrb.w	r3, [ip, r1]
  2026f6:	fa2e f000 	lsr.w	r0, lr, r0
  2026fa:	4318      	orrs	r0, r3
  2026fc:	f80c 0001 	strb.w	r0, [ip, r1]
  202700:	9d16      	ldr	r5, [sp, #88]	; 0x58
  202702:	f104 010b 	add.w	r1, r4, #11
  202706:	b2cb      	uxtb	r3, r1
  202708:	5d78      	ldrb	r0, [r7, r5]
  20270a:	2b06      	cmp	r3, #6
  20270c:	460b      	mov	r3, r1
  20270e:	bf98      	it	ls
  202710:	4659      	movls	r1, fp
  202712:	b2ce      	uxtb	r6, r1
  202714:	bf88      	it	hi
  202716:	2306      	movhi	r3, #6
  202718:	fb06 f606 	mul.w	r6, r6, r6
  20271c:	f040 0002 	orr.w	r0, r0, #2
  202720:	fa56 f181 	uxtab	r1, r6, r1
  202724:	5578      	strb	r0, [r7, r5]
  202726:	0849      	lsrs	r1, r1, #1
  202728:	fa51 f183 	uxtab	r1, r1, r3
  20272c:	3404      	adds	r4, #4
  20272e:	f001 0007 	and.w	r0, r1, #7
  202732:	08c9      	lsrs	r1, r1, #3
  202734:	f818 3001 	ldrb.w	r3, [r8, r1]
  202738:	fa2e f000 	lsr.w	r0, lr, r0
  20273c:	4318      	orrs	r0, r3
  20273e:	f808 0001 	strb.w	r0, [r8, r1]
  202742:	9817      	ldr	r0, [sp, #92]	; 0x5c
  202744:	42a0      	cmp	r0, r4
  202746:	9815      	ldr	r0, [sp, #84]	; 0x54
  202748:	4407      	add	r7, r0
  20274a:	d19b      	bne.n	202684 <benchmark_qrduino+0x1430>
  20274c:	9814      	ldr	r0, [sp, #80]	; 0x50
  20274e:	f04f 0b01 	mov.w	fp, #1
  202752:	2800      	cmp	r0, #0
  202754:	f04f 0980 	mov.w	r9, #128	; 0x80
  202758:	f000 80af 	beq.w	2028ba <benchmark_qrduino+0x1666>
  20275c:	f104 0008 	add.w	r0, r4, #8
  202760:	07e7      	lsls	r7, r4, #31
  202762:	d114      	bne.n	20278e <benchmark_qrduino+0x153a>
  202764:	9b18      	ldr	r3, [sp, #96]	; 0x60
  202766:	f004 0107 	and.w	r1, r4, #7
  20276a:	eb03 03d0 	add.w	r3, r3, r0, lsr #3
  20276e:	2680      	movs	r6, #128	; 0x80
  202770:	f81c 5003 	ldrb.w	r5, [ip, r3]
  202774:	fa26 f101 	lsr.w	r1, r6, r1
  202778:	4329      	orrs	r1, r5
  20277a:	f80c 1003 	strb.w	r1, [ip, r3]
  20277e:	fb00 f10a 	mul.w	r1, r0, sl
  202782:	fb00 c00a 	mla	r0, r0, sl, ip
  202786:	f81c 6001 	ldrb.w	r6, [ip, r1]
  20278a:	2302      	movs	r3, #2
  20278c:	e01a      	b.n	2027c4 <benchmark_qrduino+0x1570>
  20278e:	b2c1      	uxtb	r1, r0
  202790:	2906      	cmp	r1, #6
  202792:	4601      	mov	r1, r0
  202794:	bf98      	it	ls
  202796:	2006      	movls	r0, #6
  202798:	b2c3      	uxtb	r3, r0
  20279a:	bf88      	it	hi
  20279c:	2106      	movhi	r1, #6
  20279e:	fb03 f303 	mul.w	r3, r3, r3
  2027a2:	fa53 f080 	uxtab	r0, r3, r0
  2027a6:	2380      	movs	r3, #128	; 0x80
  2027a8:	0840      	lsrs	r0, r0, #1
  2027aa:	fa50 f081 	uxtab	r0, r0, r1
  2027ae:	f000 0107 	and.w	r1, r0, #7
  2027b2:	40cb      	lsrs	r3, r1
  2027b4:	08c1      	lsrs	r1, r0, #3
  2027b6:	f818 6001 	ldrb.w	r6, [r8, r1]
  2027ba:	eb08 00d0 	add.w	r0, r8, r0, lsr #3
  2027be:	431e      	orrs	r6, r3
  2027c0:	f808 6001 	strb.w	r6, [r8, r1]
  2027c4:	ea46 0103 	orr.w	r1, r6, r3
  2027c8:	9b14      	ldr	r3, [sp, #80]	; 0x50
  2027ca:	7001      	strb	r1, [r0, #0]
  2027cc:	2b01      	cmp	r3, #1
  2027ce:	d074      	beq.n	2028ba <benchmark_qrduino+0x1666>
  2027d0:	1c60      	adds	r0, r4, #1
  2027d2:	07c1      	lsls	r1, r0, #31
  2027d4:	d116      	bne.n	202804 <benchmark_qrduino+0x15b0>
  2027d6:	9b18      	ldr	r3, [sp, #96]	; 0x60
  2027d8:	f104 0109 	add.w	r1, r4, #9
  2027dc:	eb03 03d1 	add.w	r3, r3, r1, lsr #3
  2027e0:	f000 0007 	and.w	r0, r0, #7
  2027e4:	2680      	movs	r6, #128	; 0x80
  2027e6:	f81c 5003 	ldrb.w	r5, [ip, r3]
  2027ea:	fa26 f000 	lsr.w	r0, r6, r0
  2027ee:	4328      	orrs	r0, r5
  2027f0:	f80c 0003 	strb.w	r0, [ip, r3]
  2027f4:	fb01 f30a 	mul.w	r3, r1, sl
  2027f8:	fb01 c00a 	mla	r0, r1, sl, ip
  2027fc:	f81c 6003 	ldrb.w	r6, [ip, r3]
  202800:	2302      	movs	r3, #2
  202802:	e01b      	b.n	20283c <benchmark_qrduino+0x15e8>
  202804:	3008      	adds	r0, #8
  202806:	b2c1      	uxtb	r1, r0
  202808:	2906      	cmp	r1, #6
  20280a:	4601      	mov	r1, r0
  20280c:	bf98      	it	ls
  20280e:	2006      	movls	r0, #6
  202810:	b2c3      	uxtb	r3, r0
  202812:	bf88      	it	hi
  202814:	2106      	movhi	r1, #6
  202816:	fb03 f303 	mul.w	r3, r3, r3
  20281a:	fa53 f080 	uxtab	r0, r3, r0
  20281e:	2380      	movs	r3, #128	; 0x80
  202820:	0840      	lsrs	r0, r0, #1
  202822:	fa50 f081 	uxtab	r0, r0, r1
  202826:	f000 0107 	and.w	r1, r0, #7
  20282a:	40cb      	lsrs	r3, r1
  20282c:	08c1      	lsrs	r1, r0, #3
  20282e:	f818 6001 	ldrb.w	r6, [r8, r1]
  202832:	eb08 00d0 	add.w	r0, r8, r0, lsr #3
  202836:	431e      	orrs	r6, r3
  202838:	f808 6001 	strb.w	r6, [r8, r1]
  20283c:	ea46 0103 	orr.w	r1, r6, r3
  202840:	9b14      	ldr	r3, [sp, #80]	; 0x50
  202842:	7001      	strb	r1, [r0, #0]
  202844:	2b02      	cmp	r3, #2
  202846:	d038      	beq.n	2028ba <benchmark_qrduino+0x1666>
  202848:	f104 0002 	add.w	r0, r4, #2
  20284c:	b9b7      	cbnz	r7, 20287c <benchmark_qrduino+0x1628>
  20284e:	9b18      	ldr	r3, [sp, #96]	; 0x60
  202850:	f104 010a 	add.w	r1, r4, #10
  202854:	eb03 03d1 	add.w	r3, r3, r1, lsr #3
  202858:	f000 0007 	and.w	r0, r0, #7
  20285c:	2680      	movs	r6, #128	; 0x80
  20285e:	f81c 5003 	ldrb.w	r5, [ip, r3]
  202862:	fa26 f000 	lsr.w	r0, r6, r0
  202866:	4328      	orrs	r0, r5
  202868:	f80c 0003 	strb.w	r0, [ip, r3]
  20286c:	fb01 f00a 	mul.w	r0, r1, sl
  202870:	fb01 c10a 	mla	r1, r1, sl, ip
  202874:	f81c 3000 	ldrb.w	r3, [ip, r0]
  202878:	2002      	movs	r0, #2
  20287a:	e01c      	b.n	2028b6 <benchmark_qrduino+0x1662>
  20287c:	3008      	adds	r0, #8
  20287e:	b2c1      	uxtb	r1, r0
  202880:	2906      	cmp	r1, #6
  202882:	4601      	mov	r1, r0
  202884:	bf98      	it	ls
  202886:	2006      	movls	r0, #6
  202888:	b2c3      	uxtb	r3, r0
  20288a:	bf88      	it	hi
  20288c:	2106      	movhi	r1, #6
  20288e:	fb03 f303 	mul.w	r3, r3, r3
  202892:	fa53 f080 	uxtab	r0, r3, r0
  202896:	2380      	movs	r3, #128	; 0x80
  202898:	0840      	lsrs	r0, r0, #1
  20289a:	fa50 f181 	uxtab	r1, r0, r1
  20289e:	f001 0007 	and.w	r0, r1, #7
  2028a2:	08ce      	lsrs	r6, r1, #3
  2028a4:	fa23 f000 	lsr.w	r0, r3, r0
  2028a8:	f818 3006 	ldrb.w	r3, [r8, r6]
  2028ac:	eb08 01d1 	add.w	r1, r8, r1, lsr #3
  2028b0:	4303      	orrs	r3, r0
  2028b2:	f808 3006 	strb.w	r3, [r8, r6]
  2028b6:	4318      	orrs	r0, r3
  2028b8:	7008      	strb	r0, [r1, #0]
  2028ba:	2a00      	cmp	r2, #0
  2028bc:	f000 80dd 	beq.w	202a7a <benchmark_qrduino+0x1826>
  2028c0:	2400      	movs	r4, #0
  2028c2:	2a01      	cmp	r2, #1
  2028c4:	bf98      	it	ls
  2028c6:	465a      	movls	r2, fp
  2028c8:	9218      	str	r2, [sp, #96]	; 0x60
  2028ca:	e006      	b.n	2028da <benchmark_qrduino+0x1686>
  2028cc:	9a18      	ldr	r2, [sp, #96]	; 0x60
  2028ce:	3401      	adds	r4, #1
  2028d0:	4294      	cmp	r4, r2
  2028d2:	f10b 0b01 	add.w	fp, fp, #1
  2028d6:	f000 80d0 	beq.w	202a7a <benchmark_qrduino+0x1826>
  2028da:	fb04 4004 	mla	r0, r4, r4, r4
  2028de:	2c03      	cmp	r4, #3
  2028e0:	ea4f 0150 	mov.w	r1, r0, lsr #1
  2028e4:	d25a      	bcs.n	20299c <benchmark_qrduino+0x1748>
  2028e6:	46de      	mov	lr, fp
  2028e8:	2300      	movs	r3, #0
  2028ea:	46f3      	mov	fp, lr
  2028ec:	f01e 0003 	ands.w	r0, lr, #3
  2028f0:	d0ec      	beq.n	2028cc <benchmark_qrduino+0x1678>
  2028f2:	fa5f f28a 	uxtb.w	r2, sl
  2028f6:	fb04 f202 	mul.w	r2, r4, r2
  2028fa:	2507      	movs	r5, #7
  2028fc:	eb02 02d3 	add.w	r2, r2, r3, lsr #3
  202900:	ea25 0703 	bic.w	r7, r5, r3
  202904:	f81c 2002 	ldrb.w	r2, [ip, r2]
  202908:	40fa      	lsrs	r2, r7
  20290a:	07d2      	lsls	r2, r2, #31
  20290c:	d00b      	beq.n	202926 <benchmark_qrduino+0x16d2>
  20290e:	fa51 f283 	uxtab	r2, r1, r3
  202912:	f002 0707 	and.w	r7, r2, #7
  202916:	08d2      	lsrs	r2, r2, #3
  202918:	f818 6002 	ldrb.w	r6, [r8, r2]
  20291c:	fa29 f707 	lsr.w	r7, r9, r7
  202920:	4337      	orrs	r7, r6
  202922:	f808 7002 	strb.w	r7, [r8, r2]
  202926:	2801      	cmp	r0, #1
  202928:	d0d0      	beq.n	2028cc <benchmark_qrduino+0x1678>
  20292a:	fa5f f28a 	uxtb.w	r2, sl
  20292e:	fb04 f202 	mul.w	r2, r4, r2
  202932:	1c5e      	adds	r6, r3, #1
  202934:	eb02 02d6 	add.w	r2, r2, r6, lsr #3
  202938:	2507      	movs	r5, #7
  20293a:	f81c 2002 	ldrb.w	r2, [ip, r2]
  20293e:	ea25 0706 	bic.w	r7, r5, r6
  202942:	40fa      	lsrs	r2, r7
  202944:	07d2      	lsls	r2, r2, #31
  202946:	d00b      	beq.n	202960 <benchmark_qrduino+0x170c>
  202948:	fa51 f286 	uxtab	r2, r1, r6
  20294c:	f002 0707 	and.w	r7, r2, #7
  202950:	08d2      	lsrs	r2, r2, #3
  202952:	f818 6002 	ldrb.w	r6, [r8, r2]
  202956:	fa29 f707 	lsr.w	r7, r9, r7
  20295a:	4337      	orrs	r7, r6
  20295c:	f808 7002 	strb.w	r7, [r8, r2]
  202960:	2802      	cmp	r0, #2
  202962:	d0b3      	beq.n	2028cc <benchmark_qrduino+0x1678>
  202964:	fa5f f08a 	uxtb.w	r0, sl
  202968:	fb04 f200 	mul.w	r2, r4, r0
  20296c:	1c98      	adds	r0, r3, #2
  20296e:	eb02 02d0 	add.w	r2, r2, r0, lsr #3
  202972:	2307      	movs	r3, #7
  202974:	f81c 2002 	ldrb.w	r2, [ip, r2]
  202978:	4383      	bics	r3, r0
  20297a:	40da      	lsrs	r2, r3
  20297c:	07d2      	lsls	r2, r2, #31
  20297e:	d0a5      	beq.n	2028cc <benchmark_qrduino+0x1678>
  202980:	fa51 f080 	uxtab	r0, r1, r0
  202984:	f000 0107 	and.w	r1, r0, #7
  202988:	08c0      	lsrs	r0, r0, #3
  20298a:	f818 2000 	ldrb.w	r2, [r8, r0]
  20298e:	fa29 f101 	lsr.w	r1, r9, r1
  202992:	4311      	orrs	r1, r2
  202994:	f808 1000 	strb.w	r1, [r8, r0]
  202998:	e798      	b.n	2028cc <benchmark_qrduino+0x1678>
  20299a:	bf00      	nop
  20299c:	46de      	mov	lr, fp
  20299e:	f02b 0b03 	bic.w	fp, fp, #3
  2029a2:	2300      	movs	r3, #0
  2029a4:	e003      	b.n	2029ae <benchmark_qrduino+0x175a>
  2029a6:	bf00      	nop
  2029a8:	3304      	adds	r3, #4
  2029aa:	459b      	cmp	fp, r3
  2029ac:	d09d      	beq.n	2028ea <benchmark_qrduino+0x1696>
  2029ae:	fa5f f08a 	uxtb.w	r0, sl
  2029b2:	fb04 f000 	mul.w	r0, r4, r0
  2029b6:	eb00 05d3 	add.w	r5, r0, r3, lsr #3
  2029ba:	f003 0004 	and.w	r0, r3, #4
  2029be:	f81c 6005 	ldrb.w	r6, [ip, r5]
  2029c2:	f080 0707 	eor.w	r7, r0, #7
  2029c6:	fa26 f707 	lsr.w	r7, r6, r7
  2029ca:	07ff      	lsls	r7, r7, #31
  2029cc:	ea4f 06d3 	mov.w	r6, r3, lsr #3
  2029d0:	d00e      	beq.n	2029f0 <benchmark_qrduino+0x179c>
  2029d2:	f003 07fc 	and.w	r7, r3, #252	; 0xfc
  2029d6:	440f      	add	r7, r1
  2029d8:	f007 0507 	and.w	r5, r7, #7
  2029dc:	08ff      	lsrs	r7, r7, #3
  2029de:	f818 2007 	ldrb.w	r2, [r8, r7]
  2029e2:	fa29 f505 	lsr.w	r5, r9, r5
  2029e6:	432a      	orrs	r2, r5
  2029e8:	fb04 650a 	mla	r5, r4, sl, r6
  2029ec:	f808 2007 	strb.w	r2, [r8, r7]
  2029f0:	f81c 2005 	ldrb.w	r2, [ip, r5]
  2029f4:	f080 0706 	eor.w	r7, r0, #6
  2029f8:	40fa      	lsrs	r2, r7
  2029fa:	07d2      	lsls	r2, r2, #31
  2029fc:	d00f      	beq.n	202a1e <benchmark_qrduino+0x17ca>
  2029fe:	f003 02fc 	and.w	r2, r3, #252	; 0xfc
  202a02:	440a      	add	r2, r1
  202a04:	3201      	adds	r2, #1
  202a06:	f002 0707 	and.w	r7, r2, #7
  202a0a:	08d2      	lsrs	r2, r2, #3
  202a0c:	f818 5002 	ldrb.w	r5, [r8, r2]
  202a10:	fa29 f707 	lsr.w	r7, r9, r7
  202a14:	432f      	orrs	r7, r5
  202a16:	fb04 650a 	mla	r5, r4, sl, r6
  202a1a:	f808 7002 	strb.w	r7, [r8, r2]
  202a1e:	f81c 2005 	ldrb.w	r2, [ip, r5]
  202a22:	f080 0705 	eor.w	r7, r0, #5
  202a26:	40fa      	lsrs	r2, r7
  202a28:	07d2      	lsls	r2, r2, #31
  202a2a:	d00f      	beq.n	202a4c <benchmark_qrduino+0x17f8>
  202a2c:	f003 02fc 	and.w	r2, r3, #252	; 0xfc
  202a30:	440a      	add	r2, r1
  202a32:	3202      	adds	r2, #2
  202a34:	f002 0707 	and.w	r7, r2, #7
  202a38:	08d2      	lsrs	r2, r2, #3
  202a3a:	f818 5002 	ldrb.w	r5, [r8, r2]
  202a3e:	fa29 f707 	lsr.w	r7, r9, r7
  202a42:	432f      	orrs	r7, r5
  202a44:	fb04 650a 	mla	r5, r4, sl, r6
  202a48:	f808 7002 	strb.w	r7, [r8, r2]
  202a4c:	f81c 2005 	ldrb.w	r2, [ip, r5]
  202a50:	f080 0004 	eor.w	r0, r0, #4
  202a54:	fa22 f000 	lsr.w	r0, r2, r0
  202a58:	07c0      	lsls	r0, r0, #31
  202a5a:	d0a5      	beq.n	2029a8 <benchmark_qrduino+0x1754>
  202a5c:	f003 00fc 	and.w	r0, r3, #252	; 0xfc
  202a60:	4408      	add	r0, r1
  202a62:	3003      	adds	r0, #3
  202a64:	f000 0207 	and.w	r2, r0, #7
  202a68:	08c0      	lsrs	r0, r0, #3
  202a6a:	f818 7000 	ldrb.w	r7, [r8, r0]
  202a6e:	fa29 f202 	lsr.w	r2, r9, r2
  202a72:	433a      	orrs	r2, r7
  202a74:	f808 2000 	strb.w	r2, [r8, r0]
  202a78:	e796      	b.n	2029a8 <benchmark_qrduino+0x1754>
  202a7a:	f242 0030 	movw	r0, #8240	; 0x2030
  202a7e:	f6c2 0020 	movt	r0, #10272	; 0x2820
  202a82:	6804      	ldr	r4, [r0, #0]
  202a84:	4620      	mov	r0, r4
  202a86:	f7fd fcfd 	bl	200484 <strlen>
  202a8a:	f242 0929 	movw	r9, #8233	; 0x2029
  202a8e:	f242 012a 	movw	r1, #8234	; 0x202a
  202a92:	f6c2 0920 	movt	r9, #10272	; 0x2820
  202a96:	f6c2 0120 	movt	r1, #10272	; 0x2820
  202a9a:	f242 082b 	movw	r8, #8235	; 0x202b
  202a9e:	f899 7000 	ldrb.w	r7, [r9]
  202aa2:	780b      	ldrb	r3, [r1, #0]
  202aa4:	f6c2 0820 	movt	r8, #10272	; 0x2820
  202aa8:	f898 2000 	ldrb.w	r2, [r8]
  202aac:	19d9      	adds	r1, r3, r7
  202aae:	fb11 3c02 	smlabb	ip, r1, r2, r3
  202ab2:	9716      	str	r7, [sp, #88]	; 0x58
  202ab4:	f1ac 0e02 	sub.w	lr, ip, #2
  202ab8:	4570      	cmp	r0, lr
  202aba:	9217      	str	r2, [sp, #92]	; 0x5c
  202abc:	9314      	str	r3, [sp, #80]	; 0x50
  202abe:	bf38      	it	cc
  202ac0:	4686      	movcc	lr, r0
  202ac2:	f10e 0001 	add.w	r0, lr, #1
  202ac6:	2200      	movs	r2, #0
  202ac8:	f1be 0f00 	cmp.w	lr, #0
  202acc:	5422      	strb	r2, [r4, r0]
  202ace:	d04f      	beq.n	202b70 <benchmark_qrduino+0x191c>
  202ad0:	f01e 0303 	ands.w	r3, lr, #3
  202ad4:	f1ae 0201 	sub.w	r2, lr, #1
  202ad8:	d00b      	beq.n	202af2 <benchmark_qrduino+0x189e>
  202ada:	5ca7      	ldrb	r7, [r4, r2]
  202adc:	2b01      	cmp	r3, #1
  202ade:	ea4f 1607 	mov.w	r6, r7, lsl #4
  202ae2:	ea4f 1717 	mov.w	r7, r7, lsr #4
  202ae6:	5426      	strb	r6, [r4, r0]
  202ae8:	f804 700e 	strb.w	r7, [r4, lr]
  202aec:	d103      	bne.n	202af6 <benchmark_qrduino+0x18a2>
  202aee:	4610      	mov	r0, r2
  202af0:	e016      	b.n	202b20 <benchmark_qrduino+0x18cc>
  202af2:	4670      	mov	r0, lr
  202af4:	e014      	b.n	202b20 <benchmark_qrduino+0x18cc>
  202af6:	f1ae 0002 	sub.w	r0, lr, #2
  202afa:	5c26      	ldrb	r6, [r4, r0]
  202afc:	2b02      	cmp	r3, #2
  202afe:	ea47 1706 	orr.w	r7, r7, r6, lsl #4
  202b02:	f804 700e 	strb.w	r7, [r4, lr]
  202b06:	ea4f 1716 	mov.w	r7, r6, lsr #4
  202b0a:	54a7      	strb	r7, [r4, r2]
  202b0c:	d008      	beq.n	202b20 <benchmark_qrduino+0x18cc>
  202b0e:	f1ae 0303 	sub.w	r3, lr, #3
  202b12:	5ce6      	ldrb	r6, [r4, r3]
  202b14:	ea47 1706 	orr.w	r7, r7, r6, lsl #4
  202b18:	54a7      	strb	r7, [r4, r2]
  202b1a:	0937      	lsrs	r7, r6, #4
  202b1c:	5427      	strb	r7, [r4, r0]
  202b1e:	4618      	mov	r0, r3
  202b20:	2a03      	cmp	r2, #3
  202b22:	d325      	bcc.n	202b70 <benchmark_qrduino+0x191c>
  202b24:	1822      	adds	r2, r4, r0
  202b26:	f812 7c01 	ldrb.w	r7, [r2, #-1]
  202b2a:	7856      	ldrb	r6, [r2, #1]
  202b2c:	4621      	mov	r1, r4
  202b2e:	ea46 1607 	orr.w	r6, r6, r7, lsl #4
  202b32:	f812 4c02 	ldrb.w	r4, [r2, #-2]
  202b36:	f812 5c03 	ldrb.w	r5, [r2, #-3]
  202b3a:	7056      	strb	r6, [r2, #1]
  202b3c:	063f      	lsls	r7, r7, #24
  202b3e:	0126      	lsls	r6, r4, #4
  202b40:	ea46 7717 	orr.w	r7, r6, r7, lsr #28
  202b44:	0626      	lsls	r6, r4, #24
  202b46:	012c      	lsls	r4, r5, #4
  202b48:	f812 3c04 	ldrb.w	r3, [r2, #-4]
  202b4c:	ea44 7616 	orr.w	r6, r4, r6, lsr #28
  202b50:	540f      	strb	r7, [r1, r0]
  202b52:	f802 6c01 	strb.w	r6, [r2, #-1]
  202b56:	062f      	lsls	r7, r5, #24
  202b58:	011e      	lsls	r6, r3, #4
  202b5a:	ea46 7717 	orr.w	r7, r6, r7, lsr #28
  202b5e:	460c      	mov	r4, r1
  202b60:	3804      	subs	r0, #4
  202b62:	ea4f 1313 	mov.w	r3, r3, lsr #4
  202b66:	f802 7c02 	strb.w	r7, [r2, #-2]
  202b6a:	f802 3c03 	strb.w	r3, [r2, #-3]
  202b6e:	d1d9      	bne.n	202b24 <benchmark_qrduino+0x18d0>
  202b70:	7860      	ldrb	r0, [r4, #1]
  202b72:	f10e 0202 	add.w	r2, lr, #2
  202b76:	ea40 100e 	orr.w	r0, r0, lr, lsl #4
  202b7a:	4562      	cmp	r2, ip
  202b7c:	7060      	strb	r0, [r4, #1]
  202b7e:	f04f 0040 	mov.w	r0, #64	; 0x40
  202b82:	ea40 101e 	orr.w	r0, r0, lr, lsr #4
  202b86:	7020      	strb	r0, [r4, #0]
  202b88:	d216      	bcs.n	202bb8 <benchmark_qrduino+0x1964>
  202b8a:	f10e 0004 	add.w	r0, lr, #4
  202b8e:	f241 11ec 	movw	r1, #4588	; 0x11ec
  202b92:	bf00      	nop
  202b94:	1822      	adds	r2, r4, r0
  202b96:	4560      	cmp	r0, ip
  202b98:	f822 1c02 	strh.w	r1, [r2, #-2]
  202b9c:	d20c      	bcs.n	202bb8 <benchmark_qrduino+0x1964>
  202b9e:	1c83      	adds	r3, r0, #2
  202ba0:	4563      	cmp	r3, ip
  202ba2:	5221      	strh	r1, [r4, r0]
  202ba4:	d208      	bcs.n	202bb8 <benchmark_qrduino+0x1964>
  202ba6:	1d03      	adds	r3, r0, #4
  202ba8:	4563      	cmp	r3, ip
  202baa:	8051      	strh	r1, [r2, #2]
  202bac:	d204      	bcs.n	202bb8 <benchmark_qrduino+0x1964>
  202bae:	8091      	strh	r1, [r2, #4]
  202bb0:	1d82      	adds	r2, r0, #6
  202bb2:	3008      	adds	r0, #8
  202bb4:	4562      	cmp	r2, ip
  202bb6:	d3ed      	bcc.n	202b94 <benchmark_qrduino+0x1940>
  202bb8:	f242 052c 	movw	r5, #8236	; 0x202c
  202bbc:	f6c2 0520 	movt	r5, #10272	; 0x2820
  202bc0:	f242 0024 	movw	r0, #8228	; 0x2024
  202bc4:	782b      	ldrb	r3, [r5, #0]
  202bc6:	f6c2 0020 	movt	r0, #10272	; 0x2820
  202bca:	f8d0 b000 	ldr.w	fp, [r0]
  202bce:	eb04 070c 	add.w	r7, r4, ip
  202bd2:	2001      	movs	r0, #1
  202bd4:	2b00      	cmp	r3, #0
  202bd6:	f8cd c054 	str.w	ip, [sp, #84]	; 0x54
  202bda:	f88b 0000 	strb.w	r0, [fp]
  202bde:	9318      	str	r3, [sp, #96]	; 0x60
  202be0:	f000 813a 	beq.w	202e58 <benchmark_qrduino+0x1c04>
  202be4:	f244 6e20 	movw	lr, #17952	; 0x4620
  202be8:	f644 19b6 	movw	r9, #18870	; 0x49b6
  202bec:	9e16      	ldr	r6, [sp, #88]	; 0x58
  202bee:	f04f 0a00 	mov.w	sl, #0
  202bf2:	f2c0 0e20 	movt	lr, #32
  202bf6:	f2c0 0920 	movt	r9, #32
  202bfa:	2101      	movs	r1, #1
  202bfc:	f04f 0801 	mov.w	r8, #1
  202c00:	e9cd 7412 	strd	r7, r4, [sp, #72]	; 0x48
  202c04:	e01c      	b.n	202c40 <benchmark_qrduino+0x19ec>
  202c06:	bf00      	nop
  202c08:	f89b 1000 	ldrb.w	r1, [fp]
  202c0c:	f242 052c 	movw	r5, #8236	; 0x202c
  202c10:	9e16      	ldr	r6, [sp, #88]	; 0x58
  202c12:	f6c2 0520 	movt	r5, #10272	; 0x2820
  202c16:	b2c8      	uxtb	r0, r1
  202c18:	f81e 0000 	ldrb.w	r0, [lr, r0]
  202c1c:	4450      	add	r0, sl
  202c1e:	1c41      	adds	r1, r0, #1
  202c20:	b2c9      	uxtb	r1, r1
  202c22:	f1b1 02ff 	subs.w	r2, r1, #255	; 0xff
  202c26:	bf18      	it	ne
  202c28:	460a      	movne	r2, r1
  202c2a:	28fe      	cmp	r0, #254	; 0xfe
  202c2c:	bf98      	it	ls
  202c2e:	4602      	movls	r2, r0
  202c30:	f819 1002 	ldrb.w	r1, [r9, r2]
  202c34:	459c      	cmp	ip, r3
  202c36:	46e2      	mov	sl, ip
  202c38:	f88b 1000 	strb.w	r1, [fp]
  202c3c:	f000 80f0 	beq.w	202e20 <benchmark_qrduino+0x1bcc>
  202c40:	f10a 0c01 	add.w	ip, sl, #1
  202c44:	f1ba 0f00 	cmp.w	sl, #0
  202c48:	f80b 800c 	strb.w	r8, [fp, ip]
  202c4c:	d0e3      	beq.n	202c16 <benchmark_qrduino+0x19c2>
  202c4e:	f01a 0003 	ands.w	r0, sl, #3
  202c52:	f1aa 0601 	sub.w	r6, sl, #1
  202c56:	d015      	beq.n	202c84 <benchmark_qrduino+0x1a30>
  202c58:	f81b 100a 	ldrb.w	r1, [fp, sl]
  202c5c:	4662      	mov	r2, ip
  202c5e:	b1a1      	cbz	r1, 202c8a <benchmark_qrduino+0x1a36>
  202c60:	f81e 1001 	ldrb.w	r1, [lr, r1]
  202c64:	f81b 5006 	ldrb.w	r5, [fp, r6]
  202c68:	4451      	add	r1, sl
  202c6a:	1c4f      	adds	r7, r1, #1
  202c6c:	b2ff      	uxtb	r7, r7
  202c6e:	f1b7 0cff 	subs.w	ip, r7, #255	; 0xff
  202c72:	bf18      	it	ne
  202c74:	46bc      	movne	ip, r7
  202c76:	29fe      	cmp	r1, #254	; 0xfe
  202c78:	bf98      	it	ls
  202c7a:	468c      	movls	ip, r1
  202c7c:	f819 100c 	ldrb.w	r1, [r9, ip]
  202c80:	4069      	eors	r1, r5
  202c82:	e004      	b.n	202c8e <benchmark_qrduino+0x1a3a>
  202c84:	4651      	mov	r1, sl
  202c86:	4654      	mov	r4, sl
  202c88:	e052      	b.n	202d30 <benchmark_qrduino+0x1adc>
  202c8a:	f81b 1006 	ldrb.w	r1, [fp, r6]
  202c8e:	2801      	cmp	r0, #1
  202c90:	f80b 100a 	strb.w	r1, [fp, sl]
  202c94:	d104      	bne.n	202ca0 <benchmark_qrduino+0x1a4c>
  202c96:	9b18      	ldr	r3, [sp, #96]	; 0x60
  202c98:	4631      	mov	r1, r6
  202c9a:	4634      	mov	r4, r6
  202c9c:	4694      	mov	ip, r2
  202c9e:	e047      	b.n	202d30 <benchmark_qrduino+0x1adc>
  202ca0:	f81b 5006 	ldrb.w	r5, [fp, r6]
  202ca4:	1e71      	subs	r1, r6, #1
  202ca6:	b1a5      	cbz	r5, 202cd2 <benchmark_qrduino+0x1a7e>
  202ca8:	f81e 7005 	ldrb.w	r7, [lr, r5]
  202cac:	f81b c001 	ldrb.w	ip, [fp, r1]
  202cb0:	4457      	add	r7, sl
  202cb2:	1c7d      	adds	r5, r7, #1
  202cb4:	b2ed      	uxtb	r5, r5
  202cb6:	f1b5 08ff 	subs.w	r8, r5, #255	; 0xff
  202cba:	bf18      	it	ne
  202cbc:	46a8      	movne	r8, r5
  202cbe:	2ffe      	cmp	r7, #254	; 0xfe
  202cc0:	bf98      	it	ls
  202cc2:	46b8      	movls	r8, r7
  202cc4:	f819 5008 	ldrb.w	r5, [r9, r8]
  202cc8:	f04f 0801 	mov.w	r8, #1
  202ccc:	ea85 050c 	eor.w	r5, r5, ip
  202cd0:	e001      	b.n	202cd6 <benchmark_qrduino+0x1a82>
  202cd2:	f81b 5001 	ldrb.w	r5, [fp, r1]
  202cd6:	9b18      	ldr	r3, [sp, #96]	; 0x60
  202cd8:	4694      	mov	ip, r2
  202cda:	2802      	cmp	r0, #2
  202cdc:	f80b 5006 	strb.w	r5, [fp, r6]
  202ce0:	d102      	bne.n	202ce8 <benchmark_qrduino+0x1a94>
  202ce2:	f1aa 0402 	sub.w	r4, sl, #2
  202ce6:	e023      	b.n	202d30 <benchmark_qrduino+0x1adc>
  202ce8:	f81b 0001 	ldrb.w	r0, [fp, r1]
  202cec:	f1a1 0801 	sub.w	r8, r1, #1
  202cf0:	b1a0      	cbz	r0, 202d1c <benchmark_qrduino+0x1ac8>
  202cf2:	f81e 3000 	ldrb.w	r3, [lr, r0]
  202cf6:	f81b c008 	ldrb.w	ip, [fp, r8]
  202cfa:	4453      	add	r3, sl
  202cfc:	1c5d      	adds	r5, r3, #1
  202cfe:	b2ed      	uxtb	r5, r5
  202d00:	f1b5 07ff 	subs.w	r7, r5, #255	; 0xff
  202d04:	bf18      	it	ne
  202d06:	462f      	movne	r7, r5
  202d08:	2bfe      	cmp	r3, #254	; 0xfe
  202d0a:	bf98      	it	ls
  202d0c:	461f      	movls	r7, r3
  202d0e:	f819 3007 	ldrb.w	r3, [r9, r7]
  202d12:	ea83 000c 	eor.w	r0, r3, ip
  202d16:	9b18      	ldr	r3, [sp, #96]	; 0x60
  202d18:	4694      	mov	ip, r2
  202d1a:	e001      	b.n	202d20 <benchmark_qrduino+0x1acc>
  202d1c:	f81b 0008 	ldrb.w	r0, [fp, r8]
  202d20:	f80b 0001 	strb.w	r0, [fp, r1]
  202d24:	f1aa 0403 	sub.w	r4, sl, #3
  202d28:	4641      	mov	r1, r8
  202d2a:	f04f 0801 	mov.w	r8, #1
  202d2e:	bf00      	nop
  202d30:	b2f7      	uxtb	r7, r6
  202d32:	2f03      	cmp	r7, #3
  202d34:	d208      	bcs.n	202d48 <benchmark_qrduino+0x1af4>
  202d36:	e767      	b.n	202c08 <benchmark_qrduino+0x19b4>
  202d38:	f81b 5001 	ldrb.w	r5, [fp, r1]
  202d3c:	3c04      	subs	r4, #4
  202d3e:	0620      	lsls	r0, r4, #24
  202d40:	f80b 5007 	strb.w	r5, [fp, r7]
  202d44:	f43f af60 	beq.w	202c08 <benchmark_qrduino+0x19b4>
  202d48:	f81b 5001 	ldrb.w	r5, [fp, r1]
  202d4c:	1e4f      	subs	r7, r1, #1
  202d4e:	b19d      	cbz	r5, 202d78 <benchmark_qrduino+0x1b24>
  202d50:	f81e 5005 	ldrb.w	r5, [lr, r5]
  202d54:	f81b 6007 	ldrb.w	r6, [fp, r7]
  202d58:	4455      	add	r5, sl
  202d5a:	1c68      	adds	r0, r5, #1
  202d5c:	b2c0      	uxtb	r0, r0
  202d5e:	f1b0 02ff 	subs.w	r2, r0, #255	; 0xff
  202d62:	bf18      	it	ne
  202d64:	4602      	movne	r2, r0
  202d66:	2dfe      	cmp	r5, #254	; 0xfe
  202d68:	bf98      	it	ls
  202d6a:	462a      	movls	r2, r5
  202d6c:	f819 0002 	ldrb.w	r0, [r9, r2]
  202d70:	ea80 0506 	eor.w	r5, r0, r6
  202d74:	e002      	b.n	202d7c <benchmark_qrduino+0x1b28>
  202d76:	bf00      	nop
  202d78:	f81b 5007 	ldrb.w	r5, [fp, r7]
  202d7c:	f80b 5001 	strb.w	r5, [fp, r1]
  202d80:	f81b 5007 	ldrb.w	r5, [fp, r7]
  202d84:	1e79      	subs	r1, r7, #1
  202d86:	b19d      	cbz	r5, 202db0 <benchmark_qrduino+0x1b5c>
  202d88:	f81e 0005 	ldrb.w	r0, [lr, r5]
  202d8c:	f81b 2001 	ldrb.w	r2, [fp, r1]
  202d90:	4450      	add	r0, sl
  202d92:	1c46      	adds	r6, r0, #1
  202d94:	b2f6      	uxtb	r6, r6
  202d96:	f1b6 05ff 	subs.w	r5, r6, #255	; 0xff
  202d9a:	bf18      	it	ne
  202d9c:	4635      	movne	r5, r6
  202d9e:	28fe      	cmp	r0, #254	; 0xfe
  202da0:	bf98      	it	ls
  202da2:	4605      	movls	r5, r0
  202da4:	f819 0005 	ldrb.w	r0, [r9, r5]
  202da8:	ea80 0502 	eor.w	r5, r0, r2
  202dac:	e002      	b.n	202db4 <benchmark_qrduino+0x1b60>
  202dae:	bf00      	nop
  202db0:	f81b 5001 	ldrb.w	r5, [fp, r1]
  202db4:	f80b 5007 	strb.w	r5, [fp, r7]
  202db8:	f81b 5001 	ldrb.w	r5, [fp, r1]
  202dbc:	1e4f      	subs	r7, r1, #1
  202dbe:	b19d      	cbz	r5, 202de8 <benchmark_qrduino+0x1b94>
  202dc0:	f81e 0005 	ldrb.w	r0, [lr, r5]
  202dc4:	f81b 2007 	ldrb.w	r2, [fp, r7]
  202dc8:	4450      	add	r0, sl
  202dca:	1c46      	adds	r6, r0, #1
  202dcc:	b2f6      	uxtb	r6, r6
  202dce:	f1b6 05ff 	subs.w	r5, r6, #255	; 0xff
  202dd2:	bf18      	it	ne
  202dd4:	4635      	movne	r5, r6
  202dd6:	28fe      	cmp	r0, #254	; 0xfe
  202dd8:	bf98      	it	ls
  202dda:	4605      	movls	r5, r0
  202ddc:	f819 0005 	ldrb.w	r0, [r9, r5]
  202de0:	ea80 0502 	eor.w	r5, r0, r2
  202de4:	e002      	b.n	202dec <benchmark_qrduino+0x1b98>
  202de6:	bf00      	nop
  202de8:	f81b 5007 	ldrb.w	r5, [fp, r7]
  202dec:	f80b 5001 	strb.w	r5, [fp, r1]
  202df0:	f81b 5007 	ldrb.w	r5, [fp, r7]
  202df4:	1e79      	subs	r1, r7, #1
  202df6:	2d00      	cmp	r5, #0
  202df8:	d09e      	beq.n	202d38 <benchmark_qrduino+0x1ae4>
  202dfa:	f81e 0005 	ldrb.w	r0, [lr, r5]
  202dfe:	f81b 2001 	ldrb.w	r2, [fp, r1]
  202e02:	4450      	add	r0, sl
  202e04:	1c46      	adds	r6, r0, #1
  202e06:	b2f6      	uxtb	r6, r6
  202e08:	f1b6 05ff 	subs.w	r5, r6, #255	; 0xff
  202e0c:	bf18      	it	ne
  202e0e:	4635      	movne	r5, r6
  202e10:	28fe      	cmp	r0, #254	; 0xfe
  202e12:	bf98      	it	ls
  202e14:	4605      	movls	r5, r0
  202e16:	f819 0005 	ldrb.w	r0, [r9, r5]
  202e1a:	ea80 0502 	eor.w	r5, r0, r2
  202e1e:	e78d      	b.n	202d3c <benchmark_qrduino+0x1ae8>
  202e20:	f81e 1001 	ldrb.w	r1, [lr, r1]
  202e24:	1c5a      	adds	r2, r3, #1
  202e26:	f88b 1000 	strb.w	r1, [fp]
  202e2a:	f04f 31ff 	mov.w	r1, #4294967295
  202e2e:	f06f 0001 	mvn.w	r0, #1
  202e32:	fa50 f082 	uxtab	r0, r0, r2
  202e36:	fa51 f282 	uxtab	r2, r1, r2
  202e3a:	2803      	cmp	r0, #3
  202e3c:	f002 0c03 	and.w	ip, r2, #3
  202e40:	d20f      	bcs.n	202e62 <benchmark_qrduino+0x1c0e>
  202e42:	f242 082b 	movw	r8, #8235	; 0x202b
  202e46:	f242 0929 	movw	r9, #8233	; 0x2029
  202e4a:	9f12      	ldr	r7, [sp, #72]	; 0x48
  202e4c:	2201      	movs	r2, #1
  202e4e:	f6c2 0820 	movt	r8, #10272	; 0x2820
  202e52:	f6c2 0920 	movt	r9, #10272	; 0x2820
  202e56:	e02c      	b.n	202eb2 <benchmark_qrduino+0x1c5e>
  202e58:	2000      	movs	r0, #0
  202e5a:	9e16      	ldr	r6, [sp, #88]	; 0x58
  202e5c:	f88b 0000 	strb.w	r0, [fp]
  202e60:	e040      	b.n	202ee4 <benchmark_qrduino+0x1c90>
  202e62:	f242 082b 	movw	r8, #8235	; 0x202b
  202e66:	f242 0929 	movw	r9, #8233	; 0x2029
  202e6a:	9f12      	ldr	r7, [sp, #72]	; 0x48
  202e6c:	f022 0a03 	bic.w	sl, r2, #3
  202e70:	2200      	movs	r2, #0
  202e72:	f6c2 0820 	movt	r8, #10272	; 0x2820
  202e76:	f6c2 0920 	movt	r9, #10272	; 0x2820
  202e7a:	bf00      	nop
  202e7c:	eb0b 0002 	add.w	r0, fp, r2
  202e80:	7844      	ldrb	r4, [r0, #1]
  202e82:	7886      	ldrb	r6, [r0, #2]
  202e84:	f81e 1004 	ldrb.w	r1, [lr, r4]
  202e88:	78c5      	ldrb	r5, [r0, #3]
  202e8a:	7904      	ldrb	r4, [r0, #4]
  202e8c:	7041      	strb	r1, [r0, #1]
  202e8e:	f81e 1006 	ldrb.w	r1, [lr, r6]
  202e92:	f81e 6005 	ldrb.w	r6, [lr, r5]
  202e96:	7081      	strb	r1, [r0, #2]
  202e98:	f81e 1004 	ldrb.w	r1, [lr, r4]
  202e9c:	3204      	adds	r2, #4
  202e9e:	4592      	cmp	sl, r2
  202ea0:	70c6      	strb	r6, [r0, #3]
  202ea2:	7101      	strb	r1, [r0, #4]
  202ea4:	d1ea      	bne.n	202e7c <benchmark_qrduino+0x1c28>
  202ea6:	f242 052c 	movw	r5, #8236	; 0x202c
  202eaa:	9e16      	ldr	r6, [sp, #88]	; 0x58
  202eac:	3201      	adds	r2, #1
  202eae:	f6c2 0520 	movt	r5, #10272	; 0x2820
  202eb2:	9c13      	ldr	r4, [sp, #76]	; 0x4c
  202eb4:	f1bc 0f00 	cmp.w	ip, #0
  202eb8:	d014      	beq.n	202ee4 <benchmark_qrduino+0x1c90>
  202eba:	f81b 0002 	ldrb.w	r0, [fp, r2]
  202ebe:	f1bc 0f01 	cmp.w	ip, #1
  202ec2:	f81e 0000 	ldrb.w	r0, [lr, r0]
  202ec6:	f80b 0002 	strb.w	r0, [fp, r2]
  202eca:	d00b      	beq.n	202ee4 <benchmark_qrduino+0x1c90>
  202ecc:	445a      	add	r2, fp
  202ece:	7850      	ldrb	r0, [r2, #1]
  202ed0:	f1bc 0f02 	cmp.w	ip, #2
  202ed4:	f81e 0000 	ldrb.w	r0, [lr, r0]
  202ed8:	7050      	strb	r0, [r2, #1]
  202eda:	d003      	beq.n	202ee4 <benchmark_qrduino+0x1c90>
  202edc:	7890      	ldrb	r0, [r2, #2]
  202ede:	f81e 0000 	ldrb.w	r0, [lr, r0]
  202ee2:	7090      	strb	r0, [r2, #2]
  202ee4:	b16e      	cbz	r6, 202f02 <benchmark_qrduino+0x1cae>
  202ee6:	9917      	ldr	r1, [sp, #92]	; 0x5c
  202ee8:	4620      	mov	r0, r4
  202eea:	463a      	mov	r2, r7
  202eec:	f8cd b000 	str.w	fp, [sp]
  202ef0:	f7fd fc5a 	bl	2007a8 <appendrs>
  202ef4:	e9dd 1317 	ldrd	r1, r3, [sp, #92]	; 0x5c
  202ef8:	3e01      	subs	r6, #1
  202efa:	440c      	add	r4, r1
  202efc:	441f      	add	r7, r3
  202efe:	d1f3      	bne.n	202ee8 <benchmark_qrduino+0x1c94>
  202f00:	e000      	b.n	202f04 <benchmark_qrduino+0x1cb0>
  202f02:	9917      	ldr	r1, [sp, #92]	; 0x5c
  202f04:	9814      	ldr	r0, [sp, #80]	; 0x50
  202f06:	b340      	cbz	r0, 202f5a <benchmark_qrduino+0x1d06>
  202f08:	2601      	movs	r6, #1
  202f0a:	bf00      	nop
  202f0c:	1c48      	adds	r0, r1, #1
  202f0e:	b2db      	uxtb	r3, r3
  202f10:	b2c1      	uxtb	r1, r0
  202f12:	4620      	mov	r0, r4
  202f14:	463a      	mov	r2, r7
  202f16:	f8cd b000 	str.w	fp, [sp]
  202f1a:	f7fd fc45 	bl	2007a8 <appendrs>
  202f1e:	f242 0e2a 	movw	lr, #8234	; 0x202a
  202f22:	f6c2 0e20 	movt	lr, #10272	; 0x2820
  202f26:	4620      	mov	r0, r4
  202f28:	f89e 4000 	ldrb.w	r4, [lr]
  202f2c:	f898 1000 	ldrb.w	r1, [r8]
  202f30:	42a6      	cmp	r6, r4
  202f32:	d20b      	bcs.n	202f4c <benchmark_qrduino+0x1cf8>
  202f34:	4408      	add	r0, r1
  202f36:	1c44      	adds	r4, r0, #1
  202f38:	f242 0024 	movw	r0, #8228	; 0x2024
  202f3c:	782b      	ldrb	r3, [r5, #0]
  202f3e:	f6c2 0020 	movt	r0, #10272	; 0x2820
  202f42:	f8d0 b000 	ldr.w	fp, [r0]
  202f46:	441f      	add	r7, r3
  202f48:	3601      	adds	r6, #1
  202f4a:	e7df      	b.n	202f0c <benchmark_qrduino+0x1cb8>
  202f4c:	f242 0024 	movw	r0, #8228	; 0x2024
  202f50:	f6c2 0020 	movt	r0, #10272	; 0x2820
  202f54:	f8d0 b000 	ldr.w	fp, [r0]
  202f58:	e004      	b.n	202f64 <benchmark_qrduino+0x1d10>
  202f5a:	f242 0e2a 	movw	lr, #8234	; 0x202a
  202f5e:	2400      	movs	r4, #0
  202f60:	f6c2 0e20 	movt	lr, #10272	; 0x2820
  202f64:	f242 0c30 	movw	ip, #8240	; 0x2030
  202f68:	f8dd a054 	ldr.w	sl, [sp, #84]	; 0x54
  202f6c:	2900      	cmp	r1, #0
  202f6e:	f6c2 0c20 	movt	ip, #10272	; 0x2820
  202f72:	f000 8090 	beq.w	203096 <benchmark_qrduino+0x1e42>
  202f76:	2000      	movs	r0, #0
  202f78:	4622      	mov	r2, r4
  202f7a:	e006      	b.n	202f8a <benchmark_qrduino+0x1d36>
  202f7c:	2200      	movs	r2, #0
  202f7e:	f898 1000 	ldrb.w	r1, [r8]
  202f82:	3001      	adds	r0, #1
  202f84:	4288      	cmp	r0, r1
  202f86:	f080 8088 	bcs.w	20309a <benchmark_qrduino+0x1e46>
  202f8a:	f899 1000 	ldrb.w	r1, [r9]
  202f8e:	2900      	cmp	r1, #0
  202f90:	d042      	beq.n	203018 <benchmark_qrduino+0x1dc4>
  202f92:	f8dc 1000 	ldr.w	r1, [ip]
  202f96:	465a      	mov	r2, fp
  202f98:	5c09      	ldrb	r1, [r1, r0]
  202f9a:	f802 1b01 	strb.w	r1, [r2], #1
  202f9e:	f899 1000 	ldrb.w	r1, [r9]
  202fa2:	2902      	cmp	r1, #2
  202fa4:	d33c      	bcc.n	203020 <benchmark_qrduino+0x1dcc>
  202fa6:	f898 3000 	ldrb.w	r3, [r8]
  202faa:	2204      	movs	r2, #4
  202fac:	1ed1      	subs	r1, r2, #3
  202fae:	b2db      	uxtb	r3, r3
  202fb0:	f8dc 7000 	ldr.w	r7, [ip]
  202fb4:	fb01 0103 	mla	r1, r1, r3, r0
  202fb8:	eb0b 0502 	add.w	r5, fp, r2
  202fbc:	5c79      	ldrb	r1, [r7, r1]
  202fbe:	1e97      	subs	r7, r2, #2
  202fc0:	f805 1c03 	strb.w	r1, [r5, #-3]
  202fc4:	f899 1000 	ldrb.w	r1, [r9]
  202fc8:	428f      	cmp	r7, r1
  202fca:	d22b      	bcs.n	203024 <benchmark_qrduino+0x1dd0>
  202fcc:	f898 3000 	ldrb.w	r3, [r8]
  202fd0:	f8dc 6000 	ldr.w	r6, [ip]
  202fd4:	fb07 0703 	mla	r7, r7, r3, r0
  202fd8:	5df6      	ldrb	r6, [r6, r7]
  202fda:	1e57      	subs	r7, r2, #1
  202fdc:	428f      	cmp	r7, r1
  202fde:	f805 6c02 	strb.w	r6, [r5, #-2]
  202fe2:	d222      	bcs.n	20302a <benchmark_qrduino+0x1dd6>
  202fe4:	f8dc 6000 	ldr.w	r6, [ip]
  202fe8:	fb07 0703 	mla	r7, r7, r3, r0
  202fec:	428a      	cmp	r2, r1
  202fee:	5df7      	ldrb	r7, [r6, r7]
  202ff0:	f805 7c01 	strb.w	r7, [r5, #-1]
  202ff4:	d21c      	bcs.n	203030 <benchmark_qrduino+0x1ddc>
  202ff6:	f8dc 7000 	ldr.w	r7, [ip]
  202ffa:	fb02 0603 	mla	r6, r2, r3, r0
  202ffe:	5dbf      	ldrb	r7, [r7, r6]
  203000:	f80b 7002 	strb.w	r7, [fp, r2]
  203004:	1d17      	adds	r7, r2, #4
  203006:	3201      	adds	r2, #1
  203008:	428a      	cmp	r2, r1
  20300a:	463a      	mov	r2, r7
  20300c:	d3ce      	bcc.n	202fac <benchmark_qrduino+0x1d58>
  20300e:	eb0b 0207 	add.w	r2, fp, r7
  203012:	f1a2 0b03 	sub.w	fp, r2, #3
  203016:	e00c      	b.n	203032 <benchmark_qrduino+0x1dde>
  203018:	2100      	movs	r1, #0
  20301a:	b99a      	cbnz	r2, 203044 <benchmark_qrduino+0x1df0>
  20301c:	e7ae      	b.n	202f7c <benchmark_qrduino+0x1d28>
  20301e:	bf00      	nop
  203020:	4693      	mov	fp, r2
  203022:	e00a      	b.n	20303a <benchmark_qrduino+0x1de6>
  203024:	f1a5 0b02 	sub.w	fp, r5, #2
  203028:	e003      	b.n	203032 <benchmark_qrduino+0x1dde>
  20302a:	f1a5 0b01 	sub.w	fp, r5, #1
  20302e:	e000      	b.n	203032 <benchmark_qrduino+0x1dde>
  203030:	46ab      	mov	fp, r5
  203032:	f242 052c 	movw	r5, #8236	; 0x202c
  203036:	f6c2 0520 	movt	r5, #10272	; 0x2820
  20303a:	f89e 4000 	ldrb.w	r4, [lr]
  20303e:	4622      	mov	r2, r4
  203040:	2a00      	cmp	r2, #0
  203042:	d09b      	beq.n	202f7c <benchmark_qrduino+0x1d28>
  203044:	f898 2000 	ldrb.w	r2, [r8]
  203048:	f8dc 3000 	ldr.w	r3, [ip]
  20304c:	fb12 0101 	smlabb	r1, r2, r1, r0
  203050:	5c5a      	ldrb	r2, [r3, r1]
  203052:	4659      	mov	r1, fp
  203054:	f801 2b01 	strb.w	r2, [r1], #1
  203058:	f89e 4000 	ldrb.w	r4, [lr]
  20305c:	2c02      	cmp	r4, #2
  20305e:	d317      	bcc.n	203090 <benchmark_qrduino+0x1e3c>
  203060:	2101      	movs	r1, #1
  203062:	bf00      	nop
  203064:	f899 2000 	ldrb.w	r2, [r9]
  203068:	f898 3000 	ldrb.w	r3, [r8]
  20306c:	f8dc 7000 	ldr.w	r7, [ip]
  203070:	fb13 0202 	smlabb	r2, r3, r2, r0
  203074:	3301      	adds	r3, #1
  203076:	fb03 2201 	mla	r2, r3, r1, r2
  20307a:	5cba      	ldrb	r2, [r7, r2]
  20307c:	f80b 2001 	strb.w	r2, [fp, r1]
  203080:	f89e 4000 	ldrb.w	r4, [lr]
  203084:	3101      	adds	r1, #1
  203086:	42a1      	cmp	r1, r4
  203088:	d3ec      	bcc.n	203064 <benchmark_qrduino+0x1e10>
  20308a:	448b      	add	fp, r1
  20308c:	4622      	mov	r2, r4
  20308e:	e776      	b.n	202f7e <benchmark_qrduino+0x1d2a>
  203090:	4622      	mov	r2, r4
  203092:	468b      	mov	fp, r1
  203094:	e773      	b.n	202f7e <benchmark_qrduino+0x1d2a>
  203096:	2100      	movs	r1, #0
  203098:	2000      	movs	r0, #0
  20309a:	b32c      	cbz	r4, 2030e8 <benchmark_qrduino+0x1e94>
  20309c:	f899 2000 	ldrb.w	r2, [r9]
  2030a0:	f8dc 3000 	ldr.w	r3, [ip]
  2030a4:	fb12 0101 	smlabb	r1, r2, r1, r0
  2030a8:	465a      	mov	r2, fp
  2030aa:	5c59      	ldrb	r1, [r3, r1]
  2030ac:	f802 1b01 	strb.w	r1, [r2], #1
  2030b0:	f89e 4000 	ldrb.w	r4, [lr]
  2030b4:	2c02      	cmp	r4, #2
  2030b6:	d319      	bcc.n	2030ec <benchmark_qrduino+0x1e98>
  2030b8:	2101      	movs	r1, #1
  2030ba:	bf00      	nop
  2030bc:	f898 2000 	ldrb.w	r2, [r8]
  2030c0:	f899 3000 	ldrb.w	r3, [r9]
  2030c4:	1c57      	adds	r7, r2, #1
  2030c6:	fb07 0701 	mla	r7, r7, r1, r0
  2030ca:	f8dc 6000 	ldr.w	r6, [ip]
  2030ce:	fb13 7202 	smlabb	r2, r3, r2, r7
  2030d2:	5cb2      	ldrb	r2, [r6, r2]
  2030d4:	f80b 2001 	strb.w	r2, [fp, r1]
  2030d8:	f89e 4000 	ldrb.w	r4, [lr]
  2030dc:	3101      	adds	r1, #1
  2030de:	42a1      	cmp	r1, r4
  2030e0:	d3ec      	bcc.n	2030bc <benchmark_qrduino+0x1e68>
  2030e2:	448b      	add	fp, r1
  2030e4:	4621      	mov	r1, r4
  2030e6:	e003      	b.n	2030f0 <benchmark_qrduino+0x1e9c>
  2030e8:	2100      	movs	r1, #0
  2030ea:	e001      	b.n	2030f0 <benchmark_qrduino+0x1e9c>
  2030ec:	4621      	mov	r1, r4
  2030ee:	4693      	mov	fp, r2
  2030f0:	782f      	ldrb	r7, [r5, #0]
  2030f2:	f899 6000 	ldrb.w	r6, [r9]
  2030f6:	b36f      	cbz	r7, 203154 <benchmark_qrduino+0x1f00>
  2030f8:	2000      	movs	r0, #0
  2030fa:	e005      	b.n	203108 <benchmark_qrduino+0x1eb4>
  2030fc:	4693      	mov	fp, r2
  2030fe:	782f      	ldrb	r7, [r5, #0]
  203100:	4621      	mov	r1, r4
  203102:	3001      	adds	r0, #1
  203104:	42b8      	cmp	r0, r7
  203106:	d226      	bcs.n	203156 <benchmark_qrduino+0x1f02>
  203108:	b2f2      	uxtb	r2, r6
  20310a:	42d1      	cmn	r1, r2
  20310c:	d0f9      	beq.n	203102 <benchmark_qrduino+0x1eae>
  20310e:	f8dc 2000 	ldr.w	r2, [ip]
  203112:	eb00 010a 	add.w	r1, r0, sl
  203116:	5c53      	ldrb	r3, [r2, r1]
  203118:	465a      	mov	r2, fp
  20311a:	f802 3b01 	strb.w	r3, [r2], #1
  20311e:	f899 6000 	ldrb.w	r6, [r9]
  203122:	f89e 4000 	ldrb.w	r4, [lr]
  203126:	19a3      	adds	r3, r4, r6
  203128:	2b02      	cmp	r3, #2
  20312a:	d3e7      	bcc.n	2030fc <benchmark_qrduino+0x1ea8>
  20312c:	2201      	movs	r2, #1
  20312e:	bf00      	nop
  203130:	782b      	ldrb	r3, [r5, #0]
  203132:	f8dc 7000 	ldr.w	r7, [ip]
  203136:	fb02 1303 	mla	r3, r2, r3, r1
  20313a:	5cfb      	ldrb	r3, [r7, r3]
  20313c:	f80b 3002 	strb.w	r3, [fp, r2]
  203140:	f899 6000 	ldrb.w	r6, [r9]
  203144:	f89e 4000 	ldrb.w	r4, [lr]
  203148:	3201      	adds	r2, #1
  20314a:	19a3      	adds	r3, r4, r6
  20314c:	429a      	cmp	r2, r3
  20314e:	d3ef      	bcc.n	203130 <benchmark_qrduino+0x1edc>
  203150:	4493      	add	fp, r2
  203152:	e7d4      	b.n	2030fe <benchmark_qrduino+0x1eaa>
  203154:	2700      	movs	r7, #0
  203156:	fa51 f286 	uxtab	r2, r1, r6
  20315a:	f242 0124 	movw	r1, #8228	; 0x2024
  20315e:	f6c2 0120 	movt	r1, #10272	; 0x2820
  203162:	680d      	ldr	r5, [r1, #0]
  203164:	f8dc 0000 	ldr.w	r0, [ip]
  203168:	fb02 a207 	mla	r2, r2, r7, sl
  20316c:	4629      	mov	r1, r5
  20316e:	9015      	str	r0, [sp, #84]	; 0x54
  203170:	f7fd f9b8 	bl	2004e4 <__rt_memcpy>
  203174:	f242 0010 	movw	r0, #8208	; 0x2010
  203178:	f6c2 0020 	movt	r0, #10272	; 0x2820
  20317c:	7802      	ldrb	r2, [r0, #0]
  20317e:	f242 0011 	movw	r0, #8209	; 0x2011
  203182:	f6c2 0020 	movt	r0, #10272	; 0x2820
  203186:	f890 9000 	ldrb.w	r9, [r0]
  20318a:	f242 0014 	movw	r0, #8212	; 0x2014
  20318e:	f6c2 0020 	movt	r0, #10272	; 0x2820
  203192:	fb09 fa02 	mul.w	sl, r9, r2
  203196:	6801      	ldr	r1, [r0, #0]
  203198:	9217      	str	r2, [sp, #92]	; 0x5c
  20319a:	4628      	mov	r0, r5
  20319c:	4652      	mov	r2, sl
  20319e:	9518      	str	r5, [sp, #96]	; 0x60
  2031a0:	f7fd f9a0 	bl	2004e4 <__rt_memcpy>
  2031a4:	f898 0000 	ldrb.w	r0, [r8]
  2031a8:	fa54 f186 	uxtab	r1, r4, r6
  2031ac:	4438      	add	r0, r7
  2031ae:	fb01 f000 	mul.w	r0, r1, r0
  2031b2:	42e0      	cmn	r0, r4
  2031b4:	f000 8109 	beq.w	2033ca <benchmark_qrduino+0x2176>
  2031b8:	f242 0118 	movw	r1, #8216	; 0x2018
  2031bc:	f6c2 0120 	movt	r1, #10272	; 0x2820
  2031c0:	f1a9 0c01 	sub.w	ip, r9, #1
  2031c4:	6809      	ldr	r1, [r1, #0]
  2031c6:	f8cd a04c 	str.w	sl, [sp, #76]	; 0x4c
  2031ca:	4420      	add	r0, r4
  2031cc:	2201      	movs	r2, #1
  2031ce:	2300      	movs	r3, #0
  2031d0:	2607      	movs	r6, #7
  2031d2:	f04f 0901 	mov.w	r9, #1
  2031d6:	46e0      	mov	r8, ip
  2031d8:	46e2      	mov	sl, ip
  2031da:	2801      	cmp	r0, #1
  2031dc:	bf98      	it	ls
  2031de:	4610      	movls	r0, r2
  2031e0:	9014      	str	r0, [sp, #80]	; 0x50
  2031e2:	e005      	b.n	2031f0 <benchmark_qrduino+0x1f9c>
  2031e4:	9b16      	ldr	r3, [sp, #88]	; 0x58
  2031e6:	9814      	ldr	r0, [sp, #80]	; 0x50
  2031e8:	3301      	adds	r3, #1
  2031ea:	4283      	cmp	r3, r0
  2031ec:	f000 80eb 	beq.w	2033c6 <benchmark_qrduino+0x2172>
  2031f0:	9815      	ldr	r0, [sp, #84]	; 0x54
  2031f2:	f04f 0e00 	mov.w	lr, #0
  2031f6:	f810 b003 	ldrb.w	fp, [r0, r3]
  2031fa:	9316      	str	r3, [sp, #88]	; 0x58
  2031fc:	e006      	b.n	20320c <benchmark_qrduino+0x1fb8>
  2031fe:	bf00      	nop
  203200:	f10e 0e02 	add.w	lr, lr, #2
  203204:	2807      	cmp	r0, #7
  203206:	ea4f 0b8b 	mov.w	fp, fp, lsl #2
  20320a:	d2eb      	bcs.n	2031e4 <benchmark_qrduino+0x1f90>
  20320c:	fa4f f78b 	sxtb.w	r7, fp
  203210:	2f00      	cmp	r7, #0
  203212:	d535      	bpl.n	203280 <benchmark_qrduino+0x202c>
  203214:	9817      	ldr	r0, [sp, #92]	; 0x5c
  203216:	fa5f f788 	uxtb.w	r7, r8
  20321a:	fb00 f707 	mul.w	r7, r0, r7
  20321e:	fa5f f58a 	uxtb.w	r5, sl
  203222:	eb07 07d5 	add.w	r7, r7, r5, lsr #3
  203226:	9818      	ldr	r0, [sp, #96]	; 0x60
  203228:	f00a 0507 	and.w	r5, sl, #7
  20322c:	5dc4      	ldrb	r4, [r0, r7]
  20322e:	2380      	movs	r3, #128	; 0x80
  203230:	fa23 f505 	lsr.w	r5, r3, r5
  203234:	4325      	orrs	r5, r4
  203236:	55c5      	strb	r5, [r0, r7]
  203238:	e022      	b.n	203280 <benchmark_qrduino+0x202c>
  20323a:	bf00      	nop
  20323c:	f1aa 0a01 	sub.w	sl, sl, #1
  203240:	fa5f f588 	uxtb.w	r5, r8
  203244:	fa5f f78a 	uxtb.w	r7, sl
  203248:	4640      	mov	r0, r8
  20324a:	42af      	cmp	r7, r5
  20324c:	bf88      	it	hi
  20324e:	4650      	movhi	r0, sl
  203250:	b2c4      	uxtb	r4, r0
  203252:	fb04 f404 	mul.w	r4, r4, r4
  203256:	4653      	mov	r3, sl
  203258:	fa54 f080 	uxtab	r0, r4, r0
  20325c:	bf88      	it	hi
  20325e:	4643      	movhi	r3, r8
  203260:	b2d2      	uxtb	r2, r2
  203262:	0840      	lsrs	r0, r0, #1
  203264:	fa50 f083 	uxtab	r0, r0, r3
  203268:	fab2 f282 	clz	r2, r2
  20326c:	08c3      	lsrs	r3, r0, #3
  20326e:	5ccb      	ldrb	r3, [r1, r3]
  203270:	ea26 0000 	bic.w	r0, r6, r0
  203274:	fa23 f000 	lsr.w	r0, r3, r0
  203278:	07c0      	lsls	r0, r0, #31
  20327a:	ea4f 1252 	mov.w	r2, r2, lsr #5
  20327e:	d037      	beq.n	2032f0 <benchmark_qrduino+0x209c>
  203280:	0617      	lsls	r7, r2, #24
  203282:	d1db      	bne.n	20323c <benchmark_qrduino+0x1fe8>
  203284:	f1b9 0f00 	cmp.w	r9, #0
  203288:	f10a 0701 	add.w	r7, sl, #1
  20328c:	d008      	beq.n	2032a0 <benchmark_qrduino+0x204c>
  20328e:	ea5f 6508 	movs.w	r5, r8, lsl #24
  203292:	d016      	beq.n	2032c2 <benchmark_qrduino+0x206e>
  203294:	f1a8 0801 	sub.w	r8, r8, #1
  203298:	f04f 0901 	mov.w	r9, #1
  20329c:	46ba      	mov	sl, r7
  20329e:	e7cf      	b.n	203240 <benchmark_qrduino+0x1fec>
  2032a0:	fa5f f588 	uxtb.w	r5, r8
  2032a4:	45ac      	cmp	ip, r5
  2032a6:	d11c      	bne.n	2032e2 <benchmark_qrduino+0x208e>
  2032a8:	f1aa 0a01 	sub.w	sl, sl, #1
  2032ac:	fa5f f78a 	uxtb.w	r7, sl
  2032b0:	f04f 0901 	mov.w	r9, #1
  2032b4:	2f06      	cmp	r7, #6
  2032b6:	bf04      	itt	eq
  2032b8:	f04f 0a05 	moveq.w	sl, #5
  2032bc:	f1a8 0808 	subeq.w	r8, r8, #8
  2032c0:	e7be      	b.n	203240 <benchmark_qrduino+0x1fec>
  2032c2:	f1aa 0701 	sub.w	r7, sl, #1
  2032c6:	b2f8      	uxtb	r0, r7
  2032c8:	f04f 0800 	mov.w	r8, #0
  2032cc:	2806      	cmp	r0, #6
  2032ce:	bf08      	it	eq
  2032d0:	f1aa 0702 	subeq.w	r7, sl, #2
  2032d4:	f04f 0900 	mov.w	r9, #0
  2032d8:	bf08      	it	eq
  2032da:	f04f 0809 	moveq.w	r8, #9
  2032de:	46ba      	mov	sl, r7
  2032e0:	e7ae      	b.n	203240 <benchmark_qrduino+0x1fec>
  2032e2:	f108 0801 	add.w	r8, r8, #1
  2032e6:	f04f 0900 	mov.w	r9, #0
  2032ea:	46ba      	mov	sl, r7
  2032ec:	e7a8      	b.n	203240 <benchmark_qrduino+0x1fec>
  2032ee:	bf00      	nop
  2032f0:	ea5f 604b 	movs.w	r0, fp, lsl #25
  2032f4:	d50d      	bpl.n	203312 <benchmark_qrduino+0x20be>
  2032f6:	9817      	ldr	r0, [sp, #92]	; 0x5c
  2032f8:	f00a 0307 	and.w	r3, sl, #7
  2032fc:	fb00 f005 	mul.w	r0, r0, r5
  203300:	9d18      	ldr	r5, [sp, #96]	; 0x60
  203302:	eb00 00d7 	add.w	r0, r0, r7, lsr #3
  203306:	2780      	movs	r7, #128	; 0x80
  203308:	5c2c      	ldrb	r4, [r5, r0]
  20330a:	fa27 f303 	lsr.w	r3, r7, r3
  20330e:	4323      	orrs	r3, r4
  203310:	542b      	strb	r3, [r5, r0]
  203312:	f04e 0001 	orr.w	r0, lr, #1
  203316:	e01f      	b.n	203358 <benchmark_qrduino+0x2104>
  203318:	f1aa 0a01 	sub.w	sl, sl, #1
  20331c:	fa5f f388 	uxtb.w	r3, r8
  203320:	fa5f f48a 	uxtb.w	r4, sl
  203324:	429c      	cmp	r4, r3
  203326:	4643      	mov	r3, r8
  203328:	bf88      	it	hi
  20332a:	4653      	movhi	r3, sl
  20332c:	b2dc      	uxtb	r4, r3
  20332e:	fb04 f404 	mul.w	r4, r4, r4
  203332:	4655      	mov	r5, sl
  203334:	fa54 f383 	uxtab	r3, r4, r3
  203338:	bf88      	it	hi
  20333a:	4645      	movhi	r5, r8
  20333c:	f082 0201 	eor.w	r2, r2, #1
  203340:	085b      	lsrs	r3, r3, #1
  203342:	fa53 f385 	uxtab	r3, r3, r5
  203346:	08dc      	lsrs	r4, r3, #3
  203348:	5d0c      	ldrb	r4, [r1, r4]
  20334a:	ea26 0303 	bic.w	r3, r6, r3
  20334e:	fa24 f303 	lsr.w	r3, r4, r3
  203352:	07db      	lsls	r3, r3, #31
  203354:	f43f af54 	beq.w	203200 <benchmark_qrduino+0x1fac>
  203358:	0613      	lsls	r3, r2, #24
  20335a:	d1dd      	bne.n	203318 <benchmark_qrduino+0x20c4>
  20335c:	f1b9 0f00 	cmp.w	r9, #0
  203360:	f10a 0501 	add.w	r5, sl, #1
  203364:	d008      	beq.n	203378 <benchmark_qrduino+0x2124>
  203366:	ea5f 6308 	movs.w	r3, r8, lsl #24
  20336a:	d016      	beq.n	20339a <benchmark_qrduino+0x2146>
  20336c:	f1a8 0801 	sub.w	r8, r8, #1
  203370:	f04f 0901 	mov.w	r9, #1
  203374:	46aa      	mov	sl, r5
  203376:	e7d1      	b.n	20331c <benchmark_qrduino+0x20c8>
  203378:	fa5f f388 	uxtb.w	r3, r8
  20337c:	459c      	cmp	ip, r3
  20337e:	d11c      	bne.n	2033ba <benchmark_qrduino+0x2166>
  203380:	f1aa 0a01 	sub.w	sl, sl, #1
  203384:	fa5f f38a 	uxtb.w	r3, sl
  203388:	f04f 0901 	mov.w	r9, #1
  20338c:	2b06      	cmp	r3, #6
  20338e:	bf04      	itt	eq
  203390:	f04f 0a05 	moveq.w	sl, #5
  203394:	f1a8 0808 	subeq.w	r8, r8, #8
  203398:	e7c0      	b.n	20331c <benchmark_qrduino+0x20c8>
  20339a:	f1aa 0301 	sub.w	r3, sl, #1
  20339e:	b2dc      	uxtb	r4, r3
  2033a0:	f04f 0800 	mov.w	r8, #0
  2033a4:	2c06      	cmp	r4, #6
  2033a6:	bf08      	it	eq
  2033a8:	f1aa 0302 	subeq.w	r3, sl, #2
  2033ac:	f04f 0900 	mov.w	r9, #0
  2033b0:	bf08      	it	eq
  2033b2:	f04f 0809 	moveq.w	r8, #9
  2033b6:	469a      	mov	sl, r3
  2033b8:	e7b0      	b.n	20331c <benchmark_qrduino+0x20c8>
  2033ba:	f108 0801 	add.w	r8, r8, #1
  2033be:	f04f 0900 	mov.w	r9, #0
  2033c2:	46aa      	mov	sl, r5
  2033c4:	e7aa      	b.n	20331c <benchmark_qrduino+0x20c8>
  2033c6:	f8dd a04c 	ldr.w	sl, [sp, #76]	; 0x4c
  2033ca:	9815      	ldr	r0, [sp, #84]	; 0x54
  2033cc:	9918      	ldr	r1, [sp, #96]	; 0x60
  2033ce:	4652      	mov	r2, sl
  2033d0:	f7fd f888 	bl	2004e4 <__rt_memcpy>
  2033d4:	f247 5430 	movw	r4, #30000	; 0x7530
  2033d8:	f04f 0a00 	mov.w	sl, #0
  2033dc:	f04f 0800 	mov.w	r8, #0
  2033e0:	fa5f f08a 	uxtb.w	r0, sl
  2033e4:	f8cd 804c 	str.w	r8, [sp, #76]	; 0x4c
  2033e8:	e9cd 4a11 	strd	r4, sl, [sp, #68]	; 0x44
  2033ec:	9010      	str	r0, [sp, #64]	; 0x40
  2033ee:	f7fd fbdf 	bl	200bb0 <applymask>
  2033f2:	f242 0011 	movw	r0, #8209	; 0x2011
  2033f6:	f6c2 0020 	movt	r0, #10272	; 0x2820
  2033fa:	7805      	ldrb	r5, [r0, #0]
  2033fc:	2d02      	cmp	r5, #2
  2033fe:	f0c0 80bf 	bcc.w	203580 <benchmark_qrduino+0x232c>
  203402:	f242 0024 	movw	r0, #8228	; 0x2024
  203406:	f6c2 0020 	movt	r0, #10272	; 0x2820
  20340a:	6803      	ldr	r3, [r0, #0]
  20340c:	f242 0010 	movw	r0, #8208	; 0x2010
  203410:	1e69      	subs	r1, r5, #1
  203412:	f6c2 0020 	movt	r0, #10272	; 0x2820
  203416:	7804      	ldrb	r4, [r0, #0]
  203418:	f001 0001 	and.w	r0, r1, #1
  20341c:	e9cd 0116 	strd	r0, r1, [sp, #88]	; 0x58
  203420:	f021 0a01 	bic.w	sl, r1, #1
  203424:	f04f 0900 	mov.w	r9, #0
  203428:	2000      	movs	r0, #0
  20342a:	9018      	str	r0, [sp, #96]	; 0x60
  20342c:	e9cd 4514 	strd	r4, r5, [sp, #80]	; 0x50
  203430:	e006      	b.n	203440 <benchmark_qrduino+0x21ec>
  203432:	2e00      	cmp	r6, #0
  203434:	f000 8098 	beq.w	203568 <benchmark_qrduino+0x2314>
  203438:	9817      	ldr	r0, [sp, #92]	; 0x5c
  20343a:	4581      	cmp	r9, r0
  20343c:	f000 80a2 	beq.w	203584 <benchmark_qrduino+0x2330>
  203440:	fb09 f104 	mul.w	r1, r9, r4
  203444:	f109 0901 	add.w	r9, r9, #1
  203448:	fb09 fb04 	mul.w	fp, r9, r4
  20344c:	2000      	movs	r0, #0
  20344e:	2d02      	cmp	r5, #2
  203450:	d104      	bne.n	20345c <benchmark_qrduino+0x2208>
  203452:	e060      	b.n	203516 <benchmark_qrduino+0x22c2>
  203454:	2e00      	cmp	r6, #0
  203456:	d04e      	beq.n	2034f6 <benchmark_qrduino+0x22a2>
  203458:	4582      	cmp	sl, r0
  20345a:	d059      	beq.n	203510 <benchmark_qrduino+0x22bc>
  20345c:	eb01 07d0 	add.w	r7, r1, r0, lsr #3
  203460:	2201      	movs	r2, #1
  203462:	5ddc      	ldrb	r4, [r3, r7]
  203464:	f000 0706 	and.w	r7, r0, #6
  203468:	f087 0607 	eor.w	r6, r7, #7
  20346c:	f087 0706 	eor.w	r7, r7, #6
  203470:	fa02 f606 	lsl.w	r6, r2, r6
  203474:	fa02 f707 	lsl.w	r7, r2, r7
  203478:	08c5      	lsrs	r5, r0, #3
  20347a:	4226      	tst	r6, r4
  20347c:	ea07 0c04 	and.w	ip, r7, r4
  203480:	d00a      	beq.n	203498 <benchmark_qrduino+0x2244>
  203482:	f1bc 0f00 	cmp.w	ip, #0
  203486:	d013      	beq.n	2034b0 <benchmark_qrduino+0x225c>
  203488:	eb05 040b 	add.w	r4, r5, fp
  20348c:	5d1c      	ldrb	r4, [r3, r4]
  20348e:	433e      	orrs	r6, r7
  203490:	4034      	ands	r4, r6
  203492:	42b4      	cmp	r4, r6
  203494:	d009      	beq.n	2034aa <benchmark_qrduino+0x2256>
  203496:	e00b      	b.n	2034b0 <benchmark_qrduino+0x225c>
  203498:	f1bc 0f00 	cmp.w	ip, #0
  20349c:	d108      	bne.n	2034b0 <benchmark_qrduino+0x225c>
  20349e:	eb05 040b 	add.w	r4, r5, fp
  2034a2:	5d1c      	ldrb	r4, [r3, r4]
  2034a4:	433e      	orrs	r6, r7
  2034a6:	4226      	tst	r6, r4
  2034a8:	d102      	bne.n	2034b0 <benchmark_qrduino+0x225c>
  2034aa:	9a18      	ldr	r2, [sp, #96]	; 0x60
  2034ac:	3203      	adds	r2, #3
  2034ae:	9218      	str	r2, [sp, #96]	; 0x60
  2034b0:	3002      	adds	r0, #2
  2034b2:	eb01 06d0 	add.w	r6, r1, r0, lsr #3
  2034b6:	2201      	movs	r2, #1
  2034b8:	5d9c      	ldrb	r4, [r3, r6]
  2034ba:	f000 0606 	and.w	r6, r0, #6
  2034be:	f086 0607 	eor.w	r6, r6, #7
  2034c2:	fa02 fe06 	lsl.w	lr, r2, r6
  2034c6:	ea4f 08d0 	mov.w	r8, r0, lsr #3
  2034ca:	f1bc 0f00 	cmp.w	ip, #0
  2034ce:	ea0e 0604 	and.w	r6, lr, r4
  2034d2:	d0bf      	beq.n	203454 <benchmark_qrduino+0x2200>
  2034d4:	2e00      	cmp	r6, #0
  2034d6:	d0bf      	beq.n	203458 <benchmark_qrduino+0x2204>
  2034d8:	eb05 060b 	add.w	r6, r5, fp
  2034dc:	5d9e      	ldrb	r6, [r3, r6]
  2034de:	4237      	tst	r7, r6
  2034e0:	d0ba      	beq.n	203458 <benchmark_qrduino+0x2204>
  2034e2:	eb08 070b 	add.w	r7, r8, fp
  2034e6:	5ddf      	ldrb	r7, [r3, r7]
  2034e8:	ea1e 0f07 	tst.w	lr, r7
  2034ec:	d0b4      	beq.n	203458 <benchmark_qrduino+0x2204>
  2034ee:	9a18      	ldr	r2, [sp, #96]	; 0x60
  2034f0:	3203      	adds	r2, #3
  2034f2:	9218      	str	r2, [sp, #96]	; 0x60
  2034f4:	e7b0      	b.n	203458 <benchmark_qrduino+0x2204>
  2034f6:	eb05 060b 	add.w	r6, r5, fp
  2034fa:	5d9e      	ldrb	r6, [r3, r6]
  2034fc:	4237      	tst	r7, r6
  2034fe:	d1ab      	bne.n	203458 <benchmark_qrduino+0x2204>
  203500:	eb08 070b 	add.w	r7, r8, fp
  203504:	5ddf      	ldrb	r7, [r3, r7]
  203506:	ea1e 0f07 	tst.w	lr, r7
  20350a:	d1a5      	bne.n	203458 <benchmark_qrduino+0x2204>
  20350c:	e7ef      	b.n	2034ee <benchmark_qrduino+0x229a>
  20350e:	bf00      	nop
  203510:	e9dd 4514 	ldrd	r4, r5, [sp, #80]	; 0x50
  203514:	4650      	mov	r0, sl
  203516:	9a16      	ldr	r2, [sp, #88]	; 0x58
  203518:	2a00      	cmp	r2, #0
  20351a:	f43f af8d 	beq.w	203438 <benchmark_qrduino+0x21e4>
  20351e:	eb01 01d0 	add.w	r1, r1, r0, lsr #3
  203522:	08c7      	lsrs	r7, r0, #3
  203524:	f000 0006 	and.w	r0, r0, #6
  203528:	5c5e      	ldrb	r6, [r3, r1]
  20352a:	f080 0107 	eor.w	r1, r0, #7
  20352e:	2201      	movs	r2, #1
  203530:	f080 0006 	eor.w	r0, r0, #6
  203534:	fa02 f101 	lsl.w	r1, r2, r1
  203538:	fa02 f000 	lsl.w	r0, r2, r0
  20353c:	4231      	tst	r1, r6
  20353e:	ea06 0600 	and.w	r6, r6, r0
  203542:	f43f af76 	beq.w	203432 <benchmark_qrduino+0x21de>
  203546:	2e00      	cmp	r6, #0
  203548:	f43f af76 	beq.w	203438 <benchmark_qrduino+0x21e4>
  20354c:	eb07 020b 	add.w	r2, r7, fp
  203550:	5c9f      	ldrb	r7, [r3, r2]
  203552:	4239      	tst	r1, r7
  203554:	f43f af70 	beq.w	203438 <benchmark_qrduino+0x21e4>
  203558:	5c99      	ldrb	r1, [r3, r2]
  20355a:	4208      	tst	r0, r1
  20355c:	f43f af6c 	beq.w	203438 <benchmark_qrduino+0x21e4>
  203560:	9818      	ldr	r0, [sp, #96]	; 0x60
  203562:	3003      	adds	r0, #3
  203564:	9018      	str	r0, [sp, #96]	; 0x60
  203566:	e767      	b.n	203438 <benchmark_qrduino+0x21e4>
  203568:	eb07 020b 	add.w	r2, r7, fp
  20356c:	5c9f      	ldrb	r7, [r3, r2]
  20356e:	4239      	tst	r1, r7
  203570:	f47f af62 	bne.w	203438 <benchmark_qrduino+0x21e4>
  203574:	5c99      	ldrb	r1, [r3, r2]
  203576:	4208      	tst	r0, r1
  203578:	f47f af5e 	bne.w	203438 <benchmark_qrduino+0x21e4>
  20357c:	e7f0      	b.n	203560 <benchmark_qrduino+0x230c>
  20357e:	bf00      	nop
  203580:	2000      	movs	r0, #0
  203582:	9018      	str	r0, [sp, #96]	; 0x60
  203584:	2d00      	cmp	r5, #0
  203586:	f000 81a9 	beq.w	2038dc <benchmark_qrduino+0x2688>
  20358a:	f242 001c 	movw	r0, #8220	; 0x201c
  20358e:	f6c2 0020 	movt	r0, #10272	; 0x2820
  203592:	f8d0 a000 	ldr.w	sl, [r0]
  203596:	f8dd b060 	ldr.w	fp, [sp, #96]	; 0x60
  20359a:	2600      	movs	r6, #0
  20359c:	f04f 0900 	mov.w	r9, #0
  2035a0:	e007      	b.n	2035b2 <benchmark_qrduino+0x235e>
  2035a2:	bf00      	nop
  2035a4:	e9dd 6316 	ldrd	r6, r3, [sp, #88]	; 0x58
  2035a8:	3601      	adds	r6, #1
  2035aa:	429e      	cmp	r6, r3
  2035ac:	448b      	add	fp, r1
  2035ae:	f080 819a 	bcs.w	2038e6 <benchmark_qrduino+0x2692>
  2035b2:	2000      	movs	r0, #0
  2035b4:	f88a 0000 	strb.w	r0, [sl]
  2035b8:	f242 0011 	movw	r0, #8209	; 0x2011
  2035bc:	f6c2 0020 	movt	r0, #10272	; 0x2820
  2035c0:	7802      	ldrb	r2, [r0, #0]
  2035c2:	b39a      	cbz	r2, 20362c <benchmark_qrduino+0x23d8>
  2035c4:	f242 0010 	movw	r0, #8208	; 0x2010
  2035c8:	f6c2 0020 	movt	r0, #10272	; 0x2820
  2035cc:	7800      	ldrb	r0, [r0, #0]
  2035ce:	f242 0124 	movw	r1, #8228	; 0x2024
  2035d2:	fb06 f800 	mul.w	r8, r6, r0
  2035d6:	f242 001c 	movw	r0, #8220	; 0x201c
  2035da:	f6c2 0120 	movt	r1, #10272	; 0x2820
  2035de:	f6c2 0020 	movt	r0, #10272	; 0x2820
  2035e2:	680f      	ldr	r7, [r1, #0]
  2035e4:	f8d0 a000 	ldr.w	sl, [r0]
  2035e8:	1e50      	subs	r0, r2, #1
  2035ea:	2803      	cmp	r0, #3
  2035ec:	f8cd b060 	str.w	fp, [sp, #96]	; 0x60
  2035f0:	9616      	str	r6, [sp, #88]	; 0x58
  2035f2:	9217      	str	r2, [sp, #92]	; 0x5c
  2035f4:	d228      	bcs.n	203648 <benchmark_qrduino+0x23f4>
  2035f6:	2500      	movs	r5, #0
  2035f8:	2600      	movs	r6, #0
  2035fa:	2300      	movs	r3, #0
  2035fc:	9817      	ldr	r0, [sp, #92]	; 0x5c
  2035fe:	f8dd b060 	ldr.w	fp, [sp, #96]	; 0x60
  203602:	f010 0003 	ands.w	r0, r0, #3
  203606:	f000 80dd 	beq.w	2037c4 <benchmark_qrduino+0x2570>
  20360a:	eb08 01d3 	add.w	r1, r8, r3, lsr #3
  20360e:	2207      	movs	r2, #7
  203610:	5c79      	ldrb	r1, [r7, r1]
  203612:	439a      	bics	r2, r3
  203614:	40d1      	lsrs	r1, r2
  203616:	f001 0101 	and.w	r1, r1, #1
  20361a:	42a9      	cmp	r1, r5
  20361c:	f040 8086 	bne.w	20372c <benchmark_qrduino+0x24d8>
  203620:	b2f2      	uxtb	r2, r6
  203622:	f81a 5002 	ldrb.w	r5, [sl, r2]
  203626:	3501      	adds	r5, #1
  203628:	e083      	b.n	203732 <benchmark_qrduino+0x24de>
  20362a:	bf00      	nop
  20362c:	f242 001c 	movw	r0, #8220	; 0x201c
  203630:	f6c2 0020 	movt	r0, #10272	; 0x2820
  203634:	f8d0 a000 	ldr.w	sl, [r0]
  203638:	2300      	movs	r3, #0
  20363a:	f89a 0000 	ldrb.w	r0, [sl]
  20363e:	2100      	movs	r1, #0
  203640:	2804      	cmp	r0, #4
  203642:	bf88      	it	hi
  203644:	1e81      	subhi	r1, r0, #2
  203646:	e7af      	b.n	2035a8 <benchmark_qrduino+0x2354>
  203648:	f002 0bfc 	and.w	fp, r2, #252	; 0xfc
  20364c:	2500      	movs	r5, #0
  20364e:	2600      	movs	r6, #0
  203650:	2300      	movs	r3, #0
  203652:	e014      	b.n	20367e <benchmark_qrduino+0x242a>
  203654:	b2f1      	uxtb	r1, r6
  203656:	f81a 2001 	ldrb.w	r2, [sl, r1]
  20365a:	3201      	adds	r2, #1
  20365c:	4448      	add	r0, r9
  20365e:	4470      	add	r0, lr
  203660:	f80a 2001 	strb.w	r2, [sl, r1]
  203664:	4420      	add	r0, r4
  203666:	2d00      	cmp	r5, #0
  203668:	f04f 0101 	mov.w	r1, #1
  20366c:	f103 0304 	add.w	r3, r3, #4
  203670:	bf08      	it	eq
  203672:	f04f 31ff 	moveq.w	r1, #4294967295
  203676:	455b      	cmp	r3, fp
  203678:	eb01 0900 	add.w	r9, r1, r0
  20367c:	d0be      	beq.n	2035fc <benchmark_qrduino+0x23a8>
  20367e:	eb08 01d3 	add.w	r1, r8, r3, lsr #3
  203682:	f003 0c04 	and.w	ip, r3, #4
  203686:	5c78      	ldrb	r0, [r7, r1]
  203688:	f08c 0207 	eor.w	r2, ip, #7
  20368c:	40d0      	lsrs	r0, r2
  20368e:	f000 0201 	and.w	r2, r0, #1
  203692:	42aa      	cmp	r2, r5
  203694:	d104      	bne.n	2036a0 <benchmark_qrduino+0x244c>
  203696:	b2f0      	uxtb	r0, r6
  203698:	f81a 5000 	ldrb.w	r5, [sl, r0]
  20369c:	3501      	adds	r5, #1
  20369e:	e002      	b.n	2036a6 <benchmark_qrduino+0x2452>
  2036a0:	3601      	adds	r6, #1
  2036a2:	b2f0      	uxtb	r0, r6
  2036a4:	2501      	movs	r5, #1
  2036a6:	f80a 5000 	strb.w	r5, [sl, r0]
  2036aa:	2001      	movs	r0, #1
  2036ac:	2a00      	cmp	r2, #0
  2036ae:	bf08      	it	eq
  2036b0:	f04f 30ff 	moveq.w	r0, #4294967295
  2036b4:	5c7d      	ldrb	r5, [r7, r1]
  2036b6:	f08c 0406 	eor.w	r4, ip, #6
  2036ba:	40e5      	lsrs	r5, r4
  2036bc:	f005 0501 	and.w	r5, r5, #1
  2036c0:	4295      	cmp	r5, r2
  2036c2:	d105      	bne.n	2036d0 <benchmark_qrduino+0x247c>
  2036c4:	b2f2      	uxtb	r2, r6
  2036c6:	f81a 4002 	ldrb.w	r4, [sl, r2]
  2036ca:	3401      	adds	r4, #1
  2036cc:	e003      	b.n	2036d6 <benchmark_qrduino+0x2482>
  2036ce:	bf00      	nop
  2036d0:	3601      	adds	r6, #1
  2036d2:	b2f2      	uxtb	r2, r6
  2036d4:	2401      	movs	r4, #1
  2036d6:	f04f 0e01 	mov.w	lr, #1
  2036da:	f80a 4002 	strb.w	r4, [sl, r2]
  2036de:	2d00      	cmp	r5, #0
  2036e0:	bf08      	it	eq
  2036e2:	f04f 3eff 	moveq.w	lr, #4294967295
  2036e6:	5c7a      	ldrb	r2, [r7, r1]
  2036e8:	f08c 0405 	eor.w	r4, ip, #5
  2036ec:	40e2      	lsrs	r2, r4
  2036ee:	f002 0201 	and.w	r2, r2, #1
  2036f2:	42aa      	cmp	r2, r5
  2036f4:	d104      	bne.n	203700 <benchmark_qrduino+0x24ac>
  2036f6:	b2f5      	uxtb	r5, r6
  2036f8:	f81a 4005 	ldrb.w	r4, [sl, r5]
  2036fc:	3401      	adds	r4, #1
  2036fe:	e002      	b.n	203706 <benchmark_qrduino+0x24b2>
  203700:	3601      	adds	r6, #1
  203702:	b2f5      	uxtb	r5, r6
  203704:	2401      	movs	r4, #1
  203706:	f80a 4005 	strb.w	r4, [sl, r5]
  20370a:	2401      	movs	r4, #1
  20370c:	2a00      	cmp	r2, #0
  20370e:	bf08      	it	eq
  203710:	f04f 34ff 	moveq.w	r4, #4294967295
  203714:	5c79      	ldrb	r1, [r7, r1]
  203716:	2504      	movs	r5, #4
  203718:	439d      	bics	r5, r3
  20371a:	40e9      	lsrs	r1, r5
  20371c:	f001 0501 	and.w	r5, r1, #1
  203720:	4295      	cmp	r5, r2
  203722:	d097      	beq.n	203654 <benchmark_qrduino+0x2400>
  203724:	3601      	adds	r6, #1
  203726:	b2f1      	uxtb	r1, r6
  203728:	2201      	movs	r2, #1
  20372a:	e797      	b.n	20365c <benchmark_qrduino+0x2408>
  20372c:	3601      	adds	r6, #1
  20372e:	b2f2      	uxtb	r2, r6
  203730:	2501      	movs	r5, #1
  203732:	f80a 5002 	strb.w	r5, [sl, r2]
  203736:	2900      	cmp	r1, #0
  203738:	f04f 0201 	mov.w	r2, #1
  20373c:	bf08      	it	eq
  20373e:	f04f 32ff 	moveq.w	r2, #4294967295
  203742:	2801      	cmp	r0, #1
  203744:	4491      	add	r9, r2
  203746:	d03d      	beq.n	2037c4 <benchmark_qrduino+0x2570>
  203748:	1c5a      	adds	r2, r3, #1
  20374a:	eb08 05d2 	add.w	r5, r8, r2, lsr #3
  20374e:	2407      	movs	r4, #7
  203750:	5d7d      	ldrb	r5, [r7, r5]
  203752:	ea24 0202 	bic.w	r2, r4, r2
  203756:	fa25 f202 	lsr.w	r2, r5, r2
  20375a:	f002 0501 	and.w	r5, r2, #1
  20375e:	428d      	cmp	r5, r1
  203760:	d104      	bne.n	20376c <benchmark_qrduino+0x2518>
  203762:	b2f1      	uxtb	r1, r6
  203764:	f81a 2001 	ldrb.w	r2, [sl, r1]
  203768:	3201      	adds	r2, #1
  20376a:	e002      	b.n	203772 <benchmark_qrduino+0x251e>
  20376c:	3601      	adds	r6, #1
  20376e:	b2f1      	uxtb	r1, r6
  203770:	2201      	movs	r2, #1
  203772:	f80a 2001 	strb.w	r2, [sl, r1]
  203776:	2d00      	cmp	r5, #0
  203778:	f04f 0101 	mov.w	r1, #1
  20377c:	bf08      	it	eq
  20377e:	f04f 31ff 	moveq.w	r1, #4294967295
  203782:	2802      	cmp	r0, #2
  203784:	4489      	add	r9, r1
  203786:	d01d      	beq.n	2037c4 <benchmark_qrduino+0x2570>
  203788:	1c98      	adds	r0, r3, #2
  20378a:	eb08 01d0 	add.w	r1, r8, r0, lsr #3
  20378e:	2207      	movs	r2, #7
  203790:	5c79      	ldrb	r1, [r7, r1]
  203792:	ea22 0000 	bic.w	r0, r2, r0
  203796:	fa21 f000 	lsr.w	r0, r1, r0
  20379a:	f000 0001 	and.w	r0, r0, #1
  20379e:	42a8      	cmp	r0, r5
  2037a0:	d104      	bne.n	2037ac <benchmark_qrduino+0x2558>
  2037a2:	b2f1      	uxtb	r1, r6
  2037a4:	f81a 2001 	ldrb.w	r2, [sl, r1]
  2037a8:	3201      	adds	r2, #1
  2037aa:	e002      	b.n	2037b2 <benchmark_qrduino+0x255e>
  2037ac:	3601      	adds	r6, #1
  2037ae:	b2f1      	uxtb	r1, r6
  2037b0:	2201      	movs	r2, #1
  2037b2:	2800      	cmp	r0, #0
  2037b4:	f04f 0001 	mov.w	r0, #1
  2037b8:	f80a 2001 	strb.w	r2, [sl, r1]
  2037bc:	bf08      	it	eq
  2037be:	f04f 30ff 	moveq.w	r0, #4294967295
  2037c2:	4481      	add	r9, r0
  2037c4:	f106 0e01 	add.w	lr, r6, #1
  2037c8:	f04f 30ff 	mov.w	r0, #4294967295
  2037cc:	fa50 f08e 	uxtab	r0, r0, lr
  2037d0:	2803      	cmp	r0, #3
  2037d2:	d203      	bcs.n	2037dc <benchmark_qrduino+0x2588>
  2037d4:	f04f 0c00 	mov.w	ip, #0
  2037d8:	2100      	movs	r1, #0
  2037da:	e021      	b.n	203820 <benchmark_qrduino+0x25cc>
  2037dc:	fa5f f08e 	uxtb.w	r0, lr
  2037e0:	f000 0cfc 	and.w	ip, r0, #252	; 0xfc
  2037e4:	f1aa 0704 	sub.w	r7, sl, #4
  2037e8:	2100      	movs	r1, #0
  2037ea:	4660      	mov	r0, ip
  2037ec:	f817 2f04 	ldrb.w	r2, [r7, #4]!
  2037f0:	1854      	adds	r4, r2, r1
  2037f2:	2a04      	cmp	r2, #4
  2037f4:	bf88      	it	hi
  2037f6:	1ea1      	subhi	r1, r4, #2
  2037f8:	787a      	ldrb	r2, [r7, #1]
  2037fa:	78bc      	ldrb	r4, [r7, #2]
  2037fc:	78fd      	ldrb	r5, [r7, #3]
  2037fe:	2a04      	cmp	r2, #4
  203800:	eb02 0301 	add.w	r3, r2, r1
  203804:	bf88      	it	hi
  203806:	1e99      	subhi	r1, r3, #2
  203808:	2c04      	cmp	r4, #4
  20380a:	eb04 0201 	add.w	r2, r4, r1
  20380e:	bf88      	it	hi
  203810:	1e91      	subhi	r1, r2, #2
  203812:	2d04      	cmp	r5, #4
  203814:	eb05 0201 	add.w	r2, r5, r1
  203818:	bf88      	it	hi
  20381a:	1e91      	subhi	r1, r2, #2
  20381c:	3804      	subs	r0, #4
  20381e:	d1e5      	bne.n	2037ec <benchmark_qrduino+0x2598>
  203820:	f01e 0003 	ands.w	r0, lr, #3
  203824:	d01c      	beq.n	203860 <benchmark_qrduino+0x260c>
  203826:	f81a 200c 	ldrb.w	r2, [sl, ip]
  20382a:	2a04      	cmp	r2, #4
  20382c:	eb02 0301 	add.w	r3, r2, r1
  203830:	bf88      	it	hi
  203832:	1e99      	subhi	r1, r3, #2
  203834:	2801      	cmp	r0, #1
  203836:	d013      	beq.n	203860 <benchmark_qrduino+0x260c>
  203838:	f04c 0201 	orr.w	r2, ip, #1
  20383c:	f81a 2002 	ldrb.w	r2, [sl, r2]
  203840:	2a04      	cmp	r2, #4
  203842:	eb02 0301 	add.w	r3, r2, r1
  203846:	bf88      	it	hi
  203848:	1e99      	subhi	r1, r3, #2
  20384a:	2802      	cmp	r0, #2
  20384c:	d008      	beq.n	203860 <benchmark_qrduino+0x260c>
  20384e:	f04c 0002 	orr.w	r0, ip, #2
  203852:	f81a 0000 	ldrb.w	r0, [sl, r0]
  203856:	1842      	adds	r2, r0, r1
  203858:	2804      	cmp	r0, #4
  20385a:	bf88      	it	hi
  20385c:	1e91      	subhi	r1, r2, #2
  20385e:	bf00      	nop
  203860:	fa5f fc86 	uxtb.w	ip, r6
  203864:	f1bc 0f05 	cmp.w	ip, #5
  203868:	f4ff ae9c 	bcc.w	2035a4 <benchmark_qrduino+0x2350>
  20386c:	f04f 30ff 	mov.w	r0, #4294967295
  203870:	fa50 f386 	uxtab	r3, r0, r6
  203874:	2703      	movs	r7, #3
  203876:	e005      	b.n	203884 <benchmark_qrduino+0x2630>
  203878:	3128      	adds	r1, #40	; 0x28
  20387a:	bf00      	nop
  20387c:	b2ef      	uxtb	r7, r5
  20387e:	429f      	cmp	r7, r3
  203880:	f6bf ae90 	bge.w	2035a4 <benchmark_qrduino+0x2350>
  203884:	eb07 060a 	add.w	r6, r7, sl
  203888:	1cbd      	adds	r5, r7, #2
  20388a:	f816 2c02 	ldrb.w	r2, [r6, #-2]
  20388e:	f81a 4005 	ldrb.w	r4, [sl, r5]
  203892:	42a2      	cmp	r2, r4
  203894:	d1f2      	bne.n	20387c <benchmark_qrduino+0x2628>
  203896:	f816 4c01 	ldrb.w	r4, [r6, #-1]
  20389a:	42a2      	cmp	r2, r4
  20389c:	d1ee      	bne.n	20387c <benchmark_qrduino+0x2628>
  20389e:	7870      	ldrb	r0, [r6, #1]
  2038a0:	4282      	cmp	r2, r0
  2038a2:	d1eb      	bne.n	20387c <benchmark_qrduino+0x2628>
  2038a4:	eb04 0244 	add.w	r2, r4, r4, lsl #1
  2038a8:	f81a 0007 	ldrb.w	r0, [sl, r7]
  2038ac:	4282      	cmp	r2, r0
  2038ae:	d1e5      	bne.n	20387c <benchmark_qrduino+0x2628>
  2038b0:	f816 6c03 	ldrb.w	r6, [r6, #-3]
  2038b4:	2e00      	cmp	r6, #0
  2038b6:	d0df      	beq.n	203878 <benchmark_qrduino+0x2624>
  2038b8:	3703      	adds	r7, #3
  2038ba:	4567      	cmp	r7, ip
  2038bc:	d8dc      	bhi.n	203878 <benchmark_qrduino+0x2624>
  2038be:	eb06 0046 	add.w	r0, r6, r6, lsl #1
  2038c2:	ebb0 0f82 	cmp.w	r0, r2, lsl #2
  2038c6:	d2d7      	bcs.n	203878 <benchmark_qrduino+0x2624>
  2038c8:	f81a 0007 	ldrb.w	r0, [sl, r7]
  2038cc:	0092      	lsls	r2, r2, #2
  2038ce:	eb00 0040 	add.w	r0, r0, r0, lsl #1
  2038d2:	4290      	cmp	r0, r2
  2038d4:	bf28      	it	cs
  2038d6:	3128      	addcs	r1, #40	; 0x28
  2038d8:	e7d0      	b.n	20387c <benchmark_qrduino+0x2628>
  2038da:	bf00      	nop
  2038dc:	f8dd b060 	ldr.w	fp, [sp, #96]	; 0x60
  2038e0:	2300      	movs	r3, #0
  2038e2:	f04f 0900 	mov.w	r9, #0
  2038e6:	f1b9 0f00 	cmp.w	r9, #0
  2038ea:	bf48      	it	mi
  2038ec:	f1c9 0900 	rsbmi	r9, r9, #0
  2038f0:	e9dd 4a11 	ldrd	r4, sl, [sp, #68]	; 0x44
  2038f4:	eb09 0089 	add.w	r0, r9, r9, lsl #2
  2038f8:	fb03 f103 	mul.w	r1, r3, r3
  2038fc:	f8dd 804c 	ldr.w	r8, [sp, #76]	; 0x4c
  203900:	0042      	lsls	r2, r0, #1
  203902:	428a      	cmp	r2, r1
  203904:	d91c      	bls.n	203940 <benchmark_qrduino+0x26ec>
  203906:	2000      	movs	r0, #0
  203908:	469c      	mov	ip, r3
  20390a:	eba1 0381 	sub.w	r3, r1, r1, lsl #2
  20390e:	eba0 0741 	sub.w	r7, r0, r1, lsl #1
  203912:	424e      	negs	r6, r1
  203914:	2003      	movs	r0, #3
  203916:	bf00      	nop
  203918:	18b5      	adds	r5, r6, r2
  20391a:	428d      	cmp	r5, r1
  20391c:	d912      	bls.n	203944 <benchmark_qrduino+0x26f0>
  20391e:	18bd      	adds	r5, r7, r2
  203920:	428d      	cmp	r5, r1
  203922:	d911      	bls.n	203948 <benchmark_qrduino+0x26f4>
  203924:	189d      	adds	r5, r3, r2
  203926:	428d      	cmp	r5, r1
  203928:	d90f      	bls.n	20394a <benchmark_qrduino+0x26f6>
  20392a:	1a52      	subs	r2, r2, r1
  20392c:	1a52      	subs	r2, r2, r1
  20392e:	1a52      	subs	r2, r2, r1
  203930:	1a52      	subs	r2, r2, r1
  203932:	428a      	cmp	r2, r1
  203934:	f100 0004 	add.w	r0, r0, #4
  203938:	d8ee      	bhi.n	203918 <benchmark_qrduino+0x26c4>
  20393a:	3803      	subs	r0, #3
  20393c:	e005      	b.n	20394a <benchmark_qrduino+0x26f6>
  20393e:	bf00      	nop
  203940:	2000      	movs	r0, #0
  203942:	e006      	b.n	203952 <benchmark_qrduino+0x26fe>
  203944:	3802      	subs	r0, #2
  203946:	e000      	b.n	20394a <benchmark_qrduino+0x26f6>
  203948:	3801      	subs	r0, #1
  20394a:	eb00 0080 	add.w	r0, r0, r0, lsl #2
  20394e:	4663      	mov	r3, ip
  203950:	0040      	lsls	r0, r0, #1
  203952:	2b00      	cmp	r3, #0
  203954:	eb00 070b 	add.w	r7, r0, fp
  203958:	f000 816e 	beq.w	203c38 <benchmark_qrduino+0x29e4>
  20395c:	f242 001c 	movw	r0, #8220	; 0x201c
  203960:	f6c2 0020 	movt	r0, #10272	; 0x2820
  203964:	f8d0 e000 	ldr.w	lr, [r0]
  203968:	2100      	movs	r1, #0
  20396a:	f04f 0a00 	mov.w	sl, #0
  20396e:	e009      	b.n	203984 <benchmark_qrduino+0x2730>
  203970:	9f18      	ldr	r7, [sp, #96]	; 0x60
  203972:	9917      	ldr	r1, [sp, #92]	; 0x5c
  203974:	f10a 0a01 	add.w	sl, sl, #1
  203978:	441f      	add	r7, r3
  20397a:	45da      	cmp	sl, fp
  20397c:	f101 0101 	add.w	r1, r1, #1
  203980:	f080 816a 	bcs.w	203c58 <benchmark_qrduino+0x2a04>
  203984:	2000      	movs	r0, #0
  203986:	f88e 0000 	strb.w	r0, [lr]
  20398a:	f242 0011 	movw	r0, #8209	; 0x2011
  20398e:	f6c2 0020 	movt	r0, #10272	; 0x2820
  203992:	7802      	ldrb	r2, [r0, #0]
  203994:	2a00      	cmp	r2, #0
  203996:	f000 8153 	beq.w	203c40 <benchmark_qrduino+0x29ec>
  20399a:	f242 0024 	movw	r0, #8228	; 0x2024
  20399e:	f6c2 0020 	movt	r0, #10272	; 0x2820
  2039a2:	6806      	ldr	r6, [r0, #0]
  2039a4:	f242 0010 	movw	r0, #8208	; 0x2010
  2039a8:	f6c2 0020 	movt	r0, #10272	; 0x2820
  2039ac:	9718      	str	r7, [sp, #96]	; 0x60
  2039ae:	7807      	ldrb	r7, [r0, #0]
  2039b0:	f242 001c 	movw	r0, #8220	; 0x201c
  2039b4:	f6c2 0020 	movt	r0, #10272	; 0x2820
  2039b8:	f8d0 e000 	ldr.w	lr, [r0]
  2039bc:	1e50      	subs	r0, r2, #1
  2039be:	2803      	cmp	r0, #3
  2039c0:	f04f 0007 	mov.w	r0, #7
  2039c4:	ea20 030a 	bic.w	r3, r0, sl
  2039c8:	e9cd 6116 	strd	r6, r1, [sp, #88]	; 0x58
  2039cc:	d21a      	bcs.n	203a04 <benchmark_qrduino+0x27b0>
  2039ce:	4614      	mov	r4, r2
  2039d0:	f04f 0800 	mov.w	r8, #0
  2039d4:	f04f 0c00 	mov.w	ip, #0
  2039d8:	2600      	movs	r6, #0
  2039da:	46a3      	mov	fp, r4
  2039dc:	f014 0003 	ands.w	r0, r4, #3
  2039e0:	f000 809e 	beq.w	203b20 <benchmark_qrduino+0x28cc>
  2039e4:	ea4f 09da 	mov.w	r9, sl, lsr #3
  2039e8:	fb08 9107 	mla	r1, r8, r7, r9
  2039ec:	9c16      	ldr	r4, [sp, #88]	; 0x58
  2039ee:	5c61      	ldrb	r1, [r4, r1]
  2039f0:	40d9      	lsrs	r1, r3
  2039f2:	f001 0201 	and.w	r2, r1, #1
  2039f6:	4562      	cmp	r2, ip
  2039f8:	d160      	bne.n	203abc <benchmark_qrduino+0x2868>
  2039fa:	b2f1      	uxtb	r1, r6
  2039fc:	f81e 5001 	ldrb.w	r5, [lr, r1]
  203a00:	3501      	adds	r5, #1
  203a02:	e05e      	b.n	203ac2 <benchmark_qrduino+0x286e>
  203a04:	08c9      	lsrs	r1, r1, #3
  203a06:	4614      	mov	r4, r2
  203a08:	f002 00fc 	and.w	r0, r2, #252	; 0xfc
  203a0c:	eb06 0901 	add.w	r9, r6, r1
  203a10:	ea4f 0b87 	mov.w	fp, r7, lsl #2
  203a14:	f04f 0800 	mov.w	r8, #0
  203a18:	f04f 0c00 	mov.w	ip, #0
  203a1c:	2600      	movs	r6, #0
  203a1e:	e00a      	b.n	203a36 <benchmark_qrduino+0x27e2>
  203a20:	b2f1      	uxtb	r1, r6
  203a22:	f81e 2001 	ldrb.w	r2, [lr, r1]
  203a26:	3201      	adds	r2, #1
  203a28:	f108 0804 	add.w	r8, r8, #4
  203a2c:	4540      	cmp	r0, r8
  203a2e:	44d9      	add	r9, fp
  203a30:	f80e 2001 	strb.w	r2, [lr, r1]
  203a34:	d0d1      	beq.n	2039da <benchmark_qrduino+0x2786>
  203a36:	f899 1000 	ldrb.w	r1, [r9]
  203a3a:	40d9      	lsrs	r1, r3
  203a3c:	f001 0201 	and.w	r2, r1, #1
  203a40:	4562      	cmp	r2, ip
  203a42:	d105      	bne.n	203a50 <benchmark_qrduino+0x27fc>
  203a44:	b2f1      	uxtb	r1, r6
  203a46:	f81e 5001 	ldrb.w	r5, [lr, r1]
  203a4a:	3501      	adds	r5, #1
  203a4c:	e003      	b.n	203a56 <benchmark_qrduino+0x2802>
  203a4e:	bf00      	nop
  203a50:	3601      	adds	r6, #1
  203a52:	b2f1      	uxtb	r1, r6
  203a54:	2501      	movs	r5, #1
  203a56:	f80e 5001 	strb.w	r5, [lr, r1]
  203a5a:	f819 1007 	ldrb.w	r1, [r9, r7]
  203a5e:	40d9      	lsrs	r1, r3
  203a60:	f001 0501 	and.w	r5, r1, #1
  203a64:	4295      	cmp	r5, r2
  203a66:	d105      	bne.n	203a74 <benchmark_qrduino+0x2820>
  203a68:	b2f1      	uxtb	r1, r6
  203a6a:	f81e 2001 	ldrb.w	r2, [lr, r1]
  203a6e:	3201      	adds	r2, #1
  203a70:	e003      	b.n	203a7a <benchmark_qrduino+0x2826>
  203a72:	bf00      	nop
  203a74:	3601      	adds	r6, #1
  203a76:	b2f1      	uxtb	r1, r6
  203a78:	2201      	movs	r2, #1
  203a7a:	f80e 2001 	strb.w	r2, [lr, r1]
  203a7e:	f819 1017 	ldrb.w	r1, [r9, r7, lsl #1]
  203a82:	40d9      	lsrs	r1, r3
  203a84:	f001 0201 	and.w	r2, r1, #1
  203a88:	42aa      	cmp	r2, r5
  203a8a:	d105      	bne.n	203a98 <benchmark_qrduino+0x2844>
  203a8c:	b2f1      	uxtb	r1, r6
  203a8e:	f81e 5001 	ldrb.w	r5, [lr, r1]
  203a92:	3501      	adds	r5, #1
  203a94:	e003      	b.n	203a9e <benchmark_qrduino+0x284a>
  203a96:	bf00      	nop
  203a98:	3601      	adds	r6, #1
  203a9a:	b2f1      	uxtb	r1, r6
  203a9c:	2501      	movs	r5, #1
  203a9e:	f80e 5001 	strb.w	r5, [lr, r1]
  203aa2:	eb07 0147 	add.w	r1, r7, r7, lsl #1
  203aa6:	f819 1001 	ldrb.w	r1, [r9, r1]
  203aaa:	40d9      	lsrs	r1, r3
  203aac:	f001 0c01 	and.w	ip, r1, #1
  203ab0:	4594      	cmp	ip, r2
  203ab2:	d0b5      	beq.n	203a20 <benchmark_qrduino+0x27cc>
  203ab4:	3601      	adds	r6, #1
  203ab6:	b2f1      	uxtb	r1, r6
  203ab8:	2201      	movs	r2, #1
  203aba:	e7b5      	b.n	203a28 <benchmark_qrduino+0x27d4>
  203abc:	3601      	adds	r6, #1
  203abe:	b2f1      	uxtb	r1, r6
  203ac0:	2501      	movs	r5, #1
  203ac2:	2801      	cmp	r0, #1
  203ac4:	f80e 5001 	strb.w	r5, [lr, r1]
  203ac8:	d02a      	beq.n	203b20 <benchmark_qrduino+0x28cc>
  203aca:	f108 0101 	add.w	r1, r8, #1
  203ace:	fb01 9107 	mla	r1, r1, r7, r9
  203ad2:	5c61      	ldrb	r1, [r4, r1]
  203ad4:	40d9      	lsrs	r1, r3
  203ad6:	f001 0c01 	and.w	ip, r1, #1
  203ada:	4594      	cmp	ip, r2
  203adc:	d104      	bne.n	203ae8 <benchmark_qrduino+0x2894>
  203ade:	b2f1      	uxtb	r1, r6
  203ae0:	f81e 2001 	ldrb.w	r2, [lr, r1]
  203ae4:	3201      	adds	r2, #1
  203ae6:	e002      	b.n	203aee <benchmark_qrduino+0x289a>
  203ae8:	3601      	adds	r6, #1
  203aea:	b2f1      	uxtb	r1, r6
  203aec:	2201      	movs	r2, #1
  203aee:	2802      	cmp	r0, #2
  203af0:	f80e 2001 	strb.w	r2, [lr, r1]
  203af4:	d014      	beq.n	203b20 <benchmark_qrduino+0x28cc>
  203af6:	f108 0002 	add.w	r0, r8, #2
  203afa:	fb00 9007 	mla	r0, r0, r7, r9
  203afe:	5c20      	ldrb	r0, [r4, r0]
  203b00:	40d8      	lsrs	r0, r3
  203b02:	f000 0001 	and.w	r0, r0, #1
  203b06:	4560      	cmp	r0, ip
  203b08:	d104      	bne.n	203b14 <benchmark_qrduino+0x28c0>
  203b0a:	b2f0      	uxtb	r0, r6
  203b0c:	f81e 1000 	ldrb.w	r1, [lr, r0]
  203b10:	3101      	adds	r1, #1
  203b12:	e002      	b.n	203b1a <benchmark_qrduino+0x28c6>
  203b14:	3601      	adds	r6, #1
  203b16:	b2f0      	uxtb	r0, r6
  203b18:	2101      	movs	r1, #1
  203b1a:	f80e 1000 	strb.w	r1, [lr, r0]
  203b1e:	bf00      	nop
  203b20:	f106 0801 	add.w	r8, r6, #1
  203b24:	f04f 30ff 	mov.w	r0, #4294967295
  203b28:	fa50 f088 	uxtab	r0, r0, r8
  203b2c:	2803      	cmp	r0, #3
  203b2e:	d203      	bcs.n	203b38 <benchmark_qrduino+0x28e4>
  203b30:	f04f 0c00 	mov.w	ip, #0
  203b34:	2300      	movs	r3, #0
  203b36:	e021      	b.n	203b7c <benchmark_qrduino+0x2928>
  203b38:	fa5f f088 	uxtb.w	r0, r8
  203b3c:	f000 0cfc 	and.w	ip, r0, #252	; 0xfc
  203b40:	f1ae 0504 	sub.w	r5, lr, #4
  203b44:	2300      	movs	r3, #0
  203b46:	4660      	mov	r0, ip
  203b48:	f815 1f04 	ldrb.w	r1, [r5, #4]!
  203b4c:	18ca      	adds	r2, r1, r3
  203b4e:	2904      	cmp	r1, #4
  203b50:	bf88      	it	hi
  203b52:	1e93      	subhi	r3, r2, #2
  203b54:	7869      	ldrb	r1, [r5, #1]
  203b56:	78aa      	ldrb	r2, [r5, #2]
  203b58:	78ef      	ldrb	r7, [r5, #3]
  203b5a:	2904      	cmp	r1, #4
  203b5c:	eb01 0403 	add.w	r4, r1, r3
  203b60:	bf88      	it	hi
  203b62:	1ea3      	subhi	r3, r4, #2
  203b64:	2a04      	cmp	r2, #4
  203b66:	eb02 0103 	add.w	r1, r2, r3
  203b6a:	bf88      	it	hi
  203b6c:	1e8b      	subhi	r3, r1, #2
  203b6e:	2f04      	cmp	r7, #4
  203b70:	eb07 0103 	add.w	r1, r7, r3
  203b74:	bf88      	it	hi
  203b76:	1e8b      	subhi	r3, r1, #2
  203b78:	3804      	subs	r0, #4
  203b7a:	d1e5      	bne.n	203b48 <benchmark_qrduino+0x28f4>
  203b7c:	f018 0003 	ands.w	r0, r8, #3
  203b80:	d01c      	beq.n	203bbc <benchmark_qrduino+0x2968>
  203b82:	f81e 100c 	ldrb.w	r1, [lr, ip]
  203b86:	2904      	cmp	r1, #4
  203b88:	eb01 0703 	add.w	r7, r1, r3
  203b8c:	bf88      	it	hi
  203b8e:	1ebb      	subhi	r3, r7, #2
  203b90:	2801      	cmp	r0, #1
  203b92:	d013      	beq.n	203bbc <benchmark_qrduino+0x2968>
  203b94:	f04c 0101 	orr.w	r1, ip, #1
  203b98:	f81e 1001 	ldrb.w	r1, [lr, r1]
  203b9c:	2904      	cmp	r1, #4
  203b9e:	eb01 0703 	add.w	r7, r1, r3
  203ba2:	bf88      	it	hi
  203ba4:	1ebb      	subhi	r3, r7, #2
  203ba6:	2802      	cmp	r0, #2
  203ba8:	d008      	beq.n	203bbc <benchmark_qrduino+0x2968>
  203baa:	f04c 0002 	orr.w	r0, ip, #2
  203bae:	f81e 0000 	ldrb.w	r0, [lr, r0]
  203bb2:	18c1      	adds	r1, r0, r3
  203bb4:	2804      	cmp	r0, #4
  203bb6:	bf88      	it	hi
  203bb8:	1e8b      	subhi	r3, r1, #2
  203bba:	bf00      	nop
  203bbc:	fa5f fc86 	uxtb.w	ip, r6
  203bc0:	f1bc 0f05 	cmp.w	ip, #5
  203bc4:	f4ff aed4 	bcc.w	203970 <benchmark_qrduino+0x271c>
  203bc8:	f04f 30ff 	mov.w	r0, #4294967295
  203bcc:	fa50 f786 	uxtab	r7, r0, r6
  203bd0:	2503      	movs	r5, #3
  203bd2:	e005      	b.n	203be0 <benchmark_qrduino+0x298c>
  203bd4:	3328      	adds	r3, #40	; 0x28
  203bd6:	bf00      	nop
  203bd8:	b2f5      	uxtb	r5, r6
  203bda:	42bd      	cmp	r5, r7
  203bdc:	f6bf aec8 	bge.w	203970 <benchmark_qrduino+0x271c>
  203be0:	eb05 010e 	add.w	r1, r5, lr
  203be4:	1cae      	adds	r6, r5, #2
  203be6:	f811 2c02 	ldrb.w	r2, [r1, #-2]
  203bea:	f81e 0006 	ldrb.w	r0, [lr, r6]
  203bee:	4282      	cmp	r2, r0
  203bf0:	d1f2      	bne.n	203bd8 <benchmark_qrduino+0x2984>
  203bf2:	f811 0c01 	ldrb.w	r0, [r1, #-1]
  203bf6:	4282      	cmp	r2, r0
  203bf8:	d1ee      	bne.n	203bd8 <benchmark_qrduino+0x2984>
  203bfa:	784c      	ldrb	r4, [r1, #1]
  203bfc:	42a2      	cmp	r2, r4
  203bfe:	d1eb      	bne.n	203bd8 <benchmark_qrduino+0x2984>
  203c00:	eb00 0240 	add.w	r2, r0, r0, lsl #1
  203c04:	f81e 0005 	ldrb.w	r0, [lr, r5]
  203c08:	4282      	cmp	r2, r0
  203c0a:	d1e5      	bne.n	203bd8 <benchmark_qrduino+0x2984>
  203c0c:	f811 0c03 	ldrb.w	r0, [r1, #-3]
  203c10:	2800      	cmp	r0, #0
  203c12:	d0df      	beq.n	203bd4 <benchmark_qrduino+0x2980>
  203c14:	1ce9      	adds	r1, r5, #3
  203c16:	4561      	cmp	r1, ip
  203c18:	d8dc      	bhi.n	203bd4 <benchmark_qrduino+0x2980>
  203c1a:	eb00 0040 	add.w	r0, r0, r0, lsl #1
  203c1e:	ebb0 0f82 	cmp.w	r0, r2, lsl #2
  203c22:	d2d7      	bcs.n	203bd4 <benchmark_qrduino+0x2980>
  203c24:	f81e 0001 	ldrb.w	r0, [lr, r1]
  203c28:	0091      	lsls	r1, r2, #2
  203c2a:	eb00 0040 	add.w	r0, r0, r0, lsl #1
  203c2e:	4288      	cmp	r0, r1
  203c30:	bf28      	it	cs
  203c32:	3328      	addcs	r3, #40	; 0x28
  203c34:	e7d0      	b.n	203bd8 <benchmark_qrduino+0x2984>
  203c36:	bf00      	nop
  203c38:	f04f 0b00 	mov.w	fp, #0
  203c3c:	e010      	b.n	203c60 <benchmark_qrduino+0x2a0c>
  203c3e:	bf00      	nop
  203c40:	f242 001c 	movw	r0, #8220	; 0x201c
  203c44:	f6c2 0020 	movt	r0, #10272	; 0x2820
  203c48:	6800      	ldr	r0, [r0, #0]
  203c4a:	f04f 0b00 	mov.w	fp, #0
  203c4e:	7800      	ldrb	r0, [r0, #0]
  203c50:	19c1      	adds	r1, r0, r7
  203c52:	2804      	cmp	r0, #4
  203c54:	bf88      	it	hi
  203c56:	1e8f      	subhi	r7, r1, #2
  203c58:	f8dd 804c 	ldr.w	r8, [sp, #76]	; 0x4c
  203c5c:	e9dd 4a11 	ldrd	r4, sl, [sp, #68]	; 0x44
  203c60:	42a7      	cmp	r7, r4
  203c62:	bf38      	it	cc
  203c64:	46d0      	movcc	r8, sl
  203c66:	fa5f f088 	uxtb.w	r0, r8
  203c6a:	f242 0330 	movw	r3, #8240	; 0x2030
  203c6e:	2807      	cmp	r0, #7
  203c70:	f6c2 0320 	movt	r3, #10272	; 0x2820
  203c74:	d01a      	beq.n	203cac <benchmark_qrduino+0x2a58>
  203c76:	f242 0110 	movw	r1, #8208	; 0x2010
  203c7a:	f6c2 0120 	movt	r1, #10272	; 0x2820
  203c7e:	f242 0024 	movw	r0, #8228	; 0x2024
  203c82:	780a      	ldrb	r2, [r1, #0]
  203c84:	f6c2 0020 	movt	r0, #10272	; 0x2820
  203c88:	6800      	ldr	r0, [r0, #0]
  203c8a:	6819      	ldr	r1, [r3, #0]
  203c8c:	fb02 f20b 	mul.w	r2, r2, fp
  203c90:	42a7      	cmp	r7, r4
  203c92:	bf38      	it	cc
  203c94:	463c      	movcc	r4, r7
  203c96:	f7fc fc25 	bl	2004e4 <__rt_memcpy>
  203c9a:	9810      	ldr	r0, [sp, #64]	; 0x40
  203c9c:	f10a 0a01 	add.w	sl, sl, #1
  203ca0:	2807      	cmp	r0, #7
  203ca2:	f4ff ab9d 	bcc.w	2033e0 <benchmark_qrduino+0x218c>
  203ca6:	f04f 0a08 	mov.w	sl, #8
  203caa:	e001      	b.n	203cb0 <benchmark_qrduino+0x2a5c>
  203cac:	f04f 0807 	mov.w	r8, #7
  203cb0:	fa5f f08a 	uxtb.w	r0, sl
  203cb4:	fa5f f588 	uxtb.w	r5, r8
  203cb8:	4285      	cmp	r5, r0
  203cba:	bf1c      	itt	ne
  203cbc:	4628      	movne	r0, r5
  203cbe:	f7fc ff77 	blne	200bb0 <applymask>
  203cc2:	f242 0028 	movw	r0, #8232	; 0x2028
  203cc6:	f6c2 0020 	movt	r0, #10272	; 0x2820
  203cca:	7800      	ldrb	r0, [r0, #0]
  203ccc:	f44f 61ff 	mov.w	r1, #2040	; 0x7f8
  203cd0:	2800      	cmp	r0, #0
  203cd2:	bf08      	it	eq
  203cd4:	fa51 f588 	uxtabeq	r5, r1, r8
  203cd8:	f24a 50a5 	movw	r0, #42405	; 0xa5a5
  203cdc:	f6c5 205a 	movt	r0, #23130	; 0x5a5a
  203ce0:	40e8      	lsrs	r0, r5
  203ce2:	07c0      	lsls	r0, r0, #31
  203ce4:	d11e      	bne.n	203d24 <benchmark_qrduino+0x2ad0>
  203ce6:	f242 0011 	movw	r0, #8209	; 0x2011
  203cea:	f242 0210 	movw	r2, #8208	; 0x2010
  203cee:	f6c2 0020 	movt	r0, #10272	; 0x2820
  203cf2:	f6c2 0220 	movt	r2, #10272	; 0x2820
  203cf6:	7800      	ldrb	r0, [r0, #0]
  203cf8:	7812      	ldrb	r2, [r2, #0]
  203cfa:	f242 0324 	movw	r3, #8228	; 0x2024
  203cfe:	3801      	subs	r0, #1
  203d00:	f6c2 0320 	movt	r3, #10272	; 0x2820
  203d04:	00d2      	lsls	r2, r2, #3
  203d06:	f000 0107 	and.w	r1, r0, #7
  203d0a:	681b      	ldr	r3, [r3, #0]
  203d0c:	eb02 00e0 	add.w	r0, r2, r0, asr #3
  203d10:	2280      	movs	r2, #128	; 0x80
  203d12:	5c1f      	ldrb	r7, [r3, r0]
  203d14:	fa22 f101 	lsr.w	r1, r2, r1
  203d18:	4339      	orrs	r1, r7
  203d1a:	5419      	strb	r1, [r3, r0]
  203d1c:	7858      	ldrb	r0, [r3, #1]
  203d1e:	f040 0080 	orr.w	r0, r0, #128	; 0x80
  203d22:	7058      	strb	r0, [r3, #1]
  203d24:	f249 6069 	movw	r0, #38505	; 0x9669
  203d28:	f6c6 1096 	movt	r0, #27030	; 0x6996
  203d2c:	40e8      	lsrs	r0, r5
  203d2e:	07c0      	lsls	r0, r0, #31
  203d30:	d11f      	bne.n	203d72 <benchmark_qrduino+0x2b1e>
  203d32:	f242 0011 	movw	r0, #8209	; 0x2011
  203d36:	f242 0210 	movw	r2, #8208	; 0x2010
  203d3a:	f6c2 0020 	movt	r0, #10272	; 0x2820
  203d3e:	f6c2 0220 	movt	r2, #10272	; 0x2820
  203d42:	7800      	ldrb	r0, [r0, #0]
  203d44:	7812      	ldrb	r2, [r2, #0]
  203d46:	f242 0324 	movw	r3, #8228	; 0x2024
  203d4a:	3802      	subs	r0, #2
  203d4c:	f6c2 0320 	movt	r3, #10272	; 0x2820
  203d50:	00d7      	lsls	r7, r2, #3
  203d52:	f000 0107 	and.w	r1, r0, #7
  203d56:	681b      	ldr	r3, [r3, #0]
  203d58:	eb07 00e0 	add.w	r0, r7, r0, asr #3
  203d5c:	2780      	movs	r7, #128	; 0x80
  203d5e:	5c1e      	ldrb	r6, [r3, r0]
  203d60:	fa27 f101 	lsr.w	r1, r7, r1
  203d64:	4331      	orrs	r1, r6
  203d66:	5419      	strb	r1, [r3, r0]
  203d68:	18d0      	adds	r0, r2, r3
  203d6a:	7841      	ldrb	r1, [r0, #1]
  203d6c:	f041 0180 	orr.w	r1, r1, #128	; 0x80
  203d70:	7041      	strb	r1, [r0, #1]
  203d72:	f649 1066 	movw	r0, #39270	; 0x9966
  203d76:	f6c9 1066 	movt	r0, #39270	; 0x9966
  203d7a:	40e8      	lsrs	r0, r5
  203d7c:	07c0      	lsls	r0, r0, #31
  203d7e:	d120      	bne.n	203dc2 <benchmark_qrduino+0x2b6e>
  203d80:	f242 0011 	movw	r0, #8209	; 0x2011
  203d84:	f242 0210 	movw	r2, #8208	; 0x2010
  203d88:	f6c2 0020 	movt	r0, #10272	; 0x2820
  203d8c:	f6c2 0220 	movt	r2, #10272	; 0x2820
  203d90:	7800      	ldrb	r0, [r0, #0]
  203d92:	7812      	ldrb	r2, [r2, #0]
  203d94:	f242 0324 	movw	r3, #8228	; 0x2024
  203d98:	3803      	subs	r0, #3
  203d9a:	f6c2 0320 	movt	r3, #10272	; 0x2820
  203d9e:	00d7      	lsls	r7, r2, #3
  203da0:	f000 0107 	and.w	r1, r0, #7
  203da4:	681b      	ldr	r3, [r3, #0]
  203da6:	eb07 00e0 	add.w	r0, r7, r0, asr #3
  203daa:	2780      	movs	r7, #128	; 0x80
  203dac:	5c1e      	ldrb	r6, [r3, r0]
  203dae:	fa27 f101 	lsr.w	r1, r7, r1
  203db2:	4331      	orrs	r1, r6
  203db4:	eb03 0242 	add.w	r2, r3, r2, lsl #1
  203db8:	5419      	strb	r1, [r3, r0]
  203dba:	7850      	ldrb	r0, [r2, #1]
  203dbc:	f040 0080 	orr.w	r0, r0, #128	; 0x80
  203dc0:	7050      	strb	r0, [r2, #1]
  203dc2:	f24c 30c3 	movw	r0, #50115	; 0xc3c3
  203dc6:	f6c3 403c 	movt	r0, #15420	; 0x3c3c
  203dca:	40e8      	lsrs	r0, r5
  203dcc:	07c0      	lsls	r0, r0, #31
  203dce:	d121      	bne.n	203e14 <benchmark_qrduino+0x2bc0>
  203dd0:	f242 0011 	movw	r0, #8209	; 0x2011
  203dd4:	f242 0210 	movw	r2, #8208	; 0x2010
  203dd8:	f6c2 0020 	movt	r0, #10272	; 0x2820
  203ddc:	f6c2 0220 	movt	r2, #10272	; 0x2820
  203de0:	7800      	ldrb	r0, [r0, #0]
  203de2:	7812      	ldrb	r2, [r2, #0]
  203de4:	f242 0324 	movw	r3, #8228	; 0x2024
  203de8:	3804      	subs	r0, #4
  203dea:	f6c2 0320 	movt	r3, #10272	; 0x2820
  203dee:	00d7      	lsls	r7, r2, #3
  203df0:	f000 0107 	and.w	r1, r0, #7
  203df4:	681b      	ldr	r3, [r3, #0]
  203df6:	eb07 00e0 	add.w	r0, r7, r0, asr #3
  203dfa:	2780      	movs	r7, #128	; 0x80
  203dfc:	5c1e      	ldrb	r6, [r3, r0]
  203dfe:	fa27 f101 	lsr.w	r1, r7, r1
  203e02:	eb02 0242 	add.w	r2, r2, r2, lsl #1
  203e06:	4331      	orrs	r1, r6
  203e08:	5419      	strb	r1, [r3, r0]
  203e0a:	18d0      	adds	r0, r2, r3
  203e0c:	7841      	ldrb	r1, [r0, #1]
  203e0e:	f041 0180 	orr.w	r1, r1, #128	; 0x80
  203e12:	7041      	strb	r1, [r0, #1]
  203e14:	f64a 2055 	movw	r0, #43605	; 0xaa55
  203e18:	f2c5 50aa 	movt	r0, #21930	; 0x55aa
  203e1c:	40e8      	lsrs	r0, r5
  203e1e:	07c0      	lsls	r0, r0, #31
  203e20:	d120      	bne.n	203e64 <benchmark_qrduino+0x2c10>
  203e22:	f242 0011 	movw	r0, #8209	; 0x2011
  203e26:	f242 0210 	movw	r2, #8208	; 0x2010
  203e2a:	f6c2 0020 	movt	r0, #10272	; 0x2820
  203e2e:	f6c2 0220 	movt	r2, #10272	; 0x2820
  203e32:	7800      	ldrb	r0, [r0, #0]
  203e34:	7812      	ldrb	r2, [r2, #0]
  203e36:	f242 0324 	movw	r3, #8228	; 0x2024
  203e3a:	3805      	subs	r0, #5
  203e3c:	f6c2 0320 	movt	r3, #10272	; 0x2820
  203e40:	00d7      	lsls	r7, r2, #3
  203e42:	f000 0107 	and.w	r1, r0, #7
  203e46:	681b      	ldr	r3, [r3, #0]
  203e48:	eb07 00e0 	add.w	r0, r7, r0, asr #3
  203e4c:	2780      	movs	r7, #128	; 0x80
  203e4e:	5c1e      	ldrb	r6, [r3, r0]
  203e50:	fa27 f101 	lsr.w	r1, r7, r1
  203e54:	4331      	orrs	r1, r6
  203e56:	eb03 0282 	add.w	r2, r3, r2, lsl #2
  203e5a:	5419      	strb	r1, [r3, r0]
  203e5c:	7850      	ldrb	r0, [r2, #1]
  203e5e:	f040 0080 	orr.w	r0, r0, #128	; 0x80
  203e62:	7050      	strb	r0, [r2, #1]
  203e64:	f04f 3069 	mov.w	r0, #1768515945	; 0x69696969
  203e68:	40e8      	lsrs	r0, r5
  203e6a:	07c0      	lsls	r0, r0, #31
  203e6c:	d121      	bne.n	203eb2 <benchmark_qrduino+0x2c5e>
  203e6e:	f242 0011 	movw	r0, #8209	; 0x2011
  203e72:	f242 0210 	movw	r2, #8208	; 0x2010
  203e76:	f6c2 0020 	movt	r0, #10272	; 0x2820
  203e7a:	f6c2 0220 	movt	r2, #10272	; 0x2820
  203e7e:	7800      	ldrb	r0, [r0, #0]
  203e80:	7812      	ldrb	r2, [r2, #0]
  203e82:	f242 0324 	movw	r3, #8228	; 0x2024
  203e86:	3806      	subs	r0, #6
  203e88:	f6c2 0320 	movt	r3, #10272	; 0x2820
  203e8c:	00d7      	lsls	r7, r2, #3
  203e8e:	f000 0107 	and.w	r1, r0, #7
  203e92:	681b      	ldr	r3, [r3, #0]
  203e94:	eb07 00e0 	add.w	r0, r7, r0, asr #3
  203e98:	2780      	movs	r7, #128	; 0x80
  203e9a:	5c1e      	ldrb	r6, [r3, r0]
  203e9c:	fa27 f101 	lsr.w	r1, r7, r1
  203ea0:	eb02 0282 	add.w	r2, r2, r2, lsl #2
  203ea4:	4331      	orrs	r1, r6
  203ea6:	5419      	strb	r1, [r3, r0]
  203ea8:	18d0      	adds	r0, r2, r3
  203eaa:	7841      	ldrb	r1, [r0, #1]
  203eac:	f041 0180 	orr.w	r1, r1, #128	; 0x80
  203eb0:	7041      	strb	r1, [r0, #1]
  203eb2:	f24c 303c 	movw	r0, #49980	; 0xc33c
  203eb6:	f2cc 303c 	movt	r0, #49980	; 0xc33c
  203eba:	40e8      	lsrs	r0, r5
  203ebc:	07c0      	lsls	r0, r0, #31
  203ebe:	d121      	bne.n	203f04 <benchmark_qrduino+0x2cb0>
  203ec0:	f242 0011 	movw	r0, #8209	; 0x2011
  203ec4:	f242 0210 	movw	r2, #8208	; 0x2010
  203ec8:	f6c2 0020 	movt	r0, #10272	; 0x2820
  203ecc:	f6c2 0220 	movt	r2, #10272	; 0x2820
  203ed0:	7800      	ldrb	r0, [r0, #0]
  203ed2:	7812      	ldrb	r2, [r2, #0]
  203ed4:	f242 0324 	movw	r3, #8228	; 0x2024
  203ed8:	3807      	subs	r0, #7
  203eda:	f6c2 0320 	movt	r3, #10272	; 0x2820
  203ede:	00d7      	lsls	r7, r2, #3
  203ee0:	f000 0107 	and.w	r1, r0, #7
  203ee4:	681b      	ldr	r3, [r3, #0]
  203ee6:	eb07 00e0 	add.w	r0, r7, r0, asr #3
  203eea:	2780      	movs	r7, #128	; 0x80
  203eec:	5c1e      	ldrb	r6, [r3, r0]
  203eee:	fa27 f101 	lsr.w	r1, r7, r1
  203ef2:	ebc2 02c2 	rsb	r2, r2, r2, lsl #3
  203ef6:	4331      	orrs	r1, r6
  203ef8:	5419      	strb	r1, [r3, r0]
  203efa:	18d0      	adds	r0, r2, r3
  203efc:	7841      	ldrb	r1, [r0, #1]
  203efe:	f041 0180 	orr.w	r1, r1, #128	; 0x80
  203f02:	7041      	strb	r1, [r0, #1]
  203f04:	f640 70f0 	movw	r0, #4080	; 0xff0
  203f08:	f2cf 000f 	movt	r0, #61455	; 0xf00f
  203f0c:	40e8      	lsrs	r0, r5
  203f0e:	07c0      	lsls	r0, r0, #31
  203f10:	d121      	bne.n	203f56 <benchmark_qrduino+0x2d02>
  203f12:	f242 0011 	movw	r0, #8209	; 0x2011
  203f16:	f242 0210 	movw	r2, #8208	; 0x2010
  203f1a:	f6c2 0020 	movt	r0, #10272	; 0x2820
  203f1e:	f6c2 0220 	movt	r2, #10272	; 0x2820
  203f22:	7800      	ldrb	r0, [r0, #0]
  203f24:	7812      	ldrb	r2, [r2, #0]
  203f26:	f242 0324 	movw	r3, #8228	; 0x2024
  203f2a:	f1a0 0108 	sub.w	r1, r0, #8
  203f2e:	f6c2 0320 	movt	r3, #10272	; 0x2820
  203f32:	00d7      	lsls	r7, r2, #3
  203f34:	681b      	ldr	r3, [r3, #0]
  203f36:	eb07 01e1 	add.w	r1, r7, r1, asr #3
  203f3a:	f000 0007 	and.w	r0, r0, #7
  203f3e:	2780      	movs	r7, #128	; 0x80
  203f40:	5c5e      	ldrb	r6, [r3, r1]
  203f42:	fa27 f000 	lsr.w	r0, r7, r0
  203f46:	4330      	orrs	r0, r6
  203f48:	eb03 02c2 	add.w	r2, r3, r2, lsl #3
  203f4c:	5458      	strb	r0, [r3, r1]
  203f4e:	7850      	ldrb	r0, [r2, #1]
  203f50:	f040 0080 	orr.w	r0, r0, #128	; 0x80
  203f54:	7050      	strb	r0, [r2, #1]
  203f56:	f24a 505a 	movw	r0, #42330	; 0xa55a
  203f5a:	f2ca 505a 	movt	r0, #42330	; 0xa55a
  203f5e:	40e8      	lsrs	r0, r5
  203f60:	07c0      	lsls	r0, r0, #31
  203f62:	d11b      	bne.n	203f9c <benchmark_qrduino+0x2d48>
  203f64:	f242 0111 	movw	r1, #8209	; 0x2011
  203f68:	f242 0024 	movw	r0, #8228	; 0x2024
  203f6c:	f6c2 0120 	movt	r1, #10272	; 0x2820
  203f70:	f242 0210 	movw	r2, #8208	; 0x2010
  203f74:	f6c2 0020 	movt	r0, #10272	; 0x2820
  203f78:	7809      	ldrb	r1, [r1, #0]
  203f7a:	f6c2 0220 	movt	r2, #10272	; 0x2820
  203f7e:	6800      	ldr	r0, [r0, #0]
  203f80:	7812      	ldrb	r2, [r2, #0]
  203f82:	3907      	subs	r1, #7
  203f84:	fb11 0102 	smlabb	r1, r1, r2, r0
  203f88:	784b      	ldrb	r3, [r1, #1]
  203f8a:	f043 0380 	orr.w	r3, r3, #128	; 0x80
  203f8e:	704b      	strb	r3, [r1, #1]
  203f90:	f810 1032 	ldrb.w	r1, [r0, r2, lsl #3]
  203f94:	f041 0101 	orr.w	r1, r1, #1
  203f98:	f800 1032 	strb.w	r1, [r0, r2, lsl #3]
  203f9c:	f243 30cc 	movw	r0, #13260	; 0x33cc
  203fa0:	f6cc 4033 	movt	r0, #52275	; 0xcc33
  203fa4:	40e8      	lsrs	r0, r5
  203fa6:	07c0      	lsls	r0, r0, #31
  203fa8:	d11b      	bne.n	203fe2 <benchmark_qrduino+0x2d8e>
  203faa:	f242 0111 	movw	r1, #8209	; 0x2011
  203fae:	f242 0024 	movw	r0, #8228	; 0x2024
  203fb2:	f6c2 0120 	movt	r1, #10272	; 0x2820
  203fb6:	f242 0210 	movw	r2, #8208	; 0x2010
  203fba:	f6c2 0020 	movt	r0, #10272	; 0x2820
  203fbe:	7809      	ldrb	r1, [r1, #0]
  203fc0:	f6c2 0220 	movt	r2, #10272	; 0x2820
  203fc4:	6800      	ldr	r0, [r0, #0]
  203fc6:	7812      	ldrb	r2, [r2, #0]
  203fc8:	3906      	subs	r1, #6
  203fca:	fb11 0102 	smlabb	r1, r1, r2, r0
  203fce:	784b      	ldrb	r3, [r1, #1]
  203fd0:	f043 0380 	orr.w	r3, r3, #128	; 0x80
  203fd4:	704b      	strb	r3, [r1, #1]
  203fd6:	f810 1032 	ldrb.w	r1, [r0, r2, lsl #3]
  203fda:	f041 0104 	orr.w	r1, r1, #4
  203fde:	f800 1032 	strb.w	r1, [r0, r2, lsl #3]
  203fe2:	f04f 30aa 	mov.w	r0, #2863311530	; 0xaaaaaaaa
  203fe6:	40e8      	lsrs	r0, r5
  203fe8:	07c0      	lsls	r0, r0, #31
  203fea:	d11b      	bne.n	204024 <benchmark_qrduino+0x2dd0>
  203fec:	f242 0111 	movw	r1, #8209	; 0x2011
  203ff0:	f242 0024 	movw	r0, #8228	; 0x2024
  203ff4:	f6c2 0120 	movt	r1, #10272	; 0x2820
  203ff8:	f242 0210 	movw	r2, #8208	; 0x2010
  203ffc:	f6c2 0020 	movt	r0, #10272	; 0x2820
  204000:	7809      	ldrb	r1, [r1, #0]
  204002:	f6c2 0220 	movt	r2, #10272	; 0x2820
  204006:	6800      	ldr	r0, [r0, #0]
  204008:	7812      	ldrb	r2, [r2, #0]
  20400a:	3905      	subs	r1, #5
  20400c:	fb11 0102 	smlabb	r1, r1, r2, r0
  204010:	784b      	ldrb	r3, [r1, #1]
  204012:	f043 0380 	orr.w	r3, r3, #128	; 0x80
  204016:	704b      	strb	r3, [r1, #1]
  204018:	f810 1032 	ldrb.w	r1, [r0, r2, lsl #3]
  20401c:	f041 0108 	orr.w	r1, r1, #8
  204020:	f800 1032 	strb.w	r1, [r0, r2, lsl #3]
  204024:	f04f 3033 	mov.w	r0, #858993459	; 0x33333333
  204028:	40e8      	lsrs	r0, r5
  20402a:	07c0      	lsls	r0, r0, #31
  20402c:	d11b      	bne.n	204066 <benchmark_qrduino+0x2e12>
  20402e:	f242 0111 	movw	r1, #8209	; 0x2011
  204032:	f242 0024 	movw	r0, #8228	; 0x2024
  204036:	f6c2 0120 	movt	r1, #10272	; 0x2820
  20403a:	f242 0210 	movw	r2, #8208	; 0x2010
  20403e:	f6c2 0020 	movt	r0, #10272	; 0x2820
  204042:	7809      	ldrb	r1, [r1, #0]
  204044:	f6c2 0220 	movt	r2, #10272	; 0x2820
  204048:	6800      	ldr	r0, [r0, #0]
  20404a:	7812      	ldrb	r2, [r2, #0]
  20404c:	3904      	subs	r1, #4
  20404e:	fb11 0102 	smlabb	r1, r1, r2, r0
  204052:	784b      	ldrb	r3, [r1, #1]
  204054:	f043 0380 	orr.w	r3, r3, #128	; 0x80
  204058:	704b      	strb	r3, [r1, #1]
  20405a:	f810 1032 	ldrb.w	r1, [r0, r2, lsl #3]
  20405e:	f041 0110 	orr.w	r1, r1, #16
  204062:	f800 1032 	strb.w	r1, [r0, r2, lsl #3]
  204066:	f04f 30f0 	mov.w	r0, #4042322160	; 0xf0f0f0f0
  20406a:	40e8      	lsrs	r0, r5
  20406c:	07c0      	lsls	r0, r0, #31
  20406e:	d11b      	bne.n	2040a8 <benchmark_qrduino+0x2e54>
  204070:	f242 0111 	movw	r1, #8209	; 0x2011
  204074:	f242 0024 	movw	r0, #8228	; 0x2024
  204078:	f6c2 0120 	movt	r1, #10272	; 0x2820
  20407c:	f242 0210 	movw	r2, #8208	; 0x2010
  204080:	f6c2 0020 	movt	r0, #10272	; 0x2820
  204084:	7809      	ldrb	r1, [r1, #0]
  204086:	f6c2 0220 	movt	r2, #10272	; 0x2820
  20408a:	6800      	ldr	r0, [r0, #0]
  20408c:	7812      	ldrb	r2, [r2, #0]
  20408e:	3903      	subs	r1, #3
  204090:	fb11 0102 	smlabb	r1, r1, r2, r0
  204094:	784b      	ldrb	r3, [r1, #1]
  204096:	f043 0380 	orr.w	r3, r3, #128	; 0x80
  20409a:	704b      	strb	r3, [r1, #1]
  20409c:	f810 1032 	ldrb.w	r1, [r0, r2, lsl #3]
  2040a0:	f041 0120 	orr.w	r1, r1, #32
  2040a4:	f800 1032 	strb.w	r1, [r0, r2, lsl #3]
  2040a8:	f04f 20ff 	mov.w	r0, #4278255360	; 0xff00ff00
  2040ac:	40e8      	lsrs	r0, r5
  2040ae:	07c0      	lsls	r0, r0, #31
  2040b0:	d11b      	bne.n	2040ea <benchmark_qrduino+0x2e96>
  2040b2:	f242 0111 	movw	r1, #8209	; 0x2011
  2040b6:	f242 0024 	movw	r0, #8228	; 0x2024
  2040ba:	f6c2 0120 	movt	r1, #10272	; 0x2820
  2040be:	f242 0210 	movw	r2, #8208	; 0x2010
  2040c2:	f6c2 0020 	movt	r0, #10272	; 0x2820
  2040c6:	7809      	ldrb	r1, [r1, #0]
  2040c8:	f6c2 0220 	movt	r2, #10272	; 0x2820
  2040cc:	6800      	ldr	r0, [r0, #0]
  2040ce:	7812      	ldrb	r2, [r2, #0]
  2040d0:	3902      	subs	r1, #2
  2040d2:	fb11 0102 	smlabb	r1, r1, r2, r0
  2040d6:	784b      	ldrb	r3, [r1, #1]
  2040d8:	f043 0380 	orr.w	r3, r3, #128	; 0x80
  2040dc:	704b      	strb	r3, [r1, #1]
  2040de:	f810 1032 	ldrb.w	r1, [r0, r2, lsl #3]
  2040e2:	f041 0140 	orr.w	r1, r1, #64	; 0x40
  2040e6:	f800 1032 	strb.w	r1, [r0, r2, lsl #3]
  2040ea:	f025 000f 	bic.w	r0, r5, #15
  2040ee:	2810      	cmp	r0, #16
  2040f0:	d01b      	beq.n	20412a <benchmark_qrduino+0x2ed6>
  2040f2:	f242 0111 	movw	r1, #8209	; 0x2011
  2040f6:	f242 0024 	movw	r0, #8228	; 0x2024
  2040fa:	f6c2 0120 	movt	r1, #10272	; 0x2820
  2040fe:	f242 0210 	movw	r2, #8208	; 0x2010
  204102:	f6c2 0020 	movt	r0, #10272	; 0x2820
  204106:	7809      	ldrb	r1, [r1, #0]
  204108:	f6c2 0220 	movt	r2, #10272	; 0x2820
  20410c:	6800      	ldr	r0, [r0, #0]
  20410e:	7812      	ldrb	r2, [r2, #0]
  204110:	3901      	subs	r1, #1
  204112:	fb11 0102 	smlabb	r1, r1, r2, r0
  204116:	784b      	ldrb	r3, [r1, #1]
  204118:	f043 0380 	orr.w	r3, r3, #128	; 0x80
  20411c:	704b      	strb	r3, [r1, #1]
  20411e:	f810 1032 	ldrb.w	r1, [r0, r2, lsl #3]
  204122:	f041 0180 	orr.w	r1, r1, #128	; 0x80
  204126:	f800 1032 	strb.w	r1, [r0, r2, lsl #3]
  20412a:	b019      	add	sp, #100	; 0x64
  20412c:	e8bd 8ff0 	ldmia.w	sp!, {r4, r5, r6, r7, r8, r9, sl, fp, pc}

00204130 <main>:
  204130:	b082      	sub	sp, #8
  204132:	2500      	movs	r5, #0
  204134:	f241 0404 	movw	r4, #4100	; 0x1004
  204138:	f44f 3080 	mov.w	r0, #65536	; 0x10000
  20413c:	f2ce 0400 	movt	r4, #57344	; 0xe000
  204140:	9501      	str	r5, [sp, #4]
  204142:	f000 fa56 	bl	2045f2 <putalign+0x34e>
  204146:	6025      	str	r5, [r4, #0]
  204148:	f240 0508 	movw	r5, #8
  20414c:	f240 0904 	movw	r9, #4
  204150:	f644 1aa0 	movw	sl, #18848	; 0x49a0
  204154:	f240 0b00 	movw	fp, #0
  204158:	f242 0408 	movw	r4, #8200	; 0x2008
  20415c:	f6c2 0520 	movt	r5, #10272	; 0x2820
  204160:	f242 070c 	movw	r7, #8204	; 0x200c
  204164:	f44f 7880 	mov.w	r8, #256	; 0x100
  204168:	f6c2 0920 	movt	r9, #10272	; 0x2820
  20416c:	f2c0 0a20 	movt	sl, #32
  204170:	f6c2 0b20 	movt	fp, #10272	; 0x2820
  204174:	f6c2 0420 	movt	r4, #10272	; 0x2820
  204178:	f505 5600 	add.w	r6, r5, #8192	; 0x2000
  20417c:	f6c2 0720 	movt	r7, #10272	; 0x2820
  204180:	2001      	movs	r0, #1
  204182:	f8c9 a000 	str.w	sl, [r9]
  204186:	f88b 0000 	strb.w	r0, [fp]
  20418a:	6025      	str	r5, [r4, #0]
  20418c:	603e      	str	r6, [r7, #0]
  20418e:	9801      	ldr	r0, [sp, #4]
  204190:	f7fd f860 	bl	201254 <benchmark_qrduino>
  204194:	2000      	movs	r0, #0
  204196:	9001      	str	r0, [sp, #4]
  204198:	9801      	ldr	r0, [sp, #4]
  20419a:	f1b8 0801 	subs.w	r8, r8, #1
  20419e:	d1ef      	bne.n	204180 <main+0x50>
  2041a0:	f241 0804 	movw	r8, #4100	; 0x1004
  2041a4:	f2ce 0800 	movt	r8, #57344	; 0xe000
  2041a8:	f8d8 0000 	ldr.w	r0, [r8]
  2041ac:	f000 fa26 	bl	2045fc <putalign+0x358>
  2041b0:	2000      	movs	r0, #0
  2041b2:	f8c8 0000 	str.w	r0, [r8]
  2041b6:	f44f 7880 	mov.w	r8, #256	; 0x100
  2041ba:	bf00      	nop
  2041bc:	2001      	movs	r0, #1
  2041be:	f8c9 a000 	str.w	sl, [r9]
  2041c2:	f88b 0000 	strb.w	r0, [fp]
  2041c6:	6025      	str	r5, [r4, #0]
  2041c8:	603e      	str	r6, [r7, #0]
  2041ca:	9801      	ldr	r0, [sp, #4]
  2041cc:	f7fd f842 	bl	201254 <benchmark_qrduino>
  2041d0:	2000      	movs	r0, #0
  2041d2:	9001      	str	r0, [sp, #4]
  2041d4:	9801      	ldr	r0, [sp, #4]
  2041d6:	f1b8 0801 	subs.w	r8, r8, #1
  2041da:	d1ef      	bne.n	2041bc <main+0x8c>
  2041dc:	f241 0804 	movw	r8, #4100	; 0x1004
  2041e0:	f2ce 0800 	movt	r8, #57344	; 0xe000
  2041e4:	f8d8 0000 	ldr.w	r0, [r8]
  2041e8:	f000 fa08 	bl	2045fc <putalign+0x358>
  2041ec:	2000      	movs	r0, #0
  2041ee:	f8c8 0000 	str.w	r0, [r8]
  2041f2:	f44f 7880 	mov.w	r8, #256	; 0x100
  2041f6:	bf00      	nop
  2041f8:	2001      	movs	r0, #1
  2041fa:	f8c9 a000 	str.w	sl, [r9]
  2041fe:	f88b 0000 	strb.w	r0, [fp]
  204202:	6025      	str	r5, [r4, #0]
  204204:	603e      	str	r6, [r7, #0]
  204206:	9801      	ldr	r0, [sp, #4]
  204208:	f7fd f824 	bl	201254 <benchmark_qrduino>
  20420c:	2000      	movs	r0, #0
  20420e:	9001      	str	r0, [sp, #4]
  204210:	9801      	ldr	r0, [sp, #4]
  204212:	f1b8 0801 	subs.w	r8, r8, #1
  204216:	d1ef      	bne.n	2041f8 <main+0xc8>
  204218:	f241 0804 	movw	r8, #4100	; 0x1004
  20421c:	f2ce 0800 	movt	r8, #57344	; 0xe000
  204220:	f8d8 0000 	ldr.w	r0, [r8]
  204224:	f000 f9ea 	bl	2045fc <putalign+0x358>
  204228:	2000      	movs	r0, #0
  20422a:	f8c8 0000 	str.w	r0, [r8]
  20422e:	f44f 7880 	mov.w	r8, #256	; 0x100
  204232:	bf00      	nop
  204234:	2001      	movs	r0, #1
  204236:	f8c9 a000 	str.w	sl, [r9]
  20423a:	f88b 0000 	strb.w	r0, [fp]
  20423e:	6025      	str	r5, [r4, #0]
  204240:	603e      	str	r6, [r7, #0]
  204242:	9801      	ldr	r0, [sp, #4]
  204244:	f7fd f806 	bl	201254 <benchmark_qrduino>
  204248:	2000      	movs	r0, #0
  20424a:	9001      	str	r0, [sp, #4]
  20424c:	9801      	ldr	r0, [sp, #4]
  20424e:	f1b8 0801 	subs.w	r8, r8, #1
  204252:	d1ef      	bne.n	204234 <main+0x104>
  204254:	f241 0804 	movw	r8, #4100	; 0x1004
  204258:	f2ce 0800 	movt	r8, #57344	; 0xe000
  20425c:	f8d8 0000 	ldr.w	r0, [r8]
  204260:	f000 f9cc 	bl	2045fc <putalign+0x358>
  204264:	2000      	movs	r0, #0
  204266:	f8c8 0000 	str.w	r0, [r8]
  20426a:	f44f 7880 	mov.w	r8, #256	; 0x100
  20426e:	bf00      	nop
  204270:	2001      	movs	r0, #1
  204272:	f8c9 a000 	str.w	sl, [r9]
  204276:	f88b 0000 	strb.w	r0, [fp]
  20427a:	6025      	str	r5, [r4, #0]
  20427c:	603e      	str	r6, [r7, #0]
  20427e:	9801      	ldr	r0, [sp, #4]
  204280:	f7fc ffe8 	bl	201254 <benchmark_qrduino>
  204284:	2000      	movs	r0, #0
  204286:	9001      	str	r0, [sp, #4]
  204288:	9801      	ldr	r0, [sp, #4]
  20428a:	f1b8 0801 	subs.w	r8, r8, #1
  20428e:	d1ef      	bne.n	204270 <main+0x140>
  204290:	f241 0004 	movw	r0, #4100	; 0x1004
  204294:	f2ce 0000 	movt	r0, #57344	; 0xe000
  204298:	6800      	ldr	r0, [r0, #0]
  20429a:	f000 f9af 	bl	2045fc <putalign+0x358>
  20429e:	bf00      	nop
  2042a0:	e7fe      	b.n	2042a0 <main+0x170>
	...

002042a4 <putalign>:
  2042a4:	e92d 4ff0 	stmdb	sp!, {r4, r5, r6, r7, r8, r9, sl, fp, lr}
  2042a8:	b089      	sub	sp, #36	; 0x24
  2042aa:	4686      	mov	lr, r0
  2042ac:	f242 0010 	movw	r0, #8208	; 0x2010
  2042b0:	f6c2 0020 	movt	r0, #10272	; 0x2820
  2042b4:	f890 8000 	ldrb.w	r8, [r0]
  2042b8:	468c      	mov	ip, r1
  2042ba:	f242 0014 	movw	r0, #8212	; 0x2014
  2042be:	fb08 f101 	mul.w	r1, r8, r1
  2042c2:	f6c2 0020 	movt	r0, #10272	; 0x2820
  2042c6:	6807      	ldr	r7, [r0, #0]
  2042c8:	eb01 06ee 	add.w	r6, r1, lr, asr #3
  2042cc:	f00e 0307 	and.w	r3, lr, #7
  2042d0:	2080      	movs	r0, #128	; 0x80
  2042d2:	5dbd      	ldrb	r5, [r7, r6]
  2042d4:	40d8      	lsrs	r0, r3
  2042d6:	ea45 0300 	orr.w	r3, r5, r0
  2042da:	55bb      	strb	r3, [r7, r6]
  2042dc:	f1ac 0302 	sub.w	r3, ip, #2
  2042e0:	fb03 fb08 	mul.w	fp, r3, r8
  2042e4:	f1ae 0a02 	sub.w	sl, lr, #2
  2042e8:	eb0b 06ea 	add.w	r6, fp, sl, asr #3
  2042ec:	9108      	str	r1, [sp, #32]
  2042ee:	9004      	str	r0, [sp, #16]
  2042f0:	2180      	movs	r1, #128	; 0x80
  2042f2:	f00a 0307 	and.w	r3, sl, #7
  2042f6:	f1ac 0001 	sub.w	r0, ip, #1
  2042fa:	fa21 f203 	lsr.w	r2, r1, r3
  2042fe:	5dbb      	ldrb	r3, [r7, r6]
  204300:	9007      	str	r0, [sp, #28]
  204302:	fb00 f008 	mul.w	r0, r0, r8
  204306:	4313      	orrs	r3, r2
  204308:	eb00 04ea 	add.w	r4, r0, sl, asr #3
  20430c:	55bb      	strb	r3, [r7, r6]
  20430e:	5d3b      	ldrb	r3, [r7, r4]
  204310:	f10e 0502 	add.w	r5, lr, #2
  204314:	4313      	orrs	r3, r2
  204316:	eb0b 06e5 	add.w	r6, fp, r5, asr #3
  20431a:	553b      	strb	r3, [r7, r4]
  20431c:	f005 0407 	and.w	r4, r5, #7
  204320:	f817 9006 	ldrb.w	r9, [r7, r6]
  204324:	9003      	str	r0, [sp, #12]
  204326:	fa21 f004 	lsr.w	r0, r1, r4
  20432a:	ea49 0400 	orr.w	r4, r9, r0
  20432e:	4681      	mov	r9, r0
  204330:	f10c 0002 	add.w	r0, ip, #2
  204334:	fb00 f308 	mul.w	r3, r0, r8
  204338:	55bc      	strb	r4, [r7, r6]
  20433a:	f1ae 0601 	sub.w	r6, lr, #1
  20433e:	eb03 04e6 	add.w	r4, r3, r6, asr #3
  204342:	9200      	str	r2, [sp, #0]
  204344:	9006      	str	r0, [sp, #24]
  204346:	f006 0207 	and.w	r2, r6, #7
  20434a:	5d38      	ldrb	r0, [r7, r4]
  20434c:	fa21 f202 	lsr.w	r2, r1, r2
  204350:	ea40 0102 	orr.w	r1, r0, r2
  204354:	eb0b 00e6 	add.w	r0, fp, r6, asr #3
  204358:	5539      	strb	r1, [r7, r4]
  20435a:	5c3c      	ldrb	r4, [r7, r0]
  20435c:	9908      	ldr	r1, [sp, #32]
  20435e:	4322      	orrs	r2, r4
  204360:	eb01 04ea 	add.w	r4, r1, sl, asr #3
  204364:	543a      	strb	r2, [r7, r0]
  204366:	5d38      	ldrb	r0, [r7, r4]
  204368:	9900      	ldr	r1, [sp, #0]
  20436a:	9a03      	ldr	r2, [sp, #12]
  20436c:	4308      	orrs	r0, r1
  20436e:	eb02 02e5 	add.w	r2, r2, r5, asr #3
  204372:	5538      	strb	r0, [r7, r4]
  204374:	5cb8      	ldrb	r0, [r7, r2]
  204376:	eb03 04ee 	add.w	r4, r3, lr, asr #3
  20437a:	ea40 0009 	orr.w	r0, r0, r9
  20437e:	54b8      	strb	r0, [r7, r2]
  204380:	9301      	str	r3, [sp, #4]
  204382:	5d38      	ldrb	r0, [r7, r4]
  204384:	9b04      	ldr	r3, [sp, #16]
  204386:	eb0b 02ee 	add.w	r2, fp, lr, asr #3
  20438a:	4318      	orrs	r0, r3
  20438c:	5538      	strb	r0, [r7, r4]
  20438e:	f10c 0401 	add.w	r4, ip, #1
  204392:	9605      	str	r6, [sp, #20]
  204394:	5cbe      	ldrb	r6, [r7, r2]
  204396:	fb04 f008 	mul.w	r0, r4, r8
  20439a:	431e      	orrs	r6, r3
  20439c:	eb00 00ea 	add.w	r0, r0, sl, asr #3
  2043a0:	54be      	strb	r6, [r7, r2]
  2043a2:	5c3a      	ldrb	r2, [r7, r0]
  2043a4:	f10e 0801 	add.w	r8, lr, #1
  2043a8:	ea42 0601 	orr.w	r6, r2, r1
  2043ac:	9a08      	ldr	r2, [sp, #32]
  2043ae:	543e      	strb	r6, [r7, r0]
  2043b0:	eb02 02e5 	add.w	r2, r2, r5, asr #3
  2043b4:	f008 0607 	and.w	r6, r8, #7
  2043b8:	5cb8      	ldrb	r0, [r7, r2]
  2043ba:	2380      	movs	r3, #128	; 0x80
  2043bc:	ea40 0009 	orr.w	r0, r0, r9
  2043c0:	54b8      	strb	r0, [r7, r2]
  2043c2:	9801      	ldr	r0, [sp, #4]
  2043c4:	fa23 f606 	lsr.w	r6, r3, r6
  2043c8:	eb00 00e8 	add.w	r0, r0, r8, asr #3
  2043cc:	f8cd 9008 	str.w	r9, [sp, #8]
  2043d0:	5c3a      	ldrb	r2, [r7, r0]
  2043d2:	ea42 0906 	orr.w	r9, r2, r6
  2043d6:	eb0b 02e8 	add.w	r2, fp, r8, asr #3
  2043da:	f807 9000 	strb.w	r9, [r7, r0]
  2043de:	5cb8      	ldrb	r0, [r7, r2]
  2043e0:	f8dd 9014 	ldr.w	r9, [sp, #20]
  2043e4:	4330      	orrs	r0, r6
  2043e6:	54b8      	strb	r0, [r7, r2]
  2043e8:	f242 0010 	movw	r0, #8208	; 0x2010
  2043ec:	f6c2 0020 	movt	r0, #10272	; 0x2820
  2043f0:	7800      	ldrb	r0, [r0, #0]
  2043f2:	9a06      	ldr	r2, [sp, #24]
  2043f4:	f242 0714 	movw	r7, #8212	; 0x2014
  2043f8:	fb02 f200 	mul.w	r2, r2, r0
  2043fc:	f6c2 0720 	movt	r7, #10272	; 0x2820
  204400:	683f      	ldr	r7, [r7, #0]
  204402:	eb02 06ea 	add.w	r6, r2, sl, asr #3
  204406:	fb04 f000 	mul.w	r0, r4, r0
  20440a:	5dbb      	ldrb	r3, [r7, r6]
  20440c:	eb00 00e5 	add.w	r0, r0, r5, asr #3
  204410:	4319      	orrs	r1, r3
  204412:	55b9      	strb	r1, [r7, r6]
  204414:	5c3e      	ldrb	r6, [r7, r0]
  204416:	9902      	ldr	r1, [sp, #8]
  204418:	eb02 02e5 	add.w	r2, r2, r5, asr #3
  20441c:	430e      	orrs	r6, r1
  20441e:	543e      	strb	r6, [r7, r0]
  204420:	5cb8      	ldrb	r0, [r7, r2]
  204422:	464e      	mov	r6, r9
  204424:	4308      	orrs	r0, r1
  204426:	54b8      	strb	r0, [r7, r2]
  204428:	fa5f f089 	uxtb.w	r0, r9
  20442c:	fa5f f28c 	uxtb.w	r2, ip
  204430:	9008      	str	r0, [sp, #32]
  204432:	4290      	cmp	r0, r2
  204434:	4660      	mov	r0, ip
  204436:	bf88      	it	hi
  204438:	4648      	movhi	r0, r9
  20443a:	b2c3      	uxtb	r3, r0
  20443c:	fb03 f303 	mul.w	r3, r3, r3
  204440:	bf88      	it	hi
  204442:	4666      	movhi	r6, ip
  204444:	f04f 0a80 	mov.w	sl, #128	; 0x80
  204448:	fa53 f080 	uxtab	r0, r3, r0
  20444c:	fa5f f788 	uxtb.w	r7, r8
  204450:	0840      	lsrs	r0, r0, #1
  204452:	fa50 f386 	uxtab	r3, r0, r6
  204456:	4297      	cmp	r7, r2
  204458:	f003 0007 	and.w	r0, r3, #7
  20445c:	fa2a f500 	lsr.w	r5, sl, r0
  204460:	f242 0018 	movw	r0, #8216	; 0x2018
  204464:	f6c2 0020 	movt	r0, #10272	; 0x2820
  204468:	6806      	ldr	r6, [r0, #0]
  20446a:	ea4f 00d3 	mov.w	r0, r3, lsr #3
  20446e:	4642      	mov	r2, r8
  204470:	9706      	str	r7, [sp, #24]
  204472:	5c33      	ldrb	r3, [r6, r0]
  204474:	bf84      	itt	hi
  204476:	4662      	movhi	r2, ip
  204478:	46c4      	movhi	ip, r8
  20447a:	fa5f f78c 	uxtb.w	r7, ip
  20447e:	fb07 f707 	mul.w	r7, r7, r7
  204482:	431d      	orrs	r5, r3
  204484:	fa57 f38c 	uxtab	r3, r7, ip
  204488:	f8dd b01c 	ldr.w	fp, [sp, #28]
  20448c:	085b      	lsrs	r3, r3, #1
  20448e:	fa53 f282 	uxtab	r2, r3, r2
  204492:	fa5f f78e 	uxtb.w	r7, lr
  204496:	fa5f f18b 	uxtb.w	r1, fp
  20449a:	5435      	strb	r5, [r6, r0]
  20449c:	f002 0007 	and.w	r0, r2, #7
  2044a0:	465d      	mov	r5, fp
  2044a2:	9104      	str	r1, [sp, #16]
  2044a4:	fa2a f000 	lsr.w	r0, sl, r0
  2044a8:	08d2      	lsrs	r2, r2, #3
  2044aa:	42b9      	cmp	r1, r7
  2044ac:	bf38      	it	cc
  2044ae:	4675      	movcc	r5, lr
  2044b0:	fa5f fa85 	uxtb.w	sl, r5
  2044b4:	5cb3      	ldrb	r3, [r6, r2]
  2044b6:	fb0a fa0a 	mul.w	sl, sl, sl
  2044ba:	ea40 0003 	orr.w	r0, r0, r3
  2044be:	fa5a f385 	uxtab	r3, sl, r5
  2044c2:	4675      	mov	r5, lr
  2044c4:	ea4f 0353 	mov.w	r3, r3, lsr #1
  2044c8:	bf38      	it	cc
  2044ca:	465d      	movcc	r5, fp
  2044cc:	fa53 f385 	uxtab	r3, r3, r5
  2044d0:	fa5f fa84 	uxtb.w	sl, r4
  2044d4:	54b0      	strb	r0, [r6, r2]
  2044d6:	f003 0007 	and.w	r0, r3, #7
  2044da:	08da      	lsrs	r2, r3, #3
  2044dc:	45ba      	cmp	sl, r7
  2044de:	4673      	mov	r3, lr
  2044e0:	bf28      	it	cs
  2044e2:	46a6      	movcs	lr, r4
  2044e4:	fa5f f58e 	uxtb.w	r5, lr
  2044e8:	fb05 f505 	mul.w	r5, r5, r5
  2044ec:	f04f 0c80 	mov.w	ip, #128	; 0x80
  2044f0:	fa55 f18e 	uxtab	r1, r5, lr
  2044f4:	5cb7      	ldrb	r7, [r6, r2]
  2044f6:	bf38      	it	cc
  2044f8:	4623      	movcc	r3, r4
  2044fa:	0849      	lsrs	r1, r1, #1
  2044fc:	fa2c f000 	lsr.w	r0, ip, r0
  204500:	fa51 f183 	uxtab	r1, r1, r3
  204504:	4338      	orrs	r0, r7
  204506:	f8dd e020 	ldr.w	lr, [sp, #32]
  20450a:	54b0      	strb	r0, [r6, r2]
  20450c:	f001 0007 	and.w	r0, r1, #7
  204510:	08c9      	lsrs	r1, r1, #3
  204512:	4623      	mov	r3, r4
  204514:	5c72      	ldrb	r2, [r6, r1]
  204516:	45d6      	cmp	lr, sl
  204518:	bf88      	it	hi
  20451a:	464b      	movhi	r3, r9
  20451c:	b2dd      	uxtb	r5, r3
  20451e:	fb05 f505 	mul.w	r5, r5, r5
  204522:	fa2c f000 	lsr.w	r0, ip, r0
  204526:	ea40 0002 	orr.w	r0, r0, r2
  20452a:	fa55 f283 	uxtab	r2, r5, r3
  20452e:	464b      	mov	r3, r9
  204530:	ea4f 0252 	mov.w	r2, r2, lsr #1
  204534:	bf88      	it	hi
  204536:	4623      	movhi	r3, r4
  204538:	fa52 f283 	uxtab	r2, r2, r3
  20453c:	2780      	movs	r7, #128	; 0x80
  20453e:	5470      	strb	r0, [r6, r1]
  204540:	f002 0007 	and.w	r0, r2, #7
  204544:	fa27 f000 	lsr.w	r0, r7, r0
  204548:	f8dd c018 	ldr.w	ip, [sp, #24]
  20454c:	9f04      	ldr	r7, [sp, #16]
  20454e:	08d1      	lsrs	r1, r2, #3
  204550:	465b      	mov	r3, fp
  204552:	5c72      	ldrb	r2, [r6, r1]
  204554:	45bc      	cmp	ip, r7
  204556:	bf88      	it	hi
  204558:	4643      	movhi	r3, r8
  20455a:	b2dd      	uxtb	r5, r3
  20455c:	fb05 f505 	mul.w	r5, r5, r5
  204560:	ea40 0002 	orr.w	r0, r0, r2
  204564:	fa55 f283 	uxtab	r2, r5, r3
  204568:	4643      	mov	r3, r8
  20456a:	ea4f 0252 	mov.w	r2, r2, lsr #1
  20456e:	bf88      	it	hi
  204570:	465b      	movhi	r3, fp
  204572:	fa52 f283 	uxtab	r2, r2, r3
  204576:	5470      	strb	r0, [r6, r1]
  204578:	f002 0007 	and.w	r0, r2, #7
  20457c:	2180      	movs	r1, #128	; 0x80
  20457e:	fa21 f000 	lsr.w	r0, r1, r0
  204582:	08d1      	lsrs	r1, r2, #3
  204584:	464b      	mov	r3, r9
  204586:	4577      	cmp	r7, lr
  204588:	5c72      	ldrb	r2, [r6, r1]
  20458a:	bf3c      	itt	cc
  20458c:	465b      	movcc	r3, fp
  20458e:	46cb      	movcc	fp, r9
  204590:	fa5f f78b 	uxtb.w	r7, fp
  204594:	fb07 f707 	mul.w	r7, r7, r7
  204598:	4310      	orrs	r0, r2
  20459a:	fa57 f28b 	uxtab	r2, r7, fp
  20459e:	5470      	strb	r0, [r6, r1]
  2045a0:	0850      	lsrs	r0, r2, #1
  2045a2:	f242 0218 	movw	r2, #8216	; 0x2018
  2045a6:	fa50 f083 	uxtab	r0, r0, r3
  2045aa:	f6c2 0220 	movt	r2, #10272	; 0x2820
  2045ae:	4643      	mov	r3, r8
  2045b0:	45e2      	cmp	sl, ip
  2045b2:	6812      	ldr	r2, [r2, #0]
  2045b4:	bf3c      	itt	cc
  2045b6:	4623      	movcc	r3, r4
  2045b8:	4644      	movcc	r4, r8
  2045ba:	b2e7      	uxtb	r7, r4
  2045bc:	fb07 f707 	mul.w	r7, r7, r7
  2045c0:	f000 0107 	and.w	r1, r0, #7
  2045c4:	fa57 f784 	uxtab	r7, r7, r4
  2045c8:	08c0      	lsrs	r0, r0, #3
  2045ca:	5c16      	ldrb	r6, [r2, r0]
  2045cc:	2580      	movs	r5, #128	; 0x80
  2045ce:	087f      	lsrs	r7, r7, #1
  2045d0:	fa25 f101 	lsr.w	r1, r5, r1
  2045d4:	fa57 f383 	uxtab	r3, r7, r3
  2045d8:	4331      	orrs	r1, r6
  2045da:	5411      	strb	r1, [r2, r0]
  2045dc:	08d9      	lsrs	r1, r3, #3
  2045de:	f003 0007 	and.w	r0, r3, #7
  2045e2:	5c53      	ldrb	r3, [r2, r1]
  2045e4:	fa25 f000 	lsr.w	r0, r5, r0
  2045e8:	4318      	orrs	r0, r3
  2045ea:	5450      	strb	r0, [r2, r1]
  2045ec:	b009      	add	sp, #36	; 0x24
  2045ee:	e8bd 8ff0 	ldmia.w	sp!, {r4, r5, r6, r7, r8, r9, sl, fp, pc}
  2045f2:	f64f 6c11 	movw	ip, #65041	; 0xfe11
  2045f6:	f2c1 0c1f 	movt	ip, #4127	; 0x101f
  2045fa:	4760      	bx	ip
  2045fc:	f64f 6c19 	movw	ip, #65049	; 0xfe19
  204600:	f2c1 0c1f 	movt	ip, #4127	; 0x101f
  204604:	4760      	bx	ip

00204606 <_fp_init>:
  204606:	eef1 0a10 	vmrs	r0, fpscr
  20460a:	f64f 71ff 	movw	r1, #65535	; 0xffff
  20460e:	f2c0 31c0 	movt	r1, #960	; 0x3c0
  204612:	ea20 0001 	bic.w	r0, r0, r1
  204616:	f040 7040 	orr.w	r0, r0, #50331648	; 0x3000000
  20461a:	eee1 0a10 	vmsr	fpscr, r0

0020461e <__fplib_config_fpu_vfp>:
  20461e:	4770      	bx	lr

00204620 <g0log>:
  204620:	00ff 1901 3202 c61a df03 ee33 681b 4bc7     .....2....3..h.K
  204630:	6404 0ee0 8d34 81ef c11c f869 08c8 714c     .d..4.....i...Lq
  204640:	8a05 2f65 24e1 210f 9335 da8e 12f0 4582     ..e/.$.!5......E
  204650:	b51d 7dc2 276a b9f9 9ac9 7809 e44d a672     ...}j'.....xM.r.
  204660:	bf06 628b dd66 fd30 98e2 b325 9110 8822     ...bf.0...%...".
  204670:	d036 ce94 968f bddb d2f1 5c13 3883 4046     6..........\.8F@
  204680:	421e a3b6 48c3 6e7e 3a6b 5428 85fa 3dba     .B...H~nk:(T...=
  204690:	5eca 9f9b 150a 2b79 d44e ace5 f373 57a7     .^....y+N...s..W
  2046a0:	7007 f7c0 808c 0d63 4a67 edde c531 18fe     .p....c.gJ..1...
  2046b0:	a5e3 7799 b826 7cb4 4411 d992 2023 2e89     ...w&..|.D..# ..
  2046c0:	3f37 5bd1 bc95 cdcf 8790 b297 fcdc 61be     7?.[...........a
  2046d0:	56f2 abd3 2a14 9e5d 3c84 5339 6d47 a241     .V...*]..<9SGmA.
  2046e0:	2d1f d843 7bb7 76a4 17c4 ec49 0c7f f66f     .-C..{.v..I...o.
  2046f0:	a16c 523b 9d29 aa55 60fb b186 ccbb 5a3e     l.;R).U..`....>Z
  204700:	59cb b05f a99c 51a0 f50b eb16 757a d72c     .Y_....Q....zu,.
  204710:	ae4f e9d5 e7e6 e8ad d674 eaf4 50a8 af58     O.......t....PX.

00204720 <eccblocks>:
  204720:	0001 0713 0001 0a10 0001 0d0d 0001 1109     ................
  204730:	0001 0a22 0001 101c 0001 1616 0001 1c10     ..".............
  204740:	0001 0f37 0001 1a2c 0002 1211 0002 160d     ..7...,.........
  204750:	0001 1450 0002 1220 0002 1a18 0004 1009     ..P... .........
  204760:	0001 1a6c 0002 182b 0202 120f 0202 160b     ..l...+.........
  204770:	0002 1244 0004 101b 0004 1813 0004 1c0f     ..D.............
  204780:	0002 144e 0004 121f 0402 120e 0104 1a0d     ..N.............
  204790:	0002 1861 0202 1626 0204 1612 0204 1a0e     ..a...&.........
  2047a0:	0002 1e74 0203 1624 0404 1410 0404 180c     ..t...$.........
  2047b0:	0202 1244 0104 1a2b 0206 1813 0206 1c0f     ..D...+.........
  2047c0:	0004 1451 0401 1e32 0404 1c16 0803 180c     ..Q...2.........
  2047d0:	0202 185c 0206 1624 0604 1a14 0407 1c0e     ..\...$.........
  2047e0:	0004 1a6b 0108 1625 0408 1814 040c 160b     ..k...%.........
  2047f0:	0103 1e73 0504 1828 050b 1410 050b 180c     ..s...(.........
  204800:	0105 1657 0505 1829 0705 1e18 070b 180c     ..W...).........
  204810:	0105 1862 0307 1c2d 020f 1813 0d03 1e0f     ..b...-.........
  204820:	0501 1c6b 010a 1c2e 0f01 1c16 1102 1c0e     ..k.............
  204830:	0105 1e78 0409 1a2b 0111 1c16 1302 1c0e     ..x...+.........
  204840:	0403 1c71 0b03 1a2c 0411 1a15 1009 1a0d     ..q...,.........
  204850:	0503 1c6b 0d03 1a29 050f 1e18 0a0f 1c0f     ..k...).........
  204860:	0404 1c74 0011 1a2a 0611 1c16 0613 1e10     ..t...*.........
  204870:	0702 1c6f 0011 1c2e 1007 1e18 0022 180d     ..o........."...
  204880:	0504 1e79 0e04 1c2f 0e0b 1e18 0e10 1e0f     ..y.../.........
  204890:	0406 1e75 0e06 1c2d 100b 1e18 021e 1e10     ..u...-.........
  2048a0:	0408 1a6a 0d08 1c2f 1607 1e18 0d16 1e0f     ..j.../.........
  2048b0:	020a 1c72 0413 1c2e 061c 1c16 0421 1e10     ..r.........!...
  2048c0:	0408 1e7a 0316 1c2d 1a08 1e17 1c0c 1e0f     ..z...-.........
  2048d0:	0a03 1e75 1703 1c2d 1f04 1e18 1f0b 1e0f     ..u...-.........
  2048e0:	0707 1e74 0715 1c2d 2501 1e17 1a13 1e0f     ..t...-..%......
  2048f0:	0a05 1e73 0a13 1c2f 190f 1e18 1917 1e0f     ..s.../.........
  204900:	030d 1e73 1d02 1c2e 012a 1e18 1c17 1e0f     ..s.....*.......
  204910:	0011 1e73 170a 1c2e 230a 1e18 2313 1e0f     ..s......#...#..
  204920:	0111 1e73 150e 1c2e 131d 1e18 2e0b 1e0f     ..s.............
  204930:	060d 1e73 170e 1c2e 072c 1e18 013b 1e10     ..s.....,...;...
  204940:	070c 1e79 1a0c 1c2f 0e27 1e18 2916 1e0f     ..y.../.'....)..
  204950:	0e06 1e79 2206 1c2f 0a2e 1e18 4002 1e0f     ..y.."/......@..
  204960:	0411 1e7a 0e1d 1c2e 0a31 1e18 2e18 1e0f     ..z.....1.......
  204970:	1204 1e7a 200d 1c2e 0e30 1e18 202a 1e0f     ..z.. ..0...* ..
  204980:	0414 1e75 0728 1c2f 162b 1e18 430a 1e0f     ..u.(./.+....C..
  204990:	0613 1e76 1f12 1c2f 2222 1e18 3d14 1e0f     ..v.../.""...=..

002049a0 <.L.str>:
  2049a0:	7468 7074 2f3a 772f 7777 6d2e 6761 6565     http://www.magee
  2049b0:	2e63 6f63 006d                              c.com.

002049b6 <g0exp>:
  2049b6:	0201 0804 2010 8040 3a1d e874 87cd 2613     ..... @..:t....&
  2049c6:	984c 5a2d 75b4 c9ea 038f 0c06 3018 c060     L.-Z.u.......0`.
  2049d6:	279d 9c4e 4a25 3594 d46a 77b5 c1ee 239f     .'N.%J.5j..w...#
  2049e6:	8c46 0a05 2814 a050 ba5d d269 6fb9 a1de     F....(P.].i..o..
  2049f6:	be5f c261 2f99 bc5e ca65 0f89 3c1e f078     _.a../^.e....<x.
  204a06:	e7fd bbd3 d66b 7fb1 e1fe a3df b65b e271     ....k.......[.q.
  204a16:	afd9 8643 2211 8844 1a0d 6834 bdd0 ce67     ..C.."D...4h..g.
  204a26:	1f81 7c3e edf8 93c7 763b c5ec 3397 cc66     ..>|....;v...3f.
  204a36:	1785 5c2e 6db8 a9da 9e4f 4221 1584 542a     ...\.m..O.!B..*T
  204a46:	4da8 299a a452 aa55 9249 7239 d5e4 73b7     .M.)R.U.I.9r...s
  204a56:	d1e6 63bf 91c6 7e3f e5fc b3d7 f67b fff1     ...c..?~....{...
  204a66:	dbe3 4bab 3196 c462 3795 dc6e 57a5 41ae     ...K.1b..7n..W.A
  204a76:	1982 6432 8dc8 0e07 381c e070 a7dd a653     ..2d.....8p...S.
  204a86:	a251 b259 f279 eff9 9bc3 562b 45ac 098a     Q.Y.y.....+V.E..
  204a96:	2412 9048 7a3d f5f4 f3f7 ebfb 8bcb 160b     .$H.=z..........
  204aa6:	582c 7db0 e9fa 83cf 361b d86c 47ad 008e     ,X.}.....6l..G..
	...

00204ab8 <Region$$Table$$Base>:
  204ab8:	00204ac8 	.word	0x00204ac8
  204abc:	28200000 	.word	0x28200000
  204ac0:	00002034 	.word	0x00002034
  204ac4:	0020043c 	.word	0x0020043c
