
../../Example/out/eval/O3/elf_ns/sglib_listsort.axf:     file format elf32-littlearm


Disassembly of section ER_ROM:

00200000 <__Vectors>:
  200000:	00 00 40 28 ad 04 20 00 a5 04 20 00 a9 04 20 00     ..@(.. ... ... .
  200010:	a5 04 20 00 a5 04 20 00 a5 04 20 00 a5 04 20 00     .. ... ... ... .
	...
  20002c:	a5 04 20 00 a5 04 20 00 00 00 00 00 a5 04 20 00     .. ... ....... .
  20003c:	a5 04 20 00 a5 04 20 00 a5 04 20 00 a5 04 20 00     .. ... ... ... .
  20004c:	a5 04 20 00 a5 04 20 00 a5 04 20 00 00 00 00 00     .. ... ... .....
	...
  200064:	a5 04 20 00 a5 04 20 00 a5 04 20 00 a5 04 20 00     .. ... ... ... .
	...
  2000c0:	a5 04 20 00 a5 04 20 00 a5 04 20 00 a5 04 20 00     .. ... ... ... .
  2000d0:	a5 04 20 00 a5 04 20 00 a5 04 20 00 a5 04 20 00     .. ... ... ... .
  2000e0:	a5 04 20 00 a5 04 20 00 a5 04 20 00 a5 04 20 00     .. ... ... ... .
  2000f0:	a5 04 20 00 a5 04 20 00 a5 04 20 00 a5 04 20 00     .. ... ... ... .
  200100:	a5 04 20 00 a5 04 20 00 a5 04 20 00 a5 04 20 00     .. ... ... ... .
  200110:	a5 04 20 00 a5 04 20 00 a5 04 20 00 a5 04 20 00     .. ... ... ... .
  200120:	a5 04 20 00 a5 04 20 00 a5 04 20 00 a5 04 20 00     .. ... ... ... .
  200130:	a5 04 20 00 a5 04 20 00 a5 04 20 00 a5 04 20 00     .. ... ... ... .
  200140:	a5 04 20 00 a5 04 20 00 a5 04 20 00 a5 04 20 00     .. ... ... ... .
  200150:	a5 04 20 00 a5 04 20 00 a5 04 20 00 a5 04 20 00     .. ... ... ... .
  200160:	a5 04 20 00 a5 04 20 00 a5 04 20 00 a5 04 20 00     .. ... ... ... .
  200170:	a5 04 20 00 a5 04 20 00 a5 04 20 00 a5 04 20 00     .. ... ... ... .
  200180:	a5 04 20 00 a5 04 20 00 a5 04 20 00 a5 04 20 00     .. ... ... ... .
  200190:	a5 04 20 00 a5 04 20 00 a5 04 20 00 a5 04 20 00     .. ... ... ... .
  2001a0:	a5 04 20 00 a5 04 20 00 a5 04 20 00 a5 04 20 00     .. ... ... ... .
  2001b0:	a5 04 20 00 a5 04 20 00 a5 04 20 00 a5 04 20 00     .. ... ... ... .
  2001c0:	a5 04 20 00 a5 04 20 00 a5 04 20 00 a5 04 20 00     .. ... ... ... .
  2001d0:	a5 04 20 00 a5 04 20 00 a5 04 20 00 a5 04 20 00     .. ... ... ... .
  2001e0:	a5 04 20 00 a5 04 20 00 a5 04 20 00 a5 04 20 00     .. ... ... ... .
  2001f0:	a5 04 20 00 a5 04 20 00 a5 04 20 00 a5 04 20 00     .. ... ... ... .
  200200:	a5 04 20 00 a5 04 20 00 a5 04 20 00 a5 04 20 00     .. ... ... ... .
  200210:	a5 04 20 00 a5 04 20 00 a5 04 20 00 a5 04 20 00     .. ... ... ... .
  200220:	a5 04 20 00 a5 04 20 00 a5 04 20 00 a5 04 20 00     .. ... ... ... .
	...

00200400 <__main>:
  200400:	f000 f802 	bl	200408 <__scatterload_rt2>
  200404:	f000 f82e 	bl	200464 <__rt_entry>

00200408 <__scatterload_rt2>:
  200408:	a00a      	add	r0, pc, #40	; (adr r0, 200434 <__scatterload_null+0x1e>)
  20040a:	e890 0c00 	ldmia.w	r0, {sl, fp}
  20040e:	4482      	add	sl, r0
  200410:	4483      	add	fp, r0
  200412:	f1aa 0701 	sub.w	r7, sl, #1

00200416 <__scatterload_null>:
  200416:	45da      	cmp	sl, fp
  200418:	d101      	bne.n	20041e <__scatterload_null+0x8>
  20041a:	f000 f823 	bl	200464 <__rt_entry>
  20041e:	f2af 0e09 	subw	lr, pc, #9
  200422:	e8ba 000f 	ldmia.w	sl!, {r0, r1, r2, r3}
  200426:	f013 0f01 	tst.w	r3, #1
  20042a:	bf18      	it	ne
  20042c:	1afb      	subne	r3, r7, r3
  20042e:	f043 0301 	orr.w	r3, r3, #1
  200432:	4718      	bx	r3
  200434:	0000060c 	.word	0x0000060c
  200438:	0000061c 	.word	0x0000061c

0020043c <__scatterload_zeroinit>:
  20043c:	2300      	movs	r3, #0
  20043e:	2400      	movs	r4, #0
  200440:	2500      	movs	r5, #0
  200442:	2600      	movs	r6, #0
  200444:	3a10      	subs	r2, #16
  200446:	bf28      	it	cs
  200448:	c178      	stmiacs	r1!, {r3, r4, r5, r6}
  20044a:	d8fb      	bhi.n	200444 <__scatterload_zeroinit+0x8>
  20044c:	0752      	lsls	r2, r2, #29
  20044e:	bf28      	it	cs
  200450:	c130      	stmiacs	r1!, {r4, r5}
  200452:	bf48      	it	mi
  200454:	600b      	strmi	r3, [r1, #0]
  200456:	4770      	bx	lr

00200458 <__rt_lib_init>:
  200458:	b51f      	push	{r0, r1, r2, r3, r4, lr}

0020045a <__rt_lib_init_fp_1>:
  20045a:	f000 fa1c 	bl	200896 <_fp_init>

0020045e <__rt_lib_init_alloca_1>:
  20045e:	bd1f      	pop	{r0, r1, r2, r3, r4, pc}

00200460 <__rt_lib_shutdown>:
  200460:	b510      	push	{r4, lr}

00200462 <__rt_lib_shutdown_cpp_1>:
  200462:	bd10      	pop	{r4, pc}

00200464 <__rt_entry>:
  200464:	f8df d00c 	ldr.w	sp, [pc, #12]	; 200474 <__lit__00000000>

00200468 <__rt_entry_li>:
  200468:	f7ff fff6 	bl	200458 <__rt_lib_init>

0020046c <__rt_entry_main>:
  20046c:	f000 f98c 	bl	200788 <main>
  200470:	f000 f808 	bl	200484 <exit>

00200474 <__lit__00000000>:
  200474:	0000 2840                                   ..@(

00200478 <__rt_exit>:
  200478:	b403      	push	{r0, r1}

0020047a <__rt_exit_ls>:
  20047a:	f7ff fff1 	bl	200460 <__rt_lib_shutdown>

0020047e <__rt_exit_exit>:
  20047e:	bc03      	pop	{r0, r1}
  200480:	f000 f80a 	bl	200498 <_sys_exit>

00200484 <exit>:
  200484:	b510      	push	{r4, lr}
  200486:	4604      	mov	r4, r0
  200488:	f3af 8000 	nop.w
  20048c:	4620      	mov	r0, r4
  20048e:	e8bd 4010 	ldmia.w	sp!, {r4, lr}
  200492:	f7ff bff1 	b.w	200478 <__rt_exit>

00200496 <__use_no_semihosting_swi>:
  200496:	4770      	bx	lr

00200498 <_sys_exit>:
  200498:	4901      	ldr	r1, [pc, #4]	; (2004a0 <_sys_exit+0x8>)
  20049a:	2018      	movs	r0, #24
  20049c:	beab      	bkpt	0x00ab
  20049e:	e7fe      	b.n	20049e <_sys_exit+0x6>
  2004a0:	00020026 	.word	0x00020026

002004a4 <Default_Handler>:
  2004a4:	e7fe      	b.n	2004a4 <Default_Handler>
	...

002004a8 <HardFault_Handler>:
  2004a8:	e7fe      	b.n	2004a8 <HardFault_Handler>
	...

002004ac <Reset_Handler>:
  2004ac:	f240 0000 	movw	r0, #0
  2004b0:	f6c2 0040 	movt	r0, #10304	; 0x2840
  2004b4:	f380 8809 	msr	PSP, r0
  2004b8:	f240 0000 	movw	r0, #0
  2004bc:	f64e 5288 	movw	r2, #60808	; 0xed88
  2004c0:	f64f 4100 	movw	r1, #64512	; 0xfc00
  2004c4:	f2c0 0020 	movt	r0, #32
  2004c8:	f2ce 0200 	movt	r2, #57344	; 0xe000
  2004cc:	f6c2 013f 	movt	r1, #10303	; 0x283f
  2004d0:	f381 880a 	msr	MSPLIM, r1
  2004d4:	f381 880b 	msr	PSPLIM, r1
  2004d8:	f842 0c80 	str.w	r0, [r2, #-128]
  2004dc:	6810      	ldr	r0, [r2, #0]
  2004de:	f440 0070 	orr.w	r0, r0, #15728640	; 0xf00000
  2004e2:	6010      	str	r0, [r2, #0]
  2004e4:	f7ff ff8c 	bl	200400 <__main>

002004e8 <benchmark>:
  2004e8:	e92d 41f0 	stmdb	sp!, {r4, r5, r6, r7, r8, lr}
  2004ec:	b081      	sub	sp, #4
  2004ee:	f242 0004 	movw	r0, #8196	; 0x2004
  2004f2:	f242 0e00 	movw	lr, #8192	; 0x2000
  2004f6:	f6c2 0020 	movt	r0, #10272	; 0x2820
  2004fa:	f6c2 0e20 	movt	lr, #10272	; 0x2820
  2004fe:	f8d0 8000 	ldr.w	r8, [r0]
  200502:	f8de 6000 	ldr.w	r6, [lr]
  200506:	f640 0cb0 	movw	ip, #2224	; 0x8b0
  20050a:	2200      	movs	r2, #0
  20050c:	f2c0 0c20 	movt	ip, #32
  200510:	2000      	movs	r0, #0
  200512:	bf00      	nop
  200514:	f106 0308 	add.w	r3, r6, #8
  200518:	f85c 1002 	ldr.w	r1, [ip, r2]
  20051c:	eb0c 0402 	add.w	r4, ip, r2
  200520:	4543      	cmp	r3, r8
  200522:	bf92      	itee	ls
  200524:	f8ce 3000 	strls.w	r3, [lr]
  200528:	4633      	movhi	r3, r6
  20052a:	2600      	movhi	r6, #0
  20052c:	6070      	str	r0, [r6, #4]
  20052e:	6860      	ldr	r0, [r4, #4]
  200530:	6031      	str	r1, [r6, #0]
  200532:	f103 0108 	add.w	r1, r3, #8
  200536:	4541      	cmp	r1, r8
  200538:	bf92      	itee	ls
  20053a:	f8ce 1000 	strls.w	r1, [lr]
  20053e:	4619      	movhi	r1, r3
  200540:	2300      	movhi	r3, #0
  200542:	6018      	str	r0, [r3, #0]
  200544:	68a0      	ldr	r0, [r4, #8]
  200546:	f101 0508 	add.w	r5, r1, #8
  20054a:	4545      	cmp	r5, r8
  20054c:	605e      	str	r6, [r3, #4]
  20054e:	bf92      	itee	ls
  200550:	f8ce 5000 	strls.w	r5, [lr]
  200554:	460d      	movhi	r5, r1
  200556:	2100      	movhi	r1, #0
  200558:	6008      	str	r0, [r1, #0]
  20055a:	68e0      	ldr	r0, [r4, #12]
  20055c:	f105 0608 	add.w	r6, r5, #8
  200560:	4546      	cmp	r6, r8
  200562:	604b      	str	r3, [r1, #4]
  200564:	bf92      	itee	ls
  200566:	f8ce 6000 	strls.w	r6, [lr]
  20056a:	462e      	movhi	r6, r5
  20056c:	2500      	movhi	r5, #0
  20056e:	6028      	str	r0, [r5, #0]
  200570:	6920      	ldr	r0, [r4, #16]
  200572:	f106 0308 	add.w	r3, r6, #8
  200576:	4543      	cmp	r3, r8
  200578:	6069      	str	r1, [r5, #4]
  20057a:	bf92      	itee	ls
  20057c:	f8ce 3000 	strls.w	r3, [lr]
  200580:	4633      	movhi	r3, r6
  200582:	2600      	movhi	r6, #0
  200584:	6030      	str	r0, [r6, #0]
  200586:	6960      	ldr	r0, [r4, #20]
  200588:	f103 0108 	add.w	r1, r3, #8
  20058c:	4541      	cmp	r1, r8
  20058e:	6075      	str	r5, [r6, #4]
  200590:	bf92      	itee	ls
  200592:	f8ce 1000 	strls.w	r1, [lr]
  200596:	4619      	movhi	r1, r3
  200598:	2300      	movhi	r3, #0
  20059a:	6018      	str	r0, [r3, #0]
  20059c:	69a0      	ldr	r0, [r4, #24]
  20059e:	f101 0708 	add.w	r7, r1, #8
  2005a2:	4547      	cmp	r7, r8
  2005a4:	605e      	str	r6, [r3, #4]
  2005a6:	bf92      	itee	ls
  2005a8:	f8ce 7000 	strls.w	r7, [lr]
  2005ac:	460f      	movhi	r7, r1
  2005ae:	2100      	movhi	r1, #0
  2005b0:	6008      	str	r0, [r1, #0]
  2005b2:	f107 0508 	add.w	r5, r7, #8
  2005b6:	69e0      	ldr	r0, [r4, #28]
  2005b8:	4545      	cmp	r5, r8
  2005ba:	604b      	str	r3, [r1, #4]
  2005bc:	bf92      	itee	ls
  2005be:	f8ce 5000 	strls.w	r5, [lr]
  2005c2:	463d      	movhi	r5, r7
  2005c4:	2700      	movhi	r7, #0
  2005c6:	6079      	str	r1, [r7, #4]
  2005c8:	e9d4 1308 	ldrd	r1, r3, [r4, #32]
  2005cc:	6038      	str	r0, [r7, #0]
  2005ce:	f105 0008 	add.w	r0, r5, #8
  2005d2:	4540      	cmp	r0, r8
  2005d4:	bf92      	itee	ls
  2005d6:	f8ce 0000 	strls.w	r0, [lr]
  2005da:	4628      	movhi	r0, r5
  2005dc:	2500      	movhi	r5, #0
  2005de:	3228      	adds	r2, #40	; 0x28
  2005e0:	f100 0608 	add.w	r6, r0, #8
  2005e4:	f5b2 7fc8 	cmp.w	r2, #400	; 0x190
  2005e8:	e9c5 1700 	strd	r1, r7, [r5]
  2005ec:	f8ce 6000 	str.w	r6, [lr]
  2005f0:	6003      	str	r3, [r0, #0]
  2005f2:	6045      	str	r5, [r0, #4]
  2005f4:	d18e      	bne.n	200514 <benchmark+0x2c>
  2005f6:	2100      	movs	r1, #0
  2005f8:	6842      	ldr	r2, [r0, #4]
  2005fa:	6041      	str	r1, [r0, #4]
  2005fc:	b152      	cbz	r2, 200614 <benchmark+0x12c>
  2005fe:	6853      	ldr	r3, [r2, #4]
  200600:	6050      	str	r0, [r2, #4]
  200602:	b14b      	cbz	r3, 200618 <benchmark+0x130>
  200604:	6859      	ldr	r1, [r3, #4]
  200606:	605a      	str	r2, [r3, #4]
  200608:	b141      	cbz	r1, 20061c <benchmark+0x134>
  20060a:	6848      	ldr	r0, [r1, #4]
  20060c:	604b      	str	r3, [r1, #4]
  20060e:	2800      	cmp	r0, #0
  200610:	d1f2      	bne.n	2005f8 <benchmark+0x110>
  200612:	e004      	b.n	20061e <benchmark+0x136>
  200614:	4601      	mov	r1, r0
  200616:	e002      	b.n	20061e <benchmark+0x136>
  200618:	4611      	mov	r1, r2
  20061a:	e000      	b.n	20061e <benchmark+0x136>
  20061c:	4619      	mov	r1, r3
  20061e:	f04f 0e00 	mov.w	lr, #0
  200622:	2301      	movs	r3, #1
  200624:	46ec      	mov	ip, sp
  200626:	2200      	movs	r2, #0
  200628:	f8cd e000 	str.w	lr, [sp]
  20062c:	e011      	b.n	200652 <benchmark+0x16a>
  20062e:	bf00      	nop
  200630:	07e2      	lsls	r2, r4, #31
  200632:	6001      	str	r1, [r0, #0]
  200634:	f040 8090 	bne.w	200758 <benchmark+0x270>
  200638:	9900      	ldr	r1, [sp, #0]
  20063a:	2b00      	cmp	r3, #0
  20063c:	f04f 0200 	mov.w	r2, #0
  200640:	ea4f 0343 	mov.w	r3, r3, lsl #1
  200644:	f8cd e000 	str.w	lr, [sp]
  200648:	bfc8      	it	gt
  20064a:	2201      	movgt	r2, #1
  20064c:	2900      	cmp	r1, #0
  20064e:	f000 807f 	beq.w	200750 <benchmark+0x268>
  200652:	2401      	movs	r4, #1
  200654:	4660      	mov	r0, ip
  200656:	e004      	b.n	200662 <benchmark+0x17a>
  200658:	3004      	adds	r0, #4
  20065a:	2900      	cmp	r1, #0
  20065c:	f04f 0400 	mov.w	r4, #0
  200660:	d0ea      	beq.n	200638 <benchmark+0x150>
  200662:	07d5      	lsls	r5, r2, #31
  200664:	d038      	beq.n	2006d8 <benchmark+0x1f0>
  200666:	2505      	movs	r5, #5
  200668:	460e      	mov	r6, r1
  20066a:	bf00      	nop
  20066c:	1eef      	subs	r7, r5, #3
  20066e:	6876      	ldr	r6, [r6, #4]
  200670:	429f      	cmp	r7, r3
  200672:	da11      	bge.n	200698 <benchmark+0x1b0>
  200674:	b186      	cbz	r6, 200698 <benchmark+0x1b0>
  200676:	1eaf      	subs	r7, r5, #2
  200678:	6876      	ldr	r6, [r6, #4]
  20067a:	429f      	cmp	r7, r3
  20067c:	da0c      	bge.n	200698 <benchmark+0x1b0>
  20067e:	b15e      	cbz	r6, 200698 <benchmark+0x1b0>
  200680:	1e6f      	subs	r7, r5, #1
  200682:	6876      	ldr	r6, [r6, #4]
  200684:	429f      	cmp	r7, r3
  200686:	da07      	bge.n	200698 <benchmark+0x1b0>
  200688:	b136      	cbz	r6, 200698 <benchmark+0x1b0>
  20068a:	6876      	ldr	r6, [r6, #4]
  20068c:	429d      	cmp	r5, r3
  20068e:	da03      	bge.n	200698 <benchmark+0x1b0>
  200690:	2e00      	cmp	r6, #0
  200692:	f105 0504 	add.w	r5, r5, #4
  200696:	d1e9      	bne.n	20066c <benchmark+0x184>
  200698:	2e00      	cmp	r6, #0
  20069a:	d0c9      	beq.n	200630 <benchmark+0x148>
  20069c:	6874      	ldr	r4, [r6, #4]
  20069e:	2500      	movs	r5, #0
  2006a0:	6075      	str	r5, [r6, #4]
  2006a2:	b324      	cbz	r4, 2006ee <benchmark+0x206>
  2006a4:	2505      	movs	r5, #5
  2006a6:	4626      	mov	r6, r4
  2006a8:	1eef      	subs	r7, r5, #3
  2006aa:	6876      	ldr	r6, [r6, #4]
  2006ac:	429f      	cmp	r7, r3
  2006ae:	da17      	bge.n	2006e0 <benchmark+0x1f8>
  2006b0:	b1b6      	cbz	r6, 2006e0 <benchmark+0x1f8>
  2006b2:	1eaf      	subs	r7, r5, #2
  2006b4:	6876      	ldr	r6, [r6, #4]
  2006b6:	429f      	cmp	r7, r3
  2006b8:	da12      	bge.n	2006e0 <benchmark+0x1f8>
  2006ba:	b18e      	cbz	r6, 2006e0 <benchmark+0x1f8>
  2006bc:	1e6f      	subs	r7, r5, #1
  2006be:	6876      	ldr	r6, [r6, #4]
  2006c0:	429f      	cmp	r7, r3
  2006c2:	da0d      	bge.n	2006e0 <benchmark+0x1f8>
  2006c4:	b166      	cbz	r6, 2006e0 <benchmark+0x1f8>
  2006c6:	6876      	ldr	r6, [r6, #4]
  2006c8:	429d      	cmp	r5, r3
  2006ca:	da09      	bge.n	2006e0 <benchmark+0x1f8>
  2006cc:	2e00      	cmp	r6, #0
  2006ce:	f105 0504 	add.w	r5, r5, #4
  2006d2:	d1e9      	bne.n	2006a8 <benchmark+0x1c0>
  2006d4:	e004      	b.n	2006e0 <benchmark+0x1f8>
  2006d6:	bf00      	nop
  2006d8:	684c      	ldr	r4, [r1, #4]
  2006da:	f8c1 e004 	str.w	lr, [r1, #4]
  2006de:	4626      	mov	r6, r4
  2006e0:	2e00      	cmp	r6, #0
  2006e2:	bf1a      	itte	ne
  2006e4:	6875      	ldrne	r5, [r6, #4]
  2006e6:	f8c6 e004 	strne.w	lr, [r6, #4]
  2006ea:	2500      	moveq	r5, #0
  2006ec:	b954      	cbnz	r4, 200704 <benchmark+0x21c>
  2006ee:	460c      	mov	r4, r1
  2006f0:	e015      	b.n	20071e <benchmark+0x236>
  2006f2:	bf00      	nop
  2006f4:	6004      	str	r4, [r0, #0]
  2006f6:	4620      	mov	r0, r4
  2006f8:	f850 4f04 	ldr.w	r4, [r0, #4]!
  2006fc:	2900      	cmp	r1, #0
  2006fe:	bf18      	it	ne
  200700:	2c00      	cmpne	r4, #0
  200702:	d009      	beq.n	200718 <benchmark+0x230>
  200704:	680e      	ldr	r6, [r1, #0]
  200706:	6827      	ldr	r7, [r4, #0]
  200708:	42be      	cmp	r6, r7
  20070a:	daf3      	bge.n	2006f4 <benchmark+0x20c>
  20070c:	6001      	str	r1, [r0, #0]
  20070e:	4608      	mov	r0, r1
  200710:	f850 1f04 	ldr.w	r1, [r0, #4]!
  200714:	e7f2      	b.n	2006fc <benchmark+0x214>
  200716:	bf00      	nop
  200718:	2900      	cmp	r1, #0
  20071a:	bf18      	it	ne
  20071c:	460c      	movne	r4, r1
  20071e:	4629      	mov	r1, r5
  200720:	2c00      	cmp	r4, #0
  200722:	6004      	str	r4, [r0, #0]
  200724:	f43f af99 	beq.w	20065a <benchmark+0x172>
  200728:	6865      	ldr	r5, [r4, #4]
  20072a:	4620      	mov	r0, r4
  20072c:	2d00      	cmp	r5, #0
  20072e:	f43f af93 	beq.w	200658 <benchmark+0x170>
  200732:	686c      	ldr	r4, [r5, #4]
  200734:	4628      	mov	r0, r5
  200736:	2c00      	cmp	r4, #0
  200738:	f43f af8e 	beq.w	200658 <benchmark+0x170>
  20073c:	6865      	ldr	r5, [r4, #4]
  20073e:	4620      	mov	r0, r4
  200740:	2d00      	cmp	r5, #0
  200742:	f43f af89 	beq.w	200658 <benchmark+0x170>
  200746:	686c      	ldr	r4, [r5, #4]
  200748:	4628      	mov	r0, r5
  20074a:	2c00      	cmp	r4, #0
  20074c:	d1ec      	bne.n	200728 <benchmark+0x240>
  20074e:	e783      	b.n	200658 <benchmark+0x170>
  200750:	2000      	movs	r0, #0
  200752:	b001      	add	sp, #4
  200754:	e8bd 81f0 	ldmia.w	sp!, {r4, r5, r6, r7, r8, pc}
  200758:	9900      	ldr	r1, [sp, #0]
  20075a:	2000      	movs	r0, #0
  20075c:	b189      	cbz	r1, 200782 <benchmark+0x29a>
  20075e:	bf00      	nop
  200760:	e9d1 1200 	ldrd	r1, r2, [r1]
  200764:	4408      	add	r0, r1
  200766:	b162      	cbz	r2, 200782 <benchmark+0x29a>
  200768:	e9d2 2100 	ldrd	r2, r1, [r2]
  20076c:	4410      	add	r0, r2
  20076e:	b141      	cbz	r1, 200782 <benchmark+0x29a>
  200770:	e9d1 1200 	ldrd	r1, r2, [r1]
  200774:	4408      	add	r0, r1
  200776:	b122      	cbz	r2, 200782 <benchmark+0x29a>
  200778:	e9d2 2100 	ldrd	r2, r1, [r2]
  20077c:	4410      	add	r0, r2
  20077e:	2900      	cmp	r1, #0
  200780:	d1ee      	bne.n	200760 <benchmark+0x278>
  200782:	b001      	add	sp, #4
  200784:	e8bd 81f0 	ldmia.w	sp!, {r4, r5, r6, r7, r8, pc}

00200788 <main>:
  200788:	b082      	sub	sp, #8
  20078a:	2400      	movs	r4, #0
  20078c:	f241 0804 	movw	r8, #4100	; 0x1004
  200790:	f44f 3080 	mov.w	r0, #65536	; 0x10000
  200794:	f2ce 0800 	movt	r8, #57344	; 0xe000
  200798:	9401      	str	r4, [sp, #4]
  20079a:	f000 f872 	bl	200882 <main+0xfa>
  20079e:	f240 0600 	movw	r6, #0
  2007a2:	f8c8 4000 	str.w	r4, [r8]
  2007a6:	f242 0900 	movw	r9, #8192	; 0x2000
  2007aa:	f6c2 0620 	movt	r6, #10272	; 0x2820
  2007ae:	f242 0404 	movw	r4, #8196	; 0x2004
  2007b2:	f44f 7580 	mov.w	r5, #256	; 0x100
  2007b6:	f6c2 0920 	movt	r9, #10272	; 0x2820
  2007ba:	f506 5700 	add.w	r7, r6, #8192	; 0x2000
  2007be:	f6c2 0420 	movt	r4, #10272	; 0x2820
  2007c2:	bf00      	nop
  2007c4:	f8c9 6000 	str.w	r6, [r9]
  2007c8:	6027      	str	r7, [r4, #0]
  2007ca:	9801      	ldr	r0, [sp, #4]
  2007cc:	f7ff fe8c 	bl	2004e8 <benchmark>
  2007d0:	9001      	str	r0, [sp, #4]
  2007d2:	9801      	ldr	r0, [sp, #4]
  2007d4:	3d01      	subs	r5, #1
  2007d6:	d1f5      	bne.n	2007c4 <main+0x3c>
  2007d8:	f8d8 0000 	ldr.w	r0, [r8]
  2007dc:	f000 f856 	bl	20088c <main+0x104>
  2007e0:	2000      	movs	r0, #0
  2007e2:	f44f 7580 	mov.w	r5, #256	; 0x100
  2007e6:	f8c8 0000 	str.w	r0, [r8]
  2007ea:	bf00      	nop
  2007ec:	f8c9 6000 	str.w	r6, [r9]
  2007f0:	6027      	str	r7, [r4, #0]
  2007f2:	9801      	ldr	r0, [sp, #4]
  2007f4:	f7ff fe78 	bl	2004e8 <benchmark>
  2007f8:	9001      	str	r0, [sp, #4]
  2007fa:	9801      	ldr	r0, [sp, #4]
  2007fc:	3d01      	subs	r5, #1
  2007fe:	d1f5      	bne.n	2007ec <main+0x64>
  200800:	f8d8 0000 	ldr.w	r0, [r8]
  200804:	f000 f842 	bl	20088c <main+0x104>
  200808:	2000      	movs	r0, #0
  20080a:	f44f 7580 	mov.w	r5, #256	; 0x100
  20080e:	f8c8 0000 	str.w	r0, [r8]
  200812:	bf00      	nop
  200814:	f8c9 6000 	str.w	r6, [r9]
  200818:	6027      	str	r7, [r4, #0]
  20081a:	9801      	ldr	r0, [sp, #4]
  20081c:	f7ff fe64 	bl	2004e8 <benchmark>
  200820:	9001      	str	r0, [sp, #4]
  200822:	9801      	ldr	r0, [sp, #4]
  200824:	3d01      	subs	r5, #1
  200826:	d1f5      	bne.n	200814 <main+0x8c>
  200828:	f8d8 0000 	ldr.w	r0, [r8]
  20082c:	f000 f82e 	bl	20088c <main+0x104>
  200830:	2000      	movs	r0, #0
  200832:	f44f 7580 	mov.w	r5, #256	; 0x100
  200836:	f8c8 0000 	str.w	r0, [r8]
  20083a:	bf00      	nop
  20083c:	f8c9 6000 	str.w	r6, [r9]
  200840:	6027      	str	r7, [r4, #0]
  200842:	9801      	ldr	r0, [sp, #4]
  200844:	f7ff fe50 	bl	2004e8 <benchmark>
  200848:	9001      	str	r0, [sp, #4]
  20084a:	9801      	ldr	r0, [sp, #4]
  20084c:	3d01      	subs	r5, #1
  20084e:	d1f5      	bne.n	20083c <main+0xb4>
  200850:	f8d8 0000 	ldr.w	r0, [r8]
  200854:	f000 f81a 	bl	20088c <main+0x104>
  200858:	2000      	movs	r0, #0
  20085a:	f44f 7580 	mov.w	r5, #256	; 0x100
  20085e:	f8c8 0000 	str.w	r0, [r8]
  200862:	bf00      	nop
  200864:	f8c9 6000 	str.w	r6, [r9]
  200868:	6027      	str	r7, [r4, #0]
  20086a:	9801      	ldr	r0, [sp, #4]
  20086c:	f7ff fe3c 	bl	2004e8 <benchmark>
  200870:	9001      	str	r0, [sp, #4]
  200872:	9801      	ldr	r0, [sp, #4]
  200874:	3d01      	subs	r5, #1
  200876:	d1f5      	bne.n	200864 <main+0xdc>
  200878:	f8d8 0000 	ldr.w	r0, [r8]
  20087c:	f000 f806 	bl	20088c <main+0x104>
  200880:	e7fe      	b.n	200880 <main+0xf8>
  200882:	f64f 6c11 	movw	ip, #65041	; 0xfe11
  200886:	f2c1 0c1f 	movt	ip, #4127	; 0x101f
  20088a:	4760      	bx	ip
  20088c:	f64f 6c19 	movw	ip, #65049	; 0xfe19
  200890:	f2c1 0c1f 	movt	ip, #4127	; 0x101f
  200894:	4760      	bx	ip

00200896 <_fp_init>:
  200896:	eef1 0a10 	vmrs	r0, fpscr
  20089a:	f64f 71ff 	movw	r1, #65535	; 0xffff
  20089e:	f2c0 31c0 	movt	r1, #960	; 0x3c0
  2008a2:	ea20 0001 	bic.w	r0, r0, r1
  2008a6:	f040 7040 	orr.w	r0, r0, #50331648	; 0x3000000
  2008aa:	eee1 0a10 	vmsr	fpscr, r0

002008ae <__fplib_config_fpu_vfp>:
  2008ae:	4770      	bx	lr

002008b0 <array>:
  2008b0:	000e 0000 0042 0000 000c 0000 0029 0000     ....B.......)...
  2008c0:	0056 0000 0045 0000 0013 0000 004d 0000     V...E.......M...
  2008d0:	0044 0000 0026 0000 001a 0000 002a 0000     D...&.......*...
  2008e0:	0025 0000 0017 0000 0011 0000 001d 0000     %...............
  2008f0:	0037 0000 000d 0000 005a 0000 005c 0000     7.......Z...\...
  200900:	004c 0000 0063 0000 000a 0000 0036 0000     L...c.......6...
  200910:	0039 0000 0053 0000 0028 0000 002c 0000     9...S...(...,...
  200920:	004b 0000 0021 0000 0018 0000 001c 0000     K...!...........
  200930:	0050 0000 0012 0000 004e 0000 0020 0000     P.......N... ...
  200940:	005d 0000 0059 0000 0034 0000 000b 0000     ]...Y...4.......
  200950:	0015 0000 0060 0000 0032 0000 000f 0000     ....`...2.......
  200960:	0030 0000 003f 0000 0057 0000 0014 0000     0...?...W.......
  200970:	0008 0000 0055 0000 002b 0000 0010 0000     ....U...+.......
  200980:	005e 0000 0058 0000 0035 0000 0054 0000     ^...X...5...T...
  200990:	004a 0000 005b 0000 0043 0000 0024 0000     J...[...C...$...
  2009a0:	005f 0000 003d 0000 0040 0000 0005 0000     _...=...@.......
  2009b0:	001e 0000 0052 0000 0048 0000 002e 0000     ....R...H.......
  2009c0:	003b 0000 0009 0000 0007 0000 0003 0000     ;...............
  2009d0:	0027 0000 001f 0000 0004 0000 0049 0000     '...........I...
  2009e0:	0046 0000 003c 0000 003a 0000 0051 0000     F...<...:...Q...
  2009f0:	0038 0000 0033 0000 002d 0000 0001 0000     8...3...-.......
  200a00:	0006 0000 0031 0000 001b 0000 002f 0000     ....1......./...
  200a10:	0022 0000 0023 0000 003e 0000 0061 0000     "...#...>...a...
  200a20:	0002 0000 004f 0000 0062 0000 0019 0000     ....O...b.......
  200a30:	0016 0000 0041 0000 0047 0000 0000 0000     ....A...G.......

00200a40 <Region$$Table$$Base>:
  200a40:	00200a50 	.word	0x00200a50
  200a44:	28200000 	.word	0x28200000
  200a48:	00002008 	.word	0x00002008
  200a4c:	0020043c 	.word	0x0020043c
