
../../Example/out/eval/O3/elf_ns/sglib_arraybinsearch.axf:     file format elf32-littlearm


Disassembly of section ER_ROM:

00200000 <__Vectors>:
  200000:	00 00 40 28 ad 04 20 00 a5 04 20 00 a9 04 20 00     ..@(.. ... ... .
  200010:	a5 04 20 00 a5 04 20 00 a5 04 20 00 a5 04 20 00     .. ... ... ... .
	...
  20002c:	a5 04 20 00 a5 04 20 00 00 00 00 00 a5 04 20 00     .. ... ....... .
  20003c:	a5 04 20 00 a5 04 20 00 a5 04 20 00 a5 04 20 00     .. ... ... ... .
  20004c:	a5 04 20 00 a5 04 20 00 a5 04 20 00 00 00 00 00     .. ... ... .....
	...
  200064:	a5 04 20 00 a5 04 20 00 a5 04 20 00 a5 04 20 00     .. ... ... ... .
	...
  2000c0:	a5 04 20 00 a5 04 20 00 a5 04 20 00 a5 04 20 00     .. ... ... ... .
  2000d0:	a5 04 20 00 a5 04 20 00 a5 04 20 00 a5 04 20 00     .. ... ... ... .
  2000e0:	a5 04 20 00 a5 04 20 00 a5 04 20 00 a5 04 20 00     .. ... ... ... .
  2000f0:	a5 04 20 00 a5 04 20 00 a5 04 20 00 a5 04 20 00     .. ... ... ... .
  200100:	a5 04 20 00 a5 04 20 00 a5 04 20 00 a5 04 20 00     .. ... ... ... .
  200110:	a5 04 20 00 a5 04 20 00 a5 04 20 00 a5 04 20 00     .. ... ... ... .
  200120:	a5 04 20 00 a5 04 20 00 a5 04 20 00 a5 04 20 00     .. ... ... ... .
  200130:	a5 04 20 00 a5 04 20 00 a5 04 20 00 a5 04 20 00     .. ... ... ... .
  200140:	a5 04 20 00 a5 04 20 00 a5 04 20 00 a5 04 20 00     .. ... ... ... .
  200150:	a5 04 20 00 a5 04 20 00 a5 04 20 00 a5 04 20 00     .. ... ... ... .
  200160:	a5 04 20 00 a5 04 20 00 a5 04 20 00 a5 04 20 00     .. ... ... ... .
  200170:	a5 04 20 00 a5 04 20 00 a5 04 20 00 a5 04 20 00     .. ... ... ... .
  200180:	a5 04 20 00 a5 04 20 00 a5 04 20 00 a5 04 20 00     .. ... ... ... .
  200190:	a5 04 20 00 a5 04 20 00 a5 04 20 00 a5 04 20 00     .. ... ... ... .
  2001a0:	a5 04 20 00 a5 04 20 00 a5 04 20 00 a5 04 20 00     .. ... ... ... .
  2001b0:	a5 04 20 00 a5 04 20 00 a5 04 20 00 a5 04 20 00     .. ... ... ... .
  2001c0:	a5 04 20 00 a5 04 20 00 a5 04 20 00 a5 04 20 00     .. ... ... ... .
  2001d0:	a5 04 20 00 a5 04 20 00 a5 04 20 00 a5 04 20 00     .. ... ... ... .
  2001e0:	a5 04 20 00 a5 04 20 00 a5 04 20 00 a5 04 20 00     .. ... ... ... .
  2001f0:	a5 04 20 00 a5 04 20 00 a5 04 20 00 a5 04 20 00     .. ... ... ... .
  200200:	a5 04 20 00 a5 04 20 00 a5 04 20 00 a5 04 20 00     .. ... ... ... .
  200210:	a5 04 20 00 a5 04 20 00 a5 04 20 00 a5 04 20 00     .. ... ... ... .
  200220:	a5 04 20 00 a5 04 20 00 a5 04 20 00 a5 04 20 00     .. ... ... ... .
	...

00200400 <__main>:
  200400:	f000 f802 	bl	200408 <__scatterload_rt2>
  200404:	f000 f82e 	bl	200464 <__rt_entry>

00200408 <__scatterload_rt2>:
  200408:	a00a      	add	r0, pc, #40	; (adr r0, 200434 <__scatterload_null+0x1e>)
  20040a:	e890 0c00 	ldmia.w	r0, {sl, fp}
  20040e:	4482      	add	sl, r0
  200410:	4483      	add	fp, r0
  200412:	f1aa 0701 	sub.w	r7, sl, #1

00200416 <__scatterload_null>:
  200416:	45da      	cmp	sl, fp
  200418:	d101      	bne.n	20041e <__scatterload_null+0x8>
  20041a:	f000 f823 	bl	200464 <__rt_entry>
  20041e:	f2af 0e09 	subw	lr, pc, #9
  200422:	e8ba 000f 	ldmia.w	sl!, {r0, r1, r2, r3}
  200426:	f013 0f01 	tst.w	r3, #1
  20042a:	bf18      	it	ne
  20042c:	1afb      	subne	r3, r7, r3
  20042e:	f043 0301 	orr.w	r3, r3, #1
  200432:	4718      	bx	r3
  200434:	00000470 	.word	0x00000470
  200438:	00000480 	.word	0x00000480

0020043c <__scatterload_zeroinit>:
  20043c:	2300      	movs	r3, #0
  20043e:	2400      	movs	r4, #0
  200440:	2500      	movs	r5, #0
  200442:	2600      	movs	r6, #0
  200444:	3a10      	subs	r2, #16
  200446:	bf28      	it	cs
  200448:	c178      	stmiacs	r1!, {r3, r4, r5, r6}
  20044a:	d8fb      	bhi.n	200444 <__scatterload_zeroinit+0x8>
  20044c:	0752      	lsls	r2, r2, #29
  20044e:	bf28      	it	cs
  200450:	c130      	stmiacs	r1!, {r4, r5}
  200452:	bf48      	it	mi
  200454:	600b      	strmi	r3, [r1, #0]
  200456:	4770      	bx	lr

00200458 <__rt_lib_init>:
  200458:	b51f      	push	{r0, r1, r2, r3, r4, lr}

0020045a <__rt_lib_init_fp_1>:
  20045a:	f000 f94e 	bl	2006fa <_fp_init>

0020045e <__rt_lib_init_alloca_1>:
  20045e:	bd1f      	pop	{r0, r1, r2, r3, r4, pc}

00200460 <__rt_lib_shutdown>:
  200460:	b510      	push	{r4, lr}

00200462 <__rt_lib_shutdown_cpp_1>:
  200462:	bd10      	pop	{r4, pc}

00200464 <__rt_entry>:
  200464:	f8df d00c 	ldr.w	sp, [pc, #12]	; 200474 <__lit__00000000>

00200468 <__rt_entry_li>:
  200468:	f7ff fff6 	bl	200458 <__rt_lib_init>

0020046c <__rt_entry_main>:
  20046c:	f000 f8ea 	bl	200644 <main>
  200470:	f000 f808 	bl	200484 <exit>

00200474 <__lit__00000000>:
  200474:	0000 2840                                   ..@(

00200478 <__rt_exit>:
  200478:	b403      	push	{r0, r1}

0020047a <__rt_exit_ls>:
  20047a:	f7ff fff1 	bl	200460 <__rt_lib_shutdown>

0020047e <__rt_exit_exit>:
  20047e:	bc03      	pop	{r0, r1}
  200480:	f000 f80a 	bl	200498 <_sys_exit>

00200484 <exit>:
  200484:	b510      	push	{r4, lr}
  200486:	4604      	mov	r4, r0
  200488:	f3af 8000 	nop.w
  20048c:	4620      	mov	r0, r4
  20048e:	e8bd 4010 	ldmia.w	sp!, {r4, lr}
  200492:	f7ff bff1 	b.w	200478 <__rt_exit>

00200496 <__use_no_semihosting_swi>:
  200496:	4770      	bx	lr

00200498 <_sys_exit>:
  200498:	4901      	ldr	r1, [pc, #4]	; (2004a0 <_sys_exit+0x8>)
  20049a:	2018      	movs	r0, #24
  20049c:	beab      	bkpt	0x00ab
  20049e:	e7fe      	b.n	20049e <_sys_exit+0x6>
  2004a0:	00020026 	.word	0x00020026

002004a4 <Default_Handler>:
  2004a4:	e7fe      	b.n	2004a4 <Default_Handler>
	...

002004a8 <HardFault_Handler>:
  2004a8:	e7fe      	b.n	2004a8 <HardFault_Handler>
	...

002004ac <Reset_Handler>:
  2004ac:	f240 0000 	movw	r0, #0
  2004b0:	f6c2 0040 	movt	r0, #10304	; 0x2840
  2004b4:	f380 8809 	msr	PSP, r0
  2004b8:	f240 0000 	movw	r0, #0
  2004bc:	f64e 5288 	movw	r2, #60808	; 0xed88
  2004c0:	f64f 4100 	movw	r1, #64512	; 0xfc00
  2004c4:	f2c0 0020 	movt	r0, #32
  2004c8:	f2ce 0200 	movt	r2, #57344	; 0xe000
  2004cc:	f6c2 013f 	movt	r1, #10303	; 0x283f
  2004d0:	f381 880a 	msr	MSPLIM, r1
  2004d4:	f381 880b 	msr	PSPLIM, r1
  2004d8:	f842 0c80 	str.w	r0, [r2, #-128]
  2004dc:	6810      	ldr	r0, [r2, #0]
  2004de:	f440 0070 	orr.w	r0, r0, #15728640	; 0xf00000
  2004e2:	6010      	str	r0, [r2, #0]
  2004e4:	f7ff ff8c 	bl	200400 <__main>

002004e8 <benchmark>:
  2004e8:	b5b0      	push	{r4, r5, r7, lr}
  2004ea:	b081      	sub	sp, #4
  2004ec:	f240 7114 	movw	r1, #1812	; 0x714
  2004f0:	f240 0c00 	movw	ip, #0
  2004f4:	f04f 0e00 	mov.w	lr, #0
  2004f8:	f2c0 0120 	movt	r1, #32
  2004fc:	f6c2 0c20 	movt	ip, #10272	; 0x2820
  200500:	f8cd e000 	str.w	lr, [sp]
  200504:	e00c      	b.n	200520 <benchmark+0x38>
  200506:	bf00      	nop
  200508:	2001      	movs	r0, #1
  20050a:	f8cc 0000 	str.w	r0, [ip]
  20050e:	9800      	ldr	r0, [sp, #0]
  200510:	f10e 0e05 	add.w	lr, lr, #5
  200514:	4410      	add	r0, r2
  200516:	f1be 0f64 	cmp.w	lr, #100	; 0x64
  20051a:	9000      	str	r0, [sp, #0]
  20051c:	f000 808f 	beq.w	20063e <benchmark+0x156>
  200520:	f851 202e 	ldr.w	r2, [r1, lr, lsl #2]
  200524:	2000      	movs	r0, #0
  200526:	4674      	mov	r4, lr
  200528:	1823      	adds	r3, r4, r0
  20052a:	eb03 73d3 	add.w	r3, r3, r3, lsr #31
  20052e:	105b      	asrs	r3, r3, #1
  200530:	f851 5023 	ldr.w	r5, [r1, r3, lsl #2]
  200534:	4295      	cmp	r5, r2
  200536:	d009      	beq.n	20054c <benchmark+0x64>
  200538:	bfb8      	it	lt
  20053a:	1c58      	addlt	r0, r3, #1
  20053c:	4295      	cmp	r5, r2
  20053e:	bfa8      	it	ge
  200540:	1e5c      	subge	r4, r3, #1
  200542:	42a0      	cmp	r0, r4
  200544:	ddf0      	ble.n	200528 <benchmark+0x40>
  200546:	1c63      	adds	r3, r4, #1
  200548:	2000      	movs	r0, #0
  20054a:	e000      	b.n	20054e <benchmark+0x66>
  20054c:	2001      	movs	r0, #1
  20054e:	f8cc 0000 	str.w	r0, [ip]
  200552:	9800      	ldr	r0, [sp, #0]
  200554:	2400      	movs	r4, #0
  200556:	4418      	add	r0, r3
  200558:	f10e 0301 	add.w	r3, lr, #1
  20055c:	9000      	str	r0, [sp, #0]
  20055e:	f851 0023 	ldr.w	r0, [r1, r3, lsl #2]
  200562:	bf00      	nop
  200564:	191a      	adds	r2, r3, r4
  200566:	eb02 72d2 	add.w	r2, r2, r2, lsr #31
  20056a:	1052      	asrs	r2, r2, #1
  20056c:	f851 5022 	ldr.w	r5, [r1, r2, lsl #2]
  200570:	4285      	cmp	r5, r0
  200572:	d009      	beq.n	200588 <benchmark+0xa0>
  200574:	bfb8      	it	lt
  200576:	1c54      	addlt	r4, r2, #1
  200578:	4285      	cmp	r5, r0
  20057a:	bfa8      	it	ge
  20057c:	1e53      	subge	r3, r2, #1
  20057e:	429c      	cmp	r4, r3
  200580:	ddf0      	ble.n	200564 <benchmark+0x7c>
  200582:	1c5a      	adds	r2, r3, #1
  200584:	2000      	movs	r0, #0
  200586:	e000      	b.n	20058a <benchmark+0xa2>
  200588:	2001      	movs	r0, #1
  20058a:	f8cc 0000 	str.w	r0, [ip]
  20058e:	9800      	ldr	r0, [sp, #0]
  200590:	f10e 0302 	add.w	r3, lr, #2
  200594:	4410      	add	r0, r2
  200596:	9000      	str	r0, [sp, #0]
  200598:	f851 0023 	ldr.w	r0, [r1, r3, lsl #2]
  20059c:	2400      	movs	r4, #0
  20059e:	bf00      	nop
  2005a0:	191a      	adds	r2, r3, r4
  2005a2:	eb02 72d2 	add.w	r2, r2, r2, lsr #31
  2005a6:	1052      	asrs	r2, r2, #1
  2005a8:	f851 5022 	ldr.w	r5, [r1, r2, lsl #2]
  2005ac:	4285      	cmp	r5, r0
  2005ae:	d009      	beq.n	2005c4 <benchmark+0xdc>
  2005b0:	bfb8      	it	lt
  2005b2:	1c54      	addlt	r4, r2, #1
  2005b4:	4285      	cmp	r5, r0
  2005b6:	bfa8      	it	ge
  2005b8:	1e53      	subge	r3, r2, #1
  2005ba:	429c      	cmp	r4, r3
  2005bc:	ddf0      	ble.n	2005a0 <benchmark+0xb8>
  2005be:	1c5a      	adds	r2, r3, #1
  2005c0:	2000      	movs	r0, #0
  2005c2:	e000      	b.n	2005c6 <benchmark+0xde>
  2005c4:	2001      	movs	r0, #1
  2005c6:	f8cc 0000 	str.w	r0, [ip]
  2005ca:	9800      	ldr	r0, [sp, #0]
  2005cc:	f10e 0303 	add.w	r3, lr, #3
  2005d0:	4410      	add	r0, r2
  2005d2:	9000      	str	r0, [sp, #0]
  2005d4:	f851 0023 	ldr.w	r0, [r1, r3, lsl #2]
  2005d8:	2400      	movs	r4, #0
  2005da:	bf00      	nop
  2005dc:	191a      	adds	r2, r3, r4
  2005de:	eb02 72d2 	add.w	r2, r2, r2, lsr #31
  2005e2:	1052      	asrs	r2, r2, #1
  2005e4:	f851 5022 	ldr.w	r5, [r1, r2, lsl #2]
  2005e8:	4285      	cmp	r5, r0
  2005ea:	d009      	beq.n	200600 <benchmark+0x118>
  2005ec:	bfb8      	it	lt
  2005ee:	1c54      	addlt	r4, r2, #1
  2005f0:	4285      	cmp	r5, r0
  2005f2:	bfa8      	it	ge
  2005f4:	1e53      	subge	r3, r2, #1
  2005f6:	429c      	cmp	r4, r3
  2005f8:	ddf0      	ble.n	2005dc <benchmark+0xf4>
  2005fa:	1c5a      	adds	r2, r3, #1
  2005fc:	2000      	movs	r0, #0
  2005fe:	e000      	b.n	200602 <benchmark+0x11a>
  200600:	2001      	movs	r0, #1
  200602:	f8cc 0000 	str.w	r0, [ip]
  200606:	9800      	ldr	r0, [sp, #0]
  200608:	f10e 0304 	add.w	r3, lr, #4
  20060c:	4410      	add	r0, r2
  20060e:	9000      	str	r0, [sp, #0]
  200610:	f851 0023 	ldr.w	r0, [r1, r3, lsl #2]
  200614:	2400      	movs	r4, #0
  200616:	bf00      	nop
  200618:	191a      	adds	r2, r3, r4
  20061a:	eb02 72d2 	add.w	r2, r2, r2, lsr #31
  20061e:	1052      	asrs	r2, r2, #1
  200620:	f851 5022 	ldr.w	r5, [r1, r2, lsl #2]
  200624:	4285      	cmp	r5, r0
  200626:	f43f af6f 	beq.w	200508 <benchmark+0x20>
  20062a:	bfb8      	it	lt
  20062c:	1c54      	addlt	r4, r2, #1
  20062e:	4285      	cmp	r5, r0
  200630:	bfa8      	it	ge
  200632:	1e53      	subge	r3, r2, #1
  200634:	429c      	cmp	r4, r3
  200636:	ddef      	ble.n	200618 <benchmark+0x130>
  200638:	1c5a      	adds	r2, r3, #1
  20063a:	2000      	movs	r0, #0
  20063c:	e765      	b.n	20050a <benchmark+0x22>
  20063e:	9800      	ldr	r0, [sp, #0]
  200640:	b001      	add	sp, #4
  200642:	bdb0      	pop	{r4, r5, r7, pc}

00200644 <main>:
  200644:	b082      	sub	sp, #8
  200646:	2500      	movs	r5, #0
  200648:	f241 0404 	movw	r4, #4100	; 0x1004
  20064c:	f44f 3080 	mov.w	r0, #65536	; 0x10000
  200650:	f2ce 0400 	movt	r4, #57344	; 0xe000
  200654:	9501      	str	r5, [sp, #4]
  200656:	f000 f846 	bl	2006e6 <main+0xa2>
  20065a:	6025      	str	r5, [r4, #0]
  20065c:	f44f 7580 	mov.w	r5, #256	; 0x100
  200660:	9801      	ldr	r0, [sp, #4]
  200662:	f7ff ff41 	bl	2004e8 <benchmark>
  200666:	9001      	str	r0, [sp, #4]
  200668:	9801      	ldr	r0, [sp, #4]
  20066a:	3d01      	subs	r5, #1
  20066c:	d1f8      	bne.n	200660 <main+0x1c>
  20066e:	6820      	ldr	r0, [r4, #0]
  200670:	f000 f83e 	bl	2006f0 <main+0xac>
  200674:	2000      	movs	r0, #0
  200676:	f44f 7580 	mov.w	r5, #256	; 0x100
  20067a:	6020      	str	r0, [r4, #0]
  20067c:	9801      	ldr	r0, [sp, #4]
  20067e:	f7ff ff33 	bl	2004e8 <benchmark>
  200682:	9001      	str	r0, [sp, #4]
  200684:	9801      	ldr	r0, [sp, #4]
  200686:	3d01      	subs	r5, #1
  200688:	d1f8      	bne.n	20067c <main+0x38>
  20068a:	6820      	ldr	r0, [r4, #0]
  20068c:	f000 f830 	bl	2006f0 <main+0xac>
  200690:	2000      	movs	r0, #0
  200692:	f44f 7580 	mov.w	r5, #256	; 0x100
  200696:	6020      	str	r0, [r4, #0]
  200698:	9801      	ldr	r0, [sp, #4]
  20069a:	f7ff ff25 	bl	2004e8 <benchmark>
  20069e:	9001      	str	r0, [sp, #4]
  2006a0:	9801      	ldr	r0, [sp, #4]
  2006a2:	3d01      	subs	r5, #1
  2006a4:	d1f8      	bne.n	200698 <main+0x54>
  2006a6:	6820      	ldr	r0, [r4, #0]
  2006a8:	f000 f822 	bl	2006f0 <main+0xac>
  2006ac:	2000      	movs	r0, #0
  2006ae:	f44f 7580 	mov.w	r5, #256	; 0x100
  2006b2:	6020      	str	r0, [r4, #0]
  2006b4:	9801      	ldr	r0, [sp, #4]
  2006b6:	f7ff ff17 	bl	2004e8 <benchmark>
  2006ba:	9001      	str	r0, [sp, #4]
  2006bc:	9801      	ldr	r0, [sp, #4]
  2006be:	3d01      	subs	r5, #1
  2006c0:	d1f8      	bne.n	2006b4 <main+0x70>
  2006c2:	6820      	ldr	r0, [r4, #0]
  2006c4:	f000 f814 	bl	2006f0 <main+0xac>
  2006c8:	2000      	movs	r0, #0
  2006ca:	f44f 7580 	mov.w	r5, #256	; 0x100
  2006ce:	6020      	str	r0, [r4, #0]
  2006d0:	9801      	ldr	r0, [sp, #4]
  2006d2:	f7ff ff09 	bl	2004e8 <benchmark>
  2006d6:	9001      	str	r0, [sp, #4]
  2006d8:	9801      	ldr	r0, [sp, #4]
  2006da:	3d01      	subs	r5, #1
  2006dc:	d1f8      	bne.n	2006d0 <main+0x8c>
  2006de:	6820      	ldr	r0, [r4, #0]
  2006e0:	f000 f806 	bl	2006f0 <main+0xac>
  2006e4:	e7fe      	b.n	2006e4 <main+0xa0>
  2006e6:	f64f 6c11 	movw	ip, #65041	; 0xfe11
  2006ea:	f2c1 0c1f 	movt	ip, #4127	; 0x101f
  2006ee:	4760      	bx	ip
  2006f0:	f64f 6c19 	movw	ip, #65049	; 0xfe19
  2006f4:	f2c1 0c1f 	movt	ip, #4127	; 0x101f
  2006f8:	4760      	bx	ip

002006fa <_fp_init>:
  2006fa:	eef1 0a10 	vmrs	r0, fpscr
  2006fe:	f64f 71ff 	movw	r1, #65535	; 0xffff
  200702:	f2c0 31c0 	movt	r1, #960	; 0x3c0
  200706:	ea20 0001 	bic.w	r0, r0, r1
  20070a:	f040 7040 	orr.w	r0, r0, #50331648	; 0x3000000
  20070e:	eee1 0a10 	vmsr	fpscr, r0

00200712 <__fplib_config_fpu_vfp>:
  200712:	4770      	bx	lr

00200714 <array>:
  200714:	000e 0000 0042 0000 000c 0000 0029 0000     ....B.......)...
  200724:	0056 0000 0045 0000 0013 0000 004d 0000     V...E.......M...
  200734:	0044 0000 0026 0000 001a 0000 002a 0000     D...&.......*...
  200744:	0025 0000 0017 0000 0011 0000 001d 0000     %...............
  200754:	0037 0000 000d 0000 005a 0000 005c 0000     7.......Z...\...
  200764:	004c 0000 0063 0000 000a 0000 0036 0000     L...c.......6...
  200774:	0039 0000 0053 0000 0028 0000 002c 0000     9...S...(...,...
  200784:	004b 0000 0021 0000 0018 0000 001c 0000     K...!...........
  200794:	0050 0000 0012 0000 004e 0000 0020 0000     P.......N... ...
  2007a4:	005d 0000 0059 0000 0034 0000 000b 0000     ]...Y...4.......
  2007b4:	0015 0000 0060 0000 0032 0000 000f 0000     ....`...2.......
  2007c4:	0030 0000 003f 0000 0057 0000 0014 0000     0...?...W.......
  2007d4:	0008 0000 0055 0000 002b 0000 0010 0000     ....U...+.......
  2007e4:	005e 0000 0058 0000 0035 0000 0054 0000     ^...X...5...T...
  2007f4:	004a 0000 005b 0000 0043 0000 0024 0000     J...[...C...$...
  200804:	005f 0000 003d 0000 0040 0000 0005 0000     _...=...@.......
  200814:	001e 0000 0052 0000 0048 0000 002e 0000     ....R...H.......
  200824:	003b 0000 0009 0000 0007 0000 0003 0000     ;...............
  200834:	0027 0000 001f 0000 0004 0000 0049 0000     '...........I...
  200844:	0046 0000 003c 0000 003a 0000 0051 0000     F...<...:...Q...
  200854:	0038 0000 0033 0000 002d 0000 0001 0000     8...3...-.......
  200864:	0006 0000 0031 0000 001b 0000 002f 0000     ....1......./...
  200874:	0022 0000 0023 0000 003e 0000 0061 0000     "...#...>...a...
  200884:	0002 0000 004f 0000 0062 0000 0019 0000     ....O...b.......
  200894:	0016 0000 0041 0000 0047 0000 0000 0000     ....A...G.......

002008a4 <Region$$Table$$Base>:
  2008a4:	002008b4 	.word	0x002008b4
  2008a8:	28200000 	.word	0x28200000
  2008ac:	00000004 	.word	0x00000004
  2008b0:	0020043c 	.word	0x0020043c
