
../../Example/out/eval/O3/elf_ns/sglib_listinsertsort.axf:     file format elf32-littlearm


Disassembly of section ER_ROM:

00200000 <__Vectors>:
  200000:	00 00 40 28 ad 04 20 00 a5 04 20 00 a9 04 20 00     ..@(.. ... ... .
  200010:	a5 04 20 00 a5 04 20 00 a5 04 20 00 a5 04 20 00     .. ... ... ... .
	...
  20002c:	a5 04 20 00 a5 04 20 00 00 00 00 00 a5 04 20 00     .. ... ....... .
  20003c:	a5 04 20 00 a5 04 20 00 a5 04 20 00 a5 04 20 00     .. ... ... ... .
  20004c:	a5 04 20 00 a5 04 20 00 a5 04 20 00 00 00 00 00     .. ... ... .....
	...
  200064:	a5 04 20 00 a5 04 20 00 a5 04 20 00 a5 04 20 00     .. ... ... ... .
	...
  2000c0:	a5 04 20 00 a5 04 20 00 a5 04 20 00 a5 04 20 00     .. ... ... ... .
  2000d0:	a5 04 20 00 a5 04 20 00 a5 04 20 00 a5 04 20 00     .. ... ... ... .
  2000e0:	a5 04 20 00 a5 04 20 00 a5 04 20 00 a5 04 20 00     .. ... ... ... .
  2000f0:	a5 04 20 00 a5 04 20 00 a5 04 20 00 a5 04 20 00     .. ... ... ... .
  200100:	a5 04 20 00 a5 04 20 00 a5 04 20 00 a5 04 20 00     .. ... ... ... .
  200110:	a5 04 20 00 a5 04 20 00 a5 04 20 00 a5 04 20 00     .. ... ... ... .
  200120:	a5 04 20 00 a5 04 20 00 a5 04 20 00 a5 04 20 00     .. ... ... ... .
  200130:	a5 04 20 00 a5 04 20 00 a5 04 20 00 a5 04 20 00     .. ... ... ... .
  200140:	a5 04 20 00 a5 04 20 00 a5 04 20 00 a5 04 20 00     .. ... ... ... .
  200150:	a5 04 20 00 a5 04 20 00 a5 04 20 00 a5 04 20 00     .. ... ... ... .
  200160:	a5 04 20 00 a5 04 20 00 a5 04 20 00 a5 04 20 00     .. ... ... ... .
  200170:	a5 04 20 00 a5 04 20 00 a5 04 20 00 a5 04 20 00     .. ... ... ... .
  200180:	a5 04 20 00 a5 04 20 00 a5 04 20 00 a5 04 20 00     .. ... ... ... .
  200190:	a5 04 20 00 a5 04 20 00 a5 04 20 00 a5 04 20 00     .. ... ... ... .
  2001a0:	a5 04 20 00 a5 04 20 00 a5 04 20 00 a5 04 20 00     .. ... ... ... .
  2001b0:	a5 04 20 00 a5 04 20 00 a5 04 20 00 a5 04 20 00     .. ... ... ... .
  2001c0:	a5 04 20 00 a5 04 20 00 a5 04 20 00 a5 04 20 00     .. ... ... ... .
  2001d0:	a5 04 20 00 a5 04 20 00 a5 04 20 00 a5 04 20 00     .. ... ... ... .
  2001e0:	a5 04 20 00 a5 04 20 00 a5 04 20 00 a5 04 20 00     .. ... ... ... .
  2001f0:	a5 04 20 00 a5 04 20 00 a5 04 20 00 a5 04 20 00     .. ... ... ... .
  200200:	a5 04 20 00 a5 04 20 00 a5 04 20 00 a5 04 20 00     .. ... ... ... .
  200210:	a5 04 20 00 a5 04 20 00 a5 04 20 00 a5 04 20 00     .. ... ... ... .
  200220:	a5 04 20 00 a5 04 20 00 a5 04 20 00 a5 04 20 00     .. ... ... ... .
	...

00200400 <__main>:
  200400:	f000 f802 	bl	200408 <__scatterload_rt2>
  200404:	f000 f82e 	bl	200464 <__rt_entry>

00200408 <__scatterload_rt2>:
  200408:	a00a      	add	r0, pc, #40	; (adr r0, 200434 <__scatterload_null+0x1e>)
  20040a:	e890 0c00 	ldmia.w	r0, {sl, fp}
  20040e:	4482      	add	sl, r0
  200410:	4483      	add	fp, r0
  200412:	f1aa 0701 	sub.w	r7, sl, #1

00200416 <__scatterload_null>:
  200416:	45da      	cmp	sl, fp
  200418:	d101      	bne.n	20041e <__scatterload_null+0x8>
  20041a:	f000 f823 	bl	200464 <__rt_entry>
  20041e:	f2af 0e09 	subw	lr, pc, #9
  200422:	e8ba 000f 	ldmia.w	sl!, {r0, r1, r2, r3}
  200426:	f013 0f01 	tst.w	r3, #1
  20042a:	bf18      	it	ne
  20042c:	1afb      	subne	r3, r7, r3
  20042e:	f043 0301 	orr.w	r3, r3, #1
  200432:	4718      	bx	r3
  200434:	0000051c 	.word	0x0000051c
  200438:	0000052c 	.word	0x0000052c

0020043c <__scatterload_zeroinit>:
  20043c:	2300      	movs	r3, #0
  20043e:	2400      	movs	r4, #0
  200440:	2500      	movs	r5, #0
  200442:	2600      	movs	r6, #0
  200444:	3a10      	subs	r2, #16
  200446:	bf28      	it	cs
  200448:	c178      	stmiacs	r1!, {r3, r4, r5, r6}
  20044a:	d8fb      	bhi.n	200444 <__scatterload_zeroinit+0x8>
  20044c:	0752      	lsls	r2, r2, #29
  20044e:	bf28      	it	cs
  200450:	c130      	stmiacs	r1!, {r4, r5}
  200452:	bf48      	it	mi
  200454:	600b      	strmi	r3, [r1, #0]
  200456:	4770      	bx	lr

00200458 <__rt_lib_init>:
  200458:	b51f      	push	{r0, r1, r2, r3, r4, lr}

0020045a <__rt_lib_init_fp_1>:
  20045a:	f000 f9a4 	bl	2007a6 <_fp_init>

0020045e <__rt_lib_init_alloca_1>:
  20045e:	bd1f      	pop	{r0, r1, r2, r3, r4, pc}

00200460 <__rt_lib_shutdown>:
  200460:	b510      	push	{r4, lr}

00200462 <__rt_lib_shutdown_cpp_1>:
  200462:	bd10      	pop	{r4, pc}

00200464 <__rt_entry>:
  200464:	f8df d00c 	ldr.w	sp, [pc, #12]	; 200474 <__lit__00000000>

00200468 <__rt_entry_li>:
  200468:	f7ff fff6 	bl	200458 <__rt_lib_init>

0020046c <__rt_entry_main>:
  20046c:	f000 f914 	bl	200698 <main>
  200470:	f000 f808 	bl	200484 <exit>

00200474 <__lit__00000000>:
  200474:	0000 2840                                   ..@(

00200478 <__rt_exit>:
  200478:	b403      	push	{r0, r1}

0020047a <__rt_exit_ls>:
  20047a:	f7ff fff1 	bl	200460 <__rt_lib_shutdown>

0020047e <__rt_exit_exit>:
  20047e:	bc03      	pop	{r0, r1}
  200480:	f000 f80a 	bl	200498 <_sys_exit>

00200484 <exit>:
  200484:	b510      	push	{r4, lr}
  200486:	4604      	mov	r4, r0
  200488:	f3af 8000 	nop.w
  20048c:	4620      	mov	r0, r4
  20048e:	e8bd 4010 	ldmia.w	sp!, {r4, lr}
  200492:	f7ff bff1 	b.w	200478 <__rt_exit>

00200496 <__use_no_semihosting_swi>:
  200496:	4770      	bx	lr

00200498 <_sys_exit>:
  200498:	4901      	ldr	r1, [pc, #4]	; (2004a0 <_sys_exit+0x8>)
  20049a:	2018      	movs	r0, #24
  20049c:	beab      	bkpt	0x00ab
  20049e:	e7fe      	b.n	20049e <_sys_exit+0x6>
  2004a0:	00020026 	.word	0x00020026

002004a4 <Default_Handler>:
  2004a4:	e7fe      	b.n	2004a4 <Default_Handler>
	...

002004a8 <HardFault_Handler>:
  2004a8:	e7fe      	b.n	2004a8 <HardFault_Handler>
	...

002004ac <Reset_Handler>:
  2004ac:	f240 0000 	movw	r0, #0
  2004b0:	f6c2 0040 	movt	r0, #10304	; 0x2840
  2004b4:	f380 8809 	msr	PSP, r0
  2004b8:	f240 0000 	movw	r0, #0
  2004bc:	f64e 5288 	movw	r2, #60808	; 0xed88
  2004c0:	f64f 4100 	movw	r1, #64512	; 0xfc00
  2004c4:	f2c0 0020 	movt	r0, #32
  2004c8:	f2ce 0200 	movt	r2, #57344	; 0xe000
  2004cc:	f6c2 013f 	movt	r1, #10303	; 0x283f
  2004d0:	f381 880a 	msr	MSPLIM, r1
  2004d4:	f381 880b 	msr	PSPLIM, r1
  2004d8:	f842 0c80 	str.w	r0, [r2, #-128]
  2004dc:	6810      	ldr	r0, [r2, #0]
  2004de:	f440 0070 	orr.w	r0, r0, #15728640	; 0xf00000
  2004e2:	6010      	str	r0, [r2, #0]
  2004e4:	f7ff ff8c 	bl	200400 <__main>

002004e8 <benchmark>:
  2004e8:	e92d 41f0 	stmdb	sp!, {r4, r5, r6, r7, r8, lr}
  2004ec:	b081      	sub	sp, #4
  2004ee:	2000      	movs	r0, #0
  2004f0:	9000      	str	r0, [sp, #0]
  2004f2:	f242 0004 	movw	r0, #8196	; 0x2004
  2004f6:	f242 0c00 	movw	ip, #8192	; 0x2000
  2004fa:	f6c2 0020 	movt	r0, #10272	; 0x2820
  2004fe:	f6c2 0c20 	movt	ip, #10272	; 0x2820
  200502:	6800      	ldr	r0, [r0, #0]
  200504:	f8dc 1000 	ldr.w	r1, [ip]
  200508:	f240 78c0 	movw	r8, #1984	; 0x7c0
  20050c:	2201      	movs	r2, #1
  20050e:	f2c0 0820 	movt	r8, #32
  200512:	46ee      	mov	lr, sp
  200514:	e008      	b.n	200528 <benchmark+0x40>
  200516:	bf00      	nop
  200518:	2500      	movs	r5, #0
  20051a:	4673      	mov	r3, lr
  20051c:	3203      	adds	r2, #3
  20051e:	2a64      	cmp	r2, #100	; 0x64
  200520:	6065      	str	r5, [r4, #4]
  200522:	601c      	str	r4, [r3, #0]
  200524:	f000 80a0 	beq.w	200668 <benchmark+0x180>
  200528:	f101 0508 	add.w	r5, r1, #8
  20052c:	4285      	cmp	r5, r0
  20052e:	bf92      	itee	ls
  200530:	f8cc 5000 	strls.w	r5, [ip]
  200534:	460d      	movhi	r5, r1
  200536:	2100      	movhi	r1, #0
  200538:	9c00      	ldr	r4, [sp, #0]
  20053a:	f858 6022 	ldr.w	r6, [r8, r2, lsl #2]
  20053e:	600e      	str	r6, [r1, #0]
  200540:	b1d4      	cbz	r4, 200578 <benchmark+0x90>
  200542:	6823      	ldr	r3, [r4, #0]
  200544:	42b3      	cmp	r3, r6
  200546:	4673      	mov	r3, lr
  200548:	da22      	bge.n	200590 <benchmark+0xa8>
  20054a:	6867      	ldr	r7, [r4, #4]
  20054c:	b1bf      	cbz	r7, 20057e <benchmark+0x96>
  20054e:	683b      	ldr	r3, [r7, #0]
  200550:	42b3      	cmp	r3, r6
  200552:	da17      	bge.n	200584 <benchmark+0x9c>
  200554:	687c      	ldr	r4, [r7, #4]
  200556:	b1c4      	cbz	r4, 20058a <benchmark+0xa2>
  200558:	6823      	ldr	r3, [r4, #0]
  20055a:	42b3      	cmp	r3, r6
  20055c:	da16      	bge.n	20058c <benchmark+0xa4>
  20055e:	6867      	ldr	r7, [r4, #4]
  200560:	b16f      	cbz	r7, 20057e <benchmark+0x96>
  200562:	683b      	ldr	r3, [r7, #0]
  200564:	42b3      	cmp	r3, r6
  200566:	da0d      	bge.n	200584 <benchmark+0x9c>
  200568:	687c      	ldr	r4, [r7, #4]
  20056a:	b174      	cbz	r4, 20058a <benchmark+0xa2>
  20056c:	6823      	ldr	r3, [r4, #0]
  20056e:	42b3      	cmp	r3, r6
  200570:	463b      	mov	r3, r7
  200572:	dbea      	blt.n	20054a <benchmark+0x62>
  200574:	e00b      	b.n	20058e <benchmark+0xa6>
  200576:	bf00      	nop
  200578:	2400      	movs	r4, #0
  20057a:	4673      	mov	r3, lr
  20057c:	e008      	b.n	200590 <benchmark+0xa8>
  20057e:	4623      	mov	r3, r4
  200580:	2400      	movs	r4, #0
  200582:	e004      	b.n	20058e <benchmark+0xa6>
  200584:	4623      	mov	r3, r4
  200586:	463c      	mov	r4, r7
  200588:	e001      	b.n	20058e <benchmark+0xa6>
  20058a:	2400      	movs	r4, #0
  20058c:	463b      	mov	r3, r7
  20058e:	3304      	adds	r3, #4
  200590:	604c      	str	r4, [r1, #4]
  200592:	f105 0408 	add.w	r4, r5, #8
  200596:	4284      	cmp	r4, r0
  200598:	6019      	str	r1, [r3, #0]
  20059a:	bf92      	itee	ls
  20059c:	f8cc 4000 	strls.w	r4, [ip]
  2005a0:	462c      	movhi	r4, r5
  2005a2:	2500      	movhi	r5, #0
  2005a4:	1c53      	adds	r3, r2, #1
  2005a6:	9900      	ldr	r1, [sp, #0]
  2005a8:	f858 6023 	ldr.w	r6, [r8, r3, lsl #2]
  2005ac:	602e      	str	r6, [r5, #0]
  2005ae:	b1c9      	cbz	r1, 2005e4 <benchmark+0xfc>
  2005b0:	680b      	ldr	r3, [r1, #0]
  2005b2:	42b3      	cmp	r3, r6
  2005b4:	da17      	bge.n	2005e6 <benchmark+0xfe>
  2005b6:	684b      	ldr	r3, [r1, #4]
  2005b8:	b1bb      	cbz	r3, 2005ea <benchmark+0x102>
  2005ba:	681f      	ldr	r7, [r3, #0]
  2005bc:	42b7      	cmp	r7, r6
  2005be:	da17      	bge.n	2005f0 <benchmark+0x108>
  2005c0:	6859      	ldr	r1, [r3, #4]
  2005c2:	b1c1      	cbz	r1, 2005f6 <benchmark+0x10e>
  2005c4:	680f      	ldr	r7, [r1, #0]
  2005c6:	42b7      	cmp	r7, r6
  2005c8:	da16      	bge.n	2005f8 <benchmark+0x110>
  2005ca:	684b      	ldr	r3, [r1, #4]
  2005cc:	b16b      	cbz	r3, 2005ea <benchmark+0x102>
  2005ce:	681f      	ldr	r7, [r3, #0]
  2005d0:	42b7      	cmp	r7, r6
  2005d2:	da0d      	bge.n	2005f0 <benchmark+0x108>
  2005d4:	6859      	ldr	r1, [r3, #4]
  2005d6:	b171      	cbz	r1, 2005f6 <benchmark+0x10e>
  2005d8:	680f      	ldr	r7, [r1, #0]
  2005da:	42b7      	cmp	r7, r6
  2005dc:	461f      	mov	r7, r3
  2005de:	dbea      	blt.n	2005b6 <benchmark+0xce>
  2005e0:	e00b      	b.n	2005fa <benchmark+0x112>
  2005e2:	bf00      	nop
  2005e4:	2100      	movs	r1, #0
  2005e6:	4673      	mov	r3, lr
  2005e8:	e008      	b.n	2005fc <benchmark+0x114>
  2005ea:	460f      	mov	r7, r1
  2005ec:	2100      	movs	r1, #0
  2005ee:	e004      	b.n	2005fa <benchmark+0x112>
  2005f0:	460f      	mov	r7, r1
  2005f2:	4619      	mov	r1, r3
  2005f4:	e001      	b.n	2005fa <benchmark+0x112>
  2005f6:	2100      	movs	r1, #0
  2005f8:	461f      	mov	r7, r3
  2005fa:	1d3b      	adds	r3, r7, #4
  2005fc:	6069      	str	r1, [r5, #4]
  2005fe:	f104 0108 	add.w	r1, r4, #8
  200602:	4281      	cmp	r1, r0
  200604:	601d      	str	r5, [r3, #0]
  200606:	bf92      	itee	ls
  200608:	f8cc 1000 	strls.w	r1, [ip]
  20060c:	4621      	movhi	r1, r4
  20060e:	2400      	movhi	r4, #0
  200610:	1c93      	adds	r3, r2, #2
  200612:	9d00      	ldr	r5, [sp, #0]
  200614:	f858 6023 	ldr.w	r6, [r8, r3, lsl #2]
  200618:	2d00      	cmp	r5, #0
  20061a:	6026      	str	r6, [r4, #0]
  20061c:	f43f af7c 	beq.w	200518 <benchmark+0x30>
  200620:	682b      	ldr	r3, [r5, #0]
  200622:	42b3      	cmp	r3, r6
  200624:	f6bf af79 	bge.w	20051a <benchmark+0x32>
  200628:	686b      	ldr	r3, [r5, #4]
  20062a:	b19b      	cbz	r3, 200654 <benchmark+0x16c>
  20062c:	681f      	ldr	r7, [r3, #0]
  20062e:	42b7      	cmp	r7, r6
  200630:	da13      	bge.n	20065a <benchmark+0x172>
  200632:	685d      	ldr	r5, [r3, #4]
  200634:	b1a5      	cbz	r5, 200660 <benchmark+0x178>
  200636:	682f      	ldr	r7, [r5, #0]
  200638:	42b7      	cmp	r7, r6
  20063a:	da12      	bge.n	200662 <benchmark+0x17a>
  20063c:	686b      	ldr	r3, [r5, #4]
  20063e:	b14b      	cbz	r3, 200654 <benchmark+0x16c>
  200640:	681f      	ldr	r7, [r3, #0]
  200642:	42b7      	cmp	r7, r6
  200644:	da09      	bge.n	20065a <benchmark+0x172>
  200646:	685d      	ldr	r5, [r3, #4]
  200648:	b155      	cbz	r5, 200660 <benchmark+0x178>
  20064a:	682f      	ldr	r7, [r5, #0]
  20064c:	42b7      	cmp	r7, r6
  20064e:	461f      	mov	r7, r3
  200650:	dbea      	blt.n	200628 <benchmark+0x140>
  200652:	e007      	b.n	200664 <benchmark+0x17c>
  200654:	462f      	mov	r7, r5
  200656:	2500      	movs	r5, #0
  200658:	e004      	b.n	200664 <benchmark+0x17c>
  20065a:	462f      	mov	r7, r5
  20065c:	461d      	mov	r5, r3
  20065e:	e001      	b.n	200664 <benchmark+0x17c>
  200660:	2500      	movs	r5, #0
  200662:	461f      	mov	r7, r3
  200664:	1d3b      	adds	r3, r7, #4
  200666:	e759      	b.n	20051c <benchmark+0x34>
  200668:	9900      	ldr	r1, [sp, #0]
  20066a:	2000      	movs	r0, #0
  20066c:	b189      	cbz	r1, 200692 <benchmark+0x1aa>
  20066e:	bf00      	nop
  200670:	e9d1 1200 	ldrd	r1, r2, [r1]
  200674:	4408      	add	r0, r1
  200676:	b162      	cbz	r2, 200692 <benchmark+0x1aa>
  200678:	e9d2 2100 	ldrd	r2, r1, [r2]
  20067c:	4410      	add	r0, r2
  20067e:	b141      	cbz	r1, 200692 <benchmark+0x1aa>
  200680:	e9d1 1200 	ldrd	r1, r2, [r1]
  200684:	4408      	add	r0, r1
  200686:	b122      	cbz	r2, 200692 <benchmark+0x1aa>
  200688:	e9d2 2100 	ldrd	r2, r1, [r2]
  20068c:	4410      	add	r0, r2
  20068e:	2900      	cmp	r1, #0
  200690:	d1ee      	bne.n	200670 <benchmark+0x188>
  200692:	b001      	add	sp, #4
  200694:	e8bd 81f0 	ldmia.w	sp!, {r4, r5, r6, r7, r8, pc}

00200698 <main>:
  200698:	b082      	sub	sp, #8
  20069a:	2400      	movs	r4, #0
  20069c:	f241 0804 	movw	r8, #4100	; 0x1004
  2006a0:	f44f 3080 	mov.w	r0, #65536	; 0x10000
  2006a4:	f2ce 0800 	movt	r8, #57344	; 0xe000
  2006a8:	9401      	str	r4, [sp, #4]
  2006aa:	f000 f872 	bl	200792 <main+0xfa>
  2006ae:	f240 0600 	movw	r6, #0
  2006b2:	f8c8 4000 	str.w	r4, [r8]
  2006b6:	f242 0900 	movw	r9, #8192	; 0x2000
  2006ba:	f6c2 0620 	movt	r6, #10272	; 0x2820
  2006be:	f242 0404 	movw	r4, #8196	; 0x2004
  2006c2:	f44f 7580 	mov.w	r5, #256	; 0x100
  2006c6:	f6c2 0920 	movt	r9, #10272	; 0x2820
  2006ca:	f506 5700 	add.w	r7, r6, #8192	; 0x2000
  2006ce:	f6c2 0420 	movt	r4, #10272	; 0x2820
  2006d2:	bf00      	nop
  2006d4:	f8c9 6000 	str.w	r6, [r9]
  2006d8:	6027      	str	r7, [r4, #0]
  2006da:	9801      	ldr	r0, [sp, #4]
  2006dc:	f7ff ff04 	bl	2004e8 <benchmark>
  2006e0:	9001      	str	r0, [sp, #4]
  2006e2:	9801      	ldr	r0, [sp, #4]
  2006e4:	3d01      	subs	r5, #1
  2006e6:	d1f5      	bne.n	2006d4 <main+0x3c>
  2006e8:	f8d8 0000 	ldr.w	r0, [r8]
  2006ec:	f000 f856 	bl	20079c <main+0x104>
  2006f0:	2000      	movs	r0, #0
  2006f2:	f44f 7580 	mov.w	r5, #256	; 0x100
  2006f6:	f8c8 0000 	str.w	r0, [r8]
  2006fa:	bf00      	nop
  2006fc:	f8c9 6000 	str.w	r6, [r9]
  200700:	6027      	str	r7, [r4, #0]
  200702:	9801      	ldr	r0, [sp, #4]
  200704:	f7ff fef0 	bl	2004e8 <benchmark>
  200708:	9001      	str	r0, [sp, #4]
  20070a:	9801      	ldr	r0, [sp, #4]
  20070c:	3d01      	subs	r5, #1
  20070e:	d1f5      	bne.n	2006fc <main+0x64>
  200710:	f8d8 0000 	ldr.w	r0, [r8]
  200714:	f000 f842 	bl	20079c <main+0x104>
  200718:	2000      	movs	r0, #0
  20071a:	f44f 7580 	mov.w	r5, #256	; 0x100
  20071e:	f8c8 0000 	str.w	r0, [r8]
  200722:	bf00      	nop
  200724:	f8c9 6000 	str.w	r6, [r9]
  200728:	6027      	str	r7, [r4, #0]
  20072a:	9801      	ldr	r0, [sp, #4]
  20072c:	f7ff fedc 	bl	2004e8 <benchmark>
  200730:	9001      	str	r0, [sp, #4]
  200732:	9801      	ldr	r0, [sp, #4]
  200734:	3d01      	subs	r5, #1
  200736:	d1f5      	bne.n	200724 <main+0x8c>
  200738:	f8d8 0000 	ldr.w	r0, [r8]
  20073c:	f000 f82e 	bl	20079c <main+0x104>
  200740:	2000      	movs	r0, #0
  200742:	f44f 7580 	mov.w	r5, #256	; 0x100
  200746:	f8c8 0000 	str.w	r0, [r8]
  20074a:	bf00      	nop
  20074c:	f8c9 6000 	str.w	r6, [r9]
  200750:	6027      	str	r7, [r4, #0]
  200752:	9801      	ldr	r0, [sp, #4]
  200754:	f7ff fec8 	bl	2004e8 <benchmark>
  200758:	9001      	str	r0, [sp, #4]
  20075a:	9801      	ldr	r0, [sp, #4]
  20075c:	3d01      	subs	r5, #1
  20075e:	d1f5      	bne.n	20074c <main+0xb4>
  200760:	f8d8 0000 	ldr.w	r0, [r8]
  200764:	f000 f81a 	bl	20079c <main+0x104>
  200768:	2000      	movs	r0, #0
  20076a:	f44f 7580 	mov.w	r5, #256	; 0x100
  20076e:	f8c8 0000 	str.w	r0, [r8]
  200772:	bf00      	nop
  200774:	f8c9 6000 	str.w	r6, [r9]
  200778:	6027      	str	r7, [r4, #0]
  20077a:	9801      	ldr	r0, [sp, #4]
  20077c:	f7ff feb4 	bl	2004e8 <benchmark>
  200780:	9001      	str	r0, [sp, #4]
  200782:	9801      	ldr	r0, [sp, #4]
  200784:	3d01      	subs	r5, #1
  200786:	d1f5      	bne.n	200774 <main+0xdc>
  200788:	f8d8 0000 	ldr.w	r0, [r8]
  20078c:	f000 f806 	bl	20079c <main+0x104>
  200790:	e7fe      	b.n	200790 <main+0xf8>
  200792:	f64f 6c11 	movw	ip, #65041	; 0xfe11
  200796:	f2c1 0c1f 	movt	ip, #4127	; 0x101f
  20079a:	4760      	bx	ip
  20079c:	f64f 6c19 	movw	ip, #65049	; 0xfe19
  2007a0:	f2c1 0c1f 	movt	ip, #4127	; 0x101f
  2007a4:	4760      	bx	ip

002007a6 <_fp_init>:
  2007a6:	eef1 0a10 	vmrs	r0, fpscr
  2007aa:	f64f 71ff 	movw	r1, #65535	; 0xffff
  2007ae:	f2c0 31c0 	movt	r1, #960	; 0x3c0
  2007b2:	ea20 0001 	bic.w	r0, r0, r1
  2007b6:	f040 7040 	orr.w	r0, r0, #50331648	; 0x3000000
  2007ba:	eee1 0a10 	vmsr	fpscr, r0

002007be <__fplib_config_fpu_vfp>:
  2007be:	4770      	bx	lr

002007c0 <array>:
  2007c0:	000e 0000 0042 0000 000c 0000 0029 0000     ....B.......)...
  2007d0:	0056 0000 0045 0000 0013 0000 004d 0000     V...E.......M...
  2007e0:	0044 0000 0026 0000 001a 0000 002a 0000     D...&.......*...
  2007f0:	0025 0000 0017 0000 0011 0000 001d 0000     %...............
  200800:	0037 0000 000d 0000 005a 0000 005c 0000     7.......Z...\...
  200810:	004c 0000 0063 0000 000a 0000 0036 0000     L...c.......6...
  200820:	0039 0000 0053 0000 0028 0000 002c 0000     9...S...(...,...
  200830:	004b 0000 0021 0000 0018 0000 001c 0000     K...!...........
  200840:	0050 0000 0012 0000 004e 0000 0020 0000     P.......N... ...
  200850:	005d 0000 0059 0000 0034 0000 000b 0000     ]...Y...4.......
  200860:	0015 0000 0060 0000 0032 0000 000f 0000     ....`...2.......
  200870:	0030 0000 003f 0000 0057 0000 0014 0000     0...?...W.......
  200880:	0008 0000 0055 0000 002b 0000 0010 0000     ....U...+.......
  200890:	005e 0000 0058 0000 0035 0000 0054 0000     ^...X...5...T...
  2008a0:	004a 0000 005b 0000 0043 0000 0024 0000     J...[...C...$...
  2008b0:	005f 0000 003d 0000 0040 0000 0005 0000     _...=...@.......
  2008c0:	001e 0000 0052 0000 0048 0000 002e 0000     ....R...H.......
  2008d0:	003b 0000 0009 0000 0007 0000 0003 0000     ;...............
  2008e0:	0027 0000 001f 0000 0004 0000 0049 0000     '...........I...
  2008f0:	0046 0000 003c 0000 003a 0000 0051 0000     F...<...:...Q...
  200900:	0038 0000 0033 0000 002d 0000 0001 0000     8...3...-.......
  200910:	0006 0000 0031 0000 001b 0000 002f 0000     ....1......./...
  200920:	0022 0000 0023 0000 003e 0000 0061 0000     "...#...>...a...
  200930:	0002 0000 004f 0000 0062 0000 0019 0000     ....O...b.......
  200940:	0016 0000 0041 0000 0047 0000 0000 0000     ....A...G.......

00200950 <Region$$Table$$Base>:
  200950:	00200960 	.word	0x00200960
  200954:	28200000 	.word	0x28200000
  200958:	00002008 	.word	0x00002008
  20095c:	0020043c 	.word	0x0020043c
