
../../Example/out/eval/O3/elf_ns/sglib_arrayheapsort.axf:     file format elf32-littlearm


Disassembly of section ER_ROM:

00200000 <__Vectors>:
  200000:	00 00 40 28 11 05 20 00 09 05 20 00 0d 05 20 00     ..@(.. ... ... .
  200010:	09 05 20 00 09 05 20 00 09 05 20 00 09 05 20 00     .. ... ... ... .
	...
  20002c:	09 05 20 00 09 05 20 00 00 00 00 00 09 05 20 00     .. ... ....... .
  20003c:	09 05 20 00 09 05 20 00 09 05 20 00 09 05 20 00     .. ... ... ... .
  20004c:	09 05 20 00 09 05 20 00 09 05 20 00 00 00 00 00     .. ... ... .....
	...
  200064:	09 05 20 00 09 05 20 00 09 05 20 00 09 05 20 00     .. ... ... ... .
	...
  2000c0:	09 05 20 00 09 05 20 00 09 05 20 00 09 05 20 00     .. ... ... ... .
  2000d0:	09 05 20 00 09 05 20 00 09 05 20 00 09 05 20 00     .. ... ... ... .
  2000e0:	09 05 20 00 09 05 20 00 09 05 20 00 09 05 20 00     .. ... ... ... .
  2000f0:	09 05 20 00 09 05 20 00 09 05 20 00 09 05 20 00     .. ... ... ... .
  200100:	09 05 20 00 09 05 20 00 09 05 20 00 09 05 20 00     .. ... ... ... .
  200110:	09 05 20 00 09 05 20 00 09 05 20 00 09 05 20 00     .. ... ... ... .
  200120:	09 05 20 00 09 05 20 00 09 05 20 00 09 05 20 00     .. ... ... ... .
  200130:	09 05 20 00 09 05 20 00 09 05 20 00 09 05 20 00     .. ... ... ... .
  200140:	09 05 20 00 09 05 20 00 09 05 20 00 09 05 20 00     .. ... ... ... .
  200150:	09 05 20 00 09 05 20 00 09 05 20 00 09 05 20 00     .. ... ... ... .
  200160:	09 05 20 00 09 05 20 00 09 05 20 00 09 05 20 00     .. ... ... ... .
  200170:	09 05 20 00 09 05 20 00 09 05 20 00 09 05 20 00     .. ... ... ... .
  200180:	09 05 20 00 09 05 20 00 09 05 20 00 09 05 20 00     .. ... ... ... .
  200190:	09 05 20 00 09 05 20 00 09 05 20 00 09 05 20 00     .. ... ... ... .
  2001a0:	09 05 20 00 09 05 20 00 09 05 20 00 09 05 20 00     .. ... ... ... .
  2001b0:	09 05 20 00 09 05 20 00 09 05 20 00 09 05 20 00     .. ... ... ... .
  2001c0:	09 05 20 00 09 05 20 00 09 05 20 00 09 05 20 00     .. ... ... ... .
  2001d0:	09 05 20 00 09 05 20 00 09 05 20 00 09 05 20 00     .. ... ... ... .
  2001e0:	09 05 20 00 09 05 20 00 09 05 20 00 09 05 20 00     .. ... ... ... .
  2001f0:	09 05 20 00 09 05 20 00 09 05 20 00 09 05 20 00     .. ... ... ... .
  200200:	09 05 20 00 09 05 20 00 09 05 20 00 09 05 20 00     .. ... ... ... .
  200210:	09 05 20 00 09 05 20 00 09 05 20 00 09 05 20 00     .. ... ... ... .
  200220:	09 05 20 00 09 05 20 00 09 05 20 00 09 05 20 00     .. ... ... ... .
	...

00200400 <__main>:
  200400:	f000 f802 	bl	200408 <__scatterload_rt2>
  200404:	f000 f82e 	bl	200464 <__rt_entry>

00200408 <__scatterload_rt2>:
  200408:	a00a      	add	r0, pc, #40	; (adr r0, 200434 <__scatterload_null+0x1e>)
  20040a:	e890 0c00 	ldmia.w	r0, {sl, fp}
  20040e:	4482      	add	sl, r0
  200410:	4483      	add	fp, r0
  200412:	f1aa 0701 	sub.w	r7, sl, #1

00200416 <__scatterload_null>:
  200416:	45da      	cmp	sl, fp
  200418:	d101      	bne.n	20041e <__scatterload_null+0x8>
  20041a:	f000 f823 	bl	200464 <__rt_entry>
  20041e:	f2af 0e09 	subw	lr, pc, #9
  200422:	e8ba 000f 	ldmia.w	sl!, {r0, r1, r2, r3}
  200426:	f013 0f01 	tst.w	r3, #1
  20042a:	bf18      	it	ne
  20042c:	1afb      	subne	r3, r7, r3
  20042e:	f043 0301 	orr.w	r3, r3, #1
  200432:	4718      	bx	r3
  200434:	00000558 	.word	0x00000558
  200438:	00000568 	.word	0x00000568

0020043c <__scatterload_zeroinit>:
  20043c:	2300      	movs	r3, #0
  20043e:	2400      	movs	r4, #0
  200440:	2500      	movs	r5, #0
  200442:	2600      	movs	r6, #0
  200444:	3a10      	subs	r2, #16
  200446:	bf28      	it	cs
  200448:	c178      	stmiacs	r1!, {r3, r4, r5, r6}
  20044a:	d8fb      	bhi.n	200444 <__scatterload_zeroinit+0x8>
  20044c:	0752      	lsls	r2, r2, #29
  20044e:	bf28      	it	cs
  200450:	c130      	stmiacs	r1!, {r4, r5}
  200452:	bf48      	it	mi
  200454:	600b      	strmi	r3, [r1, #0]
  200456:	4770      	bx	lr

00200458 <__rt_lib_init>:
  200458:	b51f      	push	{r0, r1, r2, r3, r4, lr}

0020045a <__rt_lib_init_fp_1>:
  20045a:	f000 f9c2 	bl	2007e2 <_fp_init>

0020045e <__rt_lib_init_alloca_1>:
  20045e:	bd1f      	pop	{r0, r1, r2, r3, r4, pc}

00200460 <__rt_lib_shutdown>:
  200460:	b510      	push	{r4, lr}

00200462 <__rt_lib_shutdown_cpp_1>:
  200462:	bd10      	pop	{r4, pc}

00200464 <__rt_entry>:
  200464:	f8df d00c 	ldr.w	sp, [pc, #12]	; 200474 <__lit__00000000>

00200468 <__rt_entry_li>:
  200468:	f7ff fff6 	bl	200458 <__rt_lib_init>

0020046c <__rt_entry_main>:
  20046c:	f000 f95e 	bl	20072c <main>
  200470:	f000 f808 	bl	200484 <exit>

00200474 <__lit__00000000>:
  200474:	0000 2840                                   ..@(

00200478 <__rt_exit>:
  200478:	b403      	push	{r0, r1}

0020047a <__rt_exit_ls>:
  20047a:	f7ff fff1 	bl	200460 <__rt_lib_shutdown>

0020047e <__rt_exit_exit>:
  20047e:	bc03      	pop	{r0, r1}
  200480:	f000 f80a 	bl	200498 <_sys_exit>

00200484 <exit>:
  200484:	b510      	push	{r4, lr}
  200486:	4604      	mov	r4, r0
  200488:	f3af 8000 	nop.w
  20048c:	4620      	mov	r0, r4
  20048e:	e8bd 4010 	ldmia.w	sp!, {r4, lr}
  200492:	f7ff bff1 	b.w	200478 <__rt_exit>

00200496 <__use_no_semihosting_swi>:
  200496:	4770      	bx	lr

00200498 <_sys_exit>:
  200498:	4901      	ldr	r1, [pc, #4]	; (2004a0 <_sys_exit+0x8>)
  20049a:	2018      	movs	r0, #24
  20049c:	beab      	bkpt	0x00ab
  20049e:	e7fe      	b.n	20049e <_sys_exit+0x6>
  2004a0:	00020026 	.word	0x00020026

002004a4 <__rt_memcpy_w>:
  2004a4:	b510      	push	{r4, lr}
  2004a6:	3a20      	subs	r2, #32
  2004a8:	f0c0 800b 	bcc.w	2004c2 <__rt_memcpy_w+0x1e>
  2004ac:	e8b1 5018 	ldmia.w	r1!, {r3, r4, ip, lr}
  2004b0:	e8a0 5018 	stmia.w	r0!, {r3, r4, ip, lr}
  2004b4:	e8b1 5018 	ldmia.w	r1!, {r3, r4, ip, lr}
  2004b8:	e8a0 5018 	stmia.w	r0!, {r3, r4, ip, lr}
  2004bc:	3a20      	subs	r2, #32
  2004be:	f4bf aff5 	bcs.w	2004ac <__rt_memcpy_w+0x8>
  2004c2:	ea5f 7c02 	movs.w	ip, r2, lsl #28
  2004c6:	bf24      	itt	cs
  2004c8:	e8b1 5018 	ldmiacs.w	r1!, {r3, r4, ip, lr}
  2004cc:	e8a0 5018 	stmiacs.w	r0!, {r3, r4, ip, lr}
  2004d0:	bf44      	itt	mi
  2004d2:	c918      	ldmiami	r1!, {r3, r4}
  2004d4:	c018      	stmiami	r0!, {r3, r4}
  2004d6:	e8bd 4010 	ldmia.w	sp!, {r4, lr}
  2004da:	ea5f 7c82 	movs.w	ip, r2, lsl #30
  2004de:	bf24      	itt	cs
  2004e0:	f851 3b04 	ldrcs.w	r3, [r1], #4
  2004e4:	f840 3b04 	strcs.w	r3, [r0], #4
  2004e8:	bf08      	it	eq
  2004ea:	4770      	bxeq	lr

002004ec <_memcpy_lastbytes_aligned>:
  2004ec:	07d2      	lsls	r2, r2, #31
  2004ee:	bf28      	it	cs
  2004f0:	f831 3b02 	ldrhcs.w	r3, [r1], #2
  2004f4:	bf48      	it	mi
  2004f6:	f811 2b01 	ldrbmi.w	r2, [r1], #1
  2004fa:	bf28      	it	cs
  2004fc:	f820 3b02 	strhcs.w	r3, [r0], #2
  200500:	bf48      	it	mi
  200502:	f800 2b01 	strbmi.w	r2, [r0], #1
  200506:	4770      	bx	lr

00200508 <Default_Handler>:
  200508:	e7fe      	b.n	200508 <Default_Handler>
	...

0020050c <HardFault_Handler>:
  20050c:	e7fe      	b.n	20050c <HardFault_Handler>
	...

00200510 <Reset_Handler>:
  200510:	f240 0000 	movw	r0, #0
  200514:	f6c2 0040 	movt	r0, #10304	; 0x2840
  200518:	f380 8809 	msr	PSP, r0
  20051c:	f240 0000 	movw	r0, #0
  200520:	f64e 5288 	movw	r2, #60808	; 0xed88
  200524:	f64f 4100 	movw	r1, #64512	; 0xfc00
  200528:	f2c0 0020 	movt	r0, #32
  20052c:	f2ce 0200 	movt	r2, #57344	; 0xe000
  200530:	f6c2 013f 	movt	r1, #10303	; 0x283f
  200534:	f381 880a 	msr	MSPLIM, r1
  200538:	f381 880b 	msr	PSPLIM, r1
  20053c:	f842 0c80 	str.w	r0, [r2, #-128]
  200540:	6810      	ldr	r0, [r2, #0]
  200542:	f440 0070 	orr.w	r0, r0, #15728640	; 0xf00000
  200546:	6010      	str	r0, [r2, #0]
  200548:	f7ff ff5a 	bl	200400 <__main>

0020054c <benchmark>:
  20054c:	b5f0      	push	{r4, r5, r6, r7, lr}
  20054e:	b081      	sub	sp, #4
  200550:	f240 0400 	movw	r4, #0
  200554:	2000      	movs	r0, #0
  200556:	f6c2 0420 	movt	r4, #10272	; 0x2820
  20055a:	f240 71fc 	movw	r1, #2044	; 0x7fc
  20055e:	9000      	str	r0, [sp, #0]
  200560:	f2c0 0120 	movt	r1, #32
  200564:	4620      	mov	r0, r4
  200566:	f44f 72c8 	mov.w	r2, #400	; 0x190
  20056a:	f7ff ff9b 	bl	2004a4 <__rt_memcpy_w>
  20056e:	f04f 0c32 	mov.w	ip, #50	; 0x32
  200572:	e004      	b.n	20057e <benchmark+0x32>
  200574:	f1be 0f00 	cmp.w	lr, #0
  200578:	f1ac 0c03 	sub.w	ip, ip, #3
  20057c:	d070      	beq.n	200660 <benchmark+0x114>
  20057e:	ea4f 004c 	mov.w	r0, ip, lsl #1
  200582:	1c45      	adds	r5, r0, #1
  200584:	2d63      	cmp	r5, #99	; 0x63
  200586:	d820      	bhi.n	2005ca <benchmark+0x7e>
  200588:	f854 102c 	ldr.w	r1, [r4, ip, lsl #2]
  20058c:	4662      	mov	r2, ip
  20058e:	bf00      	nop
  200590:	f854 3025 	ldr.w	r3, [r4, r5, lsl #2]
  200594:	3002      	adds	r0, #2
  200596:	4299      	cmp	r1, r3
  200598:	462b      	mov	r3, r5
  20059a:	bfa8      	it	ge
  20059c:	4613      	movge	r3, r2
  20059e:	2863      	cmp	r0, #99	; 0x63
  2005a0:	dc06      	bgt.n	2005b0 <benchmark+0x64>
  2005a2:	f854 6023 	ldr.w	r6, [r4, r3, lsl #2]
  2005a6:	f854 5020 	ldr.w	r5, [r4, r0, lsl #2]
  2005aa:	42ae      	cmp	r6, r5
  2005ac:	bfb8      	it	lt
  2005ae:	4603      	movlt	r3, r0
  2005b0:	4293      	cmp	r3, r2
  2005b2:	d00a      	beq.n	2005ca <benchmark+0x7e>
  2005b4:	f854 0023 	ldr.w	r0, [r4, r3, lsl #2]
  2005b8:	f844 0022 	str.w	r0, [r4, r2, lsl #2]
  2005bc:	0058      	lsls	r0, r3, #1
  2005be:	1c45      	adds	r5, r0, #1
  2005c0:	2d64      	cmp	r5, #100	; 0x64
  2005c2:	461a      	mov	r2, r3
  2005c4:	f844 1023 	str.w	r1, [r4, r3, lsl #2]
  2005c8:	dbe2      	blt.n	200590 <benchmark+0x44>
  2005ca:	f1ac 0201 	sub.w	r2, ip, #1
  2005ce:	0050      	lsls	r0, r2, #1
  2005d0:	f854 1022 	ldr.w	r1, [r4, r2, lsl #2]
  2005d4:	1c46      	adds	r6, r0, #1
  2005d6:	bf00      	nop
  2005d8:	f854 3026 	ldr.w	r3, [r4, r6, lsl #2]
  2005dc:	3002      	adds	r0, #2
  2005de:	4299      	cmp	r1, r3
  2005e0:	4633      	mov	r3, r6
  2005e2:	bfa8      	it	ge
  2005e4:	4613      	movge	r3, r2
  2005e6:	2863      	cmp	r0, #99	; 0x63
  2005e8:	dc06      	bgt.n	2005f8 <benchmark+0xac>
  2005ea:	f854 6023 	ldr.w	r6, [r4, r3, lsl #2]
  2005ee:	f854 5020 	ldr.w	r5, [r4, r0, lsl #2]
  2005f2:	42ae      	cmp	r6, r5
  2005f4:	bfb8      	it	lt
  2005f6:	4603      	movlt	r3, r0
  2005f8:	4293      	cmp	r3, r2
  2005fa:	d00a      	beq.n	200612 <benchmark+0xc6>
  2005fc:	f854 0023 	ldr.w	r0, [r4, r3, lsl #2]
  200600:	f844 0022 	str.w	r0, [r4, r2, lsl #2]
  200604:	0058      	lsls	r0, r3, #1
  200606:	1c46      	adds	r6, r0, #1
  200608:	2e64      	cmp	r6, #100	; 0x64
  20060a:	461a      	mov	r2, r3
  20060c:	f844 1023 	str.w	r1, [r4, r3, lsl #2]
  200610:	dbe2      	blt.n	2005d8 <benchmark+0x8c>
  200612:	f1ac 0e02 	sub.w	lr, ip, #2
  200616:	ea4f 054e 	mov.w	r5, lr, lsl #1
  20061a:	f854 202e 	ldr.w	r2, [r4, lr, lsl #2]
  20061e:	1c6e      	adds	r6, r5, #1
  200620:	4671      	mov	r1, lr
  200622:	bf00      	nop
  200624:	f854 3026 	ldr.w	r3, [r4, r6, lsl #2]
  200628:	3502      	adds	r5, #2
  20062a:	429a      	cmp	r2, r3
  20062c:	4633      	mov	r3, r6
  20062e:	bfa8      	it	ge
  200630:	460b      	movge	r3, r1
  200632:	2d63      	cmp	r5, #99	; 0x63
  200634:	dc06      	bgt.n	200644 <benchmark+0xf8>
  200636:	f854 6023 	ldr.w	r6, [r4, r3, lsl #2]
  20063a:	f854 0025 	ldr.w	r0, [r4, r5, lsl #2]
  20063e:	4286      	cmp	r6, r0
  200640:	bfb8      	it	lt
  200642:	462b      	movlt	r3, r5
  200644:	428b      	cmp	r3, r1
  200646:	d095      	beq.n	200574 <benchmark+0x28>
  200648:	f854 0023 	ldr.w	r0, [r4, r3, lsl #2]
  20064c:	005d      	lsls	r5, r3, #1
  20064e:	1c6e      	adds	r6, r5, #1
  200650:	f844 0021 	str.w	r0, [r4, r1, lsl #2]
  200654:	2e64      	cmp	r6, #100	; 0x64
  200656:	4619      	mov	r1, r3
  200658:	f844 2023 	str.w	r2, [r4, r3, lsl #2]
  20065c:	dbe2      	blt.n	200624 <benchmark+0xd8>
  20065e:	e789      	b.n	200574 <benchmark+0x28>
  200660:	f04f 0e63 	mov.w	lr, #99	; 0x63
  200664:	f04f 0c02 	mov.w	ip, #2
  200668:	e004      	b.n	200674 <benchmark+0x128>
  20066a:	bf00      	nop
  20066c:	2a00      	cmp	r2, #0
  20066e:	f1ae 0e02 	sub.w	lr, lr, #2
  200672:	d058      	beq.n	200726 <benchmark+0x1da>
  200674:	f854 002e 	ldr.w	r0, [r4, lr, lsl #2]
  200678:	6821      	ldr	r1, [r4, #0]
  20067a:	f1be 0f02 	cmp.w	lr, #2
  20067e:	6020      	str	r0, [r4, #0]
  200680:	f844 102e 	str.w	r1, [r4, lr, lsl #2]
  200684:	d322      	bcc.n	2006cc <benchmark+0x180>
  200686:	6822      	ldr	r2, [r4, #0]
  200688:	2300      	movs	r3, #0
  20068a:	2501      	movs	r5, #1
  20068c:	2002      	movs	r0, #2
  20068e:	bf00      	nop
  200690:	f854 1025 	ldr.w	r1, [r4, r5, lsl #2]
  200694:	428a      	cmp	r2, r1
  200696:	4629      	mov	r1, r5
  200698:	bfa8      	it	ge
  20069a:	4619      	movge	r1, r3
  20069c:	4570      	cmp	r0, lr
  20069e:	da06      	bge.n	2006ae <benchmark+0x162>
  2006a0:	f854 5021 	ldr.w	r5, [r4, r1, lsl #2]
  2006a4:	f854 6020 	ldr.w	r6, [r4, r0, lsl #2]
  2006a8:	42b5      	cmp	r5, r6
  2006aa:	bfb8      	it	lt
  2006ac:	4601      	movlt	r1, r0
  2006ae:	4299      	cmp	r1, r3
  2006b0:	d00c      	beq.n	2006cc <benchmark+0x180>
  2006b2:	f854 0021 	ldr.w	r0, [r4, r1, lsl #2]
  2006b6:	f844 0023 	str.w	r0, [r4, r3, lsl #2]
  2006ba:	0048      	lsls	r0, r1, #1
  2006bc:	1c45      	adds	r5, r0, #1
  2006be:	eb0c 0041 	add.w	r0, ip, r1, lsl #1
  2006c2:	4575      	cmp	r5, lr
  2006c4:	460b      	mov	r3, r1
  2006c6:	f844 2021 	str.w	r2, [r4, r1, lsl #2]
  2006ca:	dbe1      	blt.n	200690 <benchmark+0x144>
  2006cc:	f1ae 0201 	sub.w	r2, lr, #1
  2006d0:	f854 0022 	ldr.w	r0, [r4, r2, lsl #2]
  2006d4:	6821      	ldr	r1, [r4, #0]
  2006d6:	2a02      	cmp	r2, #2
  2006d8:	6020      	str	r0, [r4, #0]
  2006da:	f844 1022 	str.w	r1, [r4, r2, lsl #2]
  2006de:	d3c5      	bcc.n	20066c <benchmark+0x120>
  2006e0:	6823      	ldr	r3, [r4, #0]
  2006e2:	2000      	movs	r0, #0
  2006e4:	2601      	movs	r6, #1
  2006e6:	2502      	movs	r5, #2
  2006e8:	f854 1026 	ldr.w	r1, [r4, r6, lsl #2]
  2006ec:	428b      	cmp	r3, r1
  2006ee:	4631      	mov	r1, r6
  2006f0:	bfa8      	it	ge
  2006f2:	4601      	movge	r1, r0
  2006f4:	4295      	cmp	r5, r2
  2006f6:	da06      	bge.n	200706 <benchmark+0x1ba>
  2006f8:	f854 6021 	ldr.w	r6, [r4, r1, lsl #2]
  2006fc:	f854 7025 	ldr.w	r7, [r4, r5, lsl #2]
  200700:	42be      	cmp	r6, r7
  200702:	bfb8      	it	lt
  200704:	4629      	movlt	r1, r5
  200706:	4281      	cmp	r1, r0
  200708:	d0b0      	beq.n	20066c <benchmark+0x120>
  20070a:	f854 5021 	ldr.w	r5, [r4, r1, lsl #2]
  20070e:	f844 5020 	str.w	r5, [r4, r0, lsl #2]
  200712:	0048      	lsls	r0, r1, #1
  200714:	1c46      	adds	r6, r0, #1
  200716:	eb0c 0541 	add.w	r5, ip, r1, lsl #1
  20071a:	4296      	cmp	r6, r2
  20071c:	4608      	mov	r0, r1
  20071e:	f844 3021 	str.w	r3, [r4, r1, lsl #2]
  200722:	dbe1      	blt.n	2006e8 <benchmark+0x19c>
  200724:	e7a2      	b.n	20066c <benchmark+0x120>
  200726:	9800      	ldr	r0, [sp, #0]
  200728:	b001      	add	sp, #4
  20072a:	bdf0      	pop	{r4, r5, r6, r7, pc}

0020072c <main>:
  20072c:	b082      	sub	sp, #8
  20072e:	2500      	movs	r5, #0
  200730:	f241 0404 	movw	r4, #4100	; 0x1004
  200734:	f44f 3080 	mov.w	r0, #65536	; 0x10000
  200738:	f2ce 0400 	movt	r4, #57344	; 0xe000
  20073c:	9501      	str	r5, [sp, #4]
  20073e:	f000 f846 	bl	2007ce <main+0xa2>
  200742:	6025      	str	r5, [r4, #0]
  200744:	f44f 7580 	mov.w	r5, #256	; 0x100
  200748:	9801      	ldr	r0, [sp, #4]
  20074a:	f7ff feff 	bl	20054c <benchmark>
  20074e:	9001      	str	r0, [sp, #4]
  200750:	9801      	ldr	r0, [sp, #4]
  200752:	3d01      	subs	r5, #1
  200754:	d1f8      	bne.n	200748 <main+0x1c>
  200756:	6820      	ldr	r0, [r4, #0]
  200758:	f000 f83e 	bl	2007d8 <main+0xac>
  20075c:	2000      	movs	r0, #0
  20075e:	f44f 7580 	mov.w	r5, #256	; 0x100
  200762:	6020      	str	r0, [r4, #0]
  200764:	9801      	ldr	r0, [sp, #4]
  200766:	f7ff fef1 	bl	20054c <benchmark>
  20076a:	9001      	str	r0, [sp, #4]
  20076c:	9801      	ldr	r0, [sp, #4]
  20076e:	3d01      	subs	r5, #1
  200770:	d1f8      	bne.n	200764 <main+0x38>
  200772:	6820      	ldr	r0, [r4, #0]
  200774:	f000 f830 	bl	2007d8 <main+0xac>
  200778:	2000      	movs	r0, #0
  20077a:	f44f 7580 	mov.w	r5, #256	; 0x100
  20077e:	6020      	str	r0, [r4, #0]
  200780:	9801      	ldr	r0, [sp, #4]
  200782:	f7ff fee3 	bl	20054c <benchmark>
  200786:	9001      	str	r0, [sp, #4]
  200788:	9801      	ldr	r0, [sp, #4]
  20078a:	3d01      	subs	r5, #1
  20078c:	d1f8      	bne.n	200780 <main+0x54>
  20078e:	6820      	ldr	r0, [r4, #0]
  200790:	f000 f822 	bl	2007d8 <main+0xac>
  200794:	2000      	movs	r0, #0
  200796:	f44f 7580 	mov.w	r5, #256	; 0x100
  20079a:	6020      	str	r0, [r4, #0]
  20079c:	9801      	ldr	r0, [sp, #4]
  20079e:	f7ff fed5 	bl	20054c <benchmark>
  2007a2:	9001      	str	r0, [sp, #4]
  2007a4:	9801      	ldr	r0, [sp, #4]
  2007a6:	3d01      	subs	r5, #1
  2007a8:	d1f8      	bne.n	20079c <main+0x70>
  2007aa:	6820      	ldr	r0, [r4, #0]
  2007ac:	f000 f814 	bl	2007d8 <main+0xac>
  2007b0:	2000      	movs	r0, #0
  2007b2:	f44f 7580 	mov.w	r5, #256	; 0x100
  2007b6:	6020      	str	r0, [r4, #0]
  2007b8:	9801      	ldr	r0, [sp, #4]
  2007ba:	f7ff fec7 	bl	20054c <benchmark>
  2007be:	9001      	str	r0, [sp, #4]
  2007c0:	9801      	ldr	r0, [sp, #4]
  2007c2:	3d01      	subs	r5, #1
  2007c4:	d1f8      	bne.n	2007b8 <main+0x8c>
  2007c6:	6820      	ldr	r0, [r4, #0]
  2007c8:	f000 f806 	bl	2007d8 <main+0xac>
  2007cc:	e7fe      	b.n	2007cc <main+0xa0>
  2007ce:	f64f 6c11 	movw	ip, #65041	; 0xfe11
  2007d2:	f2c1 0c1f 	movt	ip, #4127	; 0x101f
  2007d6:	4760      	bx	ip
  2007d8:	f64f 6c19 	movw	ip, #65049	; 0xfe19
  2007dc:	f2c1 0c1f 	movt	ip, #4127	; 0x101f
  2007e0:	4760      	bx	ip

002007e2 <_fp_init>:
  2007e2:	eef1 0a10 	vmrs	r0, fpscr
  2007e6:	f64f 71ff 	movw	r1, #65535	; 0xffff
  2007ea:	f2c0 31c0 	movt	r1, #960	; 0x3c0
  2007ee:	ea20 0001 	bic.w	r0, r0, r1
  2007f2:	f040 7040 	orr.w	r0, r0, #50331648	; 0x3000000
  2007f6:	eee1 0a10 	vmsr	fpscr, r0

002007fa <__fplib_config_fpu_vfp>:
  2007fa:	4770      	bx	lr

002007fc <array>:
  2007fc:	000e 0000 0042 0000 000c 0000 0029 0000     ....B.......)...
  20080c:	0056 0000 0045 0000 0013 0000 004d 0000     V...E.......M...
  20081c:	0044 0000 0026 0000 001a 0000 002a 0000     D...&.......*...
  20082c:	0025 0000 0017 0000 0011 0000 001d 0000     %...............
  20083c:	0037 0000 000d 0000 005a 0000 005c 0000     7.......Z...\...
  20084c:	004c 0000 0063 0000 000a 0000 0036 0000     L...c.......6...
  20085c:	0039 0000 0053 0000 0028 0000 002c 0000     9...S...(...,...
  20086c:	004b 0000 0021 0000 0018 0000 001c 0000     K...!...........
  20087c:	0050 0000 0012 0000 004e 0000 0020 0000     P.......N... ...
  20088c:	005d 0000 0059 0000 0034 0000 000b 0000     ]...Y...4.......
  20089c:	0015 0000 0060 0000 0032 0000 000f 0000     ....`...2.......
  2008ac:	0030 0000 003f 0000 0057 0000 0014 0000     0...?...W.......
  2008bc:	0008 0000 0055 0000 002b 0000 0010 0000     ....U...+.......
  2008cc:	005e 0000 0058 0000 0035 0000 0054 0000     ^...X...5...T...
  2008dc:	004a 0000 005b 0000 0043 0000 0024 0000     J...[...C...$...
  2008ec:	005f 0000 003d 0000 0040 0000 0005 0000     _...=...@.......
  2008fc:	001e 0000 0052 0000 0048 0000 002e 0000     ....R...H.......
  20090c:	003b 0000 0009 0000 0007 0000 0003 0000     ;...............
  20091c:	0027 0000 001f 0000 0004 0000 0049 0000     '...........I...
  20092c:	0046 0000 003c 0000 003a 0000 0051 0000     F...<...:...Q...
  20093c:	0038 0000 0033 0000 002d 0000 0001 0000     8...3...-.......
  20094c:	0006 0000 0031 0000 001b 0000 002f 0000     ....1......./...
  20095c:	0022 0000 0023 0000 003e 0000 0061 0000     "...#...>...a...
  20096c:	0002 0000 004f 0000 0062 0000 0019 0000     ....O...b.......
  20097c:	0016 0000 0041 0000 0047 0000 0000 0000     ....A...G.......

0020098c <Region$$Table$$Base>:
  20098c:	0020099c 	.word	0x0020099c
  200990:	28200000 	.word	0x28200000
  200994:	00000190 	.word	0x00000190
  200998:	0020043c 	.word	0x0020043c
