
../../Example/out/eval/O3/elf_ns/TeeCFI_Blinky_ns_10ms.axf:     file format elf32-littlearm


Disassembly of section ER_ROM:

00200000 <__Vectors>:
  200000:	00 00 40 28 75 61 20 00 a5 04 20 00 6d 50 20 00     ..@(ua ... .mP .
  200010:	a5 04 20 00 a5 04 20 00 a5 04 20 00 a5 04 20 00     .. ... ... ... .
	...
  20002c:	a5 04 20 00 a5 04 20 00 00 00 00 00 a5 04 20 00     .. ... ....... .
  20003c:	b1 61 20 00 a5 04 20 00 a5 04 20 00 a5 04 20 00     .a ... ... ... .
  20004c:	a5 04 20 00 a5 04 20 00 a5 04 20 00 00 00 00 00     .. ... ... .....
	...
  200064:	a5 04 20 00 a5 04 20 00 a5 04 20 00 a5 04 20 00     .. ... ... ... .
	...
  2000c0:	15 62 20 00 29 62 20 00 a5 04 20 00 a5 04 20 00     .b .)b ... ... .
  2000d0:	a5 04 20 00 a5 04 20 00 a5 04 20 00 a5 04 20 00     .. ... ... ... .
  2000e0:	a5 04 20 00 a5 04 20 00 a5 04 20 00 a5 04 20 00     .. ... ... ... .
  2000f0:	a5 04 20 00 a5 04 20 00 a5 04 20 00 a5 04 20 00     .. ... ... ... .
  200100:	a5 04 20 00 a5 04 20 00 a5 04 20 00 a5 04 20 00     .. ... ... ... .
  200110:	a5 04 20 00 a5 04 20 00 a5 04 20 00 a5 04 20 00     .. ... ... ... .
  200120:	a5 04 20 00 a5 04 20 00 a5 04 20 00 a5 04 20 00     .. ... ... ... .
  200130:	a5 04 20 00 a5 04 20 00 a5 04 20 00 a5 04 20 00     .. ... ... ... .
  200140:	a5 04 20 00 a5 04 20 00 a5 04 20 00 a5 04 20 00     .. ... ... ... .
  200150:	a5 04 20 00 a5 04 20 00 a5 04 20 00 a5 04 20 00     .. ... ... ... .
  200160:	a5 04 20 00 a5 04 20 00 a5 04 20 00 a5 04 20 00     .. ... ... ... .
  200170:	a5 04 20 00 a5 04 20 00 a5 04 20 00 a5 04 20 00     .. ... ... ... .
  200180:	a5 04 20 00 a5 04 20 00 a5 04 20 00 a5 04 20 00     .. ... ... ... .
  200190:	a5 04 20 00 a5 04 20 00 a5 04 20 00 a5 04 20 00     .. ... ... ... .
  2001a0:	a5 04 20 00 a5 04 20 00 a5 04 20 00 a5 04 20 00     .. ... ... ... .
  2001b0:	a5 04 20 00 a5 04 20 00 a5 04 20 00 a5 04 20 00     .. ... ... ... .
  2001c0:	a5 04 20 00 a5 04 20 00 a5 04 20 00 a5 04 20 00     .. ... ... ... .
  2001d0:	a5 04 20 00 a5 04 20 00 a5 04 20 00 a5 04 20 00     .. ... ... ... .
  2001e0:	a5 04 20 00 a5 04 20 00 a5 04 20 00 a5 04 20 00     .. ... ... ... .
  2001f0:	a5 04 20 00 a5 04 20 00 a5 04 20 00 a5 04 20 00     .. ... ... ... .
  200200:	a5 04 20 00 a5 04 20 00 a5 04 20 00 a5 04 20 00     .. ... ... ... .
  200210:	a5 04 20 00 a5 04 20 00 a5 04 20 00 a5 04 20 00     .. ... ... ... .
  200220:	a5 04 20 00 a5 04 20 00 a5 04 20 00 a5 04 20 00     .. ... ... ... .
	...

00200400 <__main>:
  200400:	f000 f802 	bl	200408 <__scatterload_rt2>
  200404:	f000 f82e 	bl	200464 <__rt_entry>

00200408 <__scatterload_rt2>:
  200408:	a00a      	add	r0, pc, #40	; (adr r0, 200434 <__scatterload_null+0x1e>)
  20040a:	e890 0c00 	ldmia.w	r0, {sl, fp}
  20040e:	4482      	add	sl, r0
  200410:	4483      	add	fp, r0
  200412:	f1aa 0701 	sub.w	r7, sl, #1

00200416 <__scatterload_null>:
  200416:	45da      	cmp	sl, fp
  200418:	d101      	bne.n	20041e <__scatterload_null+0x8>
  20041a:	f000 f823 	bl	200464 <__rt_entry>
  20041e:	f2af 0e09 	subw	lr, pc, #9
  200422:	e8ba 000f 	ldmia.w	sl!, {r0, r1, r2, r3}
  200426:	f013 0f01 	tst.w	r3, #1
  20042a:	bf18      	it	ne
  20042c:	1afb      	subne	r3, r7, r3
  20042e:	f043 0301 	orr.w	r3, r3, #1
  200432:	4718      	bx	r3
  200434:	00007f74 	.word	0x00007f74
  200438:	00007f84 	.word	0x00007f84

0020043c <__scatterload_zeroinit>:
  20043c:	2300      	movs	r3, #0
  20043e:	2400      	movs	r4, #0
  200440:	2500      	movs	r5, #0
  200442:	2600      	movs	r6, #0
  200444:	3a10      	subs	r2, #16
  200446:	bf28      	it	cs
  200448:	c178      	stmiacs	r1!, {r3, r4, r5, r6}
  20044a:	d8fb      	bhi.n	200444 <__scatterload_zeroinit+0x8>
  20044c:	0752      	lsls	r2, r2, #29
  20044e:	bf28      	it	cs
  200450:	c130      	stmiacs	r1!, {r4, r5}
  200452:	bf48      	it	mi
  200454:	600b      	strmi	r3, [r1, #0]
  200456:	4770      	bx	lr

00200458 <__rt_lib_init>:
  200458:	b51f      	push	{r0, r1, r2, r3, r4, lr}

0020045a <__rt_lib_init_fp_1>:
  20045a:	f006 fcf0 	bl	206e3e <_fp_init>

0020045e <__rt_lib_init_alloca_1>:
  20045e:	bd1f      	pop	{r0, r1, r2, r3, r4, pc}

00200460 <__rt_lib_shutdown>:
  200460:	b510      	push	{r4, lr}

00200462 <__rt_lib_shutdown_cpp_1>:
  200462:	bd10      	pop	{r4, pc}

00200464 <__rt_entry>:
  200464:	f8df d00c 	ldr.w	sp, [pc, #12]	; 200474 <__lit__00000000>

00200468 <__rt_entry_li>:
  200468:	f7ff fff6 	bl	200458 <__rt_lib_init>

0020046c <__rt_entry_main>:
  20046c:	f005 fee2 	bl	206234 <main>
  200470:	f000 f808 	bl	200484 <exit>

00200474 <__lit__00000000>:
  200474:	0000 2840                                   ..@(

00200478 <__rt_exit>:
  200478:	b403      	push	{r0, r1}

0020047a <__rt_exit_ls>:
  20047a:	f7ff fff1 	bl	200460 <__rt_lib_shutdown>

0020047e <__rt_exit_exit>:
  20047e:	bc03      	pop	{r0, r1}
  200480:	f000 f80a 	bl	200498 <_sys_exit>

00200484 <exit>:
  200484:	b510      	push	{r4, lr}
  200486:	4604      	mov	r4, r0
  200488:	f3af 8000 	nop.w
  20048c:	4620      	mov	r0, r4
  20048e:	e8bd 4010 	ldmia.w	sp!, {r4, lr}
  200492:	f7ff bff1 	b.w	200478 <__rt_exit>

00200496 <__use_no_semihosting_swi>:
  200496:	4770      	bx	lr

00200498 <_sys_exit>:
  200498:	4901      	ldr	r1, [pc, #4]	; (2004a0 <_sys_exit+0x8>)
  20049a:	2018      	movs	r0, #24
  20049c:	beab      	bkpt	0x00ab
  20049e:	e7fe      	b.n	20049e <_sys_exit+0x6>
  2004a0:	00020026 	.word	0x00020026

002004a4 <Default_Handler>:
  2004a4:	e7fe      	b.n	2004a4 <Default_Handler>
	...

002004a8 <GLCD_DrawChar>:
  2004a8:	e92d 41f0 	stmdb	sp!, {r4, r5, r6, r7, r8, lr}
  2004ac:	f240 0310 	movw	r3, #16
  2004b0:	f6c2 0320 	movt	r3, #10272	; 0x2820
  2004b4:	681b      	ldr	r3, [r3, #0]
  2004b6:	2b00      	cmp	r3, #0
  2004b8:	bf08      	it	eq
  2004ba:	e8bd 81f0 	ldmiaeq.w	sp!, {r4, r5, r6, r7, r8, pc}
  2004be:	eb02 0242 	add.w	r2, r2, r2, lsl #1
  2004c2:	f64f 2300 	movw	r3, #64000	; 0xfa00
  2004c6:	f6cf 73ff 	movt	r3, #65535	; 0xffff
  2004ca:	eb03 1402 	add.w	r4, r3, r2, lsl #4
  2004ce:	f242 084c 	movw	r8, #8268	; 0x204c
  2004d2:	f246 050c 	movw	r5, #24588	; 0x600c
  2004d6:	2210      	movs	r2, #16
  2004d8:	2318      	movs	r3, #24
  2004da:	f2c4 0830 	movt	r8, #16432	; 0x4030
  2004de:	f2c4 0520 	movt	r5, #16416	; 0x4020
  2004e2:	f004 f98d 	bl	204800 <GLCD_SetWindow>
  2004e6:	f8d8 0000 	ldr.w	r0, [r8]
  2004ea:	f020 0001 	bic.w	r0, r0, #1
  2004ee:	f8c8 0000 	str.w	r0, [r8]
  2004f2:	2070      	movs	r0, #112	; 0x70
  2004f4:	f845 0c04 	str.w	r0, [r5, #-4]
  2004f8:	6828      	ldr	r0, [r5, #0]
  2004fa:	0740      	lsls	r0, r0, #29
  2004fc:	d409      	bmi.n	200512 <GLCD_DrawChar+0x6a>
  2004fe:	6828      	ldr	r0, [r5, #0]
  200500:	0740      	lsls	r0, r0, #29
  200502:	bf5c      	itt	pl
  200504:	6828      	ldrpl	r0, [r5, #0]
  200506:	ea5f 7040 	movspl.w	r0, r0, lsl #29
  20050a:	d402      	bmi.n	200512 <GLCD_DrawChar+0x6a>
  20050c:	6828      	ldr	r0, [r5, #0]
  20050e:	0740      	lsls	r0, r0, #29
  200510:	d5f2      	bpl.n	2004f8 <GLCD_DrawChar+0x50>
  200512:	f855 0c04 	ldr.w	r0, [r5, #-4]
  200516:	2000      	movs	r0, #0
  200518:	f845 0c04 	str.w	r0, [r5, #-4]
  20051c:	6828      	ldr	r0, [r5, #0]
  20051e:	0740      	lsls	r0, r0, #29
  200520:	d409      	bmi.n	200536 <GLCD_DrawChar+0x8e>
  200522:	6828      	ldr	r0, [r5, #0]
  200524:	0740      	lsls	r0, r0, #29
  200526:	bf5c      	itt	pl
  200528:	6828      	ldrpl	r0, [r5, #0]
  20052a:	ea5f 7040 	movspl.w	r0, r0, lsl #29
  20052e:	d402      	bmi.n	200536 <GLCD_DrawChar+0x8e>
  200530:	6828      	ldr	r0, [r5, #0]
  200532:	0740      	lsls	r0, r0, #29
  200534:	d5f2      	bpl.n	20051c <GLCD_DrawChar+0x74>
  200536:	f855 0c04 	ldr.w	r0, [r5, #-4]
  20053a:	2022      	movs	r0, #34	; 0x22
  20053c:	f845 0c04 	str.w	r0, [r5, #-4]
  200540:	6828      	ldr	r0, [r5, #0]
  200542:	0740      	lsls	r0, r0, #29
  200544:	d409      	bmi.n	20055a <GLCD_DrawChar+0xb2>
  200546:	6828      	ldr	r0, [r5, #0]
  200548:	0740      	lsls	r0, r0, #29
  20054a:	bf5c      	itt	pl
  20054c:	6828      	ldrpl	r0, [r5, #0]
  20054e:	ea5f 7040 	movspl.w	r0, r0, lsl #29
  200552:	d402      	bmi.n	20055a <GLCD_DrawChar+0xb2>
  200554:	6828      	ldr	r0, [r5, #0]
  200556:	0740      	lsls	r0, r0, #29
  200558:	d5f2      	bpl.n	200540 <GLCD_DrawChar+0x98>
  20055a:	f855 0c04 	ldr.w	r0, [r5, #-4]
  20055e:	f8d8 0000 	ldr.w	r0, [r8]
  200562:	f040 0001 	orr.w	r0, r0, #1
  200566:	f8c8 0000 	str.w	r0, [r8]
  20056a:	f8d8 0000 	ldr.w	r0, [r8]
  20056e:	f020 0001 	bic.w	r0, r0, #1
  200572:	f8c8 0000 	str.w	r0, [r8]
  200576:	2072      	movs	r0, #114	; 0x72
  200578:	f845 0c04 	str.w	r0, [r5, #-4]
  20057c:	6828      	ldr	r0, [r5, #0]
  20057e:	0740      	lsls	r0, r0, #29
  200580:	d409      	bmi.n	200596 <GLCD_DrawChar+0xee>
  200582:	6828      	ldr	r0, [r5, #0]
  200584:	0740      	lsls	r0, r0, #29
  200586:	bf5c      	itt	pl
  200588:	6828      	ldrpl	r0, [r5, #0]
  20058a:	ea5f 7040 	movspl.w	r0, r0, lsl #29
  20058e:	d402      	bmi.n	200596 <GLCD_DrawChar+0xee>
  200590:	6828      	ldr	r0, [r5, #0]
  200592:	0740      	lsls	r0, r0, #29
  200594:	d5f2      	bpl.n	20057c <GLCD_DrawChar+0xd4>
  200596:	f855 0c04 	ldr.w	r0, [r5, #-4]
  20059a:	f240 0016 	movw	r0, #22
  20059e:	f6c2 0020 	movt	r0, #10272	; 0x2820
  2005a2:	f8b0 e000 	ldrh.w	lr, [r0]
  2005a6:	f240 0014 	movw	r0, #20
  2005aa:	f6c2 0020 	movt	r0, #10272	; 0x2820
  2005ae:	7800      	ldrb	r0, [r0, #0]
  2005b0:	f04f 31ff 	mov.w	r1, #4294967295
  2005b4:	2800      	cmp	r0, #0
  2005b6:	bf18      	it	ne
  2005b8:	211f      	movne	r1, #31
  2005ba:	f646 6058 	movw	r0, #28248	; 0x6e58
  2005be:	f2c0 0020 	movt	r0, #32
  2005c2:	1902      	adds	r2, r0, r4
  2005c4:	f04f 0c00 	mov.w	ip, #0
  2005c8:	e007      	b.n	2005da <GLCD_DrawChar+0x132>
  2005ca:	bf00      	nop
  2005cc:	f10c 0c01 	add.w	ip, ip, #1
  2005d0:	f1bc 0f18 	cmp.w	ip, #24
  2005d4:	f102 0201 	add.w	r2, r2, #1
  2005d8:	d06d      	beq.n	2006b6 <GLCD_DrawChar+0x20e>
  2005da:	2400      	movs	r4, #0
  2005dc:	e00f      	b.n	2005fe <GLCD_DrawChar+0x156>
  2005de:	bf00      	nop
  2005e0:	f855 0c04 	ldr.w	r0, [r5, #-4]
  2005e4:	1ff8      	subs	r0, r7, #7
  2005e6:	fab0 f080 	clz	r0, r0
  2005ea:	0940      	lsrs	r0, r0, #5
  2005ec:	f1b6 030f 	subs.w	r3, r6, #15
  2005f0:	bf18      	it	ne
  2005f2:	2301      	movne	r3, #1
  2005f4:	4018      	ands	r0, r3
  2005f6:	3402      	adds	r4, #2
  2005f8:	2c10      	cmp	r4, #16
  2005fa:	4402      	add	r2, r0
  2005fc:	d0e6      	beq.n	2005cc <GLCD_DrawChar+0x124>
  2005fe:	7810      	ldrb	r0, [r2, #0]
  200600:	f004 0706 	and.w	r7, r4, #6
  200604:	40f8      	lsrs	r0, r7
  200606:	07c0      	lsls	r0, r0, #31
  200608:	4670      	mov	r0, lr
  20060a:	bf08      	it	eq
  20060c:	4608      	moveq	r0, r1
  20060e:	b287      	uxth	r7, r0
  200610:	0a3f      	lsrs	r7, r7, #8
  200612:	f845 7c04 	str.w	r7, [r5, #-4]
  200616:	682f      	ldr	r7, [r5, #0]
  200618:	077f      	lsls	r7, r7, #29
  20061a:	d409      	bmi.n	200630 <GLCD_DrawChar+0x188>
  20061c:	682f      	ldr	r7, [r5, #0]
  20061e:	077f      	lsls	r7, r7, #29
  200620:	bf5c      	itt	pl
  200622:	682f      	ldrpl	r7, [r5, #0]
  200624:	ea5f 7747 	movspl.w	r7, r7, lsl #29
  200628:	d402      	bmi.n	200630 <GLCD_DrawChar+0x188>
  20062a:	682f      	ldr	r7, [r5, #0]
  20062c:	077f      	lsls	r7, r7, #29
  20062e:	d5f2      	bpl.n	200616 <GLCD_DrawChar+0x16e>
  200630:	f855 7c04 	ldr.w	r7, [r5, #-4]
  200634:	b2c0      	uxtb	r0, r0
  200636:	f845 0c04 	str.w	r0, [r5, #-4]
  20063a:	6828      	ldr	r0, [r5, #0]
  20063c:	0740      	lsls	r0, r0, #29
  20063e:	d409      	bmi.n	200654 <GLCD_DrawChar+0x1ac>
  200640:	6828      	ldr	r0, [r5, #0]
  200642:	0740      	lsls	r0, r0, #29
  200644:	bf5c      	itt	pl
  200646:	6828      	ldrpl	r0, [r5, #0]
  200648:	ea5f 7040 	movspl.w	r0, r0, lsl #29
  20064c:	d402      	bmi.n	200654 <GLCD_DrawChar+0x1ac>
  20064e:	6828      	ldr	r0, [r5, #0]
  200650:	0740      	lsls	r0, r0, #29
  200652:	d5f2      	bpl.n	20063a <GLCD_DrawChar+0x192>
  200654:	f855 0c04 	ldr.w	r0, [r5, #-4]
  200658:	f044 0601 	orr.w	r6, r4, #1
  20065c:	7810      	ldrb	r0, [r2, #0]
  20065e:	f006 0707 	and.w	r7, r6, #7
  200662:	40f8      	lsrs	r0, r7
  200664:	07c0      	lsls	r0, r0, #31
  200666:	4670      	mov	r0, lr
  200668:	bf08      	it	eq
  20066a:	4608      	moveq	r0, r1
  20066c:	b283      	uxth	r3, r0
  20066e:	0a1b      	lsrs	r3, r3, #8
  200670:	f845 3c04 	str.w	r3, [r5, #-4]
  200674:	682b      	ldr	r3, [r5, #0]
  200676:	075b      	lsls	r3, r3, #29
  200678:	d40a      	bmi.n	200690 <GLCD_DrawChar+0x1e8>
  20067a:	682b      	ldr	r3, [r5, #0]
  20067c:	075b      	lsls	r3, r3, #29
  20067e:	bf5c      	itt	pl
  200680:	682b      	ldrpl	r3, [r5, #0]
  200682:	ea5f 7343 	movspl.w	r3, r3, lsl #29
  200686:	d403      	bmi.n	200690 <GLCD_DrawChar+0x1e8>
  200688:	682b      	ldr	r3, [r5, #0]
  20068a:	075b      	lsls	r3, r3, #29
  20068c:	d5f2      	bpl.n	200674 <GLCD_DrawChar+0x1cc>
  20068e:	bf00      	nop
  200690:	f855 3c04 	ldr.w	r3, [r5, #-4]
  200694:	b2c0      	uxtb	r0, r0
  200696:	f845 0c04 	str.w	r0, [r5, #-4]
  20069a:	6828      	ldr	r0, [r5, #0]
  20069c:	0740      	lsls	r0, r0, #29
  20069e:	d49f      	bmi.n	2005e0 <GLCD_DrawChar+0x138>
  2006a0:	6828      	ldr	r0, [r5, #0]
  2006a2:	0740      	lsls	r0, r0, #29
  2006a4:	bf5c      	itt	pl
  2006a6:	6828      	ldrpl	r0, [r5, #0]
  2006a8:	ea5f 7040 	movspl.w	r0, r0, lsl #29
  2006ac:	d498      	bmi.n	2005e0 <GLCD_DrawChar+0x138>
  2006ae:	6828      	ldr	r0, [r5, #0]
  2006b0:	0740      	lsls	r0, r0, #29
  2006b2:	d5f2      	bpl.n	20069a <GLCD_DrawChar+0x1f2>
  2006b4:	e794      	b.n	2005e0 <GLCD_DrawChar+0x138>
  2006b6:	f8d8 0000 	ldr.w	r0, [r8]
  2006ba:	f040 0001 	orr.w	r0, r0, #1
  2006be:	f8c8 0000 	str.w	r0, [r8]
  2006c2:	e8bd 81f0 	ldmia.w	sp!, {r4, r5, r6, r7, r8, pc}
	...

002006c8 <GLCD_Initialize>:
  2006c8:	f246 000c 	movw	r0, #24588	; 0x600c
  2006cc:	f2c4 0020 	movt	r0, #16416	; 0x4020
  2006d0:	2100      	movs	r1, #0
  2006d2:	f840 1c08 	str.w	r1, [r0, #-8]
  2006d6:	6181      	str	r1, [r0, #24]
  2006d8:	6081      	str	r1, [r0, #8]
  2006da:	2103      	movs	r1, #3
  2006dc:	6141      	str	r1, [r0, #20]
  2006de:	f240 1107 	movw	r1, #263	; 0x107
  2006e2:	f840 1c0c 	str.w	r1, [r0, #-12]
  2006e6:	2202      	movs	r2, #2
  2006e8:	f242 014c 	movw	r1, #8268	; 0x204c
  2006ec:	6042      	str	r2, [r0, #4]
  2006ee:	f2c4 0130 	movt	r1, #16432	; 0x4030
  2006f2:	f840 2c08 	str.w	r2, [r0, #-8]
  2006f6:	680a      	ldr	r2, [r1, #0]
  2006f8:	f042 0209 	orr.w	r2, r2, #9
  2006fc:	600a      	str	r2, [r1, #0]
  2006fe:	680a      	ldr	r2, [r1, #0]
  200700:	f022 0270 	bic.w	r2, r2, #112	; 0x70
  200704:	600a      	str	r2, [r1, #0]
  200706:	680a      	ldr	r2, [r1, #0]
  200708:	f022 0208 	bic.w	r2, r2, #8
  20070c:	600a      	str	r2, [r1, #0]
  20070e:	f649 6258 	movw	r2, #40536	; 0x9e58
  200712:	f6cf 72ff 	movt	r2, #65535	; 0xffff
  200716:	bf00      	nop
  200718:	bf00      	nop
  20071a:	bf00      	nop
  20071c:	bf00      	nop
  20071e:	bf00      	nop
  200720:	bf00      	nop
  200722:	bf00      	nop
  200724:	bf00      	nop
  200726:	bf00      	nop
  200728:	bf00      	nop
  20072a:	bf00      	nop
  20072c:	bf00      	nop
  20072e:	bf00      	nop
  200730:	bf00      	nop
  200732:	bf00      	nop
  200734:	bf00      	nop
  200736:	bf00      	nop
  200738:	bf00      	nop
  20073a:	bf00      	nop
  20073c:	bf00      	nop
  20073e:	bf00      	nop
  200740:	bf00      	nop
  200742:	bf00      	nop
  200744:	bf00      	nop
  200746:	bf00      	nop
  200748:	bf00      	nop
  20074a:	bf00      	nop
  20074c:	bf00      	nop
  20074e:	bf00      	nop
  200750:	bf00      	nop
  200752:	bf00      	nop
  200754:	bf00      	nop
  200756:	bf00      	nop
  200758:	bf00      	nop
  20075a:	bf00      	nop
  20075c:	bf00      	nop
  20075e:	bf00      	nop
  200760:	bf00      	nop
  200762:	bf00      	nop
  200764:	bf00      	nop
  200766:	bf00      	nop
  200768:	bf00      	nop
  20076a:	bf00      	nop
  20076c:	bf00      	nop
  20076e:	bf00      	nop
  200770:	bf00      	nop
  200772:	bf00      	nop
  200774:	bf00      	nop
  200776:	bf00      	nop
  200778:	bf00      	nop
  20077a:	bf00      	nop
  20077c:	bf00      	nop
  20077e:	bf00      	nop
  200780:	bf00      	nop
  200782:	bf00      	nop
  200784:	bf00      	nop
  200786:	bf00      	nop
  200788:	bf00      	nop
  20078a:	bf00      	nop
  20078c:	bf00      	nop
  20078e:	bf00      	nop
  200790:	bf00      	nop
  200792:	bf00      	nop
  200794:	bf00      	nop
  200796:	bf00      	nop
  200798:	bf00      	nop
  20079a:	bf00      	nop
  20079c:	bf00      	nop
  20079e:	bf00      	nop
  2007a0:	bf00      	nop
  2007a2:	bf00      	nop
  2007a4:	bf00      	nop
  2007a6:	bf00      	nop
  2007a8:	bf00      	nop
  2007aa:	bf00      	nop
  2007ac:	bf00      	nop
  2007ae:	bf00      	nop
  2007b0:	bf00      	nop
  2007b2:	bf00      	nop
  2007b4:	bf00      	nop
  2007b6:	bf00      	nop
  2007b8:	bf00      	nop
  2007ba:	bf00      	nop
  2007bc:	bf00      	nop
  2007be:	bf00      	nop
  2007c0:	bf00      	nop
  2007c2:	bf00      	nop
  2007c4:	bf00      	nop
  2007c6:	bf00      	nop
  2007c8:	bf00      	nop
  2007ca:	bf00      	nop
  2007cc:	bf00      	nop
  2007ce:	bf00      	nop
  2007d0:	bf00      	nop
  2007d2:	bf00      	nop
  2007d4:	bf00      	nop
  2007d6:	bf00      	nop
  2007d8:	bf00      	nop
  2007da:	bf00      	nop
  2007dc:	bf00      	nop
  2007de:	3264      	adds	r2, #100	; 0x64
  2007e0:	bf00      	nop
  2007e2:	d199      	bne.n	200718 <GLCD_Initialize+0x50>
  2007e4:	680a      	ldr	r2, [r1, #0]
  2007e6:	f042 0208 	orr.w	r2, r2, #8
  2007ea:	600a      	str	r2, [r1, #0]
  2007ec:	f241 72b8 	movw	r2, #6072	; 0x17b8
  2007f0:	f6cf 72fe 	movt	r2, #65534	; 0xfffe
  2007f4:	bf00      	nop
  2007f6:	bf00      	nop
  2007f8:	bf00      	nop
  2007fa:	bf00      	nop
  2007fc:	bf00      	nop
  2007fe:	bf00      	nop
  200800:	bf00      	nop
  200802:	bf00      	nop
  200804:	bf00      	nop
  200806:	bf00      	nop
  200808:	bf00      	nop
  20080a:	bf00      	nop
  20080c:	bf00      	nop
  20080e:	bf00      	nop
  200810:	bf00      	nop
  200812:	bf00      	nop
  200814:	bf00      	nop
  200816:	bf00      	nop
  200818:	bf00      	nop
  20081a:	bf00      	nop
  20081c:	bf00      	nop
  20081e:	bf00      	nop
  200820:	bf00      	nop
  200822:	bf00      	nop
  200824:	bf00      	nop
  200826:	bf00      	nop
  200828:	bf00      	nop
  20082a:	bf00      	nop
  20082c:	bf00      	nop
  20082e:	bf00      	nop
  200830:	bf00      	nop
  200832:	bf00      	nop
  200834:	bf00      	nop
  200836:	bf00      	nop
  200838:	bf00      	nop
  20083a:	bf00      	nop
  20083c:	bf00      	nop
  20083e:	bf00      	nop
  200840:	bf00      	nop
  200842:	bf00      	nop
  200844:	bf00      	nop
  200846:	bf00      	nop
  200848:	bf00      	nop
  20084a:	bf00      	nop
  20084c:	bf00      	nop
  20084e:	bf00      	nop
  200850:	bf00      	nop
  200852:	bf00      	nop
  200854:	bf00      	nop
  200856:	bf00      	nop
  200858:	bf00      	nop
  20085a:	bf00      	nop
  20085c:	bf00      	nop
  20085e:	bf00      	nop
  200860:	bf00      	nop
  200862:	bf00      	nop
  200864:	bf00      	nop
  200866:	bf00      	nop
  200868:	bf00      	nop
  20086a:	bf00      	nop
  20086c:	bf00      	nop
  20086e:	bf00      	nop
  200870:	bf00      	nop
  200872:	bf00      	nop
  200874:	bf00      	nop
  200876:	bf00      	nop
  200878:	bf00      	nop
  20087a:	bf00      	nop
  20087c:	bf00      	nop
  20087e:	bf00      	nop
  200880:	bf00      	nop
  200882:	bf00      	nop
  200884:	bf00      	nop
  200886:	bf00      	nop
  200888:	bf00      	nop
  20088a:	bf00      	nop
  20088c:	bf00      	nop
  20088e:	bf00      	nop
  200890:	bf00      	nop
  200892:	bf00      	nop
  200894:	bf00      	nop
  200896:	bf00      	nop
  200898:	bf00      	nop
  20089a:	bf00      	nop
  20089c:	bf00      	nop
  20089e:	bf00      	nop
  2008a0:	bf00      	nop
  2008a2:	bf00      	nop
  2008a4:	bf00      	nop
  2008a6:	bf00      	nop
  2008a8:	bf00      	nop
  2008aa:	bf00      	nop
  2008ac:	bf00      	nop
  2008ae:	bf00      	nop
  2008b0:	bf00      	nop
  2008b2:	bf00      	nop
  2008b4:	bf00      	nop
  2008b6:	bf00      	nop
  2008b8:	bf00      	nop
  2008ba:	3264      	adds	r2, #100	; 0x64
  2008bc:	bf00      	nop
  2008be:	d199      	bne.n	2007f4 <GLCD_Initialize+0x12c>
  2008c0:	680a      	ldr	r2, [r1, #0]
  2008c2:	f022 0201 	bic.w	r2, r2, #1
  2008c6:	600a      	str	r2, [r1, #0]
  2008c8:	2270      	movs	r2, #112	; 0x70
  2008ca:	f840 2c04 	str.w	r2, [r0, #-4]
  2008ce:	6802      	ldr	r2, [r0, #0]
  2008d0:	0752      	lsls	r2, r2, #29
  2008d2:	d409      	bmi.n	2008e8 <GLCD_Initialize+0x220>
  2008d4:	6802      	ldr	r2, [r0, #0]
  2008d6:	0752      	lsls	r2, r2, #29
  2008d8:	bf5c      	itt	pl
  2008da:	6802      	ldrpl	r2, [r0, #0]
  2008dc:	ea5f 7242 	movspl.w	r2, r2, lsl #29
  2008e0:	d402      	bmi.n	2008e8 <GLCD_Initialize+0x220>
  2008e2:	6802      	ldr	r2, [r0, #0]
  2008e4:	0752      	lsls	r2, r2, #29
  2008e6:	d5f2      	bpl.n	2008ce <GLCD_Initialize+0x206>
  2008e8:	f850 2c04 	ldr.w	r2, [r0, #-4]
  2008ec:	2200      	movs	r2, #0
  2008ee:	f840 2c04 	str.w	r2, [r0, #-4]
  2008f2:	6802      	ldr	r2, [r0, #0]
  2008f4:	0752      	lsls	r2, r2, #29
  2008f6:	d409      	bmi.n	20090c <GLCD_Initialize+0x244>
  2008f8:	6802      	ldr	r2, [r0, #0]
  2008fa:	0752      	lsls	r2, r2, #29
  2008fc:	bf5c      	itt	pl
  2008fe:	6802      	ldrpl	r2, [r0, #0]
  200900:	ea5f 7242 	movspl.w	r2, r2, lsl #29
  200904:	d402      	bmi.n	20090c <GLCD_Initialize+0x244>
  200906:	6802      	ldr	r2, [r0, #0]
  200908:	0752      	lsls	r2, r2, #29
  20090a:	d5f2      	bpl.n	2008f2 <GLCD_Initialize+0x22a>
  20090c:	f850 2c04 	ldr.w	r2, [r0, #-4]
  200910:	22ea      	movs	r2, #234	; 0xea
  200912:	f840 2c04 	str.w	r2, [r0, #-4]
  200916:	6802      	ldr	r2, [r0, #0]
  200918:	0752      	lsls	r2, r2, #29
  20091a:	d409      	bmi.n	200930 <GLCD_Initialize+0x268>
  20091c:	6802      	ldr	r2, [r0, #0]
  20091e:	0752      	lsls	r2, r2, #29
  200920:	bf5c      	itt	pl
  200922:	6802      	ldrpl	r2, [r0, #0]
  200924:	ea5f 7242 	movspl.w	r2, r2, lsl #29
  200928:	d402      	bmi.n	200930 <GLCD_Initialize+0x268>
  20092a:	6802      	ldr	r2, [r0, #0]
  20092c:	0752      	lsls	r2, r2, #29
  20092e:	d5f2      	bpl.n	200916 <GLCD_Initialize+0x24e>
  200930:	f850 2c04 	ldr.w	r2, [r0, #-4]
  200934:	680a      	ldr	r2, [r1, #0]
  200936:	f042 0201 	orr.w	r2, r2, #1
  20093a:	600a      	str	r2, [r1, #0]
  20093c:	680a      	ldr	r2, [r1, #0]
  20093e:	f022 0201 	bic.w	r2, r2, #1
  200942:	600a      	str	r2, [r1, #0]
  200944:	2272      	movs	r2, #114	; 0x72
  200946:	f840 2c04 	str.w	r2, [r0, #-4]
  20094a:	6802      	ldr	r2, [r0, #0]
  20094c:	0752      	lsls	r2, r2, #29
  20094e:	d409      	bmi.n	200964 <GLCD_Initialize+0x29c>
  200950:	6802      	ldr	r2, [r0, #0]
  200952:	0752      	lsls	r2, r2, #29
  200954:	bf5c      	itt	pl
  200956:	6802      	ldrpl	r2, [r0, #0]
  200958:	ea5f 7242 	movspl.w	r2, r2, lsl #29
  20095c:	d402      	bmi.n	200964 <GLCD_Initialize+0x29c>
  20095e:	6802      	ldr	r2, [r0, #0]
  200960:	0752      	lsls	r2, r2, #29
  200962:	d5f2      	bpl.n	20094a <GLCD_Initialize+0x282>
  200964:	f850 2c04 	ldr.w	r2, [r0, #-4]
  200968:	2200      	movs	r2, #0
  20096a:	f840 2c04 	str.w	r2, [r0, #-4]
  20096e:	6802      	ldr	r2, [r0, #0]
  200970:	0752      	lsls	r2, r2, #29
  200972:	d409      	bmi.n	200988 <GLCD_Initialize+0x2c0>
  200974:	6802      	ldr	r2, [r0, #0]
  200976:	0752      	lsls	r2, r2, #29
  200978:	bf5c      	itt	pl
  20097a:	6802      	ldrpl	r2, [r0, #0]
  20097c:	ea5f 7242 	movspl.w	r2, r2, lsl #29
  200980:	d402      	bmi.n	200988 <GLCD_Initialize+0x2c0>
  200982:	6802      	ldr	r2, [r0, #0]
  200984:	0752      	lsls	r2, r2, #29
  200986:	d5f2      	bpl.n	20096e <GLCD_Initialize+0x2a6>
  200988:	f850 2c04 	ldr.w	r2, [r0, #-4]
  20098c:	2200      	movs	r2, #0
  20098e:	f840 2c04 	str.w	r2, [r0, #-4]
  200992:	6802      	ldr	r2, [r0, #0]
  200994:	0752      	lsls	r2, r2, #29
  200996:	d409      	bmi.n	2009ac <GLCD_Initialize+0x2e4>
  200998:	6802      	ldr	r2, [r0, #0]
  20099a:	0752      	lsls	r2, r2, #29
  20099c:	bf5c      	itt	pl
  20099e:	6802      	ldrpl	r2, [r0, #0]
  2009a0:	ea5f 7242 	movspl.w	r2, r2, lsl #29
  2009a4:	d402      	bmi.n	2009ac <GLCD_Initialize+0x2e4>
  2009a6:	6802      	ldr	r2, [r0, #0]
  2009a8:	0752      	lsls	r2, r2, #29
  2009aa:	d5f2      	bpl.n	200992 <GLCD_Initialize+0x2ca>
  2009ac:	f850 2c04 	ldr.w	r2, [r0, #-4]
  2009b0:	680a      	ldr	r2, [r1, #0]
  2009b2:	f042 0201 	orr.w	r2, r2, #1
  2009b6:	600a      	str	r2, [r1, #0]
  2009b8:	680a      	ldr	r2, [r1, #0]
  2009ba:	f022 0201 	bic.w	r2, r2, #1
  2009be:	600a      	str	r2, [r1, #0]
  2009c0:	2270      	movs	r2, #112	; 0x70
  2009c2:	f840 2c04 	str.w	r2, [r0, #-4]
  2009c6:	6802      	ldr	r2, [r0, #0]
  2009c8:	0752      	lsls	r2, r2, #29
  2009ca:	d409      	bmi.n	2009e0 <GLCD_Initialize+0x318>
  2009cc:	6802      	ldr	r2, [r0, #0]
  2009ce:	0752      	lsls	r2, r2, #29
  2009d0:	bf5c      	itt	pl
  2009d2:	6802      	ldrpl	r2, [r0, #0]
  2009d4:	ea5f 7242 	movspl.w	r2, r2, lsl #29
  2009d8:	d402      	bmi.n	2009e0 <GLCD_Initialize+0x318>
  2009da:	6802      	ldr	r2, [r0, #0]
  2009dc:	0752      	lsls	r2, r2, #29
  2009de:	d5f2      	bpl.n	2009c6 <GLCD_Initialize+0x2fe>
  2009e0:	f850 2c04 	ldr.w	r2, [r0, #-4]
  2009e4:	2200      	movs	r2, #0
  2009e6:	f840 2c04 	str.w	r2, [r0, #-4]
  2009ea:	6802      	ldr	r2, [r0, #0]
  2009ec:	0752      	lsls	r2, r2, #29
  2009ee:	d409      	bmi.n	200a04 <GLCD_Initialize+0x33c>
  2009f0:	6802      	ldr	r2, [r0, #0]
  2009f2:	0752      	lsls	r2, r2, #29
  2009f4:	bf5c      	itt	pl
  2009f6:	6802      	ldrpl	r2, [r0, #0]
  2009f8:	ea5f 7242 	movspl.w	r2, r2, lsl #29
  2009fc:	d402      	bmi.n	200a04 <GLCD_Initialize+0x33c>
  2009fe:	6802      	ldr	r2, [r0, #0]
  200a00:	0752      	lsls	r2, r2, #29
  200a02:	d5f2      	bpl.n	2009ea <GLCD_Initialize+0x322>
  200a04:	f850 2c04 	ldr.w	r2, [r0, #-4]
  200a08:	22eb      	movs	r2, #235	; 0xeb
  200a0a:	f840 2c04 	str.w	r2, [r0, #-4]
  200a0e:	6802      	ldr	r2, [r0, #0]
  200a10:	0752      	lsls	r2, r2, #29
  200a12:	d409      	bmi.n	200a28 <GLCD_Initialize+0x360>
  200a14:	6802      	ldr	r2, [r0, #0]
  200a16:	0752      	lsls	r2, r2, #29
  200a18:	bf5c      	itt	pl
  200a1a:	6802      	ldrpl	r2, [r0, #0]
  200a1c:	ea5f 7242 	movspl.w	r2, r2, lsl #29
  200a20:	d402      	bmi.n	200a28 <GLCD_Initialize+0x360>
  200a22:	6802      	ldr	r2, [r0, #0]
  200a24:	0752      	lsls	r2, r2, #29
  200a26:	d5f2      	bpl.n	200a0e <GLCD_Initialize+0x346>
  200a28:	f850 2c04 	ldr.w	r2, [r0, #-4]
  200a2c:	680a      	ldr	r2, [r1, #0]
  200a2e:	f042 0201 	orr.w	r2, r2, #1
  200a32:	600a      	str	r2, [r1, #0]
  200a34:	680a      	ldr	r2, [r1, #0]
  200a36:	f022 0201 	bic.w	r2, r2, #1
  200a3a:	600a      	str	r2, [r1, #0]
  200a3c:	2272      	movs	r2, #114	; 0x72
  200a3e:	f840 2c04 	str.w	r2, [r0, #-4]
  200a42:	6802      	ldr	r2, [r0, #0]
  200a44:	0752      	lsls	r2, r2, #29
  200a46:	d409      	bmi.n	200a5c <GLCD_Initialize+0x394>
  200a48:	6802      	ldr	r2, [r0, #0]
  200a4a:	0752      	lsls	r2, r2, #29
  200a4c:	bf5c      	itt	pl
  200a4e:	6802      	ldrpl	r2, [r0, #0]
  200a50:	ea5f 7242 	movspl.w	r2, r2, lsl #29
  200a54:	d402      	bmi.n	200a5c <GLCD_Initialize+0x394>
  200a56:	6802      	ldr	r2, [r0, #0]
  200a58:	0752      	lsls	r2, r2, #29
  200a5a:	d5f2      	bpl.n	200a42 <GLCD_Initialize+0x37a>
  200a5c:	f850 2c04 	ldr.w	r2, [r0, #-4]
  200a60:	2200      	movs	r2, #0
  200a62:	f840 2c04 	str.w	r2, [r0, #-4]
  200a66:	6802      	ldr	r2, [r0, #0]
  200a68:	0752      	lsls	r2, r2, #29
  200a6a:	d409      	bmi.n	200a80 <GLCD_Initialize+0x3b8>
  200a6c:	6802      	ldr	r2, [r0, #0]
  200a6e:	0752      	lsls	r2, r2, #29
  200a70:	bf5c      	itt	pl
  200a72:	6802      	ldrpl	r2, [r0, #0]
  200a74:	ea5f 7242 	movspl.w	r2, r2, lsl #29
  200a78:	d402      	bmi.n	200a80 <GLCD_Initialize+0x3b8>
  200a7a:	6802      	ldr	r2, [r0, #0]
  200a7c:	0752      	lsls	r2, r2, #29
  200a7e:	d5f2      	bpl.n	200a66 <GLCD_Initialize+0x39e>
  200a80:	f850 2c04 	ldr.w	r2, [r0, #-4]
  200a84:	2220      	movs	r2, #32
  200a86:	f840 2c04 	str.w	r2, [r0, #-4]
  200a8a:	6802      	ldr	r2, [r0, #0]
  200a8c:	0752      	lsls	r2, r2, #29
  200a8e:	d409      	bmi.n	200aa4 <GLCD_Initialize+0x3dc>
  200a90:	6802      	ldr	r2, [r0, #0]
  200a92:	0752      	lsls	r2, r2, #29
  200a94:	bf5c      	itt	pl
  200a96:	6802      	ldrpl	r2, [r0, #0]
  200a98:	ea5f 7242 	movspl.w	r2, r2, lsl #29
  200a9c:	d402      	bmi.n	200aa4 <GLCD_Initialize+0x3dc>
  200a9e:	6802      	ldr	r2, [r0, #0]
  200aa0:	0752      	lsls	r2, r2, #29
  200aa2:	d5f2      	bpl.n	200a8a <GLCD_Initialize+0x3c2>
  200aa4:	f850 2c04 	ldr.w	r2, [r0, #-4]
  200aa8:	680a      	ldr	r2, [r1, #0]
  200aaa:	f042 0201 	orr.w	r2, r2, #1
  200aae:	600a      	str	r2, [r1, #0]
  200ab0:	680a      	ldr	r2, [r1, #0]
  200ab2:	f022 0201 	bic.w	r2, r2, #1
  200ab6:	600a      	str	r2, [r1, #0]
  200ab8:	2270      	movs	r2, #112	; 0x70
  200aba:	f840 2c04 	str.w	r2, [r0, #-4]
  200abe:	6802      	ldr	r2, [r0, #0]
  200ac0:	0752      	lsls	r2, r2, #29
  200ac2:	d409      	bmi.n	200ad8 <GLCD_Initialize+0x410>
  200ac4:	6802      	ldr	r2, [r0, #0]
  200ac6:	0752      	lsls	r2, r2, #29
  200ac8:	bf5c      	itt	pl
  200aca:	6802      	ldrpl	r2, [r0, #0]
  200acc:	ea5f 7242 	movspl.w	r2, r2, lsl #29
  200ad0:	d402      	bmi.n	200ad8 <GLCD_Initialize+0x410>
  200ad2:	6802      	ldr	r2, [r0, #0]
  200ad4:	0752      	lsls	r2, r2, #29
  200ad6:	d5f2      	bpl.n	200abe <GLCD_Initialize+0x3f6>
  200ad8:	f850 2c04 	ldr.w	r2, [r0, #-4]
  200adc:	2200      	movs	r2, #0
  200ade:	f840 2c04 	str.w	r2, [r0, #-4]
  200ae2:	6802      	ldr	r2, [r0, #0]
  200ae4:	0752      	lsls	r2, r2, #29
  200ae6:	d409      	bmi.n	200afc <GLCD_Initialize+0x434>
  200ae8:	6802      	ldr	r2, [r0, #0]
  200aea:	0752      	lsls	r2, r2, #29
  200aec:	bf5c      	itt	pl
  200aee:	6802      	ldrpl	r2, [r0, #0]
  200af0:	ea5f 7242 	movspl.w	r2, r2, lsl #29
  200af4:	d402      	bmi.n	200afc <GLCD_Initialize+0x434>
  200af6:	6802      	ldr	r2, [r0, #0]
  200af8:	0752      	lsls	r2, r2, #29
  200afa:	d5f2      	bpl.n	200ae2 <GLCD_Initialize+0x41a>
  200afc:	f850 2c04 	ldr.w	r2, [r0, #-4]
  200b00:	22ec      	movs	r2, #236	; 0xec
  200b02:	f840 2c04 	str.w	r2, [r0, #-4]
  200b06:	6802      	ldr	r2, [r0, #0]
  200b08:	0752      	lsls	r2, r2, #29
  200b0a:	d409      	bmi.n	200b20 <GLCD_Initialize+0x458>
  200b0c:	6802      	ldr	r2, [r0, #0]
  200b0e:	0752      	lsls	r2, r2, #29
  200b10:	bf5c      	itt	pl
  200b12:	6802      	ldrpl	r2, [r0, #0]
  200b14:	ea5f 7242 	movspl.w	r2, r2, lsl #29
  200b18:	d402      	bmi.n	200b20 <GLCD_Initialize+0x458>
  200b1a:	6802      	ldr	r2, [r0, #0]
  200b1c:	0752      	lsls	r2, r2, #29
  200b1e:	d5f2      	bpl.n	200b06 <GLCD_Initialize+0x43e>
  200b20:	f850 2c04 	ldr.w	r2, [r0, #-4]
  200b24:	680a      	ldr	r2, [r1, #0]
  200b26:	f042 0201 	orr.w	r2, r2, #1
  200b2a:	600a      	str	r2, [r1, #0]
  200b2c:	680a      	ldr	r2, [r1, #0]
  200b2e:	f022 0201 	bic.w	r2, r2, #1
  200b32:	600a      	str	r2, [r1, #0]
  200b34:	2272      	movs	r2, #114	; 0x72
  200b36:	f840 2c04 	str.w	r2, [r0, #-4]
  200b3a:	6802      	ldr	r2, [r0, #0]
  200b3c:	0752      	lsls	r2, r2, #29
  200b3e:	d409      	bmi.n	200b54 <GLCD_Initialize+0x48c>
  200b40:	6802      	ldr	r2, [r0, #0]
  200b42:	0752      	lsls	r2, r2, #29
  200b44:	bf5c      	itt	pl
  200b46:	6802      	ldrpl	r2, [r0, #0]
  200b48:	ea5f 7242 	movspl.w	r2, r2, lsl #29
  200b4c:	d402      	bmi.n	200b54 <GLCD_Initialize+0x48c>
  200b4e:	6802      	ldr	r2, [r0, #0]
  200b50:	0752      	lsls	r2, r2, #29
  200b52:	d5f2      	bpl.n	200b3a <GLCD_Initialize+0x472>
  200b54:	f850 2c04 	ldr.w	r2, [r0, #-4]
  200b58:	2200      	movs	r2, #0
  200b5a:	f840 2c04 	str.w	r2, [r0, #-4]
  200b5e:	6802      	ldr	r2, [r0, #0]
  200b60:	0752      	lsls	r2, r2, #29
  200b62:	d409      	bmi.n	200b78 <GLCD_Initialize+0x4b0>
  200b64:	6802      	ldr	r2, [r0, #0]
  200b66:	0752      	lsls	r2, r2, #29
  200b68:	bf5c      	itt	pl
  200b6a:	6802      	ldrpl	r2, [r0, #0]
  200b6c:	ea5f 7242 	movspl.w	r2, r2, lsl #29
  200b70:	d402      	bmi.n	200b78 <GLCD_Initialize+0x4b0>
  200b72:	6802      	ldr	r2, [r0, #0]
  200b74:	0752      	lsls	r2, r2, #29
  200b76:	d5f2      	bpl.n	200b5e <GLCD_Initialize+0x496>
  200b78:	f850 2c04 	ldr.w	r2, [r0, #-4]
  200b7c:	220c      	movs	r2, #12
  200b7e:	f840 2c04 	str.w	r2, [r0, #-4]
  200b82:	6802      	ldr	r2, [r0, #0]
  200b84:	0752      	lsls	r2, r2, #29
  200b86:	d409      	bmi.n	200b9c <GLCD_Initialize+0x4d4>
  200b88:	6802      	ldr	r2, [r0, #0]
  200b8a:	0752      	lsls	r2, r2, #29
  200b8c:	bf5c      	itt	pl
  200b8e:	6802      	ldrpl	r2, [r0, #0]
  200b90:	ea5f 7242 	movspl.w	r2, r2, lsl #29
  200b94:	d402      	bmi.n	200b9c <GLCD_Initialize+0x4d4>
  200b96:	6802      	ldr	r2, [r0, #0]
  200b98:	0752      	lsls	r2, r2, #29
  200b9a:	d5f2      	bpl.n	200b82 <GLCD_Initialize+0x4ba>
  200b9c:	f850 2c04 	ldr.w	r2, [r0, #-4]
  200ba0:	680a      	ldr	r2, [r1, #0]
  200ba2:	f042 0201 	orr.w	r2, r2, #1
  200ba6:	600a      	str	r2, [r1, #0]
  200ba8:	680a      	ldr	r2, [r1, #0]
  200baa:	f022 0201 	bic.w	r2, r2, #1
  200bae:	600a      	str	r2, [r1, #0]
  200bb0:	2270      	movs	r2, #112	; 0x70
  200bb2:	f840 2c04 	str.w	r2, [r0, #-4]
  200bb6:	6802      	ldr	r2, [r0, #0]
  200bb8:	0752      	lsls	r2, r2, #29
  200bba:	d409      	bmi.n	200bd0 <GLCD_Initialize+0x508>
  200bbc:	6802      	ldr	r2, [r0, #0]
  200bbe:	0752      	lsls	r2, r2, #29
  200bc0:	bf5c      	itt	pl
  200bc2:	6802      	ldrpl	r2, [r0, #0]
  200bc4:	ea5f 7242 	movspl.w	r2, r2, lsl #29
  200bc8:	d402      	bmi.n	200bd0 <GLCD_Initialize+0x508>
  200bca:	6802      	ldr	r2, [r0, #0]
  200bcc:	0752      	lsls	r2, r2, #29
  200bce:	d5f2      	bpl.n	200bb6 <GLCD_Initialize+0x4ee>
  200bd0:	f850 2c04 	ldr.w	r2, [r0, #-4]
  200bd4:	2200      	movs	r2, #0
  200bd6:	f840 2c04 	str.w	r2, [r0, #-4]
  200bda:	6802      	ldr	r2, [r0, #0]
  200bdc:	0752      	lsls	r2, r2, #29
  200bde:	d409      	bmi.n	200bf4 <GLCD_Initialize+0x52c>
  200be0:	6802      	ldr	r2, [r0, #0]
  200be2:	0752      	lsls	r2, r2, #29
  200be4:	bf5c      	itt	pl
  200be6:	6802      	ldrpl	r2, [r0, #0]
  200be8:	ea5f 7242 	movspl.w	r2, r2, lsl #29
  200bec:	d402      	bmi.n	200bf4 <GLCD_Initialize+0x52c>
  200bee:	6802      	ldr	r2, [r0, #0]
  200bf0:	0752      	lsls	r2, r2, #29
  200bf2:	d5f2      	bpl.n	200bda <GLCD_Initialize+0x512>
  200bf4:	f850 2c04 	ldr.w	r2, [r0, #-4]
  200bf8:	22ed      	movs	r2, #237	; 0xed
  200bfa:	f840 2c04 	str.w	r2, [r0, #-4]
  200bfe:	6802      	ldr	r2, [r0, #0]
  200c00:	0752      	lsls	r2, r2, #29
  200c02:	d409      	bmi.n	200c18 <GLCD_Initialize+0x550>
  200c04:	6802      	ldr	r2, [r0, #0]
  200c06:	0752      	lsls	r2, r2, #29
  200c08:	bf5c      	itt	pl
  200c0a:	6802      	ldrpl	r2, [r0, #0]
  200c0c:	ea5f 7242 	movspl.w	r2, r2, lsl #29
  200c10:	d402      	bmi.n	200c18 <GLCD_Initialize+0x550>
  200c12:	6802      	ldr	r2, [r0, #0]
  200c14:	0752      	lsls	r2, r2, #29
  200c16:	d5f2      	bpl.n	200bfe <GLCD_Initialize+0x536>
  200c18:	f850 2c04 	ldr.w	r2, [r0, #-4]
  200c1c:	680a      	ldr	r2, [r1, #0]
  200c1e:	f042 0201 	orr.w	r2, r2, #1
  200c22:	600a      	str	r2, [r1, #0]
  200c24:	680a      	ldr	r2, [r1, #0]
  200c26:	f022 0201 	bic.w	r2, r2, #1
  200c2a:	600a      	str	r2, [r1, #0]
  200c2c:	2272      	movs	r2, #114	; 0x72
  200c2e:	f840 2c04 	str.w	r2, [r0, #-4]
  200c32:	6802      	ldr	r2, [r0, #0]
  200c34:	0752      	lsls	r2, r2, #29
  200c36:	d409      	bmi.n	200c4c <GLCD_Initialize+0x584>
  200c38:	6802      	ldr	r2, [r0, #0]
  200c3a:	0752      	lsls	r2, r2, #29
  200c3c:	bf5c      	itt	pl
  200c3e:	6802      	ldrpl	r2, [r0, #0]
  200c40:	ea5f 7242 	movspl.w	r2, r2, lsl #29
  200c44:	d402      	bmi.n	200c4c <GLCD_Initialize+0x584>
  200c46:	6802      	ldr	r2, [r0, #0]
  200c48:	0752      	lsls	r2, r2, #29
  200c4a:	d5f2      	bpl.n	200c32 <GLCD_Initialize+0x56a>
  200c4c:	f850 2c04 	ldr.w	r2, [r0, #-4]
  200c50:	2200      	movs	r2, #0
  200c52:	f840 2c04 	str.w	r2, [r0, #-4]
  200c56:	6802      	ldr	r2, [r0, #0]
  200c58:	0752      	lsls	r2, r2, #29
  200c5a:	d409      	bmi.n	200c70 <GLCD_Initialize+0x5a8>
  200c5c:	6802      	ldr	r2, [r0, #0]
  200c5e:	0752      	lsls	r2, r2, #29
  200c60:	bf5c      	itt	pl
  200c62:	6802      	ldrpl	r2, [r0, #0]
  200c64:	ea5f 7242 	movspl.w	r2, r2, lsl #29
  200c68:	d402      	bmi.n	200c70 <GLCD_Initialize+0x5a8>
  200c6a:	6802      	ldr	r2, [r0, #0]
  200c6c:	0752      	lsls	r2, r2, #29
  200c6e:	d5f2      	bpl.n	200c56 <GLCD_Initialize+0x58e>
  200c70:	f850 2c04 	ldr.w	r2, [r0, #-4]
  200c74:	22c7      	movs	r2, #199	; 0xc7
  200c76:	f840 2c04 	str.w	r2, [r0, #-4]
  200c7a:	6802      	ldr	r2, [r0, #0]
  200c7c:	0752      	lsls	r2, r2, #29
  200c7e:	d409      	bmi.n	200c94 <GLCD_Initialize+0x5cc>
  200c80:	6802      	ldr	r2, [r0, #0]
  200c82:	0752      	lsls	r2, r2, #29
  200c84:	bf5c      	itt	pl
  200c86:	6802      	ldrpl	r2, [r0, #0]
  200c88:	ea5f 7242 	movspl.w	r2, r2, lsl #29
  200c8c:	d402      	bmi.n	200c94 <GLCD_Initialize+0x5cc>
  200c8e:	6802      	ldr	r2, [r0, #0]
  200c90:	0752      	lsls	r2, r2, #29
  200c92:	d5f2      	bpl.n	200c7a <GLCD_Initialize+0x5b2>
  200c94:	f850 2c04 	ldr.w	r2, [r0, #-4]
  200c98:	680a      	ldr	r2, [r1, #0]
  200c9a:	f042 0201 	orr.w	r2, r2, #1
  200c9e:	600a      	str	r2, [r1, #0]
  200ca0:	680a      	ldr	r2, [r1, #0]
  200ca2:	f022 0201 	bic.w	r2, r2, #1
  200ca6:	600a      	str	r2, [r1, #0]
  200ca8:	2270      	movs	r2, #112	; 0x70
  200caa:	f840 2c04 	str.w	r2, [r0, #-4]
  200cae:	6802      	ldr	r2, [r0, #0]
  200cb0:	0752      	lsls	r2, r2, #29
  200cb2:	d409      	bmi.n	200cc8 <GLCD_Initialize+0x600>
  200cb4:	6802      	ldr	r2, [r0, #0]
  200cb6:	0752      	lsls	r2, r2, #29
  200cb8:	bf5c      	itt	pl
  200cba:	6802      	ldrpl	r2, [r0, #0]
  200cbc:	ea5f 7242 	movspl.w	r2, r2, lsl #29
  200cc0:	d402      	bmi.n	200cc8 <GLCD_Initialize+0x600>
  200cc2:	6802      	ldr	r2, [r0, #0]
  200cc4:	0752      	lsls	r2, r2, #29
  200cc6:	d5f2      	bpl.n	200cae <GLCD_Initialize+0x5e6>
  200cc8:	f850 2c04 	ldr.w	r2, [r0, #-4]
  200ccc:	2200      	movs	r2, #0
  200cce:	f840 2c04 	str.w	r2, [r0, #-4]
  200cd2:	6802      	ldr	r2, [r0, #0]
  200cd4:	0752      	lsls	r2, r2, #29
  200cd6:	d409      	bmi.n	200cec <GLCD_Initialize+0x624>
  200cd8:	6802      	ldr	r2, [r0, #0]
  200cda:	0752      	lsls	r2, r2, #29
  200cdc:	bf5c      	itt	pl
  200cde:	6802      	ldrpl	r2, [r0, #0]
  200ce0:	ea5f 7242 	movspl.w	r2, r2, lsl #29
  200ce4:	d402      	bmi.n	200cec <GLCD_Initialize+0x624>
  200ce6:	6802      	ldr	r2, [r0, #0]
  200ce8:	0752      	lsls	r2, r2, #29
  200cea:	d5f2      	bpl.n	200cd2 <GLCD_Initialize+0x60a>
  200cec:	f850 2c04 	ldr.w	r2, [r0, #-4]
  200cf0:	22e8      	movs	r2, #232	; 0xe8
  200cf2:	f840 2c04 	str.w	r2, [r0, #-4]
  200cf6:	6802      	ldr	r2, [r0, #0]
  200cf8:	0752      	lsls	r2, r2, #29
  200cfa:	d409      	bmi.n	200d10 <GLCD_Initialize+0x648>
  200cfc:	6802      	ldr	r2, [r0, #0]
  200cfe:	0752      	lsls	r2, r2, #29
  200d00:	bf5c      	itt	pl
  200d02:	6802      	ldrpl	r2, [r0, #0]
  200d04:	ea5f 7242 	movspl.w	r2, r2, lsl #29
  200d08:	d402      	bmi.n	200d10 <GLCD_Initialize+0x648>
  200d0a:	6802      	ldr	r2, [r0, #0]
  200d0c:	0752      	lsls	r2, r2, #29
  200d0e:	d5f2      	bpl.n	200cf6 <GLCD_Initialize+0x62e>
  200d10:	f850 2c04 	ldr.w	r2, [r0, #-4]
  200d14:	680a      	ldr	r2, [r1, #0]
  200d16:	f042 0201 	orr.w	r2, r2, #1
  200d1a:	600a      	str	r2, [r1, #0]
  200d1c:	680a      	ldr	r2, [r1, #0]
  200d1e:	f022 0201 	bic.w	r2, r2, #1
  200d22:	600a      	str	r2, [r1, #0]
  200d24:	2272      	movs	r2, #114	; 0x72
  200d26:	f840 2c04 	str.w	r2, [r0, #-4]
  200d2a:	6802      	ldr	r2, [r0, #0]
  200d2c:	0752      	lsls	r2, r2, #29
  200d2e:	d409      	bmi.n	200d44 <GLCD_Initialize+0x67c>
  200d30:	6802      	ldr	r2, [r0, #0]
  200d32:	0752      	lsls	r2, r2, #29
  200d34:	bf5c      	itt	pl
  200d36:	6802      	ldrpl	r2, [r0, #0]
  200d38:	ea5f 7242 	movspl.w	r2, r2, lsl #29
  200d3c:	d402      	bmi.n	200d44 <GLCD_Initialize+0x67c>
  200d3e:	6802      	ldr	r2, [r0, #0]
  200d40:	0752      	lsls	r2, r2, #29
  200d42:	d5f2      	bpl.n	200d2a <GLCD_Initialize+0x662>
  200d44:	f850 2c04 	ldr.w	r2, [r0, #-4]
  200d48:	2200      	movs	r2, #0
  200d4a:	f840 2c04 	str.w	r2, [r0, #-4]
  200d4e:	6802      	ldr	r2, [r0, #0]
  200d50:	0752      	lsls	r2, r2, #29
  200d52:	d409      	bmi.n	200d68 <GLCD_Initialize+0x6a0>
  200d54:	6802      	ldr	r2, [r0, #0]
  200d56:	0752      	lsls	r2, r2, #29
  200d58:	bf5c      	itt	pl
  200d5a:	6802      	ldrpl	r2, [r0, #0]
  200d5c:	ea5f 7242 	movspl.w	r2, r2, lsl #29
  200d60:	d402      	bmi.n	200d68 <GLCD_Initialize+0x6a0>
  200d62:	6802      	ldr	r2, [r0, #0]
  200d64:	0752      	lsls	r2, r2, #29
  200d66:	d5f2      	bpl.n	200d4e <GLCD_Initialize+0x686>
  200d68:	f850 2c04 	ldr.w	r2, [r0, #-4]
  200d6c:	2238      	movs	r2, #56	; 0x38
  200d6e:	f840 2c04 	str.w	r2, [r0, #-4]
  200d72:	6802      	ldr	r2, [r0, #0]
  200d74:	0752      	lsls	r2, r2, #29
  200d76:	d409      	bmi.n	200d8c <GLCD_Initialize+0x6c4>
  200d78:	6802      	ldr	r2, [r0, #0]
  200d7a:	0752      	lsls	r2, r2, #29
  200d7c:	bf5c      	itt	pl
  200d7e:	6802      	ldrpl	r2, [r0, #0]
  200d80:	ea5f 7242 	movspl.w	r2, r2, lsl #29
  200d84:	d402      	bmi.n	200d8c <GLCD_Initialize+0x6c4>
  200d86:	6802      	ldr	r2, [r0, #0]
  200d88:	0752      	lsls	r2, r2, #29
  200d8a:	d5f2      	bpl.n	200d72 <GLCD_Initialize+0x6aa>
  200d8c:	f850 2c04 	ldr.w	r2, [r0, #-4]
  200d90:	680a      	ldr	r2, [r1, #0]
  200d92:	f042 0201 	orr.w	r2, r2, #1
  200d96:	600a      	str	r2, [r1, #0]
  200d98:	680a      	ldr	r2, [r1, #0]
  200d9a:	f022 0201 	bic.w	r2, r2, #1
  200d9e:	600a      	str	r2, [r1, #0]
  200da0:	2270      	movs	r2, #112	; 0x70
  200da2:	f840 2c04 	str.w	r2, [r0, #-4]
  200da6:	6802      	ldr	r2, [r0, #0]
  200da8:	0752      	lsls	r2, r2, #29
  200daa:	d409      	bmi.n	200dc0 <GLCD_Initialize+0x6f8>
  200dac:	6802      	ldr	r2, [r0, #0]
  200dae:	0752      	lsls	r2, r2, #29
  200db0:	bf5c      	itt	pl
  200db2:	6802      	ldrpl	r2, [r0, #0]
  200db4:	ea5f 7242 	movspl.w	r2, r2, lsl #29
  200db8:	d402      	bmi.n	200dc0 <GLCD_Initialize+0x6f8>
  200dba:	6802      	ldr	r2, [r0, #0]
  200dbc:	0752      	lsls	r2, r2, #29
  200dbe:	d5f2      	bpl.n	200da6 <GLCD_Initialize+0x6de>
  200dc0:	f850 2c04 	ldr.w	r2, [r0, #-4]
  200dc4:	2200      	movs	r2, #0
  200dc6:	f840 2c04 	str.w	r2, [r0, #-4]
  200dca:	6802      	ldr	r2, [r0, #0]
  200dcc:	0752      	lsls	r2, r2, #29
  200dce:	d409      	bmi.n	200de4 <GLCD_Initialize+0x71c>
  200dd0:	6802      	ldr	r2, [r0, #0]
  200dd2:	0752      	lsls	r2, r2, #29
  200dd4:	bf5c      	itt	pl
  200dd6:	6802      	ldrpl	r2, [r0, #0]
  200dd8:	ea5f 7242 	movspl.w	r2, r2, lsl #29
  200ddc:	d402      	bmi.n	200de4 <GLCD_Initialize+0x71c>
  200dde:	6802      	ldr	r2, [r0, #0]
  200de0:	0752      	lsls	r2, r2, #29
  200de2:	d5f2      	bpl.n	200dca <GLCD_Initialize+0x702>
  200de4:	f850 2c04 	ldr.w	r2, [r0, #-4]
  200de8:	22e9      	movs	r2, #233	; 0xe9
  200dea:	f840 2c04 	str.w	r2, [r0, #-4]
  200dee:	6802      	ldr	r2, [r0, #0]
  200df0:	0752      	lsls	r2, r2, #29
  200df2:	d409      	bmi.n	200e08 <GLCD_Initialize+0x740>
  200df4:	6802      	ldr	r2, [r0, #0]
  200df6:	0752      	lsls	r2, r2, #29
  200df8:	bf5c      	itt	pl
  200dfa:	6802      	ldrpl	r2, [r0, #0]
  200dfc:	ea5f 7242 	movspl.w	r2, r2, lsl #29
  200e00:	d402      	bmi.n	200e08 <GLCD_Initialize+0x740>
  200e02:	6802      	ldr	r2, [r0, #0]
  200e04:	0752      	lsls	r2, r2, #29
  200e06:	d5f2      	bpl.n	200dee <GLCD_Initialize+0x726>
  200e08:	f850 2c04 	ldr.w	r2, [r0, #-4]
  200e0c:	680a      	ldr	r2, [r1, #0]
  200e0e:	f042 0201 	orr.w	r2, r2, #1
  200e12:	600a      	str	r2, [r1, #0]
  200e14:	680a      	ldr	r2, [r1, #0]
  200e16:	f022 0201 	bic.w	r2, r2, #1
  200e1a:	600a      	str	r2, [r1, #0]
  200e1c:	2272      	movs	r2, #114	; 0x72
  200e1e:	f840 2c04 	str.w	r2, [r0, #-4]
  200e22:	6802      	ldr	r2, [r0, #0]
  200e24:	0752      	lsls	r2, r2, #29
  200e26:	d409      	bmi.n	200e3c <GLCD_Initialize+0x774>
  200e28:	6802      	ldr	r2, [r0, #0]
  200e2a:	0752      	lsls	r2, r2, #29
  200e2c:	bf5c      	itt	pl
  200e2e:	6802      	ldrpl	r2, [r0, #0]
  200e30:	ea5f 7242 	movspl.w	r2, r2, lsl #29
  200e34:	d402      	bmi.n	200e3c <GLCD_Initialize+0x774>
  200e36:	6802      	ldr	r2, [r0, #0]
  200e38:	0752      	lsls	r2, r2, #29
  200e3a:	d5f2      	bpl.n	200e22 <GLCD_Initialize+0x75a>
  200e3c:	f850 2c04 	ldr.w	r2, [r0, #-4]
  200e40:	2200      	movs	r2, #0
  200e42:	f840 2c04 	str.w	r2, [r0, #-4]
  200e46:	6802      	ldr	r2, [r0, #0]
  200e48:	0752      	lsls	r2, r2, #29
  200e4a:	d409      	bmi.n	200e60 <GLCD_Initialize+0x798>
  200e4c:	6802      	ldr	r2, [r0, #0]
  200e4e:	0752      	lsls	r2, r2, #29
  200e50:	bf5c      	itt	pl
  200e52:	6802      	ldrpl	r2, [r0, #0]
  200e54:	ea5f 7242 	movspl.w	r2, r2, lsl #29
  200e58:	d402      	bmi.n	200e60 <GLCD_Initialize+0x798>
  200e5a:	6802      	ldr	r2, [r0, #0]
  200e5c:	0752      	lsls	r2, r2, #29
  200e5e:	d5f2      	bpl.n	200e46 <GLCD_Initialize+0x77e>
  200e60:	f850 2c04 	ldr.w	r2, [r0, #-4]
  200e64:	2210      	movs	r2, #16
  200e66:	f840 2c04 	str.w	r2, [r0, #-4]
  200e6a:	6802      	ldr	r2, [r0, #0]
  200e6c:	0752      	lsls	r2, r2, #29
  200e6e:	d409      	bmi.n	200e84 <GLCD_Initialize+0x7bc>
  200e70:	6802      	ldr	r2, [r0, #0]
  200e72:	0752      	lsls	r2, r2, #29
  200e74:	bf5c      	itt	pl
  200e76:	6802      	ldrpl	r2, [r0, #0]
  200e78:	ea5f 7242 	movspl.w	r2, r2, lsl #29
  200e7c:	d402      	bmi.n	200e84 <GLCD_Initialize+0x7bc>
  200e7e:	6802      	ldr	r2, [r0, #0]
  200e80:	0752      	lsls	r2, r2, #29
  200e82:	d5f2      	bpl.n	200e6a <GLCD_Initialize+0x7a2>
  200e84:	f850 2c04 	ldr.w	r2, [r0, #-4]
  200e88:	680a      	ldr	r2, [r1, #0]
  200e8a:	f042 0201 	orr.w	r2, r2, #1
  200e8e:	600a      	str	r2, [r1, #0]
  200e90:	680a      	ldr	r2, [r1, #0]
  200e92:	f022 0201 	bic.w	r2, r2, #1
  200e96:	600a      	str	r2, [r1, #0]
  200e98:	2270      	movs	r2, #112	; 0x70
  200e9a:	f840 2c04 	str.w	r2, [r0, #-4]
  200e9e:	6802      	ldr	r2, [r0, #0]
  200ea0:	0752      	lsls	r2, r2, #29
  200ea2:	d409      	bmi.n	200eb8 <GLCD_Initialize+0x7f0>
  200ea4:	6802      	ldr	r2, [r0, #0]
  200ea6:	0752      	lsls	r2, r2, #29
  200ea8:	bf5c      	itt	pl
  200eaa:	6802      	ldrpl	r2, [r0, #0]
  200eac:	ea5f 7242 	movspl.w	r2, r2, lsl #29
  200eb0:	d402      	bmi.n	200eb8 <GLCD_Initialize+0x7f0>
  200eb2:	6802      	ldr	r2, [r0, #0]
  200eb4:	0752      	lsls	r2, r2, #29
  200eb6:	d5f2      	bpl.n	200e9e <GLCD_Initialize+0x7d6>
  200eb8:	f850 2c04 	ldr.w	r2, [r0, #-4]
  200ebc:	2200      	movs	r2, #0
  200ebe:	f840 2c04 	str.w	r2, [r0, #-4]
  200ec2:	6802      	ldr	r2, [r0, #0]
  200ec4:	0752      	lsls	r2, r2, #29
  200ec6:	d409      	bmi.n	200edc <GLCD_Initialize+0x814>
  200ec8:	6802      	ldr	r2, [r0, #0]
  200eca:	0752      	lsls	r2, r2, #29
  200ecc:	bf5c      	itt	pl
  200ece:	6802      	ldrpl	r2, [r0, #0]
  200ed0:	ea5f 7242 	movspl.w	r2, r2, lsl #29
  200ed4:	d402      	bmi.n	200edc <GLCD_Initialize+0x814>
  200ed6:	6802      	ldr	r2, [r0, #0]
  200ed8:	0752      	lsls	r2, r2, #29
  200eda:	d5f2      	bpl.n	200ec2 <GLCD_Initialize+0x7fa>
  200edc:	f850 2c04 	ldr.w	r2, [r0, #-4]
  200ee0:	22f1      	movs	r2, #241	; 0xf1
  200ee2:	f840 2c04 	str.w	r2, [r0, #-4]
  200ee6:	6802      	ldr	r2, [r0, #0]
  200ee8:	0752      	lsls	r2, r2, #29
  200eea:	d409      	bmi.n	200f00 <GLCD_Initialize+0x838>
  200eec:	6802      	ldr	r2, [r0, #0]
  200eee:	0752      	lsls	r2, r2, #29
  200ef0:	bf5c      	itt	pl
  200ef2:	6802      	ldrpl	r2, [r0, #0]
  200ef4:	ea5f 7242 	movspl.w	r2, r2, lsl #29
  200ef8:	d402      	bmi.n	200f00 <GLCD_Initialize+0x838>
  200efa:	6802      	ldr	r2, [r0, #0]
  200efc:	0752      	lsls	r2, r2, #29
  200efe:	d5f2      	bpl.n	200ee6 <GLCD_Initialize+0x81e>
  200f00:	f850 2c04 	ldr.w	r2, [r0, #-4]
  200f04:	680a      	ldr	r2, [r1, #0]
  200f06:	f042 0201 	orr.w	r2, r2, #1
  200f0a:	600a      	str	r2, [r1, #0]
  200f0c:	680a      	ldr	r2, [r1, #0]
  200f0e:	f022 0201 	bic.w	r2, r2, #1
  200f12:	600a      	str	r2, [r1, #0]
  200f14:	2272      	movs	r2, #114	; 0x72
  200f16:	f840 2c04 	str.w	r2, [r0, #-4]
  200f1a:	6802      	ldr	r2, [r0, #0]
  200f1c:	0752      	lsls	r2, r2, #29
  200f1e:	d409      	bmi.n	200f34 <GLCD_Initialize+0x86c>
  200f20:	6802      	ldr	r2, [r0, #0]
  200f22:	0752      	lsls	r2, r2, #29
  200f24:	bf5c      	itt	pl
  200f26:	6802      	ldrpl	r2, [r0, #0]
  200f28:	ea5f 7242 	movspl.w	r2, r2, lsl #29
  200f2c:	d402      	bmi.n	200f34 <GLCD_Initialize+0x86c>
  200f2e:	6802      	ldr	r2, [r0, #0]
  200f30:	0752      	lsls	r2, r2, #29
  200f32:	d5f2      	bpl.n	200f1a <GLCD_Initialize+0x852>
  200f34:	f850 2c04 	ldr.w	r2, [r0, #-4]
  200f38:	2200      	movs	r2, #0
  200f3a:	f840 2c04 	str.w	r2, [r0, #-4]
  200f3e:	6802      	ldr	r2, [r0, #0]
  200f40:	0752      	lsls	r2, r2, #29
  200f42:	d409      	bmi.n	200f58 <GLCD_Initialize+0x890>
  200f44:	6802      	ldr	r2, [r0, #0]
  200f46:	0752      	lsls	r2, r2, #29
  200f48:	bf5c      	itt	pl
  200f4a:	6802      	ldrpl	r2, [r0, #0]
  200f4c:	ea5f 7242 	movspl.w	r2, r2, lsl #29
  200f50:	d402      	bmi.n	200f58 <GLCD_Initialize+0x890>
  200f52:	6802      	ldr	r2, [r0, #0]
  200f54:	0752      	lsls	r2, r2, #29
  200f56:	d5f2      	bpl.n	200f3e <GLCD_Initialize+0x876>
  200f58:	f850 2c04 	ldr.w	r2, [r0, #-4]
  200f5c:	2201      	movs	r2, #1
  200f5e:	f840 2c04 	str.w	r2, [r0, #-4]
  200f62:	6802      	ldr	r2, [r0, #0]
  200f64:	0752      	lsls	r2, r2, #29
  200f66:	d409      	bmi.n	200f7c <GLCD_Initialize+0x8b4>
  200f68:	6802      	ldr	r2, [r0, #0]
  200f6a:	0752      	lsls	r2, r2, #29
  200f6c:	bf5c      	itt	pl
  200f6e:	6802      	ldrpl	r2, [r0, #0]
  200f70:	ea5f 7242 	movspl.w	r2, r2, lsl #29
  200f74:	d402      	bmi.n	200f7c <GLCD_Initialize+0x8b4>
  200f76:	6802      	ldr	r2, [r0, #0]
  200f78:	0752      	lsls	r2, r2, #29
  200f7a:	d5f2      	bpl.n	200f62 <GLCD_Initialize+0x89a>
  200f7c:	f850 2c04 	ldr.w	r2, [r0, #-4]
  200f80:	680a      	ldr	r2, [r1, #0]
  200f82:	f042 0201 	orr.w	r2, r2, #1
  200f86:	600a      	str	r2, [r1, #0]
  200f88:	680a      	ldr	r2, [r1, #0]
  200f8a:	f022 0201 	bic.w	r2, r2, #1
  200f8e:	600a      	str	r2, [r1, #0]
  200f90:	2270      	movs	r2, #112	; 0x70
  200f92:	f840 2c04 	str.w	r2, [r0, #-4]
  200f96:	6802      	ldr	r2, [r0, #0]
  200f98:	0752      	lsls	r2, r2, #29
  200f9a:	d409      	bmi.n	200fb0 <GLCD_Initialize+0x8e8>
  200f9c:	6802      	ldr	r2, [r0, #0]
  200f9e:	0752      	lsls	r2, r2, #29
  200fa0:	bf5c      	itt	pl
  200fa2:	6802      	ldrpl	r2, [r0, #0]
  200fa4:	ea5f 7242 	movspl.w	r2, r2, lsl #29
  200fa8:	d402      	bmi.n	200fb0 <GLCD_Initialize+0x8e8>
  200faa:	6802      	ldr	r2, [r0, #0]
  200fac:	0752      	lsls	r2, r2, #29
  200fae:	d5f2      	bpl.n	200f96 <GLCD_Initialize+0x8ce>
  200fb0:	f850 2c04 	ldr.w	r2, [r0, #-4]
  200fb4:	2200      	movs	r2, #0
  200fb6:	f840 2c04 	str.w	r2, [r0, #-4]
  200fba:	6802      	ldr	r2, [r0, #0]
  200fbc:	0752      	lsls	r2, r2, #29
  200fbe:	d409      	bmi.n	200fd4 <GLCD_Initialize+0x90c>
  200fc0:	6802      	ldr	r2, [r0, #0]
  200fc2:	0752      	lsls	r2, r2, #29
  200fc4:	bf5c      	itt	pl
  200fc6:	6802      	ldrpl	r2, [r0, #0]
  200fc8:	ea5f 7242 	movspl.w	r2, r2, lsl #29
  200fcc:	d402      	bmi.n	200fd4 <GLCD_Initialize+0x90c>
  200fce:	6802      	ldr	r2, [r0, #0]
  200fd0:	0752      	lsls	r2, r2, #29
  200fd2:	d5f2      	bpl.n	200fba <GLCD_Initialize+0x8f2>
  200fd4:	f850 2c04 	ldr.w	r2, [r0, #-4]
  200fd8:	22f2      	movs	r2, #242	; 0xf2
  200fda:	f840 2c04 	str.w	r2, [r0, #-4]
  200fde:	6802      	ldr	r2, [r0, #0]
  200fe0:	0752      	lsls	r2, r2, #29
  200fe2:	d409      	bmi.n	200ff8 <GLCD_Initialize+0x930>
  200fe4:	6802      	ldr	r2, [r0, #0]
  200fe6:	0752      	lsls	r2, r2, #29
  200fe8:	bf5c      	itt	pl
  200fea:	6802      	ldrpl	r2, [r0, #0]
  200fec:	ea5f 7242 	movspl.w	r2, r2, lsl #29
  200ff0:	d402      	bmi.n	200ff8 <GLCD_Initialize+0x930>
  200ff2:	6802      	ldr	r2, [r0, #0]
  200ff4:	0752      	lsls	r2, r2, #29
  200ff6:	d5f2      	bpl.n	200fde <GLCD_Initialize+0x916>
  200ff8:	f850 2c04 	ldr.w	r2, [r0, #-4]
  200ffc:	680a      	ldr	r2, [r1, #0]
  200ffe:	f042 0201 	orr.w	r2, r2, #1
  201002:	600a      	str	r2, [r1, #0]
  201004:	680a      	ldr	r2, [r1, #0]
  201006:	f022 0201 	bic.w	r2, r2, #1
  20100a:	600a      	str	r2, [r1, #0]
  20100c:	2272      	movs	r2, #114	; 0x72
  20100e:	f840 2c04 	str.w	r2, [r0, #-4]
  201012:	6802      	ldr	r2, [r0, #0]
  201014:	0752      	lsls	r2, r2, #29
  201016:	d409      	bmi.n	20102c <GLCD_Initialize+0x964>
  201018:	6802      	ldr	r2, [r0, #0]
  20101a:	0752      	lsls	r2, r2, #29
  20101c:	bf5c      	itt	pl
  20101e:	6802      	ldrpl	r2, [r0, #0]
  201020:	ea5f 7242 	movspl.w	r2, r2, lsl #29
  201024:	d402      	bmi.n	20102c <GLCD_Initialize+0x964>
  201026:	6802      	ldr	r2, [r0, #0]
  201028:	0752      	lsls	r2, r2, #29
  20102a:	d5f2      	bpl.n	201012 <GLCD_Initialize+0x94a>
  20102c:	f850 2c04 	ldr.w	r2, [r0, #-4]
  201030:	2200      	movs	r2, #0
  201032:	f840 2c04 	str.w	r2, [r0, #-4]
  201036:	6802      	ldr	r2, [r0, #0]
  201038:	0752      	lsls	r2, r2, #29
  20103a:	d409      	bmi.n	201050 <GLCD_Initialize+0x988>
  20103c:	6802      	ldr	r2, [r0, #0]
  20103e:	0752      	lsls	r2, r2, #29
  201040:	bf5c      	itt	pl
  201042:	6802      	ldrpl	r2, [r0, #0]
  201044:	ea5f 7242 	movspl.w	r2, r2, lsl #29
  201048:	d402      	bmi.n	201050 <GLCD_Initialize+0x988>
  20104a:	6802      	ldr	r2, [r0, #0]
  20104c:	0752      	lsls	r2, r2, #29
  20104e:	d5f2      	bpl.n	201036 <GLCD_Initialize+0x96e>
  201050:	f850 2c04 	ldr.w	r2, [r0, #-4]
  201054:	2210      	movs	r2, #16
  201056:	f840 2c04 	str.w	r2, [r0, #-4]
  20105a:	6802      	ldr	r2, [r0, #0]
  20105c:	0752      	lsls	r2, r2, #29
  20105e:	d409      	bmi.n	201074 <GLCD_Initialize+0x9ac>
  201060:	6802      	ldr	r2, [r0, #0]
  201062:	0752      	lsls	r2, r2, #29
  201064:	bf5c      	itt	pl
  201066:	6802      	ldrpl	r2, [r0, #0]
  201068:	ea5f 7242 	movspl.w	r2, r2, lsl #29
  20106c:	d402      	bmi.n	201074 <GLCD_Initialize+0x9ac>
  20106e:	6802      	ldr	r2, [r0, #0]
  201070:	0752      	lsls	r2, r2, #29
  201072:	d5f2      	bpl.n	20105a <GLCD_Initialize+0x992>
  201074:	f850 2c04 	ldr.w	r2, [r0, #-4]
  201078:	680a      	ldr	r2, [r1, #0]
  20107a:	f042 0201 	orr.w	r2, r2, #1
  20107e:	600a      	str	r2, [r1, #0]
  201080:	680a      	ldr	r2, [r1, #0]
  201082:	f022 0201 	bic.w	r2, r2, #1
  201086:	600a      	str	r2, [r1, #0]
  201088:	2270      	movs	r2, #112	; 0x70
  20108a:	f840 2c04 	str.w	r2, [r0, #-4]
  20108e:	6802      	ldr	r2, [r0, #0]
  201090:	0752      	lsls	r2, r2, #29
  201092:	d409      	bmi.n	2010a8 <GLCD_Initialize+0x9e0>
  201094:	6802      	ldr	r2, [r0, #0]
  201096:	0752      	lsls	r2, r2, #29
  201098:	bf5c      	itt	pl
  20109a:	6802      	ldrpl	r2, [r0, #0]
  20109c:	ea5f 7242 	movspl.w	r2, r2, lsl #29
  2010a0:	d402      	bmi.n	2010a8 <GLCD_Initialize+0x9e0>
  2010a2:	6802      	ldr	r2, [r0, #0]
  2010a4:	0752      	lsls	r2, r2, #29
  2010a6:	d5f2      	bpl.n	20108e <GLCD_Initialize+0x9c6>
  2010a8:	f850 2c04 	ldr.w	r2, [r0, #-4]
  2010ac:	2200      	movs	r2, #0
  2010ae:	f840 2c04 	str.w	r2, [r0, #-4]
  2010b2:	6802      	ldr	r2, [r0, #0]
  2010b4:	0752      	lsls	r2, r2, #29
  2010b6:	d409      	bmi.n	2010cc <GLCD_Initialize+0xa04>
  2010b8:	6802      	ldr	r2, [r0, #0]
  2010ba:	0752      	lsls	r2, r2, #29
  2010bc:	bf5c      	itt	pl
  2010be:	6802      	ldrpl	r2, [r0, #0]
  2010c0:	ea5f 7242 	movspl.w	r2, r2, lsl #29
  2010c4:	d402      	bmi.n	2010cc <GLCD_Initialize+0xa04>
  2010c6:	6802      	ldr	r2, [r0, #0]
  2010c8:	0752      	lsls	r2, r2, #29
  2010ca:	d5f2      	bpl.n	2010b2 <GLCD_Initialize+0x9ea>
  2010cc:	f850 2c04 	ldr.w	r2, [r0, #-4]
  2010d0:	2240      	movs	r2, #64	; 0x40
  2010d2:	f840 2c04 	str.w	r2, [r0, #-4]
  2010d6:	6802      	ldr	r2, [r0, #0]
  2010d8:	0752      	lsls	r2, r2, #29
  2010da:	d409      	bmi.n	2010f0 <GLCD_Initialize+0xa28>
  2010dc:	6802      	ldr	r2, [r0, #0]
  2010de:	0752      	lsls	r2, r2, #29
  2010e0:	bf5c      	itt	pl
  2010e2:	6802      	ldrpl	r2, [r0, #0]
  2010e4:	ea5f 7242 	movspl.w	r2, r2, lsl #29
  2010e8:	d402      	bmi.n	2010f0 <GLCD_Initialize+0xa28>
  2010ea:	6802      	ldr	r2, [r0, #0]
  2010ec:	0752      	lsls	r2, r2, #29
  2010ee:	d5f2      	bpl.n	2010d6 <GLCD_Initialize+0xa0e>
  2010f0:	f850 2c04 	ldr.w	r2, [r0, #-4]
  2010f4:	680a      	ldr	r2, [r1, #0]
  2010f6:	f042 0201 	orr.w	r2, r2, #1
  2010fa:	600a      	str	r2, [r1, #0]
  2010fc:	680a      	ldr	r2, [r1, #0]
  2010fe:	f022 0201 	bic.w	r2, r2, #1
  201102:	600a      	str	r2, [r1, #0]
  201104:	2272      	movs	r2, #114	; 0x72
  201106:	f840 2c04 	str.w	r2, [r0, #-4]
  20110a:	6802      	ldr	r2, [r0, #0]
  20110c:	0752      	lsls	r2, r2, #29
  20110e:	d409      	bmi.n	201124 <GLCD_Initialize+0xa5c>
  201110:	6802      	ldr	r2, [r0, #0]
  201112:	0752      	lsls	r2, r2, #29
  201114:	bf5c      	itt	pl
  201116:	6802      	ldrpl	r2, [r0, #0]
  201118:	ea5f 7242 	movspl.w	r2, r2, lsl #29
  20111c:	d402      	bmi.n	201124 <GLCD_Initialize+0xa5c>
  20111e:	6802      	ldr	r2, [r0, #0]
  201120:	0752      	lsls	r2, r2, #29
  201122:	d5f2      	bpl.n	20110a <GLCD_Initialize+0xa42>
  201124:	f850 2c04 	ldr.w	r2, [r0, #-4]
  201128:	2200      	movs	r2, #0
  20112a:	f840 2c04 	str.w	r2, [r0, #-4]
  20112e:	6802      	ldr	r2, [r0, #0]
  201130:	0752      	lsls	r2, r2, #29
  201132:	d409      	bmi.n	201148 <GLCD_Initialize+0xa80>
  201134:	6802      	ldr	r2, [r0, #0]
  201136:	0752      	lsls	r2, r2, #29
  201138:	bf5c      	itt	pl
  20113a:	6802      	ldrpl	r2, [r0, #0]
  20113c:	ea5f 7242 	movspl.w	r2, r2, lsl #29
  201140:	d402      	bmi.n	201148 <GLCD_Initialize+0xa80>
  201142:	6802      	ldr	r2, [r0, #0]
  201144:	0752      	lsls	r2, r2, #29
  201146:	d5f2      	bpl.n	20112e <GLCD_Initialize+0xa66>
  201148:	f850 2c04 	ldr.w	r2, [r0, #-4]
  20114c:	2201      	movs	r2, #1
  20114e:	f840 2c04 	str.w	r2, [r0, #-4]
  201152:	6802      	ldr	r2, [r0, #0]
  201154:	0752      	lsls	r2, r2, #29
  201156:	d409      	bmi.n	20116c <GLCD_Initialize+0xaa4>
  201158:	6802      	ldr	r2, [r0, #0]
  20115a:	0752      	lsls	r2, r2, #29
  20115c:	bf5c      	itt	pl
  20115e:	6802      	ldrpl	r2, [r0, #0]
  201160:	ea5f 7242 	movspl.w	r2, r2, lsl #29
  201164:	d402      	bmi.n	20116c <GLCD_Initialize+0xaa4>
  201166:	6802      	ldr	r2, [r0, #0]
  201168:	0752      	lsls	r2, r2, #29
  20116a:	d5f2      	bpl.n	201152 <GLCD_Initialize+0xa8a>
  20116c:	f850 2c04 	ldr.w	r2, [r0, #-4]
  201170:	680a      	ldr	r2, [r1, #0]
  201172:	f042 0201 	orr.w	r2, r2, #1
  201176:	600a      	str	r2, [r1, #0]
  201178:	680a      	ldr	r2, [r1, #0]
  20117a:	f022 0201 	bic.w	r2, r2, #1
  20117e:	600a      	str	r2, [r1, #0]
  201180:	2270      	movs	r2, #112	; 0x70
  201182:	f840 2c04 	str.w	r2, [r0, #-4]
  201186:	6802      	ldr	r2, [r0, #0]
  201188:	0752      	lsls	r2, r2, #29
  20118a:	d409      	bmi.n	2011a0 <GLCD_Initialize+0xad8>
  20118c:	6802      	ldr	r2, [r0, #0]
  20118e:	0752      	lsls	r2, r2, #29
  201190:	bf5c      	itt	pl
  201192:	6802      	ldrpl	r2, [r0, #0]
  201194:	ea5f 7242 	movspl.w	r2, r2, lsl #29
  201198:	d402      	bmi.n	2011a0 <GLCD_Initialize+0xad8>
  20119a:	6802      	ldr	r2, [r0, #0]
  20119c:	0752      	lsls	r2, r2, #29
  20119e:	d5f2      	bpl.n	201186 <GLCD_Initialize+0xabe>
  2011a0:	f850 2c04 	ldr.w	r2, [r0, #-4]
  2011a4:	2200      	movs	r2, #0
  2011a6:	f840 2c04 	str.w	r2, [r0, #-4]
  2011aa:	6802      	ldr	r2, [r0, #0]
  2011ac:	0752      	lsls	r2, r2, #29
  2011ae:	d409      	bmi.n	2011c4 <GLCD_Initialize+0xafc>
  2011b0:	6802      	ldr	r2, [r0, #0]
  2011b2:	0752      	lsls	r2, r2, #29
  2011b4:	bf5c      	itt	pl
  2011b6:	6802      	ldrpl	r2, [r0, #0]
  2011b8:	ea5f 7242 	movspl.w	r2, r2, lsl #29
  2011bc:	d402      	bmi.n	2011c4 <GLCD_Initialize+0xafc>
  2011be:	6802      	ldr	r2, [r0, #0]
  2011c0:	0752      	lsls	r2, r2, #29
  2011c2:	d5f2      	bpl.n	2011aa <GLCD_Initialize+0xae2>
  2011c4:	f850 2c04 	ldr.w	r2, [r0, #-4]
  2011c8:	2241      	movs	r2, #65	; 0x41
  2011ca:	f840 2c04 	str.w	r2, [r0, #-4]
  2011ce:	6802      	ldr	r2, [r0, #0]
  2011d0:	0752      	lsls	r2, r2, #29
  2011d2:	d409      	bmi.n	2011e8 <GLCD_Initialize+0xb20>
  2011d4:	6802      	ldr	r2, [r0, #0]
  2011d6:	0752      	lsls	r2, r2, #29
  2011d8:	bf5c      	itt	pl
  2011da:	6802      	ldrpl	r2, [r0, #0]
  2011dc:	ea5f 7242 	movspl.w	r2, r2, lsl #29
  2011e0:	d402      	bmi.n	2011e8 <GLCD_Initialize+0xb20>
  2011e2:	6802      	ldr	r2, [r0, #0]
  2011e4:	0752      	lsls	r2, r2, #29
  2011e6:	d5f2      	bpl.n	2011ce <GLCD_Initialize+0xb06>
  2011e8:	f850 2c04 	ldr.w	r2, [r0, #-4]
  2011ec:	680a      	ldr	r2, [r1, #0]
  2011ee:	f042 0201 	orr.w	r2, r2, #1
  2011f2:	600a      	str	r2, [r1, #0]
  2011f4:	680a      	ldr	r2, [r1, #0]
  2011f6:	f022 0201 	bic.w	r2, r2, #1
  2011fa:	600a      	str	r2, [r1, #0]
  2011fc:	2272      	movs	r2, #114	; 0x72
  2011fe:	f840 2c04 	str.w	r2, [r0, #-4]
  201202:	6802      	ldr	r2, [r0, #0]
  201204:	0752      	lsls	r2, r2, #29
  201206:	d409      	bmi.n	20121c <GLCD_Initialize+0xb54>
  201208:	6802      	ldr	r2, [r0, #0]
  20120a:	0752      	lsls	r2, r2, #29
  20120c:	bf5c      	itt	pl
  20120e:	6802      	ldrpl	r2, [r0, #0]
  201210:	ea5f 7242 	movspl.w	r2, r2, lsl #29
  201214:	d402      	bmi.n	20121c <GLCD_Initialize+0xb54>
  201216:	6802      	ldr	r2, [r0, #0]
  201218:	0752      	lsls	r2, r2, #29
  20121a:	d5f2      	bpl.n	201202 <GLCD_Initialize+0xb3a>
  20121c:	f850 2c04 	ldr.w	r2, [r0, #-4]
  201220:	2200      	movs	r2, #0
  201222:	f840 2c04 	str.w	r2, [r0, #-4]
  201226:	6802      	ldr	r2, [r0, #0]
  201228:	0752      	lsls	r2, r2, #29
  20122a:	d409      	bmi.n	201240 <GLCD_Initialize+0xb78>
  20122c:	6802      	ldr	r2, [r0, #0]
  20122e:	0752      	lsls	r2, r2, #29
  201230:	bf5c      	itt	pl
  201232:	6802      	ldrpl	r2, [r0, #0]
  201234:	ea5f 7242 	movspl.w	r2, r2, lsl #29
  201238:	d402      	bmi.n	201240 <GLCD_Initialize+0xb78>
  20123a:	6802      	ldr	r2, [r0, #0]
  20123c:	0752      	lsls	r2, r2, #29
  20123e:	d5f2      	bpl.n	201226 <GLCD_Initialize+0xb5e>
  201240:	f850 2c04 	ldr.w	r2, [r0, #-4]
  201244:	2200      	movs	r2, #0
  201246:	f840 2c04 	str.w	r2, [r0, #-4]
  20124a:	6802      	ldr	r2, [r0, #0]
  20124c:	0752      	lsls	r2, r2, #29
  20124e:	d409      	bmi.n	201264 <GLCD_Initialize+0xb9c>
  201250:	6802      	ldr	r2, [r0, #0]
  201252:	0752      	lsls	r2, r2, #29
  201254:	bf5c      	itt	pl
  201256:	6802      	ldrpl	r2, [r0, #0]
  201258:	ea5f 7242 	movspl.w	r2, r2, lsl #29
  20125c:	d402      	bmi.n	201264 <GLCD_Initialize+0xb9c>
  20125e:	6802      	ldr	r2, [r0, #0]
  201260:	0752      	lsls	r2, r2, #29
  201262:	d5f2      	bpl.n	20124a <GLCD_Initialize+0xb82>
  201264:	f850 2c04 	ldr.w	r2, [r0, #-4]
  201268:	680a      	ldr	r2, [r1, #0]
  20126a:	f042 0201 	orr.w	r2, r2, #1
  20126e:	600a      	str	r2, [r1, #0]
  201270:	680a      	ldr	r2, [r1, #0]
  201272:	f022 0201 	bic.w	r2, r2, #1
  201276:	600a      	str	r2, [r1, #0]
  201278:	2270      	movs	r2, #112	; 0x70
  20127a:	f840 2c04 	str.w	r2, [r0, #-4]
  20127e:	6802      	ldr	r2, [r0, #0]
  201280:	0752      	lsls	r2, r2, #29
  201282:	d409      	bmi.n	201298 <GLCD_Initialize+0xbd0>
  201284:	6802      	ldr	r2, [r0, #0]
  201286:	0752      	lsls	r2, r2, #29
  201288:	bf5c      	itt	pl
  20128a:	6802      	ldrpl	r2, [r0, #0]
  20128c:	ea5f 7242 	movspl.w	r2, r2, lsl #29
  201290:	d402      	bmi.n	201298 <GLCD_Initialize+0xbd0>
  201292:	6802      	ldr	r2, [r0, #0]
  201294:	0752      	lsls	r2, r2, #29
  201296:	d5f2      	bpl.n	20127e <GLCD_Initialize+0xbb6>
  201298:	f850 2c04 	ldr.w	r2, [r0, #-4]
  20129c:	2200      	movs	r2, #0
  20129e:	f840 2c04 	str.w	r2, [r0, #-4]
  2012a2:	6802      	ldr	r2, [r0, #0]
  2012a4:	0752      	lsls	r2, r2, #29
  2012a6:	d409      	bmi.n	2012bc <GLCD_Initialize+0xbf4>
  2012a8:	6802      	ldr	r2, [r0, #0]
  2012aa:	0752      	lsls	r2, r2, #29
  2012ac:	bf5c      	itt	pl
  2012ae:	6802      	ldrpl	r2, [r0, #0]
  2012b0:	ea5f 7242 	movspl.w	r2, r2, lsl #29
  2012b4:	d402      	bmi.n	2012bc <GLCD_Initialize+0xbf4>
  2012b6:	6802      	ldr	r2, [r0, #0]
  2012b8:	0752      	lsls	r2, r2, #29
  2012ba:	d5f2      	bpl.n	2012a2 <GLCD_Initialize+0xbda>
  2012bc:	f850 2c04 	ldr.w	r2, [r0, #-4]
  2012c0:	2242      	movs	r2, #66	; 0x42
  2012c2:	f840 2c04 	str.w	r2, [r0, #-4]
  2012c6:	6802      	ldr	r2, [r0, #0]
  2012c8:	0752      	lsls	r2, r2, #29
  2012ca:	d409      	bmi.n	2012e0 <GLCD_Initialize+0xc18>
  2012cc:	6802      	ldr	r2, [r0, #0]
  2012ce:	0752      	lsls	r2, r2, #29
  2012d0:	bf5c      	itt	pl
  2012d2:	6802      	ldrpl	r2, [r0, #0]
  2012d4:	ea5f 7242 	movspl.w	r2, r2, lsl #29
  2012d8:	d402      	bmi.n	2012e0 <GLCD_Initialize+0xc18>
  2012da:	6802      	ldr	r2, [r0, #0]
  2012dc:	0752      	lsls	r2, r2, #29
  2012de:	d5f2      	bpl.n	2012c6 <GLCD_Initialize+0xbfe>
  2012e0:	f850 2c04 	ldr.w	r2, [r0, #-4]
  2012e4:	680a      	ldr	r2, [r1, #0]
  2012e6:	f042 0201 	orr.w	r2, r2, #1
  2012ea:	600a      	str	r2, [r1, #0]
  2012ec:	680a      	ldr	r2, [r1, #0]
  2012ee:	f022 0201 	bic.w	r2, r2, #1
  2012f2:	600a      	str	r2, [r1, #0]
  2012f4:	2272      	movs	r2, #114	; 0x72
  2012f6:	f840 2c04 	str.w	r2, [r0, #-4]
  2012fa:	6802      	ldr	r2, [r0, #0]
  2012fc:	0752      	lsls	r2, r2, #29
  2012fe:	d409      	bmi.n	201314 <GLCD_Initialize+0xc4c>
  201300:	6802      	ldr	r2, [r0, #0]
  201302:	0752      	lsls	r2, r2, #29
  201304:	bf5c      	itt	pl
  201306:	6802      	ldrpl	r2, [r0, #0]
  201308:	ea5f 7242 	movspl.w	r2, r2, lsl #29
  20130c:	d402      	bmi.n	201314 <GLCD_Initialize+0xc4c>
  20130e:	6802      	ldr	r2, [r0, #0]
  201310:	0752      	lsls	r2, r2, #29
  201312:	d5f2      	bpl.n	2012fa <GLCD_Initialize+0xc32>
  201314:	f850 2c04 	ldr.w	r2, [r0, #-4]
  201318:	2200      	movs	r2, #0
  20131a:	f840 2c04 	str.w	r2, [r0, #-4]
  20131e:	6802      	ldr	r2, [r0, #0]
  201320:	0752      	lsls	r2, r2, #29
  201322:	d409      	bmi.n	201338 <GLCD_Initialize+0xc70>
  201324:	6802      	ldr	r2, [r0, #0]
  201326:	0752      	lsls	r2, r2, #29
  201328:	bf5c      	itt	pl
  20132a:	6802      	ldrpl	r2, [r0, #0]
  20132c:	ea5f 7242 	movspl.w	r2, r2, lsl #29
  201330:	d402      	bmi.n	201338 <GLCD_Initialize+0xc70>
  201332:	6802      	ldr	r2, [r0, #0]
  201334:	0752      	lsls	r2, r2, #29
  201336:	d5f2      	bpl.n	20131e <GLCD_Initialize+0xc56>
  201338:	f850 2c04 	ldr.w	r2, [r0, #-4]
  20133c:	2200      	movs	r2, #0
  20133e:	f840 2c04 	str.w	r2, [r0, #-4]
  201342:	6802      	ldr	r2, [r0, #0]
  201344:	0752      	lsls	r2, r2, #29
  201346:	d409      	bmi.n	20135c <GLCD_Initialize+0xc94>
  201348:	6802      	ldr	r2, [r0, #0]
  20134a:	0752      	lsls	r2, r2, #29
  20134c:	bf5c      	itt	pl
  20134e:	6802      	ldrpl	r2, [r0, #0]
  201350:	ea5f 7242 	movspl.w	r2, r2, lsl #29
  201354:	d402      	bmi.n	20135c <GLCD_Initialize+0xc94>
  201356:	6802      	ldr	r2, [r0, #0]
  201358:	0752      	lsls	r2, r2, #29
  20135a:	d5f2      	bpl.n	201342 <GLCD_Initialize+0xc7a>
  20135c:	f850 2c04 	ldr.w	r2, [r0, #-4]
  201360:	680a      	ldr	r2, [r1, #0]
  201362:	f042 0201 	orr.w	r2, r2, #1
  201366:	600a      	str	r2, [r1, #0]
  201368:	680a      	ldr	r2, [r1, #0]
  20136a:	f022 0201 	bic.w	r2, r2, #1
  20136e:	600a      	str	r2, [r1, #0]
  201370:	2270      	movs	r2, #112	; 0x70
  201372:	f840 2c04 	str.w	r2, [r0, #-4]
  201376:	6802      	ldr	r2, [r0, #0]
  201378:	0752      	lsls	r2, r2, #29
  20137a:	d409      	bmi.n	201390 <GLCD_Initialize+0xcc8>
  20137c:	6802      	ldr	r2, [r0, #0]
  20137e:	0752      	lsls	r2, r2, #29
  201380:	bf5c      	itt	pl
  201382:	6802      	ldrpl	r2, [r0, #0]
  201384:	ea5f 7242 	movspl.w	r2, r2, lsl #29
  201388:	d402      	bmi.n	201390 <GLCD_Initialize+0xcc8>
  20138a:	6802      	ldr	r2, [r0, #0]
  20138c:	0752      	lsls	r2, r2, #29
  20138e:	d5f2      	bpl.n	201376 <GLCD_Initialize+0xcae>
  201390:	f850 2c04 	ldr.w	r2, [r0, #-4]
  201394:	2200      	movs	r2, #0
  201396:	f840 2c04 	str.w	r2, [r0, #-4]
  20139a:	6802      	ldr	r2, [r0, #0]
  20139c:	0752      	lsls	r2, r2, #29
  20139e:	d409      	bmi.n	2013b4 <GLCD_Initialize+0xcec>
  2013a0:	6802      	ldr	r2, [r0, #0]
  2013a2:	0752      	lsls	r2, r2, #29
  2013a4:	bf5c      	itt	pl
  2013a6:	6802      	ldrpl	r2, [r0, #0]
  2013a8:	ea5f 7242 	movspl.w	r2, r2, lsl #29
  2013ac:	d402      	bmi.n	2013b4 <GLCD_Initialize+0xcec>
  2013ae:	6802      	ldr	r2, [r0, #0]
  2013b0:	0752      	lsls	r2, r2, #29
  2013b2:	d5f2      	bpl.n	20139a <GLCD_Initialize+0xcd2>
  2013b4:	f850 2c04 	ldr.w	r2, [r0, #-4]
  2013b8:	2243      	movs	r2, #67	; 0x43
  2013ba:	f840 2c04 	str.w	r2, [r0, #-4]
  2013be:	6802      	ldr	r2, [r0, #0]
  2013c0:	0752      	lsls	r2, r2, #29
  2013c2:	d409      	bmi.n	2013d8 <GLCD_Initialize+0xd10>
  2013c4:	6802      	ldr	r2, [r0, #0]
  2013c6:	0752      	lsls	r2, r2, #29
  2013c8:	bf5c      	itt	pl
  2013ca:	6802      	ldrpl	r2, [r0, #0]
  2013cc:	ea5f 7242 	movspl.w	r2, r2, lsl #29
  2013d0:	d402      	bmi.n	2013d8 <GLCD_Initialize+0xd10>
  2013d2:	6802      	ldr	r2, [r0, #0]
  2013d4:	0752      	lsls	r2, r2, #29
  2013d6:	d5f2      	bpl.n	2013be <GLCD_Initialize+0xcf6>
  2013d8:	f850 2c04 	ldr.w	r2, [r0, #-4]
  2013dc:	680a      	ldr	r2, [r1, #0]
  2013de:	f042 0201 	orr.w	r2, r2, #1
  2013e2:	600a      	str	r2, [r1, #0]
  2013e4:	680a      	ldr	r2, [r1, #0]
  2013e6:	f022 0201 	bic.w	r2, r2, #1
  2013ea:	600a      	str	r2, [r1, #0]
  2013ec:	2272      	movs	r2, #114	; 0x72
  2013ee:	f840 2c04 	str.w	r2, [r0, #-4]
  2013f2:	6802      	ldr	r2, [r0, #0]
  2013f4:	0752      	lsls	r2, r2, #29
  2013f6:	d409      	bmi.n	20140c <GLCD_Initialize+0xd44>
  2013f8:	6802      	ldr	r2, [r0, #0]
  2013fa:	0752      	lsls	r2, r2, #29
  2013fc:	bf5c      	itt	pl
  2013fe:	6802      	ldrpl	r2, [r0, #0]
  201400:	ea5f 7242 	movspl.w	r2, r2, lsl #29
  201404:	d402      	bmi.n	20140c <GLCD_Initialize+0xd44>
  201406:	6802      	ldr	r2, [r0, #0]
  201408:	0752      	lsls	r2, r2, #29
  20140a:	d5f2      	bpl.n	2013f2 <GLCD_Initialize+0xd2a>
  20140c:	f850 2c04 	ldr.w	r2, [r0, #-4]
  201410:	2200      	movs	r2, #0
  201412:	f840 2c04 	str.w	r2, [r0, #-4]
  201416:	6802      	ldr	r2, [r0, #0]
  201418:	0752      	lsls	r2, r2, #29
  20141a:	d409      	bmi.n	201430 <GLCD_Initialize+0xd68>
  20141c:	6802      	ldr	r2, [r0, #0]
  20141e:	0752      	lsls	r2, r2, #29
  201420:	bf5c      	itt	pl
  201422:	6802      	ldrpl	r2, [r0, #0]
  201424:	ea5f 7242 	movspl.w	r2, r2, lsl #29
  201428:	d402      	bmi.n	201430 <GLCD_Initialize+0xd68>
  20142a:	6802      	ldr	r2, [r0, #0]
  20142c:	0752      	lsls	r2, r2, #29
  20142e:	d5f2      	bpl.n	201416 <GLCD_Initialize+0xd4e>
  201430:	f850 2c04 	ldr.w	r2, [r0, #-4]
  201434:	2210      	movs	r2, #16
  201436:	f840 2c04 	str.w	r2, [r0, #-4]
  20143a:	6802      	ldr	r2, [r0, #0]
  20143c:	0752      	lsls	r2, r2, #29
  20143e:	d409      	bmi.n	201454 <GLCD_Initialize+0xd8c>
  201440:	6802      	ldr	r2, [r0, #0]
  201442:	0752      	lsls	r2, r2, #29
  201444:	bf5c      	itt	pl
  201446:	6802      	ldrpl	r2, [r0, #0]
  201448:	ea5f 7242 	movspl.w	r2, r2, lsl #29
  20144c:	d402      	bmi.n	201454 <GLCD_Initialize+0xd8c>
  20144e:	6802      	ldr	r2, [r0, #0]
  201450:	0752      	lsls	r2, r2, #29
  201452:	d5f2      	bpl.n	20143a <GLCD_Initialize+0xd72>
  201454:	f850 2c04 	ldr.w	r2, [r0, #-4]
  201458:	680a      	ldr	r2, [r1, #0]
  20145a:	f042 0201 	orr.w	r2, r2, #1
  20145e:	600a      	str	r2, [r1, #0]
  201460:	680a      	ldr	r2, [r1, #0]
  201462:	f022 0201 	bic.w	r2, r2, #1
  201466:	600a      	str	r2, [r1, #0]
  201468:	2270      	movs	r2, #112	; 0x70
  20146a:	f840 2c04 	str.w	r2, [r0, #-4]
  20146e:	6802      	ldr	r2, [r0, #0]
  201470:	0752      	lsls	r2, r2, #29
  201472:	d409      	bmi.n	201488 <GLCD_Initialize+0xdc0>
  201474:	6802      	ldr	r2, [r0, #0]
  201476:	0752      	lsls	r2, r2, #29
  201478:	bf5c      	itt	pl
  20147a:	6802      	ldrpl	r2, [r0, #0]
  20147c:	ea5f 7242 	movspl.w	r2, r2, lsl #29
  201480:	d402      	bmi.n	201488 <GLCD_Initialize+0xdc0>
  201482:	6802      	ldr	r2, [r0, #0]
  201484:	0752      	lsls	r2, r2, #29
  201486:	d5f2      	bpl.n	20146e <GLCD_Initialize+0xda6>
  201488:	f850 2c04 	ldr.w	r2, [r0, #-4]
  20148c:	2200      	movs	r2, #0
  20148e:	f840 2c04 	str.w	r2, [r0, #-4]
  201492:	6802      	ldr	r2, [r0, #0]
  201494:	0752      	lsls	r2, r2, #29
  201496:	d409      	bmi.n	2014ac <GLCD_Initialize+0xde4>
  201498:	6802      	ldr	r2, [r0, #0]
  20149a:	0752      	lsls	r2, r2, #29
  20149c:	bf5c      	itt	pl
  20149e:	6802      	ldrpl	r2, [r0, #0]
  2014a0:	ea5f 7242 	movspl.w	r2, r2, lsl #29
  2014a4:	d402      	bmi.n	2014ac <GLCD_Initialize+0xde4>
  2014a6:	6802      	ldr	r2, [r0, #0]
  2014a8:	0752      	lsls	r2, r2, #29
  2014aa:	d5f2      	bpl.n	201492 <GLCD_Initialize+0xdca>
  2014ac:	f850 2c04 	ldr.w	r2, [r0, #-4]
  2014b0:	2244      	movs	r2, #68	; 0x44
  2014b2:	f840 2c04 	str.w	r2, [r0, #-4]
  2014b6:	6802      	ldr	r2, [r0, #0]
  2014b8:	0752      	lsls	r2, r2, #29
  2014ba:	d409      	bmi.n	2014d0 <GLCD_Initialize+0xe08>
  2014bc:	6802      	ldr	r2, [r0, #0]
  2014be:	0752      	lsls	r2, r2, #29
  2014c0:	bf5c      	itt	pl
  2014c2:	6802      	ldrpl	r2, [r0, #0]
  2014c4:	ea5f 7242 	movspl.w	r2, r2, lsl #29
  2014c8:	d402      	bmi.n	2014d0 <GLCD_Initialize+0xe08>
  2014ca:	6802      	ldr	r2, [r0, #0]
  2014cc:	0752      	lsls	r2, r2, #29
  2014ce:	d5f2      	bpl.n	2014b6 <GLCD_Initialize+0xdee>
  2014d0:	f850 2c04 	ldr.w	r2, [r0, #-4]
  2014d4:	680a      	ldr	r2, [r1, #0]
  2014d6:	f042 0201 	orr.w	r2, r2, #1
  2014da:	600a      	str	r2, [r1, #0]
  2014dc:	680a      	ldr	r2, [r1, #0]
  2014de:	f022 0201 	bic.w	r2, r2, #1
  2014e2:	600a      	str	r2, [r1, #0]
  2014e4:	2272      	movs	r2, #114	; 0x72
  2014e6:	f840 2c04 	str.w	r2, [r0, #-4]
  2014ea:	6802      	ldr	r2, [r0, #0]
  2014ec:	0752      	lsls	r2, r2, #29
  2014ee:	d409      	bmi.n	201504 <GLCD_Initialize+0xe3c>
  2014f0:	6802      	ldr	r2, [r0, #0]
  2014f2:	0752      	lsls	r2, r2, #29
  2014f4:	bf5c      	itt	pl
  2014f6:	6802      	ldrpl	r2, [r0, #0]
  2014f8:	ea5f 7242 	movspl.w	r2, r2, lsl #29
  2014fc:	d402      	bmi.n	201504 <GLCD_Initialize+0xe3c>
  2014fe:	6802      	ldr	r2, [r0, #0]
  201500:	0752      	lsls	r2, r2, #29
  201502:	d5f2      	bpl.n	2014ea <GLCD_Initialize+0xe22>
  201504:	f850 2c04 	ldr.w	r2, [r0, #-4]
  201508:	2200      	movs	r2, #0
  20150a:	f840 2c04 	str.w	r2, [r0, #-4]
  20150e:	6802      	ldr	r2, [r0, #0]
  201510:	0752      	lsls	r2, r2, #29
  201512:	d409      	bmi.n	201528 <GLCD_Initialize+0xe60>
  201514:	6802      	ldr	r2, [r0, #0]
  201516:	0752      	lsls	r2, r2, #29
  201518:	bf5c      	itt	pl
  20151a:	6802      	ldrpl	r2, [r0, #0]
  20151c:	ea5f 7242 	movspl.w	r2, r2, lsl #29
  201520:	d402      	bmi.n	201528 <GLCD_Initialize+0xe60>
  201522:	6802      	ldr	r2, [r0, #0]
  201524:	0752      	lsls	r2, r2, #29
  201526:	d5f2      	bpl.n	20150e <GLCD_Initialize+0xe46>
  201528:	f850 2c04 	ldr.w	r2, [r0, #-4]
  20152c:	220e      	movs	r2, #14
  20152e:	f840 2c04 	str.w	r2, [r0, #-4]
  201532:	6802      	ldr	r2, [r0, #0]
  201534:	0752      	lsls	r2, r2, #29
  201536:	d409      	bmi.n	20154c <GLCD_Initialize+0xe84>
  201538:	6802      	ldr	r2, [r0, #0]
  20153a:	0752      	lsls	r2, r2, #29
  20153c:	bf5c      	itt	pl
  20153e:	6802      	ldrpl	r2, [r0, #0]
  201540:	ea5f 7242 	movspl.w	r2, r2, lsl #29
  201544:	d402      	bmi.n	20154c <GLCD_Initialize+0xe84>
  201546:	6802      	ldr	r2, [r0, #0]
  201548:	0752      	lsls	r2, r2, #29
  20154a:	d5f2      	bpl.n	201532 <GLCD_Initialize+0xe6a>
  20154c:	f850 2c04 	ldr.w	r2, [r0, #-4]
  201550:	680a      	ldr	r2, [r1, #0]
  201552:	f042 0201 	orr.w	r2, r2, #1
  201556:	600a      	str	r2, [r1, #0]
  201558:	680a      	ldr	r2, [r1, #0]
  20155a:	f022 0201 	bic.w	r2, r2, #1
  20155e:	600a      	str	r2, [r1, #0]
  201560:	2270      	movs	r2, #112	; 0x70
  201562:	f840 2c04 	str.w	r2, [r0, #-4]
  201566:	6802      	ldr	r2, [r0, #0]
  201568:	0752      	lsls	r2, r2, #29
  20156a:	d409      	bmi.n	201580 <GLCD_Initialize+0xeb8>
  20156c:	6802      	ldr	r2, [r0, #0]
  20156e:	0752      	lsls	r2, r2, #29
  201570:	bf5c      	itt	pl
  201572:	6802      	ldrpl	r2, [r0, #0]
  201574:	ea5f 7242 	movspl.w	r2, r2, lsl #29
  201578:	d402      	bmi.n	201580 <GLCD_Initialize+0xeb8>
  20157a:	6802      	ldr	r2, [r0, #0]
  20157c:	0752      	lsls	r2, r2, #29
  20157e:	d5f2      	bpl.n	201566 <GLCD_Initialize+0xe9e>
  201580:	f850 2c04 	ldr.w	r2, [r0, #-4]
  201584:	2200      	movs	r2, #0
  201586:	f840 2c04 	str.w	r2, [r0, #-4]
  20158a:	6802      	ldr	r2, [r0, #0]
  20158c:	0752      	lsls	r2, r2, #29
  20158e:	d409      	bmi.n	2015a4 <GLCD_Initialize+0xedc>
  201590:	6802      	ldr	r2, [r0, #0]
  201592:	0752      	lsls	r2, r2, #29
  201594:	bf5c      	itt	pl
  201596:	6802      	ldrpl	r2, [r0, #0]
  201598:	ea5f 7242 	movspl.w	r2, r2, lsl #29
  20159c:	d402      	bmi.n	2015a4 <GLCD_Initialize+0xedc>
  20159e:	6802      	ldr	r2, [r0, #0]
  2015a0:	0752      	lsls	r2, r2, #29
  2015a2:	d5f2      	bpl.n	20158a <GLCD_Initialize+0xec2>
  2015a4:	f850 2c04 	ldr.w	r2, [r0, #-4]
  2015a8:	2245      	movs	r2, #69	; 0x45
  2015aa:	f840 2c04 	str.w	r2, [r0, #-4]
  2015ae:	6802      	ldr	r2, [r0, #0]
  2015b0:	0752      	lsls	r2, r2, #29
  2015b2:	d409      	bmi.n	2015c8 <GLCD_Initialize+0xf00>
  2015b4:	6802      	ldr	r2, [r0, #0]
  2015b6:	0752      	lsls	r2, r2, #29
  2015b8:	bf5c      	itt	pl
  2015ba:	6802      	ldrpl	r2, [r0, #0]
  2015bc:	ea5f 7242 	movspl.w	r2, r2, lsl #29
  2015c0:	d402      	bmi.n	2015c8 <GLCD_Initialize+0xf00>
  2015c2:	6802      	ldr	r2, [r0, #0]
  2015c4:	0752      	lsls	r2, r2, #29
  2015c6:	d5f2      	bpl.n	2015ae <GLCD_Initialize+0xee6>
  2015c8:	f850 2c04 	ldr.w	r2, [r0, #-4]
  2015cc:	680a      	ldr	r2, [r1, #0]
  2015ce:	f042 0201 	orr.w	r2, r2, #1
  2015d2:	600a      	str	r2, [r1, #0]
  2015d4:	680a      	ldr	r2, [r1, #0]
  2015d6:	f022 0201 	bic.w	r2, r2, #1
  2015da:	600a      	str	r2, [r1, #0]
  2015dc:	2272      	movs	r2, #114	; 0x72
  2015de:	f840 2c04 	str.w	r2, [r0, #-4]
  2015e2:	6802      	ldr	r2, [r0, #0]
  2015e4:	0752      	lsls	r2, r2, #29
  2015e6:	d409      	bmi.n	2015fc <GLCD_Initialize+0xf34>
  2015e8:	6802      	ldr	r2, [r0, #0]
  2015ea:	0752      	lsls	r2, r2, #29
  2015ec:	bf5c      	itt	pl
  2015ee:	6802      	ldrpl	r2, [r0, #0]
  2015f0:	ea5f 7242 	movspl.w	r2, r2, lsl #29
  2015f4:	d402      	bmi.n	2015fc <GLCD_Initialize+0xf34>
  2015f6:	6802      	ldr	r2, [r0, #0]
  2015f8:	0752      	lsls	r2, r2, #29
  2015fa:	d5f2      	bpl.n	2015e2 <GLCD_Initialize+0xf1a>
  2015fc:	f850 2c04 	ldr.w	r2, [r0, #-4]
  201600:	2200      	movs	r2, #0
  201602:	f840 2c04 	str.w	r2, [r0, #-4]
  201606:	6802      	ldr	r2, [r0, #0]
  201608:	0752      	lsls	r2, r2, #29
  20160a:	d409      	bmi.n	201620 <GLCD_Initialize+0xf58>
  20160c:	6802      	ldr	r2, [r0, #0]
  20160e:	0752      	lsls	r2, r2, #29
  201610:	bf5c      	itt	pl
  201612:	6802      	ldrpl	r2, [r0, #0]
  201614:	ea5f 7242 	movspl.w	r2, r2, lsl #29
  201618:	d402      	bmi.n	201620 <GLCD_Initialize+0xf58>
  20161a:	6802      	ldr	r2, [r0, #0]
  20161c:	0752      	lsls	r2, r2, #29
  20161e:	d5f2      	bpl.n	201606 <GLCD_Initialize+0xf3e>
  201620:	f850 2c04 	ldr.w	r2, [r0, #-4]
  201624:	2224      	movs	r2, #36	; 0x24
  201626:	f840 2c04 	str.w	r2, [r0, #-4]
  20162a:	6802      	ldr	r2, [r0, #0]
  20162c:	0752      	lsls	r2, r2, #29
  20162e:	d409      	bmi.n	201644 <GLCD_Initialize+0xf7c>
  201630:	6802      	ldr	r2, [r0, #0]
  201632:	0752      	lsls	r2, r2, #29
  201634:	bf5c      	itt	pl
  201636:	6802      	ldrpl	r2, [r0, #0]
  201638:	ea5f 7242 	movspl.w	r2, r2, lsl #29
  20163c:	d402      	bmi.n	201644 <GLCD_Initialize+0xf7c>
  20163e:	6802      	ldr	r2, [r0, #0]
  201640:	0752      	lsls	r2, r2, #29
  201642:	d5f2      	bpl.n	20162a <GLCD_Initialize+0xf62>
  201644:	f850 2c04 	ldr.w	r2, [r0, #-4]
  201648:	680a      	ldr	r2, [r1, #0]
  20164a:	f042 0201 	orr.w	r2, r2, #1
  20164e:	600a      	str	r2, [r1, #0]
  201650:	680a      	ldr	r2, [r1, #0]
  201652:	f022 0201 	bic.w	r2, r2, #1
  201656:	600a      	str	r2, [r1, #0]
  201658:	2270      	movs	r2, #112	; 0x70
  20165a:	f840 2c04 	str.w	r2, [r0, #-4]
  20165e:	6802      	ldr	r2, [r0, #0]
  201660:	0752      	lsls	r2, r2, #29
  201662:	d409      	bmi.n	201678 <GLCD_Initialize+0xfb0>
  201664:	6802      	ldr	r2, [r0, #0]
  201666:	0752      	lsls	r2, r2, #29
  201668:	bf5c      	itt	pl
  20166a:	6802      	ldrpl	r2, [r0, #0]
  20166c:	ea5f 7242 	movspl.w	r2, r2, lsl #29
  201670:	d402      	bmi.n	201678 <GLCD_Initialize+0xfb0>
  201672:	6802      	ldr	r2, [r0, #0]
  201674:	0752      	lsls	r2, r2, #29
  201676:	d5f2      	bpl.n	20165e <GLCD_Initialize+0xf96>
  201678:	f850 2c04 	ldr.w	r2, [r0, #-4]
  20167c:	2200      	movs	r2, #0
  20167e:	f840 2c04 	str.w	r2, [r0, #-4]
  201682:	6802      	ldr	r2, [r0, #0]
  201684:	0752      	lsls	r2, r2, #29
  201686:	d409      	bmi.n	20169c <GLCD_Initialize+0xfd4>
  201688:	6802      	ldr	r2, [r0, #0]
  20168a:	0752      	lsls	r2, r2, #29
  20168c:	bf5c      	itt	pl
  20168e:	6802      	ldrpl	r2, [r0, #0]
  201690:	ea5f 7242 	movspl.w	r2, r2, lsl #29
  201694:	d402      	bmi.n	20169c <GLCD_Initialize+0xfd4>
  201696:	6802      	ldr	r2, [r0, #0]
  201698:	0752      	lsls	r2, r2, #29
  20169a:	d5f2      	bpl.n	201682 <GLCD_Initialize+0xfba>
  20169c:	f850 2c04 	ldr.w	r2, [r0, #-4]
  2016a0:	2246      	movs	r2, #70	; 0x46
  2016a2:	f840 2c04 	str.w	r2, [r0, #-4]
  2016a6:	6802      	ldr	r2, [r0, #0]
  2016a8:	0752      	lsls	r2, r2, #29
  2016aa:	d409      	bmi.n	2016c0 <GLCD_Initialize+0xff8>
  2016ac:	6802      	ldr	r2, [r0, #0]
  2016ae:	0752      	lsls	r2, r2, #29
  2016b0:	bf5c      	itt	pl
  2016b2:	6802      	ldrpl	r2, [r0, #0]
  2016b4:	ea5f 7242 	movspl.w	r2, r2, lsl #29
  2016b8:	d402      	bmi.n	2016c0 <GLCD_Initialize+0xff8>
  2016ba:	6802      	ldr	r2, [r0, #0]
  2016bc:	0752      	lsls	r2, r2, #29
  2016be:	d5f2      	bpl.n	2016a6 <GLCD_Initialize+0xfde>
  2016c0:	f850 2c04 	ldr.w	r2, [r0, #-4]
  2016c4:	680a      	ldr	r2, [r1, #0]
  2016c6:	f042 0201 	orr.w	r2, r2, #1
  2016ca:	600a      	str	r2, [r1, #0]
  2016cc:	680a      	ldr	r2, [r1, #0]
  2016ce:	f022 0201 	bic.w	r2, r2, #1
  2016d2:	600a      	str	r2, [r1, #0]
  2016d4:	2272      	movs	r2, #114	; 0x72
  2016d6:	f840 2c04 	str.w	r2, [r0, #-4]
  2016da:	6802      	ldr	r2, [r0, #0]
  2016dc:	0752      	lsls	r2, r2, #29
  2016de:	d409      	bmi.n	2016f4 <GLCD_Initialize+0x102c>
  2016e0:	6802      	ldr	r2, [r0, #0]
  2016e2:	0752      	lsls	r2, r2, #29
  2016e4:	bf5c      	itt	pl
  2016e6:	6802      	ldrpl	r2, [r0, #0]
  2016e8:	ea5f 7242 	movspl.w	r2, r2, lsl #29
  2016ec:	d402      	bmi.n	2016f4 <GLCD_Initialize+0x102c>
  2016ee:	6802      	ldr	r2, [r0, #0]
  2016f0:	0752      	lsls	r2, r2, #29
  2016f2:	d5f2      	bpl.n	2016da <GLCD_Initialize+0x1012>
  2016f4:	f850 2c04 	ldr.w	r2, [r0, #-4]
  2016f8:	2200      	movs	r2, #0
  2016fa:	f840 2c04 	str.w	r2, [r0, #-4]
  2016fe:	6802      	ldr	r2, [r0, #0]
  201700:	0752      	lsls	r2, r2, #29
  201702:	d409      	bmi.n	201718 <GLCD_Initialize+0x1050>
  201704:	6802      	ldr	r2, [r0, #0]
  201706:	0752      	lsls	r2, r2, #29
  201708:	bf5c      	itt	pl
  20170a:	6802      	ldrpl	r2, [r0, #0]
  20170c:	ea5f 7242 	movspl.w	r2, r2, lsl #29
  201710:	d402      	bmi.n	201718 <GLCD_Initialize+0x1050>
  201712:	6802      	ldr	r2, [r0, #0]
  201714:	0752      	lsls	r2, r2, #29
  201716:	d5f2      	bpl.n	2016fe <GLCD_Initialize+0x1036>
  201718:	f850 2c04 	ldr.w	r2, [r0, #-4]
  20171c:	2204      	movs	r2, #4
  20171e:	f840 2c04 	str.w	r2, [r0, #-4]
  201722:	6802      	ldr	r2, [r0, #0]
  201724:	0752      	lsls	r2, r2, #29
  201726:	d409      	bmi.n	20173c <GLCD_Initialize+0x1074>
  201728:	6802      	ldr	r2, [r0, #0]
  20172a:	0752      	lsls	r2, r2, #29
  20172c:	bf5c      	itt	pl
  20172e:	6802      	ldrpl	r2, [r0, #0]
  201730:	ea5f 7242 	movspl.w	r2, r2, lsl #29
  201734:	d402      	bmi.n	20173c <GLCD_Initialize+0x1074>
  201736:	6802      	ldr	r2, [r0, #0]
  201738:	0752      	lsls	r2, r2, #29
  20173a:	d5f2      	bpl.n	201722 <GLCD_Initialize+0x105a>
  20173c:	f850 2c04 	ldr.w	r2, [r0, #-4]
  201740:	680a      	ldr	r2, [r1, #0]
  201742:	f042 0201 	orr.w	r2, r2, #1
  201746:	600a      	str	r2, [r1, #0]
  201748:	680a      	ldr	r2, [r1, #0]
  20174a:	f022 0201 	bic.w	r2, r2, #1
  20174e:	600a      	str	r2, [r1, #0]
  201750:	2270      	movs	r2, #112	; 0x70
  201752:	f840 2c04 	str.w	r2, [r0, #-4]
  201756:	6802      	ldr	r2, [r0, #0]
  201758:	0752      	lsls	r2, r2, #29
  20175a:	d409      	bmi.n	201770 <GLCD_Initialize+0x10a8>
  20175c:	6802      	ldr	r2, [r0, #0]
  20175e:	0752      	lsls	r2, r2, #29
  201760:	bf5c      	itt	pl
  201762:	6802      	ldrpl	r2, [r0, #0]
  201764:	ea5f 7242 	movspl.w	r2, r2, lsl #29
  201768:	d402      	bmi.n	201770 <GLCD_Initialize+0x10a8>
  20176a:	6802      	ldr	r2, [r0, #0]
  20176c:	0752      	lsls	r2, r2, #29
  20176e:	d5f2      	bpl.n	201756 <GLCD_Initialize+0x108e>
  201770:	f850 2c04 	ldr.w	r2, [r0, #-4]
  201774:	2200      	movs	r2, #0
  201776:	f840 2c04 	str.w	r2, [r0, #-4]
  20177a:	6802      	ldr	r2, [r0, #0]
  20177c:	0752      	lsls	r2, r2, #29
  20177e:	d409      	bmi.n	201794 <GLCD_Initialize+0x10cc>
  201780:	6802      	ldr	r2, [r0, #0]
  201782:	0752      	lsls	r2, r2, #29
  201784:	bf5c      	itt	pl
  201786:	6802      	ldrpl	r2, [r0, #0]
  201788:	ea5f 7242 	movspl.w	r2, r2, lsl #29
  20178c:	d402      	bmi.n	201794 <GLCD_Initialize+0x10cc>
  20178e:	6802      	ldr	r2, [r0, #0]
  201790:	0752      	lsls	r2, r2, #29
  201792:	d5f2      	bpl.n	20177a <GLCD_Initialize+0x10b2>
  201794:	f850 2c04 	ldr.w	r2, [r0, #-4]
  201798:	2247      	movs	r2, #71	; 0x47
  20179a:	f840 2c04 	str.w	r2, [r0, #-4]
  20179e:	6802      	ldr	r2, [r0, #0]
  2017a0:	0752      	lsls	r2, r2, #29
  2017a2:	d409      	bmi.n	2017b8 <GLCD_Initialize+0x10f0>
  2017a4:	6802      	ldr	r2, [r0, #0]
  2017a6:	0752      	lsls	r2, r2, #29
  2017a8:	bf5c      	itt	pl
  2017aa:	6802      	ldrpl	r2, [r0, #0]
  2017ac:	ea5f 7242 	movspl.w	r2, r2, lsl #29
  2017b0:	d402      	bmi.n	2017b8 <GLCD_Initialize+0x10f0>
  2017b2:	6802      	ldr	r2, [r0, #0]
  2017b4:	0752      	lsls	r2, r2, #29
  2017b6:	d5f2      	bpl.n	20179e <GLCD_Initialize+0x10d6>
  2017b8:	f850 2c04 	ldr.w	r2, [r0, #-4]
  2017bc:	680a      	ldr	r2, [r1, #0]
  2017be:	f042 0201 	orr.w	r2, r2, #1
  2017c2:	600a      	str	r2, [r1, #0]
  2017c4:	680a      	ldr	r2, [r1, #0]
  2017c6:	f022 0201 	bic.w	r2, r2, #1
  2017ca:	600a      	str	r2, [r1, #0]
  2017cc:	2272      	movs	r2, #114	; 0x72
  2017ce:	f840 2c04 	str.w	r2, [r0, #-4]
  2017d2:	6802      	ldr	r2, [r0, #0]
  2017d4:	0752      	lsls	r2, r2, #29
  2017d6:	d409      	bmi.n	2017ec <GLCD_Initialize+0x1124>
  2017d8:	6802      	ldr	r2, [r0, #0]
  2017da:	0752      	lsls	r2, r2, #29
  2017dc:	bf5c      	itt	pl
  2017de:	6802      	ldrpl	r2, [r0, #0]
  2017e0:	ea5f 7242 	movspl.w	r2, r2, lsl #29
  2017e4:	d402      	bmi.n	2017ec <GLCD_Initialize+0x1124>
  2017e6:	6802      	ldr	r2, [r0, #0]
  2017e8:	0752      	lsls	r2, r2, #29
  2017ea:	d5f2      	bpl.n	2017d2 <GLCD_Initialize+0x110a>
  2017ec:	f850 2c04 	ldr.w	r2, [r0, #-4]
  2017f0:	2200      	movs	r2, #0
  2017f2:	f840 2c04 	str.w	r2, [r0, #-4]
  2017f6:	6802      	ldr	r2, [r0, #0]
  2017f8:	0752      	lsls	r2, r2, #29
  2017fa:	d409      	bmi.n	201810 <GLCD_Initialize+0x1148>
  2017fc:	6802      	ldr	r2, [r0, #0]
  2017fe:	0752      	lsls	r2, r2, #29
  201800:	bf5c      	itt	pl
  201802:	6802      	ldrpl	r2, [r0, #0]
  201804:	ea5f 7242 	movspl.w	r2, r2, lsl #29
  201808:	d402      	bmi.n	201810 <GLCD_Initialize+0x1148>
  20180a:	6802      	ldr	r2, [r0, #0]
  20180c:	0752      	lsls	r2, r2, #29
  20180e:	d5f2      	bpl.n	2017f6 <GLCD_Initialize+0x112e>
  201810:	f850 2c04 	ldr.w	r2, [r0, #-4]
  201814:	2250      	movs	r2, #80	; 0x50
  201816:	f840 2c04 	str.w	r2, [r0, #-4]
  20181a:	6802      	ldr	r2, [r0, #0]
  20181c:	0752      	lsls	r2, r2, #29
  20181e:	d409      	bmi.n	201834 <GLCD_Initialize+0x116c>
  201820:	6802      	ldr	r2, [r0, #0]
  201822:	0752      	lsls	r2, r2, #29
  201824:	bf5c      	itt	pl
  201826:	6802      	ldrpl	r2, [r0, #0]
  201828:	ea5f 7242 	movspl.w	r2, r2, lsl #29
  20182c:	d402      	bmi.n	201834 <GLCD_Initialize+0x116c>
  20182e:	6802      	ldr	r2, [r0, #0]
  201830:	0752      	lsls	r2, r2, #29
  201832:	d5f2      	bpl.n	20181a <GLCD_Initialize+0x1152>
  201834:	f850 2c04 	ldr.w	r2, [r0, #-4]
  201838:	680a      	ldr	r2, [r1, #0]
  20183a:	f042 0201 	orr.w	r2, r2, #1
  20183e:	600a      	str	r2, [r1, #0]
  201840:	680a      	ldr	r2, [r1, #0]
  201842:	f022 0201 	bic.w	r2, r2, #1
  201846:	600a      	str	r2, [r1, #0]
  201848:	2270      	movs	r2, #112	; 0x70
  20184a:	f840 2c04 	str.w	r2, [r0, #-4]
  20184e:	6802      	ldr	r2, [r0, #0]
  201850:	0752      	lsls	r2, r2, #29
  201852:	d409      	bmi.n	201868 <GLCD_Initialize+0x11a0>
  201854:	6802      	ldr	r2, [r0, #0]
  201856:	0752      	lsls	r2, r2, #29
  201858:	bf5c      	itt	pl
  20185a:	6802      	ldrpl	r2, [r0, #0]
  20185c:	ea5f 7242 	movspl.w	r2, r2, lsl #29
  201860:	d402      	bmi.n	201868 <GLCD_Initialize+0x11a0>
  201862:	6802      	ldr	r2, [r0, #0]
  201864:	0752      	lsls	r2, r2, #29
  201866:	d5f2      	bpl.n	20184e <GLCD_Initialize+0x1186>
  201868:	f850 2c04 	ldr.w	r2, [r0, #-4]
  20186c:	2200      	movs	r2, #0
  20186e:	f840 2c04 	str.w	r2, [r0, #-4]
  201872:	6802      	ldr	r2, [r0, #0]
  201874:	0752      	lsls	r2, r2, #29
  201876:	d409      	bmi.n	20188c <GLCD_Initialize+0x11c4>
  201878:	6802      	ldr	r2, [r0, #0]
  20187a:	0752      	lsls	r2, r2, #29
  20187c:	bf5c      	itt	pl
  20187e:	6802      	ldrpl	r2, [r0, #0]
  201880:	ea5f 7242 	movspl.w	r2, r2, lsl #29
  201884:	d402      	bmi.n	20188c <GLCD_Initialize+0x11c4>
  201886:	6802      	ldr	r2, [r0, #0]
  201888:	0752      	lsls	r2, r2, #29
  20188a:	d5f2      	bpl.n	201872 <GLCD_Initialize+0x11aa>
  20188c:	f850 2c04 	ldr.w	r2, [r0, #-4]
  201890:	2248      	movs	r2, #72	; 0x48
  201892:	f840 2c04 	str.w	r2, [r0, #-4]
  201896:	6802      	ldr	r2, [r0, #0]
  201898:	0752      	lsls	r2, r2, #29
  20189a:	d409      	bmi.n	2018b0 <GLCD_Initialize+0x11e8>
  20189c:	6802      	ldr	r2, [r0, #0]
  20189e:	0752      	lsls	r2, r2, #29
  2018a0:	bf5c      	itt	pl
  2018a2:	6802      	ldrpl	r2, [r0, #0]
  2018a4:	ea5f 7242 	movspl.w	r2, r2, lsl #29
  2018a8:	d402      	bmi.n	2018b0 <GLCD_Initialize+0x11e8>
  2018aa:	6802      	ldr	r2, [r0, #0]
  2018ac:	0752      	lsls	r2, r2, #29
  2018ae:	d5f2      	bpl.n	201896 <GLCD_Initialize+0x11ce>
  2018b0:	f850 2c04 	ldr.w	r2, [r0, #-4]
  2018b4:	680a      	ldr	r2, [r1, #0]
  2018b6:	f042 0201 	orr.w	r2, r2, #1
  2018ba:	600a      	str	r2, [r1, #0]
  2018bc:	680a      	ldr	r2, [r1, #0]
  2018be:	f022 0201 	bic.w	r2, r2, #1
  2018c2:	600a      	str	r2, [r1, #0]
  2018c4:	2272      	movs	r2, #114	; 0x72
  2018c6:	f840 2c04 	str.w	r2, [r0, #-4]
  2018ca:	6802      	ldr	r2, [r0, #0]
  2018cc:	0752      	lsls	r2, r2, #29
  2018ce:	d409      	bmi.n	2018e4 <GLCD_Initialize+0x121c>
  2018d0:	6802      	ldr	r2, [r0, #0]
  2018d2:	0752      	lsls	r2, r2, #29
  2018d4:	bf5c      	itt	pl
  2018d6:	6802      	ldrpl	r2, [r0, #0]
  2018d8:	ea5f 7242 	movspl.w	r2, r2, lsl #29
  2018dc:	d402      	bmi.n	2018e4 <GLCD_Initialize+0x121c>
  2018de:	6802      	ldr	r2, [r0, #0]
  2018e0:	0752      	lsls	r2, r2, #29
  2018e2:	d5f2      	bpl.n	2018ca <GLCD_Initialize+0x1202>
  2018e4:	f850 2c04 	ldr.w	r2, [r0, #-4]
  2018e8:	2200      	movs	r2, #0
  2018ea:	f840 2c04 	str.w	r2, [r0, #-4]
  2018ee:	6802      	ldr	r2, [r0, #0]
  2018f0:	0752      	lsls	r2, r2, #29
  2018f2:	d409      	bmi.n	201908 <GLCD_Initialize+0x1240>
  2018f4:	6802      	ldr	r2, [r0, #0]
  2018f6:	0752      	lsls	r2, r2, #29
  2018f8:	bf5c      	itt	pl
  2018fa:	6802      	ldrpl	r2, [r0, #0]
  2018fc:	ea5f 7242 	movspl.w	r2, r2, lsl #29
  201900:	d402      	bmi.n	201908 <GLCD_Initialize+0x1240>
  201902:	6802      	ldr	r2, [r0, #0]
  201904:	0752      	lsls	r2, r2, #29
  201906:	d5f2      	bpl.n	2018ee <GLCD_Initialize+0x1226>
  201908:	f850 2c04 	ldr.w	r2, [r0, #-4]
  20190c:	2202      	movs	r2, #2
  20190e:	f840 2c04 	str.w	r2, [r0, #-4]
  201912:	6802      	ldr	r2, [r0, #0]
  201914:	0752      	lsls	r2, r2, #29
  201916:	d409      	bmi.n	20192c <GLCD_Initialize+0x1264>
  201918:	6802      	ldr	r2, [r0, #0]
  20191a:	0752      	lsls	r2, r2, #29
  20191c:	bf5c      	itt	pl
  20191e:	6802      	ldrpl	r2, [r0, #0]
  201920:	ea5f 7242 	movspl.w	r2, r2, lsl #29
  201924:	d402      	bmi.n	20192c <GLCD_Initialize+0x1264>
  201926:	6802      	ldr	r2, [r0, #0]
  201928:	0752      	lsls	r2, r2, #29
  20192a:	d5f2      	bpl.n	201912 <GLCD_Initialize+0x124a>
  20192c:	f850 2c04 	ldr.w	r2, [r0, #-4]
  201930:	680a      	ldr	r2, [r1, #0]
  201932:	f042 0201 	orr.w	r2, r2, #1
  201936:	600a      	str	r2, [r1, #0]
  201938:	680a      	ldr	r2, [r1, #0]
  20193a:	f022 0201 	bic.w	r2, r2, #1
  20193e:	600a      	str	r2, [r1, #0]
  201940:	2270      	movs	r2, #112	; 0x70
  201942:	f840 2c04 	str.w	r2, [r0, #-4]
  201946:	6802      	ldr	r2, [r0, #0]
  201948:	0752      	lsls	r2, r2, #29
  20194a:	d409      	bmi.n	201960 <GLCD_Initialize+0x1298>
  20194c:	6802      	ldr	r2, [r0, #0]
  20194e:	0752      	lsls	r2, r2, #29
  201950:	bf5c      	itt	pl
  201952:	6802      	ldrpl	r2, [r0, #0]
  201954:	ea5f 7242 	movspl.w	r2, r2, lsl #29
  201958:	d402      	bmi.n	201960 <GLCD_Initialize+0x1298>
  20195a:	6802      	ldr	r2, [r0, #0]
  20195c:	0752      	lsls	r2, r2, #29
  20195e:	d5f2      	bpl.n	201946 <GLCD_Initialize+0x127e>
  201960:	f850 2c04 	ldr.w	r2, [r0, #-4]
  201964:	2200      	movs	r2, #0
  201966:	f840 2c04 	str.w	r2, [r0, #-4]
  20196a:	6802      	ldr	r2, [r0, #0]
  20196c:	0752      	lsls	r2, r2, #29
  20196e:	d409      	bmi.n	201984 <GLCD_Initialize+0x12bc>
  201970:	6802      	ldr	r2, [r0, #0]
  201972:	0752      	lsls	r2, r2, #29
  201974:	bf5c      	itt	pl
  201976:	6802      	ldrpl	r2, [r0, #0]
  201978:	ea5f 7242 	movspl.w	r2, r2, lsl #29
  20197c:	d402      	bmi.n	201984 <GLCD_Initialize+0x12bc>
  20197e:	6802      	ldr	r2, [r0, #0]
  201980:	0752      	lsls	r2, r2, #29
  201982:	d5f2      	bpl.n	20196a <GLCD_Initialize+0x12a2>
  201984:	f850 2c04 	ldr.w	r2, [r0, #-4]
  201988:	2249      	movs	r2, #73	; 0x49
  20198a:	f840 2c04 	str.w	r2, [r0, #-4]
  20198e:	6802      	ldr	r2, [r0, #0]
  201990:	0752      	lsls	r2, r2, #29
  201992:	d409      	bmi.n	2019a8 <GLCD_Initialize+0x12e0>
  201994:	6802      	ldr	r2, [r0, #0]
  201996:	0752      	lsls	r2, r2, #29
  201998:	bf5c      	itt	pl
  20199a:	6802      	ldrpl	r2, [r0, #0]
  20199c:	ea5f 7242 	movspl.w	r2, r2, lsl #29
  2019a0:	d402      	bmi.n	2019a8 <GLCD_Initialize+0x12e0>
  2019a2:	6802      	ldr	r2, [r0, #0]
  2019a4:	0752      	lsls	r2, r2, #29
  2019a6:	d5f2      	bpl.n	20198e <GLCD_Initialize+0x12c6>
  2019a8:	f850 2c04 	ldr.w	r2, [r0, #-4]
  2019ac:	680a      	ldr	r2, [r1, #0]
  2019ae:	f042 0201 	orr.w	r2, r2, #1
  2019b2:	600a      	str	r2, [r1, #0]
  2019b4:	680a      	ldr	r2, [r1, #0]
  2019b6:	f022 0201 	bic.w	r2, r2, #1
  2019ba:	600a      	str	r2, [r1, #0]
  2019bc:	2272      	movs	r2, #114	; 0x72
  2019be:	f840 2c04 	str.w	r2, [r0, #-4]
  2019c2:	6802      	ldr	r2, [r0, #0]
  2019c4:	0752      	lsls	r2, r2, #29
  2019c6:	d409      	bmi.n	2019dc <GLCD_Initialize+0x1314>
  2019c8:	6802      	ldr	r2, [r0, #0]
  2019ca:	0752      	lsls	r2, r2, #29
  2019cc:	bf5c      	itt	pl
  2019ce:	6802      	ldrpl	r2, [r0, #0]
  2019d0:	ea5f 7242 	movspl.w	r2, r2, lsl #29
  2019d4:	d402      	bmi.n	2019dc <GLCD_Initialize+0x1314>
  2019d6:	6802      	ldr	r2, [r0, #0]
  2019d8:	0752      	lsls	r2, r2, #29
  2019da:	d5f2      	bpl.n	2019c2 <GLCD_Initialize+0x12fa>
  2019dc:	f850 2c04 	ldr.w	r2, [r0, #-4]
  2019e0:	2200      	movs	r2, #0
  2019e2:	f840 2c04 	str.w	r2, [r0, #-4]
  2019e6:	6802      	ldr	r2, [r0, #0]
  2019e8:	0752      	lsls	r2, r2, #29
  2019ea:	d409      	bmi.n	201a00 <GLCD_Initialize+0x1338>
  2019ec:	6802      	ldr	r2, [r0, #0]
  2019ee:	0752      	lsls	r2, r2, #29
  2019f0:	bf5c      	itt	pl
  2019f2:	6802      	ldrpl	r2, [r0, #0]
  2019f4:	ea5f 7242 	movspl.w	r2, r2, lsl #29
  2019f8:	d402      	bmi.n	201a00 <GLCD_Initialize+0x1338>
  2019fa:	6802      	ldr	r2, [r0, #0]
  2019fc:	0752      	lsls	r2, r2, #29
  2019fe:	d5f2      	bpl.n	2019e6 <GLCD_Initialize+0x131e>
  201a00:	f850 2c04 	ldr.w	r2, [r0, #-4]
  201a04:	2213      	movs	r2, #19
  201a06:	f840 2c04 	str.w	r2, [r0, #-4]
  201a0a:	6802      	ldr	r2, [r0, #0]
  201a0c:	0752      	lsls	r2, r2, #29
  201a0e:	d409      	bmi.n	201a24 <GLCD_Initialize+0x135c>
  201a10:	6802      	ldr	r2, [r0, #0]
  201a12:	0752      	lsls	r2, r2, #29
  201a14:	bf5c      	itt	pl
  201a16:	6802      	ldrpl	r2, [r0, #0]
  201a18:	ea5f 7242 	movspl.w	r2, r2, lsl #29
  201a1c:	d402      	bmi.n	201a24 <GLCD_Initialize+0x135c>
  201a1e:	6802      	ldr	r2, [r0, #0]
  201a20:	0752      	lsls	r2, r2, #29
  201a22:	d5f2      	bpl.n	201a0a <GLCD_Initialize+0x1342>
  201a24:	f850 2c04 	ldr.w	r2, [r0, #-4]
  201a28:	680a      	ldr	r2, [r1, #0]
  201a2a:	f042 0201 	orr.w	r2, r2, #1
  201a2e:	600a      	str	r2, [r1, #0]
  201a30:	680a      	ldr	r2, [r1, #0]
  201a32:	f022 0201 	bic.w	r2, r2, #1
  201a36:	600a      	str	r2, [r1, #0]
  201a38:	2270      	movs	r2, #112	; 0x70
  201a3a:	f840 2c04 	str.w	r2, [r0, #-4]
  201a3e:	6802      	ldr	r2, [r0, #0]
  201a40:	0752      	lsls	r2, r2, #29
  201a42:	d409      	bmi.n	201a58 <GLCD_Initialize+0x1390>
  201a44:	6802      	ldr	r2, [r0, #0]
  201a46:	0752      	lsls	r2, r2, #29
  201a48:	bf5c      	itt	pl
  201a4a:	6802      	ldrpl	r2, [r0, #0]
  201a4c:	ea5f 7242 	movspl.w	r2, r2, lsl #29
  201a50:	d402      	bmi.n	201a58 <GLCD_Initialize+0x1390>
  201a52:	6802      	ldr	r2, [r0, #0]
  201a54:	0752      	lsls	r2, r2, #29
  201a56:	d5f2      	bpl.n	201a3e <GLCD_Initialize+0x1376>
  201a58:	f850 2c04 	ldr.w	r2, [r0, #-4]
  201a5c:	2200      	movs	r2, #0
  201a5e:	f840 2c04 	str.w	r2, [r0, #-4]
  201a62:	6802      	ldr	r2, [r0, #0]
  201a64:	0752      	lsls	r2, r2, #29
  201a66:	d409      	bmi.n	201a7c <GLCD_Initialize+0x13b4>
  201a68:	6802      	ldr	r2, [r0, #0]
  201a6a:	0752      	lsls	r2, r2, #29
  201a6c:	bf5c      	itt	pl
  201a6e:	6802      	ldrpl	r2, [r0, #0]
  201a70:	ea5f 7242 	movspl.w	r2, r2, lsl #29
  201a74:	d402      	bmi.n	201a7c <GLCD_Initialize+0x13b4>
  201a76:	6802      	ldr	r2, [r0, #0]
  201a78:	0752      	lsls	r2, r2, #29
  201a7a:	d5f2      	bpl.n	201a62 <GLCD_Initialize+0x139a>
  201a7c:	f850 2c04 	ldr.w	r2, [r0, #-4]
  201a80:	224a      	movs	r2, #74	; 0x4a
  201a82:	f840 2c04 	str.w	r2, [r0, #-4]
  201a86:	6802      	ldr	r2, [r0, #0]
  201a88:	0752      	lsls	r2, r2, #29
  201a8a:	d409      	bmi.n	201aa0 <GLCD_Initialize+0x13d8>
  201a8c:	6802      	ldr	r2, [r0, #0]
  201a8e:	0752      	lsls	r2, r2, #29
  201a90:	bf5c      	itt	pl
  201a92:	6802      	ldrpl	r2, [r0, #0]
  201a94:	ea5f 7242 	movspl.w	r2, r2, lsl #29
  201a98:	d402      	bmi.n	201aa0 <GLCD_Initialize+0x13d8>
  201a9a:	6802      	ldr	r2, [r0, #0]
  201a9c:	0752      	lsls	r2, r2, #29
  201a9e:	d5f2      	bpl.n	201a86 <GLCD_Initialize+0x13be>
  201aa0:	f850 2c04 	ldr.w	r2, [r0, #-4]
  201aa4:	680a      	ldr	r2, [r1, #0]
  201aa6:	f042 0201 	orr.w	r2, r2, #1
  201aaa:	600a      	str	r2, [r1, #0]
  201aac:	680a      	ldr	r2, [r1, #0]
  201aae:	f022 0201 	bic.w	r2, r2, #1
  201ab2:	600a      	str	r2, [r1, #0]
  201ab4:	2272      	movs	r2, #114	; 0x72
  201ab6:	f840 2c04 	str.w	r2, [r0, #-4]
  201aba:	6802      	ldr	r2, [r0, #0]
  201abc:	0752      	lsls	r2, r2, #29
  201abe:	d409      	bmi.n	201ad4 <GLCD_Initialize+0x140c>
  201ac0:	6802      	ldr	r2, [r0, #0]
  201ac2:	0752      	lsls	r2, r2, #29
  201ac4:	bf5c      	itt	pl
  201ac6:	6802      	ldrpl	r2, [r0, #0]
  201ac8:	ea5f 7242 	movspl.w	r2, r2, lsl #29
  201acc:	d402      	bmi.n	201ad4 <GLCD_Initialize+0x140c>
  201ace:	6802      	ldr	r2, [r0, #0]
  201ad0:	0752      	lsls	r2, r2, #29
  201ad2:	d5f2      	bpl.n	201aba <GLCD_Initialize+0x13f2>
  201ad4:	f850 2c04 	ldr.w	r2, [r0, #-4]
  201ad8:	2200      	movs	r2, #0
  201ada:	f840 2c04 	str.w	r2, [r0, #-4]
  201ade:	6802      	ldr	r2, [r0, #0]
  201ae0:	0752      	lsls	r2, r2, #29
  201ae2:	d409      	bmi.n	201af8 <GLCD_Initialize+0x1430>
  201ae4:	6802      	ldr	r2, [r0, #0]
  201ae6:	0752      	lsls	r2, r2, #29
  201ae8:	bf5c      	itt	pl
  201aea:	6802      	ldrpl	r2, [r0, #0]
  201aec:	ea5f 7242 	movspl.w	r2, r2, lsl #29
  201af0:	d402      	bmi.n	201af8 <GLCD_Initialize+0x1430>
  201af2:	6802      	ldr	r2, [r0, #0]
  201af4:	0752      	lsls	r2, r2, #29
  201af6:	d5f2      	bpl.n	201ade <GLCD_Initialize+0x1416>
  201af8:	f850 2c04 	ldr.w	r2, [r0, #-4]
  201afc:	2219      	movs	r2, #25
  201afe:	f840 2c04 	str.w	r2, [r0, #-4]
  201b02:	6802      	ldr	r2, [r0, #0]
  201b04:	0752      	lsls	r2, r2, #29
  201b06:	d409      	bmi.n	201b1c <GLCD_Initialize+0x1454>
  201b08:	6802      	ldr	r2, [r0, #0]
  201b0a:	0752      	lsls	r2, r2, #29
  201b0c:	bf5c      	itt	pl
  201b0e:	6802      	ldrpl	r2, [r0, #0]
  201b10:	ea5f 7242 	movspl.w	r2, r2, lsl #29
  201b14:	d402      	bmi.n	201b1c <GLCD_Initialize+0x1454>
  201b16:	6802      	ldr	r2, [r0, #0]
  201b18:	0752      	lsls	r2, r2, #29
  201b1a:	d5f2      	bpl.n	201b02 <GLCD_Initialize+0x143a>
  201b1c:	f850 2c04 	ldr.w	r2, [r0, #-4]
  201b20:	680a      	ldr	r2, [r1, #0]
  201b22:	f042 0201 	orr.w	r2, r2, #1
  201b26:	600a      	str	r2, [r1, #0]
  201b28:	680a      	ldr	r2, [r1, #0]
  201b2a:	f022 0201 	bic.w	r2, r2, #1
  201b2e:	600a      	str	r2, [r1, #0]
  201b30:	2270      	movs	r2, #112	; 0x70
  201b32:	f840 2c04 	str.w	r2, [r0, #-4]
  201b36:	6802      	ldr	r2, [r0, #0]
  201b38:	0752      	lsls	r2, r2, #29
  201b3a:	d409      	bmi.n	201b50 <GLCD_Initialize+0x1488>
  201b3c:	6802      	ldr	r2, [r0, #0]
  201b3e:	0752      	lsls	r2, r2, #29
  201b40:	bf5c      	itt	pl
  201b42:	6802      	ldrpl	r2, [r0, #0]
  201b44:	ea5f 7242 	movspl.w	r2, r2, lsl #29
  201b48:	d402      	bmi.n	201b50 <GLCD_Initialize+0x1488>
  201b4a:	6802      	ldr	r2, [r0, #0]
  201b4c:	0752      	lsls	r2, r2, #29
  201b4e:	d5f2      	bpl.n	201b36 <GLCD_Initialize+0x146e>
  201b50:	f850 2c04 	ldr.w	r2, [r0, #-4]
  201b54:	2200      	movs	r2, #0
  201b56:	f840 2c04 	str.w	r2, [r0, #-4]
  201b5a:	6802      	ldr	r2, [r0, #0]
  201b5c:	0752      	lsls	r2, r2, #29
  201b5e:	d409      	bmi.n	201b74 <GLCD_Initialize+0x14ac>
  201b60:	6802      	ldr	r2, [r0, #0]
  201b62:	0752      	lsls	r2, r2, #29
  201b64:	bf5c      	itt	pl
  201b66:	6802      	ldrpl	r2, [r0, #0]
  201b68:	ea5f 7242 	movspl.w	r2, r2, lsl #29
  201b6c:	d402      	bmi.n	201b74 <GLCD_Initialize+0x14ac>
  201b6e:	6802      	ldr	r2, [r0, #0]
  201b70:	0752      	lsls	r2, r2, #29
  201b72:	d5f2      	bpl.n	201b5a <GLCD_Initialize+0x1492>
  201b74:	f850 2c04 	ldr.w	r2, [r0, #-4]
  201b78:	224b      	movs	r2, #75	; 0x4b
  201b7a:	f840 2c04 	str.w	r2, [r0, #-4]
  201b7e:	6802      	ldr	r2, [r0, #0]
  201b80:	0752      	lsls	r2, r2, #29
  201b82:	d409      	bmi.n	201b98 <GLCD_Initialize+0x14d0>
  201b84:	6802      	ldr	r2, [r0, #0]
  201b86:	0752      	lsls	r2, r2, #29
  201b88:	bf5c      	itt	pl
  201b8a:	6802      	ldrpl	r2, [r0, #0]
  201b8c:	ea5f 7242 	movspl.w	r2, r2, lsl #29
  201b90:	d402      	bmi.n	201b98 <GLCD_Initialize+0x14d0>
  201b92:	6802      	ldr	r2, [r0, #0]
  201b94:	0752      	lsls	r2, r2, #29
  201b96:	d5f2      	bpl.n	201b7e <GLCD_Initialize+0x14b6>
  201b98:	f850 2c04 	ldr.w	r2, [r0, #-4]
  201b9c:	680a      	ldr	r2, [r1, #0]
  201b9e:	f042 0201 	orr.w	r2, r2, #1
  201ba2:	600a      	str	r2, [r1, #0]
  201ba4:	680a      	ldr	r2, [r1, #0]
  201ba6:	f022 0201 	bic.w	r2, r2, #1
  201baa:	600a      	str	r2, [r1, #0]
  201bac:	2272      	movs	r2, #114	; 0x72
  201bae:	f840 2c04 	str.w	r2, [r0, #-4]
  201bb2:	6802      	ldr	r2, [r0, #0]
  201bb4:	0752      	lsls	r2, r2, #29
  201bb6:	d409      	bmi.n	201bcc <GLCD_Initialize+0x1504>
  201bb8:	6802      	ldr	r2, [r0, #0]
  201bba:	0752      	lsls	r2, r2, #29
  201bbc:	bf5c      	itt	pl
  201bbe:	6802      	ldrpl	r2, [r0, #0]
  201bc0:	ea5f 7242 	movspl.w	r2, r2, lsl #29
  201bc4:	d402      	bmi.n	201bcc <GLCD_Initialize+0x1504>
  201bc6:	6802      	ldr	r2, [r0, #0]
  201bc8:	0752      	lsls	r2, r2, #29
  201bca:	d5f2      	bpl.n	201bb2 <GLCD_Initialize+0x14ea>
  201bcc:	f850 2c04 	ldr.w	r2, [r0, #-4]
  201bd0:	2200      	movs	r2, #0
  201bd2:	f840 2c04 	str.w	r2, [r0, #-4]
  201bd6:	6802      	ldr	r2, [r0, #0]
  201bd8:	0752      	lsls	r2, r2, #29
  201bda:	d409      	bmi.n	201bf0 <GLCD_Initialize+0x1528>
  201bdc:	6802      	ldr	r2, [r0, #0]
  201bde:	0752      	lsls	r2, r2, #29
  201be0:	bf5c      	itt	pl
  201be2:	6802      	ldrpl	r2, [r0, #0]
  201be4:	ea5f 7242 	movspl.w	r2, r2, lsl #29
  201be8:	d402      	bmi.n	201bf0 <GLCD_Initialize+0x1528>
  201bea:	6802      	ldr	r2, [r0, #0]
  201bec:	0752      	lsls	r2, r2, #29
  201bee:	d5f2      	bpl.n	201bd6 <GLCD_Initialize+0x150e>
  201bf0:	f850 2c04 	ldr.w	r2, [r0, #-4]
  201bf4:	2219      	movs	r2, #25
  201bf6:	f840 2c04 	str.w	r2, [r0, #-4]
  201bfa:	6802      	ldr	r2, [r0, #0]
  201bfc:	0752      	lsls	r2, r2, #29
  201bfe:	d409      	bmi.n	201c14 <GLCD_Initialize+0x154c>
  201c00:	6802      	ldr	r2, [r0, #0]
  201c02:	0752      	lsls	r2, r2, #29
  201c04:	bf5c      	itt	pl
  201c06:	6802      	ldrpl	r2, [r0, #0]
  201c08:	ea5f 7242 	movspl.w	r2, r2, lsl #29
  201c0c:	d402      	bmi.n	201c14 <GLCD_Initialize+0x154c>
  201c0e:	6802      	ldr	r2, [r0, #0]
  201c10:	0752      	lsls	r2, r2, #29
  201c12:	d5f2      	bpl.n	201bfa <GLCD_Initialize+0x1532>
  201c14:	f850 2c04 	ldr.w	r2, [r0, #-4]
  201c18:	680a      	ldr	r2, [r1, #0]
  201c1a:	f042 0201 	orr.w	r2, r2, #1
  201c1e:	600a      	str	r2, [r1, #0]
  201c20:	680a      	ldr	r2, [r1, #0]
  201c22:	f022 0201 	bic.w	r2, r2, #1
  201c26:	600a      	str	r2, [r1, #0]
  201c28:	2270      	movs	r2, #112	; 0x70
  201c2a:	f840 2c04 	str.w	r2, [r0, #-4]
  201c2e:	6802      	ldr	r2, [r0, #0]
  201c30:	0752      	lsls	r2, r2, #29
  201c32:	d409      	bmi.n	201c48 <GLCD_Initialize+0x1580>
  201c34:	6802      	ldr	r2, [r0, #0]
  201c36:	0752      	lsls	r2, r2, #29
  201c38:	bf5c      	itt	pl
  201c3a:	6802      	ldrpl	r2, [r0, #0]
  201c3c:	ea5f 7242 	movspl.w	r2, r2, lsl #29
  201c40:	d402      	bmi.n	201c48 <GLCD_Initialize+0x1580>
  201c42:	6802      	ldr	r2, [r0, #0]
  201c44:	0752      	lsls	r2, r2, #29
  201c46:	d5f2      	bpl.n	201c2e <GLCD_Initialize+0x1566>
  201c48:	f850 2c04 	ldr.w	r2, [r0, #-4]
  201c4c:	2200      	movs	r2, #0
  201c4e:	f840 2c04 	str.w	r2, [r0, #-4]
  201c52:	6802      	ldr	r2, [r0, #0]
  201c54:	0752      	lsls	r2, r2, #29
  201c56:	d409      	bmi.n	201c6c <GLCD_Initialize+0x15a4>
  201c58:	6802      	ldr	r2, [r0, #0]
  201c5a:	0752      	lsls	r2, r2, #29
  201c5c:	bf5c      	itt	pl
  201c5e:	6802      	ldrpl	r2, [r0, #0]
  201c60:	ea5f 7242 	movspl.w	r2, r2, lsl #29
  201c64:	d402      	bmi.n	201c6c <GLCD_Initialize+0x15a4>
  201c66:	6802      	ldr	r2, [r0, #0]
  201c68:	0752      	lsls	r2, r2, #29
  201c6a:	d5f2      	bpl.n	201c52 <GLCD_Initialize+0x158a>
  201c6c:	f850 2c04 	ldr.w	r2, [r0, #-4]
  201c70:	224c      	movs	r2, #76	; 0x4c
  201c72:	f840 2c04 	str.w	r2, [r0, #-4]
  201c76:	6802      	ldr	r2, [r0, #0]
  201c78:	0752      	lsls	r2, r2, #29
  201c7a:	d409      	bmi.n	201c90 <GLCD_Initialize+0x15c8>
  201c7c:	6802      	ldr	r2, [r0, #0]
  201c7e:	0752      	lsls	r2, r2, #29
  201c80:	bf5c      	itt	pl
  201c82:	6802      	ldrpl	r2, [r0, #0]
  201c84:	ea5f 7242 	movspl.w	r2, r2, lsl #29
  201c88:	d402      	bmi.n	201c90 <GLCD_Initialize+0x15c8>
  201c8a:	6802      	ldr	r2, [r0, #0]
  201c8c:	0752      	lsls	r2, r2, #29
  201c8e:	d5f2      	bpl.n	201c76 <GLCD_Initialize+0x15ae>
  201c90:	f850 2c04 	ldr.w	r2, [r0, #-4]
  201c94:	680a      	ldr	r2, [r1, #0]
  201c96:	f042 0201 	orr.w	r2, r2, #1
  201c9a:	600a      	str	r2, [r1, #0]
  201c9c:	680a      	ldr	r2, [r1, #0]
  201c9e:	f022 0201 	bic.w	r2, r2, #1
  201ca2:	600a      	str	r2, [r1, #0]
  201ca4:	2272      	movs	r2, #114	; 0x72
  201ca6:	f840 2c04 	str.w	r2, [r0, #-4]
  201caa:	6802      	ldr	r2, [r0, #0]
  201cac:	0752      	lsls	r2, r2, #29
  201cae:	d409      	bmi.n	201cc4 <GLCD_Initialize+0x15fc>
  201cb0:	6802      	ldr	r2, [r0, #0]
  201cb2:	0752      	lsls	r2, r2, #29
  201cb4:	bf5c      	itt	pl
  201cb6:	6802      	ldrpl	r2, [r0, #0]
  201cb8:	ea5f 7242 	movspl.w	r2, r2, lsl #29
  201cbc:	d402      	bmi.n	201cc4 <GLCD_Initialize+0x15fc>
  201cbe:	6802      	ldr	r2, [r0, #0]
  201cc0:	0752      	lsls	r2, r2, #29
  201cc2:	d5f2      	bpl.n	201caa <GLCD_Initialize+0x15e2>
  201cc4:	f850 2c04 	ldr.w	r2, [r0, #-4]
  201cc8:	2200      	movs	r2, #0
  201cca:	f840 2c04 	str.w	r2, [r0, #-4]
  201cce:	6802      	ldr	r2, [r0, #0]
  201cd0:	0752      	lsls	r2, r2, #29
  201cd2:	d409      	bmi.n	201ce8 <GLCD_Initialize+0x1620>
  201cd4:	6802      	ldr	r2, [r0, #0]
  201cd6:	0752      	lsls	r2, r2, #29
  201cd8:	bf5c      	itt	pl
  201cda:	6802      	ldrpl	r2, [r0, #0]
  201cdc:	ea5f 7242 	movspl.w	r2, r2, lsl #29
  201ce0:	d402      	bmi.n	201ce8 <GLCD_Initialize+0x1620>
  201ce2:	6802      	ldr	r2, [r0, #0]
  201ce4:	0752      	lsls	r2, r2, #29
  201ce6:	d5f2      	bpl.n	201cce <GLCD_Initialize+0x1606>
  201ce8:	f850 2c04 	ldr.w	r2, [r0, #-4]
  201cec:	2216      	movs	r2, #22
  201cee:	f840 2c04 	str.w	r2, [r0, #-4]
  201cf2:	6802      	ldr	r2, [r0, #0]
  201cf4:	0752      	lsls	r2, r2, #29
  201cf6:	d409      	bmi.n	201d0c <GLCD_Initialize+0x1644>
  201cf8:	6802      	ldr	r2, [r0, #0]
  201cfa:	0752      	lsls	r2, r2, #29
  201cfc:	bf5c      	itt	pl
  201cfe:	6802      	ldrpl	r2, [r0, #0]
  201d00:	ea5f 7242 	movspl.w	r2, r2, lsl #29
  201d04:	d402      	bmi.n	201d0c <GLCD_Initialize+0x1644>
  201d06:	6802      	ldr	r2, [r0, #0]
  201d08:	0752      	lsls	r2, r2, #29
  201d0a:	d5f2      	bpl.n	201cf2 <GLCD_Initialize+0x162a>
  201d0c:	f850 2c04 	ldr.w	r2, [r0, #-4]
  201d10:	680a      	ldr	r2, [r1, #0]
  201d12:	f042 0201 	orr.w	r2, r2, #1
  201d16:	600a      	str	r2, [r1, #0]
  201d18:	680a      	ldr	r2, [r1, #0]
  201d1a:	f022 0201 	bic.w	r2, r2, #1
  201d1e:	600a      	str	r2, [r1, #0]
  201d20:	2270      	movs	r2, #112	; 0x70
  201d22:	f840 2c04 	str.w	r2, [r0, #-4]
  201d26:	6802      	ldr	r2, [r0, #0]
  201d28:	0752      	lsls	r2, r2, #29
  201d2a:	d409      	bmi.n	201d40 <GLCD_Initialize+0x1678>
  201d2c:	6802      	ldr	r2, [r0, #0]
  201d2e:	0752      	lsls	r2, r2, #29
  201d30:	bf5c      	itt	pl
  201d32:	6802      	ldrpl	r2, [r0, #0]
  201d34:	ea5f 7242 	movspl.w	r2, r2, lsl #29
  201d38:	d402      	bmi.n	201d40 <GLCD_Initialize+0x1678>
  201d3a:	6802      	ldr	r2, [r0, #0]
  201d3c:	0752      	lsls	r2, r2, #29
  201d3e:	d5f2      	bpl.n	201d26 <GLCD_Initialize+0x165e>
  201d40:	f850 2c04 	ldr.w	r2, [r0, #-4]
  201d44:	2200      	movs	r2, #0
  201d46:	f840 2c04 	str.w	r2, [r0, #-4]
  201d4a:	6802      	ldr	r2, [r0, #0]
  201d4c:	0752      	lsls	r2, r2, #29
  201d4e:	d409      	bmi.n	201d64 <GLCD_Initialize+0x169c>
  201d50:	6802      	ldr	r2, [r0, #0]
  201d52:	0752      	lsls	r2, r2, #29
  201d54:	bf5c      	itt	pl
  201d56:	6802      	ldrpl	r2, [r0, #0]
  201d58:	ea5f 7242 	movspl.w	r2, r2, lsl #29
  201d5c:	d402      	bmi.n	201d64 <GLCD_Initialize+0x169c>
  201d5e:	6802      	ldr	r2, [r0, #0]
  201d60:	0752      	lsls	r2, r2, #29
  201d62:	d5f2      	bpl.n	201d4a <GLCD_Initialize+0x1682>
  201d64:	f850 2c04 	ldr.w	r2, [r0, #-4]
  201d68:	2250      	movs	r2, #80	; 0x50
  201d6a:	f840 2c04 	str.w	r2, [r0, #-4]
  201d6e:	6802      	ldr	r2, [r0, #0]
  201d70:	0752      	lsls	r2, r2, #29
  201d72:	d409      	bmi.n	201d88 <GLCD_Initialize+0x16c0>
  201d74:	6802      	ldr	r2, [r0, #0]
  201d76:	0752      	lsls	r2, r2, #29
  201d78:	bf5c      	itt	pl
  201d7a:	6802      	ldrpl	r2, [r0, #0]
  201d7c:	ea5f 7242 	movspl.w	r2, r2, lsl #29
  201d80:	d402      	bmi.n	201d88 <GLCD_Initialize+0x16c0>
  201d82:	6802      	ldr	r2, [r0, #0]
  201d84:	0752      	lsls	r2, r2, #29
  201d86:	d5f2      	bpl.n	201d6e <GLCD_Initialize+0x16a6>
  201d88:	f850 2c04 	ldr.w	r2, [r0, #-4]
  201d8c:	680a      	ldr	r2, [r1, #0]
  201d8e:	f042 0201 	orr.w	r2, r2, #1
  201d92:	600a      	str	r2, [r1, #0]
  201d94:	680a      	ldr	r2, [r1, #0]
  201d96:	f022 0201 	bic.w	r2, r2, #1
  201d9a:	600a      	str	r2, [r1, #0]
  201d9c:	2272      	movs	r2, #114	; 0x72
  201d9e:	f840 2c04 	str.w	r2, [r0, #-4]
  201da2:	6802      	ldr	r2, [r0, #0]
  201da4:	0752      	lsls	r2, r2, #29
  201da6:	d409      	bmi.n	201dbc <GLCD_Initialize+0x16f4>
  201da8:	6802      	ldr	r2, [r0, #0]
  201daa:	0752      	lsls	r2, r2, #29
  201dac:	bf5c      	itt	pl
  201dae:	6802      	ldrpl	r2, [r0, #0]
  201db0:	ea5f 7242 	movspl.w	r2, r2, lsl #29
  201db4:	d402      	bmi.n	201dbc <GLCD_Initialize+0x16f4>
  201db6:	6802      	ldr	r2, [r0, #0]
  201db8:	0752      	lsls	r2, r2, #29
  201dba:	d5f2      	bpl.n	201da2 <GLCD_Initialize+0x16da>
  201dbc:	f850 2c04 	ldr.w	r2, [r0, #-4]
  201dc0:	2200      	movs	r2, #0
  201dc2:	f840 2c04 	str.w	r2, [r0, #-4]
  201dc6:	6802      	ldr	r2, [r0, #0]
  201dc8:	0752      	lsls	r2, r2, #29
  201dca:	d409      	bmi.n	201de0 <GLCD_Initialize+0x1718>
  201dcc:	6802      	ldr	r2, [r0, #0]
  201dce:	0752      	lsls	r2, r2, #29
  201dd0:	bf5c      	itt	pl
  201dd2:	6802      	ldrpl	r2, [r0, #0]
  201dd4:	ea5f 7242 	movspl.w	r2, r2, lsl #29
  201dd8:	d402      	bmi.n	201de0 <GLCD_Initialize+0x1718>
  201dda:	6802      	ldr	r2, [r0, #0]
  201ddc:	0752      	lsls	r2, r2, #29
  201dde:	d5f2      	bpl.n	201dc6 <GLCD_Initialize+0x16fe>
  201de0:	f850 2c04 	ldr.w	r2, [r0, #-4]
  201de4:	221b      	movs	r2, #27
  201de6:	f840 2c04 	str.w	r2, [r0, #-4]
  201dea:	6802      	ldr	r2, [r0, #0]
  201dec:	0752      	lsls	r2, r2, #29
  201dee:	d409      	bmi.n	201e04 <GLCD_Initialize+0x173c>
  201df0:	6802      	ldr	r2, [r0, #0]
  201df2:	0752      	lsls	r2, r2, #29
  201df4:	bf5c      	itt	pl
  201df6:	6802      	ldrpl	r2, [r0, #0]
  201df8:	ea5f 7242 	movspl.w	r2, r2, lsl #29
  201dfc:	d402      	bmi.n	201e04 <GLCD_Initialize+0x173c>
  201dfe:	6802      	ldr	r2, [r0, #0]
  201e00:	0752      	lsls	r2, r2, #29
  201e02:	d5f2      	bpl.n	201dea <GLCD_Initialize+0x1722>
  201e04:	f850 2c04 	ldr.w	r2, [r0, #-4]
  201e08:	680a      	ldr	r2, [r1, #0]
  201e0a:	f042 0201 	orr.w	r2, r2, #1
  201e0e:	600a      	str	r2, [r1, #0]
  201e10:	680a      	ldr	r2, [r1, #0]
  201e12:	f022 0201 	bic.w	r2, r2, #1
  201e16:	600a      	str	r2, [r1, #0]
  201e18:	2270      	movs	r2, #112	; 0x70
  201e1a:	f840 2c04 	str.w	r2, [r0, #-4]
  201e1e:	6802      	ldr	r2, [r0, #0]
  201e20:	0752      	lsls	r2, r2, #29
  201e22:	d409      	bmi.n	201e38 <GLCD_Initialize+0x1770>
  201e24:	6802      	ldr	r2, [r0, #0]
  201e26:	0752      	lsls	r2, r2, #29
  201e28:	bf5c      	itt	pl
  201e2a:	6802      	ldrpl	r2, [r0, #0]
  201e2c:	ea5f 7242 	movspl.w	r2, r2, lsl #29
  201e30:	d402      	bmi.n	201e38 <GLCD_Initialize+0x1770>
  201e32:	6802      	ldr	r2, [r0, #0]
  201e34:	0752      	lsls	r2, r2, #29
  201e36:	d5f2      	bpl.n	201e1e <GLCD_Initialize+0x1756>
  201e38:	f850 2c04 	ldr.w	r2, [r0, #-4]
  201e3c:	2200      	movs	r2, #0
  201e3e:	f840 2c04 	str.w	r2, [r0, #-4]
  201e42:	6802      	ldr	r2, [r0, #0]
  201e44:	0752      	lsls	r2, r2, #29
  201e46:	d409      	bmi.n	201e5c <GLCD_Initialize+0x1794>
  201e48:	6802      	ldr	r2, [r0, #0]
  201e4a:	0752      	lsls	r2, r2, #29
  201e4c:	bf5c      	itt	pl
  201e4e:	6802      	ldrpl	r2, [r0, #0]
  201e50:	ea5f 7242 	movspl.w	r2, r2, lsl #29
  201e54:	d402      	bmi.n	201e5c <GLCD_Initialize+0x1794>
  201e56:	6802      	ldr	r2, [r0, #0]
  201e58:	0752      	lsls	r2, r2, #29
  201e5a:	d5f2      	bpl.n	201e42 <GLCD_Initialize+0x177a>
  201e5c:	f850 2c04 	ldr.w	r2, [r0, #-4]
  201e60:	2251      	movs	r2, #81	; 0x51
  201e62:	f840 2c04 	str.w	r2, [r0, #-4]
  201e66:	6802      	ldr	r2, [r0, #0]
  201e68:	0752      	lsls	r2, r2, #29
  201e6a:	d409      	bmi.n	201e80 <GLCD_Initialize+0x17b8>
  201e6c:	6802      	ldr	r2, [r0, #0]
  201e6e:	0752      	lsls	r2, r2, #29
  201e70:	bf5c      	itt	pl
  201e72:	6802      	ldrpl	r2, [r0, #0]
  201e74:	ea5f 7242 	movspl.w	r2, r2, lsl #29
  201e78:	d402      	bmi.n	201e80 <GLCD_Initialize+0x17b8>
  201e7a:	6802      	ldr	r2, [r0, #0]
  201e7c:	0752      	lsls	r2, r2, #29
  201e7e:	d5f2      	bpl.n	201e66 <GLCD_Initialize+0x179e>
  201e80:	f850 2c04 	ldr.w	r2, [r0, #-4]
  201e84:	680a      	ldr	r2, [r1, #0]
  201e86:	f042 0201 	orr.w	r2, r2, #1
  201e8a:	600a      	str	r2, [r1, #0]
  201e8c:	680a      	ldr	r2, [r1, #0]
  201e8e:	f022 0201 	bic.w	r2, r2, #1
  201e92:	600a      	str	r2, [r1, #0]
  201e94:	2272      	movs	r2, #114	; 0x72
  201e96:	f840 2c04 	str.w	r2, [r0, #-4]
  201e9a:	6802      	ldr	r2, [r0, #0]
  201e9c:	0752      	lsls	r2, r2, #29
  201e9e:	d409      	bmi.n	201eb4 <GLCD_Initialize+0x17ec>
  201ea0:	6802      	ldr	r2, [r0, #0]
  201ea2:	0752      	lsls	r2, r2, #29
  201ea4:	bf5c      	itt	pl
  201ea6:	6802      	ldrpl	r2, [r0, #0]
  201ea8:	ea5f 7242 	movspl.w	r2, r2, lsl #29
  201eac:	d402      	bmi.n	201eb4 <GLCD_Initialize+0x17ec>
  201eae:	6802      	ldr	r2, [r0, #0]
  201eb0:	0752      	lsls	r2, r2, #29
  201eb2:	d5f2      	bpl.n	201e9a <GLCD_Initialize+0x17d2>
  201eb4:	f850 2c04 	ldr.w	r2, [r0, #-4]
  201eb8:	2200      	movs	r2, #0
  201eba:	f840 2c04 	str.w	r2, [r0, #-4]
  201ebe:	6802      	ldr	r2, [r0, #0]
  201ec0:	0752      	lsls	r2, r2, #29
  201ec2:	d409      	bmi.n	201ed8 <GLCD_Initialize+0x1810>
  201ec4:	6802      	ldr	r2, [r0, #0]
  201ec6:	0752      	lsls	r2, r2, #29
  201ec8:	bf5c      	itt	pl
  201eca:	6802      	ldrpl	r2, [r0, #0]
  201ecc:	ea5f 7242 	movspl.w	r2, r2, lsl #29
  201ed0:	d402      	bmi.n	201ed8 <GLCD_Initialize+0x1810>
  201ed2:	6802      	ldr	r2, [r0, #0]
  201ed4:	0752      	lsls	r2, r2, #29
  201ed6:	d5f2      	bpl.n	201ebe <GLCD_Initialize+0x17f6>
  201ed8:	f850 2c04 	ldr.w	r2, [r0, #-4]
  201edc:	2231      	movs	r2, #49	; 0x31
  201ede:	f840 2c04 	str.w	r2, [r0, #-4]
  201ee2:	6802      	ldr	r2, [r0, #0]
  201ee4:	0752      	lsls	r2, r2, #29
  201ee6:	d409      	bmi.n	201efc <GLCD_Initialize+0x1834>
  201ee8:	6802      	ldr	r2, [r0, #0]
  201eea:	0752      	lsls	r2, r2, #29
  201eec:	bf5c      	itt	pl
  201eee:	6802      	ldrpl	r2, [r0, #0]
  201ef0:	ea5f 7242 	movspl.w	r2, r2, lsl #29
  201ef4:	d402      	bmi.n	201efc <GLCD_Initialize+0x1834>
  201ef6:	6802      	ldr	r2, [r0, #0]
  201ef8:	0752      	lsls	r2, r2, #29
  201efa:	d5f2      	bpl.n	201ee2 <GLCD_Initialize+0x181a>
  201efc:	f850 2c04 	ldr.w	r2, [r0, #-4]
  201f00:	680a      	ldr	r2, [r1, #0]
  201f02:	f042 0201 	orr.w	r2, r2, #1
  201f06:	600a      	str	r2, [r1, #0]
  201f08:	680a      	ldr	r2, [r1, #0]
  201f0a:	f022 0201 	bic.w	r2, r2, #1
  201f0e:	600a      	str	r2, [r1, #0]
  201f10:	2270      	movs	r2, #112	; 0x70
  201f12:	f840 2c04 	str.w	r2, [r0, #-4]
  201f16:	6802      	ldr	r2, [r0, #0]
  201f18:	0752      	lsls	r2, r2, #29
  201f1a:	d409      	bmi.n	201f30 <GLCD_Initialize+0x1868>
  201f1c:	6802      	ldr	r2, [r0, #0]
  201f1e:	0752      	lsls	r2, r2, #29
  201f20:	bf5c      	itt	pl
  201f22:	6802      	ldrpl	r2, [r0, #0]
  201f24:	ea5f 7242 	movspl.w	r2, r2, lsl #29
  201f28:	d402      	bmi.n	201f30 <GLCD_Initialize+0x1868>
  201f2a:	6802      	ldr	r2, [r0, #0]
  201f2c:	0752      	lsls	r2, r2, #29
  201f2e:	d5f2      	bpl.n	201f16 <GLCD_Initialize+0x184e>
  201f30:	f850 2c04 	ldr.w	r2, [r0, #-4]
  201f34:	2200      	movs	r2, #0
  201f36:	f840 2c04 	str.w	r2, [r0, #-4]
  201f3a:	6802      	ldr	r2, [r0, #0]
  201f3c:	0752      	lsls	r2, r2, #29
  201f3e:	d409      	bmi.n	201f54 <GLCD_Initialize+0x188c>
  201f40:	6802      	ldr	r2, [r0, #0]
  201f42:	0752      	lsls	r2, r2, #29
  201f44:	bf5c      	itt	pl
  201f46:	6802      	ldrpl	r2, [r0, #0]
  201f48:	ea5f 7242 	movspl.w	r2, r2, lsl #29
  201f4c:	d402      	bmi.n	201f54 <GLCD_Initialize+0x188c>
  201f4e:	6802      	ldr	r2, [r0, #0]
  201f50:	0752      	lsls	r2, r2, #29
  201f52:	d5f2      	bpl.n	201f3a <GLCD_Initialize+0x1872>
  201f54:	f850 2c04 	ldr.w	r2, [r0, #-4]
  201f58:	2252      	movs	r2, #82	; 0x52
  201f5a:	f840 2c04 	str.w	r2, [r0, #-4]
  201f5e:	6802      	ldr	r2, [r0, #0]
  201f60:	0752      	lsls	r2, r2, #29
  201f62:	d409      	bmi.n	201f78 <GLCD_Initialize+0x18b0>
  201f64:	6802      	ldr	r2, [r0, #0]
  201f66:	0752      	lsls	r2, r2, #29
  201f68:	bf5c      	itt	pl
  201f6a:	6802      	ldrpl	r2, [r0, #0]
  201f6c:	ea5f 7242 	movspl.w	r2, r2, lsl #29
  201f70:	d402      	bmi.n	201f78 <GLCD_Initialize+0x18b0>
  201f72:	6802      	ldr	r2, [r0, #0]
  201f74:	0752      	lsls	r2, r2, #29
  201f76:	d5f2      	bpl.n	201f5e <GLCD_Initialize+0x1896>
  201f78:	f850 2c04 	ldr.w	r2, [r0, #-4]
  201f7c:	680a      	ldr	r2, [r1, #0]
  201f7e:	f042 0201 	orr.w	r2, r2, #1
  201f82:	600a      	str	r2, [r1, #0]
  201f84:	680a      	ldr	r2, [r1, #0]
  201f86:	f022 0201 	bic.w	r2, r2, #1
  201f8a:	600a      	str	r2, [r1, #0]
  201f8c:	2272      	movs	r2, #114	; 0x72
  201f8e:	f840 2c04 	str.w	r2, [r0, #-4]
  201f92:	6802      	ldr	r2, [r0, #0]
  201f94:	0752      	lsls	r2, r2, #29
  201f96:	d409      	bmi.n	201fac <GLCD_Initialize+0x18e4>
  201f98:	6802      	ldr	r2, [r0, #0]
  201f9a:	0752      	lsls	r2, r2, #29
  201f9c:	bf5c      	itt	pl
  201f9e:	6802      	ldrpl	r2, [r0, #0]
  201fa0:	ea5f 7242 	movspl.w	r2, r2, lsl #29
  201fa4:	d402      	bmi.n	201fac <GLCD_Initialize+0x18e4>
  201fa6:	6802      	ldr	r2, [r0, #0]
  201fa8:	0752      	lsls	r2, r2, #29
  201faa:	d5f2      	bpl.n	201f92 <GLCD_Initialize+0x18ca>
  201fac:	f850 2c04 	ldr.w	r2, [r0, #-4]
  201fb0:	2200      	movs	r2, #0
  201fb2:	f840 2c04 	str.w	r2, [r0, #-4]
  201fb6:	6802      	ldr	r2, [r0, #0]
  201fb8:	0752      	lsls	r2, r2, #29
  201fba:	d409      	bmi.n	201fd0 <GLCD_Initialize+0x1908>
  201fbc:	6802      	ldr	r2, [r0, #0]
  201fbe:	0752      	lsls	r2, r2, #29
  201fc0:	bf5c      	itt	pl
  201fc2:	6802      	ldrpl	r2, [r0, #0]
  201fc4:	ea5f 7242 	movspl.w	r2, r2, lsl #29
  201fc8:	d402      	bmi.n	201fd0 <GLCD_Initialize+0x1908>
  201fca:	6802      	ldr	r2, [r0, #0]
  201fcc:	0752      	lsls	r2, r2, #29
  201fce:	d5f2      	bpl.n	201fb6 <GLCD_Initialize+0x18ee>
  201fd0:	f850 2c04 	ldr.w	r2, [r0, #-4]
  201fd4:	222f      	movs	r2, #47	; 0x2f
  201fd6:	f840 2c04 	str.w	r2, [r0, #-4]
  201fda:	6802      	ldr	r2, [r0, #0]
  201fdc:	0752      	lsls	r2, r2, #29
  201fde:	d409      	bmi.n	201ff4 <GLCD_Initialize+0x192c>
  201fe0:	6802      	ldr	r2, [r0, #0]
  201fe2:	0752      	lsls	r2, r2, #29
  201fe4:	bf5c      	itt	pl
  201fe6:	6802      	ldrpl	r2, [r0, #0]
  201fe8:	ea5f 7242 	movspl.w	r2, r2, lsl #29
  201fec:	d402      	bmi.n	201ff4 <GLCD_Initialize+0x192c>
  201fee:	6802      	ldr	r2, [r0, #0]
  201ff0:	0752      	lsls	r2, r2, #29
  201ff2:	d5f2      	bpl.n	201fda <GLCD_Initialize+0x1912>
  201ff4:	f850 2c04 	ldr.w	r2, [r0, #-4]
  201ff8:	680a      	ldr	r2, [r1, #0]
  201ffa:	f042 0201 	orr.w	r2, r2, #1
  201ffe:	600a      	str	r2, [r1, #0]
  202000:	680a      	ldr	r2, [r1, #0]
  202002:	f022 0201 	bic.w	r2, r2, #1
  202006:	600a      	str	r2, [r1, #0]
  202008:	2270      	movs	r2, #112	; 0x70
  20200a:	f840 2c04 	str.w	r2, [r0, #-4]
  20200e:	6802      	ldr	r2, [r0, #0]
  202010:	0752      	lsls	r2, r2, #29
  202012:	d409      	bmi.n	202028 <GLCD_Initialize+0x1960>
  202014:	6802      	ldr	r2, [r0, #0]
  202016:	0752      	lsls	r2, r2, #29
  202018:	bf5c      	itt	pl
  20201a:	6802      	ldrpl	r2, [r0, #0]
  20201c:	ea5f 7242 	movspl.w	r2, r2, lsl #29
  202020:	d402      	bmi.n	202028 <GLCD_Initialize+0x1960>
  202022:	6802      	ldr	r2, [r0, #0]
  202024:	0752      	lsls	r2, r2, #29
  202026:	d5f2      	bpl.n	20200e <GLCD_Initialize+0x1946>
  202028:	f850 2c04 	ldr.w	r2, [r0, #-4]
  20202c:	2200      	movs	r2, #0
  20202e:	f840 2c04 	str.w	r2, [r0, #-4]
  202032:	6802      	ldr	r2, [r0, #0]
  202034:	0752      	lsls	r2, r2, #29
  202036:	d409      	bmi.n	20204c <GLCD_Initialize+0x1984>
  202038:	6802      	ldr	r2, [r0, #0]
  20203a:	0752      	lsls	r2, r2, #29
  20203c:	bf5c      	itt	pl
  20203e:	6802      	ldrpl	r2, [r0, #0]
  202040:	ea5f 7242 	movspl.w	r2, r2, lsl #29
  202044:	d402      	bmi.n	20204c <GLCD_Initialize+0x1984>
  202046:	6802      	ldr	r2, [r0, #0]
  202048:	0752      	lsls	r2, r2, #29
  20204a:	d5f2      	bpl.n	202032 <GLCD_Initialize+0x196a>
  20204c:	f850 2c04 	ldr.w	r2, [r0, #-4]
  202050:	2253      	movs	r2, #83	; 0x53
  202052:	f840 2c04 	str.w	r2, [r0, #-4]
  202056:	6802      	ldr	r2, [r0, #0]
  202058:	0752      	lsls	r2, r2, #29
  20205a:	d409      	bmi.n	202070 <GLCD_Initialize+0x19a8>
  20205c:	6802      	ldr	r2, [r0, #0]
  20205e:	0752      	lsls	r2, r2, #29
  202060:	bf5c      	itt	pl
  202062:	6802      	ldrpl	r2, [r0, #0]
  202064:	ea5f 7242 	movspl.w	r2, r2, lsl #29
  202068:	d402      	bmi.n	202070 <GLCD_Initialize+0x19a8>
  20206a:	6802      	ldr	r2, [r0, #0]
  20206c:	0752      	lsls	r2, r2, #29
  20206e:	d5f2      	bpl.n	202056 <GLCD_Initialize+0x198e>
  202070:	f850 2c04 	ldr.w	r2, [r0, #-4]
  202074:	680a      	ldr	r2, [r1, #0]
  202076:	f042 0201 	orr.w	r2, r2, #1
  20207a:	600a      	str	r2, [r1, #0]
  20207c:	680a      	ldr	r2, [r1, #0]
  20207e:	f022 0201 	bic.w	r2, r2, #1
  202082:	600a      	str	r2, [r1, #0]
  202084:	2272      	movs	r2, #114	; 0x72
  202086:	f840 2c04 	str.w	r2, [r0, #-4]
  20208a:	6802      	ldr	r2, [r0, #0]
  20208c:	0752      	lsls	r2, r2, #29
  20208e:	d409      	bmi.n	2020a4 <GLCD_Initialize+0x19dc>
  202090:	6802      	ldr	r2, [r0, #0]
  202092:	0752      	lsls	r2, r2, #29
  202094:	bf5c      	itt	pl
  202096:	6802      	ldrpl	r2, [r0, #0]
  202098:	ea5f 7242 	movspl.w	r2, r2, lsl #29
  20209c:	d402      	bmi.n	2020a4 <GLCD_Initialize+0x19dc>
  20209e:	6802      	ldr	r2, [r0, #0]
  2020a0:	0752      	lsls	r2, r2, #29
  2020a2:	d5f2      	bpl.n	20208a <GLCD_Initialize+0x19c2>
  2020a4:	f850 2c04 	ldr.w	r2, [r0, #-4]
  2020a8:	2200      	movs	r2, #0
  2020aa:	f840 2c04 	str.w	r2, [r0, #-4]
  2020ae:	6802      	ldr	r2, [r0, #0]
  2020b0:	0752      	lsls	r2, r2, #29
  2020b2:	d409      	bmi.n	2020c8 <GLCD_Initialize+0x1a00>
  2020b4:	6802      	ldr	r2, [r0, #0]
  2020b6:	0752      	lsls	r2, r2, #29
  2020b8:	bf5c      	itt	pl
  2020ba:	6802      	ldrpl	r2, [r0, #0]
  2020bc:	ea5f 7242 	movspl.w	r2, r2, lsl #29
  2020c0:	d402      	bmi.n	2020c8 <GLCD_Initialize+0x1a00>
  2020c2:	6802      	ldr	r2, [r0, #0]
  2020c4:	0752      	lsls	r2, r2, #29
  2020c6:	d5f2      	bpl.n	2020ae <GLCD_Initialize+0x19e6>
  2020c8:	f850 2c04 	ldr.w	r2, [r0, #-4]
  2020cc:	223f      	movs	r2, #63	; 0x3f
  2020ce:	f840 2c04 	str.w	r2, [r0, #-4]
  2020d2:	6802      	ldr	r2, [r0, #0]
  2020d4:	0752      	lsls	r2, r2, #29
  2020d6:	d409      	bmi.n	2020ec <GLCD_Initialize+0x1a24>
  2020d8:	6802      	ldr	r2, [r0, #0]
  2020da:	0752      	lsls	r2, r2, #29
  2020dc:	bf5c      	itt	pl
  2020de:	6802      	ldrpl	r2, [r0, #0]
  2020e0:	ea5f 7242 	movspl.w	r2, r2, lsl #29
  2020e4:	d402      	bmi.n	2020ec <GLCD_Initialize+0x1a24>
  2020e6:	6802      	ldr	r2, [r0, #0]
  2020e8:	0752      	lsls	r2, r2, #29
  2020ea:	d5f2      	bpl.n	2020d2 <GLCD_Initialize+0x1a0a>
  2020ec:	f850 2c04 	ldr.w	r2, [r0, #-4]
  2020f0:	680a      	ldr	r2, [r1, #0]
  2020f2:	f042 0201 	orr.w	r2, r2, #1
  2020f6:	600a      	str	r2, [r1, #0]
  2020f8:	680a      	ldr	r2, [r1, #0]
  2020fa:	f022 0201 	bic.w	r2, r2, #1
  2020fe:	600a      	str	r2, [r1, #0]
  202100:	2270      	movs	r2, #112	; 0x70
  202102:	f840 2c04 	str.w	r2, [r0, #-4]
  202106:	6802      	ldr	r2, [r0, #0]
  202108:	0752      	lsls	r2, r2, #29
  20210a:	d409      	bmi.n	202120 <GLCD_Initialize+0x1a58>
  20210c:	6802      	ldr	r2, [r0, #0]
  20210e:	0752      	lsls	r2, r2, #29
  202110:	bf5c      	itt	pl
  202112:	6802      	ldrpl	r2, [r0, #0]
  202114:	ea5f 7242 	movspl.w	r2, r2, lsl #29
  202118:	d402      	bmi.n	202120 <GLCD_Initialize+0x1a58>
  20211a:	6802      	ldr	r2, [r0, #0]
  20211c:	0752      	lsls	r2, r2, #29
  20211e:	d5f2      	bpl.n	202106 <GLCD_Initialize+0x1a3e>
  202120:	f850 2c04 	ldr.w	r2, [r0, #-4]
  202124:	2200      	movs	r2, #0
  202126:	f840 2c04 	str.w	r2, [r0, #-4]
  20212a:	6802      	ldr	r2, [r0, #0]
  20212c:	0752      	lsls	r2, r2, #29
  20212e:	d409      	bmi.n	202144 <GLCD_Initialize+0x1a7c>
  202130:	6802      	ldr	r2, [r0, #0]
  202132:	0752      	lsls	r2, r2, #29
  202134:	bf5c      	itt	pl
  202136:	6802      	ldrpl	r2, [r0, #0]
  202138:	ea5f 7242 	movspl.w	r2, r2, lsl #29
  20213c:	d402      	bmi.n	202144 <GLCD_Initialize+0x1a7c>
  20213e:	6802      	ldr	r2, [r0, #0]
  202140:	0752      	lsls	r2, r2, #29
  202142:	d5f2      	bpl.n	20212a <GLCD_Initialize+0x1a62>
  202144:	f850 2c04 	ldr.w	r2, [r0, #-4]
  202148:	2254      	movs	r2, #84	; 0x54
  20214a:	f840 2c04 	str.w	r2, [r0, #-4]
  20214e:	6802      	ldr	r2, [r0, #0]
  202150:	0752      	lsls	r2, r2, #29
  202152:	d409      	bmi.n	202168 <GLCD_Initialize+0x1aa0>
  202154:	6802      	ldr	r2, [r0, #0]
  202156:	0752      	lsls	r2, r2, #29
  202158:	bf5c      	itt	pl
  20215a:	6802      	ldrpl	r2, [r0, #0]
  20215c:	ea5f 7242 	movspl.w	r2, r2, lsl #29
  202160:	d402      	bmi.n	202168 <GLCD_Initialize+0x1aa0>
  202162:	6802      	ldr	r2, [r0, #0]
  202164:	0752      	lsls	r2, r2, #29
  202166:	d5f2      	bpl.n	20214e <GLCD_Initialize+0x1a86>
  202168:	f850 2c04 	ldr.w	r2, [r0, #-4]
  20216c:	680a      	ldr	r2, [r1, #0]
  20216e:	f042 0201 	orr.w	r2, r2, #1
  202172:	600a      	str	r2, [r1, #0]
  202174:	680a      	ldr	r2, [r1, #0]
  202176:	f022 0201 	bic.w	r2, r2, #1
  20217a:	600a      	str	r2, [r1, #0]
  20217c:	2272      	movs	r2, #114	; 0x72
  20217e:	f840 2c04 	str.w	r2, [r0, #-4]
  202182:	6802      	ldr	r2, [r0, #0]
  202184:	0752      	lsls	r2, r2, #29
  202186:	d409      	bmi.n	20219c <GLCD_Initialize+0x1ad4>
  202188:	6802      	ldr	r2, [r0, #0]
  20218a:	0752      	lsls	r2, r2, #29
  20218c:	bf5c      	itt	pl
  20218e:	6802      	ldrpl	r2, [r0, #0]
  202190:	ea5f 7242 	movspl.w	r2, r2, lsl #29
  202194:	d402      	bmi.n	20219c <GLCD_Initialize+0x1ad4>
  202196:	6802      	ldr	r2, [r0, #0]
  202198:	0752      	lsls	r2, r2, #29
  20219a:	d5f2      	bpl.n	202182 <GLCD_Initialize+0x1aba>
  20219c:	f850 2c04 	ldr.w	r2, [r0, #-4]
  2021a0:	2200      	movs	r2, #0
  2021a2:	f840 2c04 	str.w	r2, [r0, #-4]
  2021a6:	6802      	ldr	r2, [r0, #0]
  2021a8:	0752      	lsls	r2, r2, #29
  2021aa:	d409      	bmi.n	2021c0 <GLCD_Initialize+0x1af8>
  2021ac:	6802      	ldr	r2, [r0, #0]
  2021ae:	0752      	lsls	r2, r2, #29
  2021b0:	bf5c      	itt	pl
  2021b2:	6802      	ldrpl	r2, [r0, #0]
  2021b4:	ea5f 7242 	movspl.w	r2, r2, lsl #29
  2021b8:	d402      	bmi.n	2021c0 <GLCD_Initialize+0x1af8>
  2021ba:	6802      	ldr	r2, [r0, #0]
  2021bc:	0752      	lsls	r2, r2, #29
  2021be:	d5f2      	bpl.n	2021a6 <GLCD_Initialize+0x1ade>
  2021c0:	f850 2c04 	ldr.w	r2, [r0, #-4]
  2021c4:	223f      	movs	r2, #63	; 0x3f
  2021c6:	f840 2c04 	str.w	r2, [r0, #-4]
  2021ca:	6802      	ldr	r2, [r0, #0]
  2021cc:	0752      	lsls	r2, r2, #29
  2021ce:	d409      	bmi.n	2021e4 <GLCD_Initialize+0x1b1c>
  2021d0:	6802      	ldr	r2, [r0, #0]
  2021d2:	0752      	lsls	r2, r2, #29
  2021d4:	bf5c      	itt	pl
  2021d6:	6802      	ldrpl	r2, [r0, #0]
  2021d8:	ea5f 7242 	movspl.w	r2, r2, lsl #29
  2021dc:	d402      	bmi.n	2021e4 <GLCD_Initialize+0x1b1c>
  2021de:	6802      	ldr	r2, [r0, #0]
  2021e0:	0752      	lsls	r2, r2, #29
  2021e2:	d5f2      	bpl.n	2021ca <GLCD_Initialize+0x1b02>
  2021e4:	f850 2c04 	ldr.w	r2, [r0, #-4]
  2021e8:	680a      	ldr	r2, [r1, #0]
  2021ea:	f042 0201 	orr.w	r2, r2, #1
  2021ee:	600a      	str	r2, [r1, #0]
  2021f0:	680a      	ldr	r2, [r1, #0]
  2021f2:	f022 0201 	bic.w	r2, r2, #1
  2021f6:	600a      	str	r2, [r1, #0]
  2021f8:	2270      	movs	r2, #112	; 0x70
  2021fa:	f840 2c04 	str.w	r2, [r0, #-4]
  2021fe:	6802      	ldr	r2, [r0, #0]
  202200:	0752      	lsls	r2, r2, #29
  202202:	d409      	bmi.n	202218 <GLCD_Initialize+0x1b50>
  202204:	6802      	ldr	r2, [r0, #0]
  202206:	0752      	lsls	r2, r2, #29
  202208:	bf5c      	itt	pl
  20220a:	6802      	ldrpl	r2, [r0, #0]
  20220c:	ea5f 7242 	movspl.w	r2, r2, lsl #29
  202210:	d402      	bmi.n	202218 <GLCD_Initialize+0x1b50>
  202212:	6802      	ldr	r2, [r0, #0]
  202214:	0752      	lsls	r2, r2, #29
  202216:	d5f2      	bpl.n	2021fe <GLCD_Initialize+0x1b36>
  202218:	f850 2c04 	ldr.w	r2, [r0, #-4]
  20221c:	2200      	movs	r2, #0
  20221e:	f840 2c04 	str.w	r2, [r0, #-4]
  202222:	6802      	ldr	r2, [r0, #0]
  202224:	0752      	lsls	r2, r2, #29
  202226:	d409      	bmi.n	20223c <GLCD_Initialize+0x1b74>
  202228:	6802      	ldr	r2, [r0, #0]
  20222a:	0752      	lsls	r2, r2, #29
  20222c:	bf5c      	itt	pl
  20222e:	6802      	ldrpl	r2, [r0, #0]
  202230:	ea5f 7242 	movspl.w	r2, r2, lsl #29
  202234:	d402      	bmi.n	20223c <GLCD_Initialize+0x1b74>
  202236:	6802      	ldr	r2, [r0, #0]
  202238:	0752      	lsls	r2, r2, #29
  20223a:	d5f2      	bpl.n	202222 <GLCD_Initialize+0x1b5a>
  20223c:	f850 2c04 	ldr.w	r2, [r0, #-4]
  202240:	2255      	movs	r2, #85	; 0x55
  202242:	f840 2c04 	str.w	r2, [r0, #-4]
  202246:	6802      	ldr	r2, [r0, #0]
  202248:	0752      	lsls	r2, r2, #29
  20224a:	d409      	bmi.n	202260 <GLCD_Initialize+0x1b98>
  20224c:	6802      	ldr	r2, [r0, #0]
  20224e:	0752      	lsls	r2, r2, #29
  202250:	bf5c      	itt	pl
  202252:	6802      	ldrpl	r2, [r0, #0]
  202254:	ea5f 7242 	movspl.w	r2, r2, lsl #29
  202258:	d402      	bmi.n	202260 <GLCD_Initialize+0x1b98>
  20225a:	6802      	ldr	r2, [r0, #0]
  20225c:	0752      	lsls	r2, r2, #29
  20225e:	d5f2      	bpl.n	202246 <GLCD_Initialize+0x1b7e>
  202260:	f850 2c04 	ldr.w	r2, [r0, #-4]
  202264:	680a      	ldr	r2, [r1, #0]
  202266:	f042 0201 	orr.w	r2, r2, #1
  20226a:	600a      	str	r2, [r1, #0]
  20226c:	680a      	ldr	r2, [r1, #0]
  20226e:	f022 0201 	bic.w	r2, r2, #1
  202272:	600a      	str	r2, [r1, #0]
  202274:	2272      	movs	r2, #114	; 0x72
  202276:	f840 2c04 	str.w	r2, [r0, #-4]
  20227a:	6802      	ldr	r2, [r0, #0]
  20227c:	0752      	lsls	r2, r2, #29
  20227e:	d409      	bmi.n	202294 <GLCD_Initialize+0x1bcc>
  202280:	6802      	ldr	r2, [r0, #0]
  202282:	0752      	lsls	r2, r2, #29
  202284:	bf5c      	itt	pl
  202286:	6802      	ldrpl	r2, [r0, #0]
  202288:	ea5f 7242 	movspl.w	r2, r2, lsl #29
  20228c:	d402      	bmi.n	202294 <GLCD_Initialize+0x1bcc>
  20228e:	6802      	ldr	r2, [r0, #0]
  202290:	0752      	lsls	r2, r2, #29
  202292:	d5f2      	bpl.n	20227a <GLCD_Initialize+0x1bb2>
  202294:	f850 2c04 	ldr.w	r2, [r0, #-4]
  202298:	2200      	movs	r2, #0
  20229a:	f840 2c04 	str.w	r2, [r0, #-4]
  20229e:	6802      	ldr	r2, [r0, #0]
  2022a0:	0752      	lsls	r2, r2, #29
  2022a2:	d409      	bmi.n	2022b8 <GLCD_Initialize+0x1bf0>
  2022a4:	6802      	ldr	r2, [r0, #0]
  2022a6:	0752      	lsls	r2, r2, #29
  2022a8:	bf5c      	itt	pl
  2022aa:	6802      	ldrpl	r2, [r0, #0]
  2022ac:	ea5f 7242 	movspl.w	r2, r2, lsl #29
  2022b0:	d402      	bmi.n	2022b8 <GLCD_Initialize+0x1bf0>
  2022b2:	6802      	ldr	r2, [r0, #0]
  2022b4:	0752      	lsls	r2, r2, #29
  2022b6:	d5f2      	bpl.n	20229e <GLCD_Initialize+0x1bd6>
  2022b8:	f850 2c04 	ldr.w	r2, [r0, #-4]
  2022bc:	223e      	movs	r2, #62	; 0x3e
  2022be:	f840 2c04 	str.w	r2, [r0, #-4]
  2022c2:	6802      	ldr	r2, [r0, #0]
  2022c4:	0752      	lsls	r2, r2, #29
  2022c6:	d409      	bmi.n	2022dc <GLCD_Initialize+0x1c14>
  2022c8:	6802      	ldr	r2, [r0, #0]
  2022ca:	0752      	lsls	r2, r2, #29
  2022cc:	bf5c      	itt	pl
  2022ce:	6802      	ldrpl	r2, [r0, #0]
  2022d0:	ea5f 7242 	movspl.w	r2, r2, lsl #29
  2022d4:	d402      	bmi.n	2022dc <GLCD_Initialize+0x1c14>
  2022d6:	6802      	ldr	r2, [r0, #0]
  2022d8:	0752      	lsls	r2, r2, #29
  2022da:	d5f2      	bpl.n	2022c2 <GLCD_Initialize+0x1bfa>
  2022dc:	f850 2c04 	ldr.w	r2, [r0, #-4]
  2022e0:	680a      	ldr	r2, [r1, #0]
  2022e2:	f042 0201 	orr.w	r2, r2, #1
  2022e6:	600a      	str	r2, [r1, #0]
  2022e8:	680a      	ldr	r2, [r1, #0]
  2022ea:	f022 0201 	bic.w	r2, r2, #1
  2022ee:	600a      	str	r2, [r1, #0]
  2022f0:	2270      	movs	r2, #112	; 0x70
  2022f2:	f840 2c04 	str.w	r2, [r0, #-4]
  2022f6:	6802      	ldr	r2, [r0, #0]
  2022f8:	0752      	lsls	r2, r2, #29
  2022fa:	d409      	bmi.n	202310 <GLCD_Initialize+0x1c48>
  2022fc:	6802      	ldr	r2, [r0, #0]
  2022fe:	0752      	lsls	r2, r2, #29
  202300:	bf5c      	itt	pl
  202302:	6802      	ldrpl	r2, [r0, #0]
  202304:	ea5f 7242 	movspl.w	r2, r2, lsl #29
  202308:	d402      	bmi.n	202310 <GLCD_Initialize+0x1c48>
  20230a:	6802      	ldr	r2, [r0, #0]
  20230c:	0752      	lsls	r2, r2, #29
  20230e:	d5f2      	bpl.n	2022f6 <GLCD_Initialize+0x1c2e>
  202310:	f850 2c04 	ldr.w	r2, [r0, #-4]
  202314:	2200      	movs	r2, #0
  202316:	f840 2c04 	str.w	r2, [r0, #-4]
  20231a:	6802      	ldr	r2, [r0, #0]
  20231c:	0752      	lsls	r2, r2, #29
  20231e:	d409      	bmi.n	202334 <GLCD_Initialize+0x1c6c>
  202320:	6802      	ldr	r2, [r0, #0]
  202322:	0752      	lsls	r2, r2, #29
  202324:	bf5c      	itt	pl
  202326:	6802      	ldrpl	r2, [r0, #0]
  202328:	ea5f 7242 	movspl.w	r2, r2, lsl #29
  20232c:	d402      	bmi.n	202334 <GLCD_Initialize+0x1c6c>
  20232e:	6802      	ldr	r2, [r0, #0]
  202330:	0752      	lsls	r2, r2, #29
  202332:	d5f2      	bpl.n	20231a <GLCD_Initialize+0x1c52>
  202334:	f850 2c04 	ldr.w	r2, [r0, #-4]
  202338:	2256      	movs	r2, #86	; 0x56
  20233a:	f840 2c04 	str.w	r2, [r0, #-4]
  20233e:	6802      	ldr	r2, [r0, #0]
  202340:	0752      	lsls	r2, r2, #29
  202342:	d409      	bmi.n	202358 <GLCD_Initialize+0x1c90>
  202344:	6802      	ldr	r2, [r0, #0]
  202346:	0752      	lsls	r2, r2, #29
  202348:	bf5c      	itt	pl
  20234a:	6802      	ldrpl	r2, [r0, #0]
  20234c:	ea5f 7242 	movspl.w	r2, r2, lsl #29
  202350:	d402      	bmi.n	202358 <GLCD_Initialize+0x1c90>
  202352:	6802      	ldr	r2, [r0, #0]
  202354:	0752      	lsls	r2, r2, #29
  202356:	d5f2      	bpl.n	20233e <GLCD_Initialize+0x1c76>
  202358:	f850 2c04 	ldr.w	r2, [r0, #-4]
  20235c:	680a      	ldr	r2, [r1, #0]
  20235e:	f042 0201 	orr.w	r2, r2, #1
  202362:	600a      	str	r2, [r1, #0]
  202364:	680a      	ldr	r2, [r1, #0]
  202366:	f022 0201 	bic.w	r2, r2, #1
  20236a:	600a      	str	r2, [r1, #0]
  20236c:	2272      	movs	r2, #114	; 0x72
  20236e:	f840 2c04 	str.w	r2, [r0, #-4]
  202372:	6802      	ldr	r2, [r0, #0]
  202374:	0752      	lsls	r2, r2, #29
  202376:	d409      	bmi.n	20238c <GLCD_Initialize+0x1cc4>
  202378:	6802      	ldr	r2, [r0, #0]
  20237a:	0752      	lsls	r2, r2, #29
  20237c:	bf5c      	itt	pl
  20237e:	6802      	ldrpl	r2, [r0, #0]
  202380:	ea5f 7242 	movspl.w	r2, r2, lsl #29
  202384:	d402      	bmi.n	20238c <GLCD_Initialize+0x1cc4>
  202386:	6802      	ldr	r2, [r0, #0]
  202388:	0752      	lsls	r2, r2, #29
  20238a:	d5f2      	bpl.n	202372 <GLCD_Initialize+0x1caa>
  20238c:	f850 2c04 	ldr.w	r2, [r0, #-4]
  202390:	2200      	movs	r2, #0
  202392:	f840 2c04 	str.w	r2, [r0, #-4]
  202396:	6802      	ldr	r2, [r0, #0]
  202398:	0752      	lsls	r2, r2, #29
  20239a:	d409      	bmi.n	2023b0 <GLCD_Initialize+0x1ce8>
  20239c:	6802      	ldr	r2, [r0, #0]
  20239e:	0752      	lsls	r2, r2, #29
  2023a0:	bf5c      	itt	pl
  2023a2:	6802      	ldrpl	r2, [r0, #0]
  2023a4:	ea5f 7242 	movspl.w	r2, r2, lsl #29
  2023a8:	d402      	bmi.n	2023b0 <GLCD_Initialize+0x1ce8>
  2023aa:	6802      	ldr	r2, [r0, #0]
  2023ac:	0752      	lsls	r2, r2, #29
  2023ae:	d5f2      	bpl.n	202396 <GLCD_Initialize+0x1cce>
  2023b0:	f850 2c04 	ldr.w	r2, [r0, #-4]
  2023b4:	222f      	movs	r2, #47	; 0x2f
  2023b6:	f840 2c04 	str.w	r2, [r0, #-4]
  2023ba:	6802      	ldr	r2, [r0, #0]
  2023bc:	0752      	lsls	r2, r2, #29
  2023be:	d409      	bmi.n	2023d4 <GLCD_Initialize+0x1d0c>
  2023c0:	6802      	ldr	r2, [r0, #0]
  2023c2:	0752      	lsls	r2, r2, #29
  2023c4:	bf5c      	itt	pl
  2023c6:	6802      	ldrpl	r2, [r0, #0]
  2023c8:	ea5f 7242 	movspl.w	r2, r2, lsl #29
  2023cc:	d402      	bmi.n	2023d4 <GLCD_Initialize+0x1d0c>
  2023ce:	6802      	ldr	r2, [r0, #0]
  2023d0:	0752      	lsls	r2, r2, #29
  2023d2:	d5f2      	bpl.n	2023ba <GLCD_Initialize+0x1cf2>
  2023d4:	f850 2c04 	ldr.w	r2, [r0, #-4]
  2023d8:	680a      	ldr	r2, [r1, #0]
  2023da:	f042 0201 	orr.w	r2, r2, #1
  2023de:	600a      	str	r2, [r1, #0]
  2023e0:	680a      	ldr	r2, [r1, #0]
  2023e2:	f022 0201 	bic.w	r2, r2, #1
  2023e6:	600a      	str	r2, [r1, #0]
  2023e8:	2270      	movs	r2, #112	; 0x70
  2023ea:	f840 2c04 	str.w	r2, [r0, #-4]
  2023ee:	6802      	ldr	r2, [r0, #0]
  2023f0:	0752      	lsls	r2, r2, #29
  2023f2:	d409      	bmi.n	202408 <GLCD_Initialize+0x1d40>
  2023f4:	6802      	ldr	r2, [r0, #0]
  2023f6:	0752      	lsls	r2, r2, #29
  2023f8:	bf5c      	itt	pl
  2023fa:	6802      	ldrpl	r2, [r0, #0]
  2023fc:	ea5f 7242 	movspl.w	r2, r2, lsl #29
  202400:	d402      	bmi.n	202408 <GLCD_Initialize+0x1d40>
  202402:	6802      	ldr	r2, [r0, #0]
  202404:	0752      	lsls	r2, r2, #29
  202406:	d5f2      	bpl.n	2023ee <GLCD_Initialize+0x1d26>
  202408:	f850 2c04 	ldr.w	r2, [r0, #-4]
  20240c:	2200      	movs	r2, #0
  20240e:	f840 2c04 	str.w	r2, [r0, #-4]
  202412:	6802      	ldr	r2, [r0, #0]
  202414:	0752      	lsls	r2, r2, #29
  202416:	d409      	bmi.n	20242c <GLCD_Initialize+0x1d64>
  202418:	6802      	ldr	r2, [r0, #0]
  20241a:	0752      	lsls	r2, r2, #29
  20241c:	bf5c      	itt	pl
  20241e:	6802      	ldrpl	r2, [r0, #0]
  202420:	ea5f 7242 	movspl.w	r2, r2, lsl #29
  202424:	d402      	bmi.n	20242c <GLCD_Initialize+0x1d64>
  202426:	6802      	ldr	r2, [r0, #0]
  202428:	0752      	lsls	r2, r2, #29
  20242a:	d5f2      	bpl.n	202412 <GLCD_Initialize+0x1d4a>
  20242c:	f850 2c04 	ldr.w	r2, [r0, #-4]
  202430:	2257      	movs	r2, #87	; 0x57
  202432:	f840 2c04 	str.w	r2, [r0, #-4]
  202436:	6802      	ldr	r2, [r0, #0]
  202438:	0752      	lsls	r2, r2, #29
  20243a:	d409      	bmi.n	202450 <GLCD_Initialize+0x1d88>
  20243c:	6802      	ldr	r2, [r0, #0]
  20243e:	0752      	lsls	r2, r2, #29
  202440:	bf5c      	itt	pl
  202442:	6802      	ldrpl	r2, [r0, #0]
  202444:	ea5f 7242 	movspl.w	r2, r2, lsl #29
  202448:	d402      	bmi.n	202450 <GLCD_Initialize+0x1d88>
  20244a:	6802      	ldr	r2, [r0, #0]
  20244c:	0752      	lsls	r2, r2, #29
  20244e:	d5f2      	bpl.n	202436 <GLCD_Initialize+0x1d6e>
  202450:	f850 2c04 	ldr.w	r2, [r0, #-4]
  202454:	680a      	ldr	r2, [r1, #0]
  202456:	f042 0201 	orr.w	r2, r2, #1
  20245a:	600a      	str	r2, [r1, #0]
  20245c:	680a      	ldr	r2, [r1, #0]
  20245e:	f022 0201 	bic.w	r2, r2, #1
  202462:	600a      	str	r2, [r1, #0]
  202464:	2272      	movs	r2, #114	; 0x72
  202466:	f840 2c04 	str.w	r2, [r0, #-4]
  20246a:	6802      	ldr	r2, [r0, #0]
  20246c:	0752      	lsls	r2, r2, #29
  20246e:	d409      	bmi.n	202484 <GLCD_Initialize+0x1dbc>
  202470:	6802      	ldr	r2, [r0, #0]
  202472:	0752      	lsls	r2, r2, #29
  202474:	bf5c      	itt	pl
  202476:	6802      	ldrpl	r2, [r0, #0]
  202478:	ea5f 7242 	movspl.w	r2, r2, lsl #29
  20247c:	d402      	bmi.n	202484 <GLCD_Initialize+0x1dbc>
  20247e:	6802      	ldr	r2, [r0, #0]
  202480:	0752      	lsls	r2, r2, #29
  202482:	d5f2      	bpl.n	20246a <GLCD_Initialize+0x1da2>
  202484:	f850 2c04 	ldr.w	r2, [r0, #-4]
  202488:	2200      	movs	r2, #0
  20248a:	f840 2c04 	str.w	r2, [r0, #-4]
  20248e:	6802      	ldr	r2, [r0, #0]
  202490:	0752      	lsls	r2, r2, #29
  202492:	d409      	bmi.n	2024a8 <GLCD_Initialize+0x1de0>
  202494:	6802      	ldr	r2, [r0, #0]
  202496:	0752      	lsls	r2, r2, #29
  202498:	bf5c      	itt	pl
  20249a:	6802      	ldrpl	r2, [r0, #0]
  20249c:	ea5f 7242 	movspl.w	r2, r2, lsl #29
  2024a0:	d402      	bmi.n	2024a8 <GLCD_Initialize+0x1de0>
  2024a2:	6802      	ldr	r2, [r0, #0]
  2024a4:	0752      	lsls	r2, r2, #29
  2024a6:	d5f2      	bpl.n	20248e <GLCD_Initialize+0x1dc6>
  2024a8:	f850 2c04 	ldr.w	r2, [r0, #-4]
  2024ac:	227b      	movs	r2, #123	; 0x7b
  2024ae:	f840 2c04 	str.w	r2, [r0, #-4]
  2024b2:	6802      	ldr	r2, [r0, #0]
  2024b4:	0752      	lsls	r2, r2, #29
  2024b6:	d409      	bmi.n	2024cc <GLCD_Initialize+0x1e04>
  2024b8:	6802      	ldr	r2, [r0, #0]
  2024ba:	0752      	lsls	r2, r2, #29
  2024bc:	bf5c      	itt	pl
  2024be:	6802      	ldrpl	r2, [r0, #0]
  2024c0:	ea5f 7242 	movspl.w	r2, r2, lsl #29
  2024c4:	d402      	bmi.n	2024cc <GLCD_Initialize+0x1e04>
  2024c6:	6802      	ldr	r2, [r0, #0]
  2024c8:	0752      	lsls	r2, r2, #29
  2024ca:	d5f2      	bpl.n	2024b2 <GLCD_Initialize+0x1dea>
  2024cc:	f850 2c04 	ldr.w	r2, [r0, #-4]
  2024d0:	680a      	ldr	r2, [r1, #0]
  2024d2:	f042 0201 	orr.w	r2, r2, #1
  2024d6:	600a      	str	r2, [r1, #0]
  2024d8:	680a      	ldr	r2, [r1, #0]
  2024da:	f022 0201 	bic.w	r2, r2, #1
  2024de:	600a      	str	r2, [r1, #0]
  2024e0:	2270      	movs	r2, #112	; 0x70
  2024e2:	f840 2c04 	str.w	r2, [r0, #-4]
  2024e6:	6802      	ldr	r2, [r0, #0]
  2024e8:	0752      	lsls	r2, r2, #29
  2024ea:	d409      	bmi.n	202500 <GLCD_Initialize+0x1e38>
  2024ec:	6802      	ldr	r2, [r0, #0]
  2024ee:	0752      	lsls	r2, r2, #29
  2024f0:	bf5c      	itt	pl
  2024f2:	6802      	ldrpl	r2, [r0, #0]
  2024f4:	ea5f 7242 	movspl.w	r2, r2, lsl #29
  2024f8:	d402      	bmi.n	202500 <GLCD_Initialize+0x1e38>
  2024fa:	6802      	ldr	r2, [r0, #0]
  2024fc:	0752      	lsls	r2, r2, #29
  2024fe:	d5f2      	bpl.n	2024e6 <GLCD_Initialize+0x1e1e>
  202500:	f850 2c04 	ldr.w	r2, [r0, #-4]
  202504:	2200      	movs	r2, #0
  202506:	f840 2c04 	str.w	r2, [r0, #-4]
  20250a:	6802      	ldr	r2, [r0, #0]
  20250c:	0752      	lsls	r2, r2, #29
  20250e:	d409      	bmi.n	202524 <GLCD_Initialize+0x1e5c>
  202510:	6802      	ldr	r2, [r0, #0]
  202512:	0752      	lsls	r2, r2, #29
  202514:	bf5c      	itt	pl
  202516:	6802      	ldrpl	r2, [r0, #0]
  202518:	ea5f 7242 	movspl.w	r2, r2, lsl #29
  20251c:	d402      	bmi.n	202524 <GLCD_Initialize+0x1e5c>
  20251e:	6802      	ldr	r2, [r0, #0]
  202520:	0752      	lsls	r2, r2, #29
  202522:	d5f2      	bpl.n	20250a <GLCD_Initialize+0x1e42>
  202524:	f850 2c04 	ldr.w	r2, [r0, #-4]
  202528:	2258      	movs	r2, #88	; 0x58
  20252a:	f840 2c04 	str.w	r2, [r0, #-4]
  20252e:	6802      	ldr	r2, [r0, #0]
  202530:	0752      	lsls	r2, r2, #29
  202532:	d409      	bmi.n	202548 <GLCD_Initialize+0x1e80>
  202534:	6802      	ldr	r2, [r0, #0]
  202536:	0752      	lsls	r2, r2, #29
  202538:	bf5c      	itt	pl
  20253a:	6802      	ldrpl	r2, [r0, #0]
  20253c:	ea5f 7242 	movspl.w	r2, r2, lsl #29
  202540:	d402      	bmi.n	202548 <GLCD_Initialize+0x1e80>
  202542:	6802      	ldr	r2, [r0, #0]
  202544:	0752      	lsls	r2, r2, #29
  202546:	d5f2      	bpl.n	20252e <GLCD_Initialize+0x1e66>
  202548:	f850 2c04 	ldr.w	r2, [r0, #-4]
  20254c:	680a      	ldr	r2, [r1, #0]
  20254e:	f042 0201 	orr.w	r2, r2, #1
  202552:	600a      	str	r2, [r1, #0]
  202554:	680a      	ldr	r2, [r1, #0]
  202556:	f022 0201 	bic.w	r2, r2, #1
  20255a:	600a      	str	r2, [r1, #0]
  20255c:	2272      	movs	r2, #114	; 0x72
  20255e:	f840 2c04 	str.w	r2, [r0, #-4]
  202562:	6802      	ldr	r2, [r0, #0]
  202564:	0752      	lsls	r2, r2, #29
  202566:	d409      	bmi.n	20257c <GLCD_Initialize+0x1eb4>
  202568:	6802      	ldr	r2, [r0, #0]
  20256a:	0752      	lsls	r2, r2, #29
  20256c:	bf5c      	itt	pl
  20256e:	6802      	ldrpl	r2, [r0, #0]
  202570:	ea5f 7242 	movspl.w	r2, r2, lsl #29
  202574:	d402      	bmi.n	20257c <GLCD_Initialize+0x1eb4>
  202576:	6802      	ldr	r2, [r0, #0]
  202578:	0752      	lsls	r2, r2, #29
  20257a:	d5f2      	bpl.n	202562 <GLCD_Initialize+0x1e9a>
  20257c:	f850 2c04 	ldr.w	r2, [r0, #-4]
  202580:	2200      	movs	r2, #0
  202582:	f840 2c04 	str.w	r2, [r0, #-4]
  202586:	6802      	ldr	r2, [r0, #0]
  202588:	0752      	lsls	r2, r2, #29
  20258a:	d409      	bmi.n	2025a0 <GLCD_Initialize+0x1ed8>
  20258c:	6802      	ldr	r2, [r0, #0]
  20258e:	0752      	lsls	r2, r2, #29
  202590:	bf5c      	itt	pl
  202592:	6802      	ldrpl	r2, [r0, #0]
  202594:	ea5f 7242 	movspl.w	r2, r2, lsl #29
  202598:	d402      	bmi.n	2025a0 <GLCD_Initialize+0x1ed8>
  20259a:	6802      	ldr	r2, [r0, #0]
  20259c:	0752      	lsls	r2, r2, #29
  20259e:	d5f2      	bpl.n	202586 <GLCD_Initialize+0x1ebe>
  2025a0:	f850 2c04 	ldr.w	r2, [r0, #-4]
  2025a4:	2209      	movs	r2, #9
  2025a6:	f840 2c04 	str.w	r2, [r0, #-4]
  2025aa:	6802      	ldr	r2, [r0, #0]
  2025ac:	0752      	lsls	r2, r2, #29
  2025ae:	d409      	bmi.n	2025c4 <GLCD_Initialize+0x1efc>
  2025b0:	6802      	ldr	r2, [r0, #0]
  2025b2:	0752      	lsls	r2, r2, #29
  2025b4:	bf5c      	itt	pl
  2025b6:	6802      	ldrpl	r2, [r0, #0]
  2025b8:	ea5f 7242 	movspl.w	r2, r2, lsl #29
  2025bc:	d402      	bmi.n	2025c4 <GLCD_Initialize+0x1efc>
  2025be:	6802      	ldr	r2, [r0, #0]
  2025c0:	0752      	lsls	r2, r2, #29
  2025c2:	d5f2      	bpl.n	2025aa <GLCD_Initialize+0x1ee2>
  2025c4:	f850 2c04 	ldr.w	r2, [r0, #-4]
  2025c8:	680a      	ldr	r2, [r1, #0]
  2025ca:	f042 0201 	orr.w	r2, r2, #1
  2025ce:	600a      	str	r2, [r1, #0]
  2025d0:	680a      	ldr	r2, [r1, #0]
  2025d2:	f022 0201 	bic.w	r2, r2, #1
  2025d6:	600a      	str	r2, [r1, #0]
  2025d8:	2270      	movs	r2, #112	; 0x70
  2025da:	f840 2c04 	str.w	r2, [r0, #-4]
  2025de:	6802      	ldr	r2, [r0, #0]
  2025e0:	0752      	lsls	r2, r2, #29
  2025e2:	d409      	bmi.n	2025f8 <GLCD_Initialize+0x1f30>
  2025e4:	6802      	ldr	r2, [r0, #0]
  2025e6:	0752      	lsls	r2, r2, #29
  2025e8:	bf5c      	itt	pl
  2025ea:	6802      	ldrpl	r2, [r0, #0]
  2025ec:	ea5f 7242 	movspl.w	r2, r2, lsl #29
  2025f0:	d402      	bmi.n	2025f8 <GLCD_Initialize+0x1f30>
  2025f2:	6802      	ldr	r2, [r0, #0]
  2025f4:	0752      	lsls	r2, r2, #29
  2025f6:	d5f2      	bpl.n	2025de <GLCD_Initialize+0x1f16>
  2025f8:	f850 2c04 	ldr.w	r2, [r0, #-4]
  2025fc:	2200      	movs	r2, #0
  2025fe:	f840 2c04 	str.w	r2, [r0, #-4]
  202602:	6802      	ldr	r2, [r0, #0]
  202604:	0752      	lsls	r2, r2, #29
  202606:	d409      	bmi.n	20261c <GLCD_Initialize+0x1f54>
  202608:	6802      	ldr	r2, [r0, #0]
  20260a:	0752      	lsls	r2, r2, #29
  20260c:	bf5c      	itt	pl
  20260e:	6802      	ldrpl	r2, [r0, #0]
  202610:	ea5f 7242 	movspl.w	r2, r2, lsl #29
  202614:	d402      	bmi.n	20261c <GLCD_Initialize+0x1f54>
  202616:	6802      	ldr	r2, [r0, #0]
  202618:	0752      	lsls	r2, r2, #29
  20261a:	d5f2      	bpl.n	202602 <GLCD_Initialize+0x1f3a>
  20261c:	f850 2c04 	ldr.w	r2, [r0, #-4]
  202620:	2259      	movs	r2, #89	; 0x59
  202622:	f840 2c04 	str.w	r2, [r0, #-4]
  202626:	6802      	ldr	r2, [r0, #0]
  202628:	0752      	lsls	r2, r2, #29
  20262a:	d409      	bmi.n	202640 <GLCD_Initialize+0x1f78>
  20262c:	6802      	ldr	r2, [r0, #0]
  20262e:	0752      	lsls	r2, r2, #29
  202630:	bf5c      	itt	pl
  202632:	6802      	ldrpl	r2, [r0, #0]
  202634:	ea5f 7242 	movspl.w	r2, r2, lsl #29
  202638:	d402      	bmi.n	202640 <GLCD_Initialize+0x1f78>
  20263a:	6802      	ldr	r2, [r0, #0]
  20263c:	0752      	lsls	r2, r2, #29
  20263e:	d5f2      	bpl.n	202626 <GLCD_Initialize+0x1f5e>
  202640:	f850 2c04 	ldr.w	r2, [r0, #-4]
  202644:	680a      	ldr	r2, [r1, #0]
  202646:	f042 0201 	orr.w	r2, r2, #1
  20264a:	600a      	str	r2, [r1, #0]
  20264c:	680a      	ldr	r2, [r1, #0]
  20264e:	f022 0201 	bic.w	r2, r2, #1
  202652:	600a      	str	r2, [r1, #0]
  202654:	2272      	movs	r2, #114	; 0x72
  202656:	f840 2c04 	str.w	r2, [r0, #-4]
  20265a:	6802      	ldr	r2, [r0, #0]
  20265c:	0752      	lsls	r2, r2, #29
  20265e:	d409      	bmi.n	202674 <GLCD_Initialize+0x1fac>
  202660:	6802      	ldr	r2, [r0, #0]
  202662:	0752      	lsls	r2, r2, #29
  202664:	bf5c      	itt	pl
  202666:	6802      	ldrpl	r2, [r0, #0]
  202668:	ea5f 7242 	movspl.w	r2, r2, lsl #29
  20266c:	d402      	bmi.n	202674 <GLCD_Initialize+0x1fac>
  20266e:	6802      	ldr	r2, [r0, #0]
  202670:	0752      	lsls	r2, r2, #29
  202672:	d5f2      	bpl.n	20265a <GLCD_Initialize+0x1f92>
  202674:	f850 2c04 	ldr.w	r2, [r0, #-4]
  202678:	2200      	movs	r2, #0
  20267a:	f840 2c04 	str.w	r2, [r0, #-4]
  20267e:	6802      	ldr	r2, [r0, #0]
  202680:	0752      	lsls	r2, r2, #29
  202682:	d409      	bmi.n	202698 <GLCD_Initialize+0x1fd0>
  202684:	6802      	ldr	r2, [r0, #0]
  202686:	0752      	lsls	r2, r2, #29
  202688:	bf5c      	itt	pl
  20268a:	6802      	ldrpl	r2, [r0, #0]
  20268c:	ea5f 7242 	movspl.w	r2, r2, lsl #29
  202690:	d402      	bmi.n	202698 <GLCD_Initialize+0x1fd0>
  202692:	6802      	ldr	r2, [r0, #0]
  202694:	0752      	lsls	r2, r2, #29
  202696:	d5f2      	bpl.n	20267e <GLCD_Initialize+0x1fb6>
  202698:	f850 2c04 	ldr.w	r2, [r0, #-4]
  20269c:	2206      	movs	r2, #6
  20269e:	f840 2c04 	str.w	r2, [r0, #-4]
  2026a2:	6802      	ldr	r2, [r0, #0]
  2026a4:	0752      	lsls	r2, r2, #29
  2026a6:	d409      	bmi.n	2026bc <GLCD_Initialize+0x1ff4>
  2026a8:	6802      	ldr	r2, [r0, #0]
  2026aa:	0752      	lsls	r2, r2, #29
  2026ac:	bf5c      	itt	pl
  2026ae:	6802      	ldrpl	r2, [r0, #0]
  2026b0:	ea5f 7242 	movspl.w	r2, r2, lsl #29
  2026b4:	d402      	bmi.n	2026bc <GLCD_Initialize+0x1ff4>
  2026b6:	6802      	ldr	r2, [r0, #0]
  2026b8:	0752      	lsls	r2, r2, #29
  2026ba:	d5f2      	bpl.n	2026a2 <GLCD_Initialize+0x1fda>
  2026bc:	f850 2c04 	ldr.w	r2, [r0, #-4]
  2026c0:	680a      	ldr	r2, [r1, #0]
  2026c2:	f042 0201 	orr.w	r2, r2, #1
  2026c6:	600a      	str	r2, [r1, #0]
  2026c8:	680a      	ldr	r2, [r1, #0]
  2026ca:	f022 0201 	bic.w	r2, r2, #1
  2026ce:	600a      	str	r2, [r1, #0]
  2026d0:	2270      	movs	r2, #112	; 0x70
  2026d2:	f840 2c04 	str.w	r2, [r0, #-4]
  2026d6:	6802      	ldr	r2, [r0, #0]
  2026d8:	0752      	lsls	r2, r2, #29
  2026da:	d409      	bmi.n	2026f0 <GLCD_Initialize+0x2028>
  2026dc:	6802      	ldr	r2, [r0, #0]
  2026de:	0752      	lsls	r2, r2, #29
  2026e0:	bf5c      	itt	pl
  2026e2:	6802      	ldrpl	r2, [r0, #0]
  2026e4:	ea5f 7242 	movspl.w	r2, r2, lsl #29
  2026e8:	d402      	bmi.n	2026f0 <GLCD_Initialize+0x2028>
  2026ea:	6802      	ldr	r2, [r0, #0]
  2026ec:	0752      	lsls	r2, r2, #29
  2026ee:	d5f2      	bpl.n	2026d6 <GLCD_Initialize+0x200e>
  2026f0:	f850 2c04 	ldr.w	r2, [r0, #-4]
  2026f4:	2200      	movs	r2, #0
  2026f6:	f840 2c04 	str.w	r2, [r0, #-4]
  2026fa:	6802      	ldr	r2, [r0, #0]
  2026fc:	0752      	lsls	r2, r2, #29
  2026fe:	d409      	bmi.n	202714 <GLCD_Initialize+0x204c>
  202700:	6802      	ldr	r2, [r0, #0]
  202702:	0752      	lsls	r2, r2, #29
  202704:	bf5c      	itt	pl
  202706:	6802      	ldrpl	r2, [r0, #0]
  202708:	ea5f 7242 	movspl.w	r2, r2, lsl #29
  20270c:	d402      	bmi.n	202714 <GLCD_Initialize+0x204c>
  20270e:	6802      	ldr	r2, [r0, #0]
  202710:	0752      	lsls	r2, r2, #29
  202712:	d5f2      	bpl.n	2026fa <GLCD_Initialize+0x2032>
  202714:	f850 2c04 	ldr.w	r2, [r0, #-4]
  202718:	225a      	movs	r2, #90	; 0x5a
  20271a:	f840 2c04 	str.w	r2, [r0, #-4]
  20271e:	6802      	ldr	r2, [r0, #0]
  202720:	0752      	lsls	r2, r2, #29
  202722:	d409      	bmi.n	202738 <GLCD_Initialize+0x2070>
  202724:	6802      	ldr	r2, [r0, #0]
  202726:	0752      	lsls	r2, r2, #29
  202728:	bf5c      	itt	pl
  20272a:	6802      	ldrpl	r2, [r0, #0]
  20272c:	ea5f 7242 	movspl.w	r2, r2, lsl #29
  202730:	d402      	bmi.n	202738 <GLCD_Initialize+0x2070>
  202732:	6802      	ldr	r2, [r0, #0]
  202734:	0752      	lsls	r2, r2, #29
  202736:	d5f2      	bpl.n	20271e <GLCD_Initialize+0x2056>
  202738:	f850 2c04 	ldr.w	r2, [r0, #-4]
  20273c:	680a      	ldr	r2, [r1, #0]
  20273e:	f042 0201 	orr.w	r2, r2, #1
  202742:	600a      	str	r2, [r1, #0]
  202744:	680a      	ldr	r2, [r1, #0]
  202746:	f022 0201 	bic.w	r2, r2, #1
  20274a:	600a      	str	r2, [r1, #0]
  20274c:	2272      	movs	r2, #114	; 0x72
  20274e:	f840 2c04 	str.w	r2, [r0, #-4]
  202752:	6802      	ldr	r2, [r0, #0]
  202754:	0752      	lsls	r2, r2, #29
  202756:	d409      	bmi.n	20276c <GLCD_Initialize+0x20a4>
  202758:	6802      	ldr	r2, [r0, #0]
  20275a:	0752      	lsls	r2, r2, #29
  20275c:	bf5c      	itt	pl
  20275e:	6802      	ldrpl	r2, [r0, #0]
  202760:	ea5f 7242 	movspl.w	r2, r2, lsl #29
  202764:	d402      	bmi.n	20276c <GLCD_Initialize+0x20a4>
  202766:	6802      	ldr	r2, [r0, #0]
  202768:	0752      	lsls	r2, r2, #29
  20276a:	d5f2      	bpl.n	202752 <GLCD_Initialize+0x208a>
  20276c:	f850 2c04 	ldr.w	r2, [r0, #-4]
  202770:	2200      	movs	r2, #0
  202772:	f840 2c04 	str.w	r2, [r0, #-4]
  202776:	6802      	ldr	r2, [r0, #0]
  202778:	0752      	lsls	r2, r2, #29
  20277a:	d409      	bmi.n	202790 <GLCD_Initialize+0x20c8>
  20277c:	6802      	ldr	r2, [r0, #0]
  20277e:	0752      	lsls	r2, r2, #29
  202780:	bf5c      	itt	pl
  202782:	6802      	ldrpl	r2, [r0, #0]
  202784:	ea5f 7242 	movspl.w	r2, r2, lsl #29
  202788:	d402      	bmi.n	202790 <GLCD_Initialize+0x20c8>
  20278a:	6802      	ldr	r2, [r0, #0]
  20278c:	0752      	lsls	r2, r2, #29
  20278e:	d5f2      	bpl.n	202776 <GLCD_Initialize+0x20ae>
  202790:	f850 2c04 	ldr.w	r2, [r0, #-4]
  202794:	2206      	movs	r2, #6
  202796:	f840 2c04 	str.w	r2, [r0, #-4]
  20279a:	6802      	ldr	r2, [r0, #0]
  20279c:	0752      	lsls	r2, r2, #29
  20279e:	d409      	bmi.n	2027b4 <GLCD_Initialize+0x20ec>
  2027a0:	6802      	ldr	r2, [r0, #0]
  2027a2:	0752      	lsls	r2, r2, #29
  2027a4:	bf5c      	itt	pl
  2027a6:	6802      	ldrpl	r2, [r0, #0]
  2027a8:	ea5f 7242 	movspl.w	r2, r2, lsl #29
  2027ac:	d402      	bmi.n	2027b4 <GLCD_Initialize+0x20ec>
  2027ae:	6802      	ldr	r2, [r0, #0]
  2027b0:	0752      	lsls	r2, r2, #29
  2027b2:	d5f2      	bpl.n	20279a <GLCD_Initialize+0x20d2>
  2027b4:	f850 2c04 	ldr.w	r2, [r0, #-4]
  2027b8:	680a      	ldr	r2, [r1, #0]
  2027ba:	f042 0201 	orr.w	r2, r2, #1
  2027be:	600a      	str	r2, [r1, #0]
  2027c0:	680a      	ldr	r2, [r1, #0]
  2027c2:	f022 0201 	bic.w	r2, r2, #1
  2027c6:	600a      	str	r2, [r1, #0]
  2027c8:	2270      	movs	r2, #112	; 0x70
  2027ca:	f840 2c04 	str.w	r2, [r0, #-4]
  2027ce:	6802      	ldr	r2, [r0, #0]
  2027d0:	0752      	lsls	r2, r2, #29
  2027d2:	d409      	bmi.n	2027e8 <GLCD_Initialize+0x2120>
  2027d4:	6802      	ldr	r2, [r0, #0]
  2027d6:	0752      	lsls	r2, r2, #29
  2027d8:	bf5c      	itt	pl
  2027da:	6802      	ldrpl	r2, [r0, #0]
  2027dc:	ea5f 7242 	movspl.w	r2, r2, lsl #29
  2027e0:	d402      	bmi.n	2027e8 <GLCD_Initialize+0x2120>
  2027e2:	6802      	ldr	r2, [r0, #0]
  2027e4:	0752      	lsls	r2, r2, #29
  2027e6:	d5f2      	bpl.n	2027ce <GLCD_Initialize+0x2106>
  2027e8:	f850 2c04 	ldr.w	r2, [r0, #-4]
  2027ec:	2200      	movs	r2, #0
  2027ee:	f840 2c04 	str.w	r2, [r0, #-4]
  2027f2:	6802      	ldr	r2, [r0, #0]
  2027f4:	0752      	lsls	r2, r2, #29
  2027f6:	d409      	bmi.n	20280c <GLCD_Initialize+0x2144>
  2027f8:	6802      	ldr	r2, [r0, #0]
  2027fa:	0752      	lsls	r2, r2, #29
  2027fc:	bf5c      	itt	pl
  2027fe:	6802      	ldrpl	r2, [r0, #0]
  202800:	ea5f 7242 	movspl.w	r2, r2, lsl #29
  202804:	d402      	bmi.n	20280c <GLCD_Initialize+0x2144>
  202806:	6802      	ldr	r2, [r0, #0]
  202808:	0752      	lsls	r2, r2, #29
  20280a:	d5f2      	bpl.n	2027f2 <GLCD_Initialize+0x212a>
  20280c:	f850 2c04 	ldr.w	r2, [r0, #-4]
  202810:	225b      	movs	r2, #91	; 0x5b
  202812:	f840 2c04 	str.w	r2, [r0, #-4]
  202816:	6802      	ldr	r2, [r0, #0]
  202818:	0752      	lsls	r2, r2, #29
  20281a:	d409      	bmi.n	202830 <GLCD_Initialize+0x2168>
  20281c:	6802      	ldr	r2, [r0, #0]
  20281e:	0752      	lsls	r2, r2, #29
  202820:	bf5c      	itt	pl
  202822:	6802      	ldrpl	r2, [r0, #0]
  202824:	ea5f 7242 	movspl.w	r2, r2, lsl #29
  202828:	d402      	bmi.n	202830 <GLCD_Initialize+0x2168>
  20282a:	6802      	ldr	r2, [r0, #0]
  20282c:	0752      	lsls	r2, r2, #29
  20282e:	d5f2      	bpl.n	202816 <GLCD_Initialize+0x214e>
  202830:	f850 2c04 	ldr.w	r2, [r0, #-4]
  202834:	680a      	ldr	r2, [r1, #0]
  202836:	f042 0201 	orr.w	r2, r2, #1
  20283a:	600a      	str	r2, [r1, #0]
  20283c:	680a      	ldr	r2, [r1, #0]
  20283e:	f022 0201 	bic.w	r2, r2, #1
  202842:	600a      	str	r2, [r1, #0]
  202844:	2272      	movs	r2, #114	; 0x72
  202846:	f840 2c04 	str.w	r2, [r0, #-4]
  20284a:	6802      	ldr	r2, [r0, #0]
  20284c:	0752      	lsls	r2, r2, #29
  20284e:	d409      	bmi.n	202864 <GLCD_Initialize+0x219c>
  202850:	6802      	ldr	r2, [r0, #0]
  202852:	0752      	lsls	r2, r2, #29
  202854:	bf5c      	itt	pl
  202856:	6802      	ldrpl	r2, [r0, #0]
  202858:	ea5f 7242 	movspl.w	r2, r2, lsl #29
  20285c:	d402      	bmi.n	202864 <GLCD_Initialize+0x219c>
  20285e:	6802      	ldr	r2, [r0, #0]
  202860:	0752      	lsls	r2, r2, #29
  202862:	d5f2      	bpl.n	20284a <GLCD_Initialize+0x2182>
  202864:	f850 2c04 	ldr.w	r2, [r0, #-4]
  202868:	2200      	movs	r2, #0
  20286a:	f840 2c04 	str.w	r2, [r0, #-4]
  20286e:	6802      	ldr	r2, [r0, #0]
  202870:	0752      	lsls	r2, r2, #29
  202872:	d409      	bmi.n	202888 <GLCD_Initialize+0x21c0>
  202874:	6802      	ldr	r2, [r0, #0]
  202876:	0752      	lsls	r2, r2, #29
  202878:	bf5c      	itt	pl
  20287a:	6802      	ldrpl	r2, [r0, #0]
  20287c:	ea5f 7242 	movspl.w	r2, r2, lsl #29
  202880:	d402      	bmi.n	202888 <GLCD_Initialize+0x21c0>
  202882:	6802      	ldr	r2, [r0, #0]
  202884:	0752      	lsls	r2, r2, #29
  202886:	d5f2      	bpl.n	20286e <GLCD_Initialize+0x21a6>
  202888:	f850 2c04 	ldr.w	r2, [r0, #-4]
  20288c:	220c      	movs	r2, #12
  20288e:	f840 2c04 	str.w	r2, [r0, #-4]
  202892:	6802      	ldr	r2, [r0, #0]
  202894:	0752      	lsls	r2, r2, #29
  202896:	d409      	bmi.n	2028ac <GLCD_Initialize+0x21e4>
  202898:	6802      	ldr	r2, [r0, #0]
  20289a:	0752      	lsls	r2, r2, #29
  20289c:	bf5c      	itt	pl
  20289e:	6802      	ldrpl	r2, [r0, #0]
  2028a0:	ea5f 7242 	movspl.w	r2, r2, lsl #29
  2028a4:	d402      	bmi.n	2028ac <GLCD_Initialize+0x21e4>
  2028a6:	6802      	ldr	r2, [r0, #0]
  2028a8:	0752      	lsls	r2, r2, #29
  2028aa:	d5f2      	bpl.n	202892 <GLCD_Initialize+0x21ca>
  2028ac:	f850 2c04 	ldr.w	r2, [r0, #-4]
  2028b0:	680a      	ldr	r2, [r1, #0]
  2028b2:	f042 0201 	orr.w	r2, r2, #1
  2028b6:	600a      	str	r2, [r1, #0]
  2028b8:	680a      	ldr	r2, [r1, #0]
  2028ba:	f022 0201 	bic.w	r2, r2, #1
  2028be:	600a      	str	r2, [r1, #0]
  2028c0:	2270      	movs	r2, #112	; 0x70
  2028c2:	f840 2c04 	str.w	r2, [r0, #-4]
  2028c6:	6802      	ldr	r2, [r0, #0]
  2028c8:	0752      	lsls	r2, r2, #29
  2028ca:	d409      	bmi.n	2028e0 <GLCD_Initialize+0x2218>
  2028cc:	6802      	ldr	r2, [r0, #0]
  2028ce:	0752      	lsls	r2, r2, #29
  2028d0:	bf5c      	itt	pl
  2028d2:	6802      	ldrpl	r2, [r0, #0]
  2028d4:	ea5f 7242 	movspl.w	r2, r2, lsl #29
  2028d8:	d402      	bmi.n	2028e0 <GLCD_Initialize+0x2218>
  2028da:	6802      	ldr	r2, [r0, #0]
  2028dc:	0752      	lsls	r2, r2, #29
  2028de:	d5f2      	bpl.n	2028c6 <GLCD_Initialize+0x21fe>
  2028e0:	f850 2c04 	ldr.w	r2, [r0, #-4]
  2028e4:	2200      	movs	r2, #0
  2028e6:	f840 2c04 	str.w	r2, [r0, #-4]
  2028ea:	6802      	ldr	r2, [r0, #0]
  2028ec:	0752      	lsls	r2, r2, #29
  2028ee:	d409      	bmi.n	202904 <GLCD_Initialize+0x223c>
  2028f0:	6802      	ldr	r2, [r0, #0]
  2028f2:	0752      	lsls	r2, r2, #29
  2028f4:	bf5c      	itt	pl
  2028f6:	6802      	ldrpl	r2, [r0, #0]
  2028f8:	ea5f 7242 	movspl.w	r2, r2, lsl #29
  2028fc:	d402      	bmi.n	202904 <GLCD_Initialize+0x223c>
  2028fe:	6802      	ldr	r2, [r0, #0]
  202900:	0752      	lsls	r2, r2, #29
  202902:	d5f2      	bpl.n	2028ea <GLCD_Initialize+0x2222>
  202904:	f850 2c04 	ldr.w	r2, [r0, #-4]
  202908:	225c      	movs	r2, #92	; 0x5c
  20290a:	f840 2c04 	str.w	r2, [r0, #-4]
  20290e:	6802      	ldr	r2, [r0, #0]
  202910:	0752      	lsls	r2, r2, #29
  202912:	d409      	bmi.n	202928 <GLCD_Initialize+0x2260>
  202914:	6802      	ldr	r2, [r0, #0]
  202916:	0752      	lsls	r2, r2, #29
  202918:	bf5c      	itt	pl
  20291a:	6802      	ldrpl	r2, [r0, #0]
  20291c:	ea5f 7242 	movspl.w	r2, r2, lsl #29
  202920:	d402      	bmi.n	202928 <GLCD_Initialize+0x2260>
  202922:	6802      	ldr	r2, [r0, #0]
  202924:	0752      	lsls	r2, r2, #29
  202926:	d5f2      	bpl.n	20290e <GLCD_Initialize+0x2246>
  202928:	f850 2c04 	ldr.w	r2, [r0, #-4]
  20292c:	680a      	ldr	r2, [r1, #0]
  20292e:	f042 0201 	orr.w	r2, r2, #1
  202932:	600a      	str	r2, [r1, #0]
  202934:	680a      	ldr	r2, [r1, #0]
  202936:	f022 0201 	bic.w	r2, r2, #1
  20293a:	600a      	str	r2, [r1, #0]
  20293c:	2272      	movs	r2, #114	; 0x72
  20293e:	f840 2c04 	str.w	r2, [r0, #-4]
  202942:	6802      	ldr	r2, [r0, #0]
  202944:	0752      	lsls	r2, r2, #29
  202946:	d409      	bmi.n	20295c <GLCD_Initialize+0x2294>
  202948:	6802      	ldr	r2, [r0, #0]
  20294a:	0752      	lsls	r2, r2, #29
  20294c:	bf5c      	itt	pl
  20294e:	6802      	ldrpl	r2, [r0, #0]
  202950:	ea5f 7242 	movspl.w	r2, r2, lsl #29
  202954:	d402      	bmi.n	20295c <GLCD_Initialize+0x2294>
  202956:	6802      	ldr	r2, [r0, #0]
  202958:	0752      	lsls	r2, r2, #29
  20295a:	d5f2      	bpl.n	202942 <GLCD_Initialize+0x227a>
  20295c:	f850 2c04 	ldr.w	r2, [r0, #-4]
  202960:	2200      	movs	r2, #0
  202962:	f840 2c04 	str.w	r2, [r0, #-4]
  202966:	6802      	ldr	r2, [r0, #0]
  202968:	0752      	lsls	r2, r2, #29
  20296a:	d409      	bmi.n	202980 <GLCD_Initialize+0x22b8>
  20296c:	6802      	ldr	r2, [r0, #0]
  20296e:	0752      	lsls	r2, r2, #29
  202970:	bf5c      	itt	pl
  202972:	6802      	ldrpl	r2, [r0, #0]
  202974:	ea5f 7242 	movspl.w	r2, r2, lsl #29
  202978:	d402      	bmi.n	202980 <GLCD_Initialize+0x22b8>
  20297a:	6802      	ldr	r2, [r0, #0]
  20297c:	0752      	lsls	r2, r2, #29
  20297e:	d5f2      	bpl.n	202966 <GLCD_Initialize+0x229e>
  202980:	f850 2c04 	ldr.w	r2, [r0, #-4]
  202984:	221d      	movs	r2, #29
  202986:	f840 2c04 	str.w	r2, [r0, #-4]
  20298a:	6802      	ldr	r2, [r0, #0]
  20298c:	0752      	lsls	r2, r2, #29
  20298e:	d409      	bmi.n	2029a4 <GLCD_Initialize+0x22dc>
  202990:	6802      	ldr	r2, [r0, #0]
  202992:	0752      	lsls	r2, r2, #29
  202994:	bf5c      	itt	pl
  202996:	6802      	ldrpl	r2, [r0, #0]
  202998:	ea5f 7242 	movspl.w	r2, r2, lsl #29
  20299c:	d402      	bmi.n	2029a4 <GLCD_Initialize+0x22dc>
  20299e:	6802      	ldr	r2, [r0, #0]
  2029a0:	0752      	lsls	r2, r2, #29
  2029a2:	d5f2      	bpl.n	20298a <GLCD_Initialize+0x22c2>
  2029a4:	f850 2c04 	ldr.w	r2, [r0, #-4]
  2029a8:	680a      	ldr	r2, [r1, #0]
  2029aa:	f042 0201 	orr.w	r2, r2, #1
  2029ae:	600a      	str	r2, [r1, #0]
  2029b0:	680a      	ldr	r2, [r1, #0]
  2029b2:	f022 0201 	bic.w	r2, r2, #1
  2029b6:	600a      	str	r2, [r1, #0]
  2029b8:	2270      	movs	r2, #112	; 0x70
  2029ba:	f840 2c04 	str.w	r2, [r0, #-4]
  2029be:	6802      	ldr	r2, [r0, #0]
  2029c0:	0752      	lsls	r2, r2, #29
  2029c2:	d409      	bmi.n	2029d8 <GLCD_Initialize+0x2310>
  2029c4:	6802      	ldr	r2, [r0, #0]
  2029c6:	0752      	lsls	r2, r2, #29
  2029c8:	bf5c      	itt	pl
  2029ca:	6802      	ldrpl	r2, [r0, #0]
  2029cc:	ea5f 7242 	movspl.w	r2, r2, lsl #29
  2029d0:	d402      	bmi.n	2029d8 <GLCD_Initialize+0x2310>
  2029d2:	6802      	ldr	r2, [r0, #0]
  2029d4:	0752      	lsls	r2, r2, #29
  2029d6:	d5f2      	bpl.n	2029be <GLCD_Initialize+0x22f6>
  2029d8:	f850 2c04 	ldr.w	r2, [r0, #-4]
  2029dc:	2200      	movs	r2, #0
  2029de:	f840 2c04 	str.w	r2, [r0, #-4]
  2029e2:	6802      	ldr	r2, [r0, #0]
  2029e4:	0752      	lsls	r2, r2, #29
  2029e6:	d409      	bmi.n	2029fc <GLCD_Initialize+0x2334>
  2029e8:	6802      	ldr	r2, [r0, #0]
  2029ea:	0752      	lsls	r2, r2, #29
  2029ec:	bf5c      	itt	pl
  2029ee:	6802      	ldrpl	r2, [r0, #0]
  2029f0:	ea5f 7242 	movspl.w	r2, r2, lsl #29
  2029f4:	d402      	bmi.n	2029fc <GLCD_Initialize+0x2334>
  2029f6:	6802      	ldr	r2, [r0, #0]
  2029f8:	0752      	lsls	r2, r2, #29
  2029fa:	d5f2      	bpl.n	2029e2 <GLCD_Initialize+0x231a>
  2029fc:	f850 2c04 	ldr.w	r2, [r0, #-4]
  202a00:	225d      	movs	r2, #93	; 0x5d
  202a02:	f840 2c04 	str.w	r2, [r0, #-4]
  202a06:	6802      	ldr	r2, [r0, #0]
  202a08:	0752      	lsls	r2, r2, #29
  202a0a:	d409      	bmi.n	202a20 <GLCD_Initialize+0x2358>
  202a0c:	6802      	ldr	r2, [r0, #0]
  202a0e:	0752      	lsls	r2, r2, #29
  202a10:	bf5c      	itt	pl
  202a12:	6802      	ldrpl	r2, [r0, #0]
  202a14:	ea5f 7242 	movspl.w	r2, r2, lsl #29
  202a18:	d402      	bmi.n	202a20 <GLCD_Initialize+0x2358>
  202a1a:	6802      	ldr	r2, [r0, #0]
  202a1c:	0752      	lsls	r2, r2, #29
  202a1e:	d5f2      	bpl.n	202a06 <GLCD_Initialize+0x233e>
  202a20:	f850 2c04 	ldr.w	r2, [r0, #-4]
  202a24:	680a      	ldr	r2, [r1, #0]
  202a26:	f042 0201 	orr.w	r2, r2, #1
  202a2a:	600a      	str	r2, [r1, #0]
  202a2c:	680a      	ldr	r2, [r1, #0]
  202a2e:	f022 0201 	bic.w	r2, r2, #1
  202a32:	600a      	str	r2, [r1, #0]
  202a34:	2272      	movs	r2, #114	; 0x72
  202a36:	f840 2c04 	str.w	r2, [r0, #-4]
  202a3a:	6802      	ldr	r2, [r0, #0]
  202a3c:	0752      	lsls	r2, r2, #29
  202a3e:	d409      	bmi.n	202a54 <GLCD_Initialize+0x238c>
  202a40:	6802      	ldr	r2, [r0, #0]
  202a42:	0752      	lsls	r2, r2, #29
  202a44:	bf5c      	itt	pl
  202a46:	6802      	ldrpl	r2, [r0, #0]
  202a48:	ea5f 7242 	movspl.w	r2, r2, lsl #29
  202a4c:	d402      	bmi.n	202a54 <GLCD_Initialize+0x238c>
  202a4e:	6802      	ldr	r2, [r0, #0]
  202a50:	0752      	lsls	r2, r2, #29
  202a52:	d5f2      	bpl.n	202a3a <GLCD_Initialize+0x2372>
  202a54:	f850 2c04 	ldr.w	r2, [r0, #-4]
  202a58:	2200      	movs	r2, #0
  202a5a:	f840 2c04 	str.w	r2, [r0, #-4]
  202a5e:	6802      	ldr	r2, [r0, #0]
  202a60:	0752      	lsls	r2, r2, #29
  202a62:	d409      	bmi.n	202a78 <GLCD_Initialize+0x23b0>
  202a64:	6802      	ldr	r2, [r0, #0]
  202a66:	0752      	lsls	r2, r2, #29
  202a68:	bf5c      	itt	pl
  202a6a:	6802      	ldrpl	r2, [r0, #0]
  202a6c:	ea5f 7242 	movspl.w	r2, r2, lsl #29
  202a70:	d402      	bmi.n	202a78 <GLCD_Initialize+0x23b0>
  202a72:	6802      	ldr	r2, [r0, #0]
  202a74:	0752      	lsls	r2, r2, #29
  202a76:	d5f2      	bpl.n	202a5e <GLCD_Initialize+0x2396>
  202a78:	f850 2c04 	ldr.w	r2, [r0, #-4]
  202a7c:	22cc      	movs	r2, #204	; 0xcc
  202a7e:	f840 2c04 	str.w	r2, [r0, #-4]
  202a82:	6802      	ldr	r2, [r0, #0]
  202a84:	0752      	lsls	r2, r2, #29
  202a86:	d409      	bmi.n	202a9c <GLCD_Initialize+0x23d4>
  202a88:	6802      	ldr	r2, [r0, #0]
  202a8a:	0752      	lsls	r2, r2, #29
  202a8c:	bf5c      	itt	pl
  202a8e:	6802      	ldrpl	r2, [r0, #0]
  202a90:	ea5f 7242 	movspl.w	r2, r2, lsl #29
  202a94:	d402      	bmi.n	202a9c <GLCD_Initialize+0x23d4>
  202a96:	6802      	ldr	r2, [r0, #0]
  202a98:	0752      	lsls	r2, r2, #29
  202a9a:	d5f2      	bpl.n	202a82 <GLCD_Initialize+0x23ba>
  202a9c:	f850 2c04 	ldr.w	r2, [r0, #-4]
  202aa0:	680a      	ldr	r2, [r1, #0]
  202aa2:	f042 0201 	orr.w	r2, r2, #1
  202aa6:	600a      	str	r2, [r1, #0]
  202aa8:	680a      	ldr	r2, [r1, #0]
  202aaa:	f022 0201 	bic.w	r2, r2, #1
  202aae:	600a      	str	r2, [r1, #0]
  202ab0:	2270      	movs	r2, #112	; 0x70
  202ab2:	f840 2c04 	str.w	r2, [r0, #-4]
  202ab6:	6802      	ldr	r2, [r0, #0]
  202ab8:	0752      	lsls	r2, r2, #29
  202aba:	d409      	bmi.n	202ad0 <GLCD_Initialize+0x2408>
  202abc:	6802      	ldr	r2, [r0, #0]
  202abe:	0752      	lsls	r2, r2, #29
  202ac0:	bf5c      	itt	pl
  202ac2:	6802      	ldrpl	r2, [r0, #0]
  202ac4:	ea5f 7242 	movspl.w	r2, r2, lsl #29
  202ac8:	d402      	bmi.n	202ad0 <GLCD_Initialize+0x2408>
  202aca:	6802      	ldr	r2, [r0, #0]
  202acc:	0752      	lsls	r2, r2, #29
  202ace:	d5f2      	bpl.n	202ab6 <GLCD_Initialize+0x23ee>
  202ad0:	f850 2c04 	ldr.w	r2, [r0, #-4]
  202ad4:	2200      	movs	r2, #0
  202ad6:	f840 2c04 	str.w	r2, [r0, #-4]
  202ada:	6802      	ldr	r2, [r0, #0]
  202adc:	0752      	lsls	r2, r2, #29
  202ade:	d409      	bmi.n	202af4 <GLCD_Initialize+0x242c>
  202ae0:	6802      	ldr	r2, [r0, #0]
  202ae2:	0752      	lsls	r2, r2, #29
  202ae4:	bf5c      	itt	pl
  202ae6:	6802      	ldrpl	r2, [r0, #0]
  202ae8:	ea5f 7242 	movspl.w	r2, r2, lsl #29
  202aec:	d402      	bmi.n	202af4 <GLCD_Initialize+0x242c>
  202aee:	6802      	ldr	r2, [r0, #0]
  202af0:	0752      	lsls	r2, r2, #29
  202af2:	d5f2      	bpl.n	202ada <GLCD_Initialize+0x2412>
  202af4:	f850 2c04 	ldr.w	r2, [r0, #-4]
  202af8:	221b      	movs	r2, #27
  202afa:	f840 2c04 	str.w	r2, [r0, #-4]
  202afe:	6802      	ldr	r2, [r0, #0]
  202b00:	0752      	lsls	r2, r2, #29
  202b02:	d409      	bmi.n	202b18 <GLCD_Initialize+0x2450>
  202b04:	6802      	ldr	r2, [r0, #0]
  202b06:	0752      	lsls	r2, r2, #29
  202b08:	bf5c      	itt	pl
  202b0a:	6802      	ldrpl	r2, [r0, #0]
  202b0c:	ea5f 7242 	movspl.w	r2, r2, lsl #29
  202b10:	d402      	bmi.n	202b18 <GLCD_Initialize+0x2450>
  202b12:	6802      	ldr	r2, [r0, #0]
  202b14:	0752      	lsls	r2, r2, #29
  202b16:	d5f2      	bpl.n	202afe <GLCD_Initialize+0x2436>
  202b18:	f850 2c04 	ldr.w	r2, [r0, #-4]
  202b1c:	680a      	ldr	r2, [r1, #0]
  202b1e:	f042 0201 	orr.w	r2, r2, #1
  202b22:	600a      	str	r2, [r1, #0]
  202b24:	680a      	ldr	r2, [r1, #0]
  202b26:	f022 0201 	bic.w	r2, r2, #1
  202b2a:	600a      	str	r2, [r1, #0]
  202b2c:	2272      	movs	r2, #114	; 0x72
  202b2e:	f840 2c04 	str.w	r2, [r0, #-4]
  202b32:	6802      	ldr	r2, [r0, #0]
  202b34:	0752      	lsls	r2, r2, #29
  202b36:	d409      	bmi.n	202b4c <GLCD_Initialize+0x2484>
  202b38:	6802      	ldr	r2, [r0, #0]
  202b3a:	0752      	lsls	r2, r2, #29
  202b3c:	bf5c      	itt	pl
  202b3e:	6802      	ldrpl	r2, [r0, #0]
  202b40:	ea5f 7242 	movspl.w	r2, r2, lsl #29
  202b44:	d402      	bmi.n	202b4c <GLCD_Initialize+0x2484>
  202b46:	6802      	ldr	r2, [r0, #0]
  202b48:	0752      	lsls	r2, r2, #29
  202b4a:	d5f2      	bpl.n	202b32 <GLCD_Initialize+0x246a>
  202b4c:	f850 2c04 	ldr.w	r2, [r0, #-4]
  202b50:	2200      	movs	r2, #0
  202b52:	f840 2c04 	str.w	r2, [r0, #-4]
  202b56:	6802      	ldr	r2, [r0, #0]
  202b58:	0752      	lsls	r2, r2, #29
  202b5a:	d409      	bmi.n	202b70 <GLCD_Initialize+0x24a8>
  202b5c:	6802      	ldr	r2, [r0, #0]
  202b5e:	0752      	lsls	r2, r2, #29
  202b60:	bf5c      	itt	pl
  202b62:	6802      	ldrpl	r2, [r0, #0]
  202b64:	ea5f 7242 	movspl.w	r2, r2, lsl #29
  202b68:	d402      	bmi.n	202b70 <GLCD_Initialize+0x24a8>
  202b6a:	6802      	ldr	r2, [r0, #0]
  202b6c:	0752      	lsls	r2, r2, #29
  202b6e:	d5f2      	bpl.n	202b56 <GLCD_Initialize+0x248e>
  202b70:	f850 2c04 	ldr.w	r2, [r0, #-4]
  202b74:	221b      	movs	r2, #27
  202b76:	f840 2c04 	str.w	r2, [r0, #-4]
  202b7a:	6802      	ldr	r2, [r0, #0]
  202b7c:	0752      	lsls	r2, r2, #29
  202b7e:	d409      	bmi.n	202b94 <GLCD_Initialize+0x24cc>
  202b80:	6802      	ldr	r2, [r0, #0]
  202b82:	0752      	lsls	r2, r2, #29
  202b84:	bf5c      	itt	pl
  202b86:	6802      	ldrpl	r2, [r0, #0]
  202b88:	ea5f 7242 	movspl.w	r2, r2, lsl #29
  202b8c:	d402      	bmi.n	202b94 <GLCD_Initialize+0x24cc>
  202b8e:	6802      	ldr	r2, [r0, #0]
  202b90:	0752      	lsls	r2, r2, #29
  202b92:	d5f2      	bpl.n	202b7a <GLCD_Initialize+0x24b2>
  202b94:	f850 2c04 	ldr.w	r2, [r0, #-4]
  202b98:	680a      	ldr	r2, [r1, #0]
  202b9a:	f042 0201 	orr.w	r2, r2, #1
  202b9e:	600a      	str	r2, [r1, #0]
  202ba0:	680a      	ldr	r2, [r1, #0]
  202ba2:	f022 0201 	bic.w	r2, r2, #1
  202ba6:	600a      	str	r2, [r1, #0]
  202ba8:	2270      	movs	r2, #112	; 0x70
  202baa:	f840 2c04 	str.w	r2, [r0, #-4]
  202bae:	6802      	ldr	r2, [r0, #0]
  202bb0:	0752      	lsls	r2, r2, #29
  202bb2:	d409      	bmi.n	202bc8 <GLCD_Initialize+0x2500>
  202bb4:	6802      	ldr	r2, [r0, #0]
  202bb6:	0752      	lsls	r2, r2, #29
  202bb8:	bf5c      	itt	pl
  202bba:	6802      	ldrpl	r2, [r0, #0]
  202bbc:	ea5f 7242 	movspl.w	r2, r2, lsl #29
  202bc0:	d402      	bmi.n	202bc8 <GLCD_Initialize+0x2500>
  202bc2:	6802      	ldr	r2, [r0, #0]
  202bc4:	0752      	lsls	r2, r2, #29
  202bc6:	d5f2      	bpl.n	202bae <GLCD_Initialize+0x24e6>
  202bc8:	f850 2c04 	ldr.w	r2, [r0, #-4]
  202bcc:	2200      	movs	r2, #0
  202bce:	f840 2c04 	str.w	r2, [r0, #-4]
  202bd2:	6802      	ldr	r2, [r0, #0]
  202bd4:	0752      	lsls	r2, r2, #29
  202bd6:	d409      	bmi.n	202bec <GLCD_Initialize+0x2524>
  202bd8:	6802      	ldr	r2, [r0, #0]
  202bda:	0752      	lsls	r2, r2, #29
  202bdc:	bf5c      	itt	pl
  202bde:	6802      	ldrpl	r2, [r0, #0]
  202be0:	ea5f 7242 	movspl.w	r2, r2, lsl #29
  202be4:	d402      	bmi.n	202bec <GLCD_Initialize+0x2524>
  202be6:	6802      	ldr	r2, [r0, #0]
  202be8:	0752      	lsls	r2, r2, #29
  202bea:	d5f2      	bpl.n	202bd2 <GLCD_Initialize+0x250a>
  202bec:	f850 2c04 	ldr.w	r2, [r0, #-4]
  202bf0:	221a      	movs	r2, #26
  202bf2:	f840 2c04 	str.w	r2, [r0, #-4]
  202bf6:	6802      	ldr	r2, [r0, #0]
  202bf8:	0752      	lsls	r2, r2, #29
  202bfa:	d409      	bmi.n	202c10 <GLCD_Initialize+0x2548>
  202bfc:	6802      	ldr	r2, [r0, #0]
  202bfe:	0752      	lsls	r2, r2, #29
  202c00:	bf5c      	itt	pl
  202c02:	6802      	ldrpl	r2, [r0, #0]
  202c04:	ea5f 7242 	movspl.w	r2, r2, lsl #29
  202c08:	d402      	bmi.n	202c10 <GLCD_Initialize+0x2548>
  202c0a:	6802      	ldr	r2, [r0, #0]
  202c0c:	0752      	lsls	r2, r2, #29
  202c0e:	d5f2      	bpl.n	202bf6 <GLCD_Initialize+0x252e>
  202c10:	f850 2c04 	ldr.w	r2, [r0, #-4]
  202c14:	680a      	ldr	r2, [r1, #0]
  202c16:	f042 0201 	orr.w	r2, r2, #1
  202c1a:	600a      	str	r2, [r1, #0]
  202c1c:	680a      	ldr	r2, [r1, #0]
  202c1e:	f022 0201 	bic.w	r2, r2, #1
  202c22:	600a      	str	r2, [r1, #0]
  202c24:	2272      	movs	r2, #114	; 0x72
  202c26:	f840 2c04 	str.w	r2, [r0, #-4]
  202c2a:	6802      	ldr	r2, [r0, #0]
  202c2c:	0752      	lsls	r2, r2, #29
  202c2e:	d409      	bmi.n	202c44 <GLCD_Initialize+0x257c>
  202c30:	6802      	ldr	r2, [r0, #0]
  202c32:	0752      	lsls	r2, r2, #29
  202c34:	bf5c      	itt	pl
  202c36:	6802      	ldrpl	r2, [r0, #0]
  202c38:	ea5f 7242 	movspl.w	r2, r2, lsl #29
  202c3c:	d402      	bmi.n	202c44 <GLCD_Initialize+0x257c>
  202c3e:	6802      	ldr	r2, [r0, #0]
  202c40:	0752      	lsls	r2, r2, #29
  202c42:	d5f2      	bpl.n	202c2a <GLCD_Initialize+0x2562>
  202c44:	f850 2c04 	ldr.w	r2, [r0, #-4]
  202c48:	2200      	movs	r2, #0
  202c4a:	f840 2c04 	str.w	r2, [r0, #-4]
  202c4e:	6802      	ldr	r2, [r0, #0]
  202c50:	0752      	lsls	r2, r2, #29
  202c52:	d409      	bmi.n	202c68 <GLCD_Initialize+0x25a0>
  202c54:	6802      	ldr	r2, [r0, #0]
  202c56:	0752      	lsls	r2, r2, #29
  202c58:	bf5c      	itt	pl
  202c5a:	6802      	ldrpl	r2, [r0, #0]
  202c5c:	ea5f 7242 	movspl.w	r2, r2, lsl #29
  202c60:	d402      	bmi.n	202c68 <GLCD_Initialize+0x25a0>
  202c62:	6802      	ldr	r2, [r0, #0]
  202c64:	0752      	lsls	r2, r2, #29
  202c66:	d5f2      	bpl.n	202c4e <GLCD_Initialize+0x2586>
  202c68:	f850 2c04 	ldr.w	r2, [r0, #-4]
  202c6c:	2201      	movs	r2, #1
  202c6e:	f840 2c04 	str.w	r2, [r0, #-4]
  202c72:	6802      	ldr	r2, [r0, #0]
  202c74:	0752      	lsls	r2, r2, #29
  202c76:	d409      	bmi.n	202c8c <GLCD_Initialize+0x25c4>
  202c78:	6802      	ldr	r2, [r0, #0]
  202c7a:	0752      	lsls	r2, r2, #29
  202c7c:	bf5c      	itt	pl
  202c7e:	6802      	ldrpl	r2, [r0, #0]
  202c80:	ea5f 7242 	movspl.w	r2, r2, lsl #29
  202c84:	d402      	bmi.n	202c8c <GLCD_Initialize+0x25c4>
  202c86:	6802      	ldr	r2, [r0, #0]
  202c88:	0752      	lsls	r2, r2, #29
  202c8a:	d5f2      	bpl.n	202c72 <GLCD_Initialize+0x25aa>
  202c8c:	f850 2c04 	ldr.w	r2, [r0, #-4]
  202c90:	680a      	ldr	r2, [r1, #0]
  202c92:	f042 0201 	orr.w	r2, r2, #1
  202c96:	600a      	str	r2, [r1, #0]
  202c98:	680a      	ldr	r2, [r1, #0]
  202c9a:	f022 0201 	bic.w	r2, r2, #1
  202c9e:	600a      	str	r2, [r1, #0]
  202ca0:	2270      	movs	r2, #112	; 0x70
  202ca2:	f840 2c04 	str.w	r2, [r0, #-4]
  202ca6:	6802      	ldr	r2, [r0, #0]
  202ca8:	0752      	lsls	r2, r2, #29
  202caa:	d409      	bmi.n	202cc0 <GLCD_Initialize+0x25f8>
  202cac:	6802      	ldr	r2, [r0, #0]
  202cae:	0752      	lsls	r2, r2, #29
  202cb0:	bf5c      	itt	pl
  202cb2:	6802      	ldrpl	r2, [r0, #0]
  202cb4:	ea5f 7242 	movspl.w	r2, r2, lsl #29
  202cb8:	d402      	bmi.n	202cc0 <GLCD_Initialize+0x25f8>
  202cba:	6802      	ldr	r2, [r0, #0]
  202cbc:	0752      	lsls	r2, r2, #29
  202cbe:	d5f2      	bpl.n	202ca6 <GLCD_Initialize+0x25de>
  202cc0:	f850 2c04 	ldr.w	r2, [r0, #-4]
  202cc4:	2200      	movs	r2, #0
  202cc6:	f840 2c04 	str.w	r2, [r0, #-4]
  202cca:	6802      	ldr	r2, [r0, #0]
  202ccc:	0752      	lsls	r2, r2, #29
  202cce:	d409      	bmi.n	202ce4 <GLCD_Initialize+0x261c>
  202cd0:	6802      	ldr	r2, [r0, #0]
  202cd2:	0752      	lsls	r2, r2, #29
  202cd4:	bf5c      	itt	pl
  202cd6:	6802      	ldrpl	r2, [r0, #0]
  202cd8:	ea5f 7242 	movspl.w	r2, r2, lsl #29
  202cdc:	d402      	bmi.n	202ce4 <GLCD_Initialize+0x261c>
  202cde:	6802      	ldr	r2, [r0, #0]
  202ce0:	0752      	lsls	r2, r2, #29
  202ce2:	d5f2      	bpl.n	202cca <GLCD_Initialize+0x2602>
  202ce4:	f850 2c04 	ldr.w	r2, [r0, #-4]
  202ce8:	2224      	movs	r2, #36	; 0x24
  202cea:	f840 2c04 	str.w	r2, [r0, #-4]
  202cee:	6802      	ldr	r2, [r0, #0]
  202cf0:	0752      	lsls	r2, r2, #29
  202cf2:	d409      	bmi.n	202d08 <GLCD_Initialize+0x2640>
  202cf4:	6802      	ldr	r2, [r0, #0]
  202cf6:	0752      	lsls	r2, r2, #29
  202cf8:	bf5c      	itt	pl
  202cfa:	6802      	ldrpl	r2, [r0, #0]
  202cfc:	ea5f 7242 	movspl.w	r2, r2, lsl #29
  202d00:	d402      	bmi.n	202d08 <GLCD_Initialize+0x2640>
  202d02:	6802      	ldr	r2, [r0, #0]
  202d04:	0752      	lsls	r2, r2, #29
  202d06:	d5f2      	bpl.n	202cee <GLCD_Initialize+0x2626>
  202d08:	f850 2c04 	ldr.w	r2, [r0, #-4]
  202d0c:	680a      	ldr	r2, [r1, #0]
  202d0e:	f042 0201 	orr.w	r2, r2, #1
  202d12:	600a      	str	r2, [r1, #0]
  202d14:	680a      	ldr	r2, [r1, #0]
  202d16:	f022 0201 	bic.w	r2, r2, #1
  202d1a:	600a      	str	r2, [r1, #0]
  202d1c:	2272      	movs	r2, #114	; 0x72
  202d1e:	f840 2c04 	str.w	r2, [r0, #-4]
  202d22:	6802      	ldr	r2, [r0, #0]
  202d24:	0752      	lsls	r2, r2, #29
  202d26:	d409      	bmi.n	202d3c <GLCD_Initialize+0x2674>
  202d28:	6802      	ldr	r2, [r0, #0]
  202d2a:	0752      	lsls	r2, r2, #29
  202d2c:	bf5c      	itt	pl
  202d2e:	6802      	ldrpl	r2, [r0, #0]
  202d30:	ea5f 7242 	movspl.w	r2, r2, lsl #29
  202d34:	d402      	bmi.n	202d3c <GLCD_Initialize+0x2674>
  202d36:	6802      	ldr	r2, [r0, #0]
  202d38:	0752      	lsls	r2, r2, #29
  202d3a:	d5f2      	bpl.n	202d22 <GLCD_Initialize+0x265a>
  202d3c:	f850 2c04 	ldr.w	r2, [r0, #-4]
  202d40:	2200      	movs	r2, #0
  202d42:	f840 2c04 	str.w	r2, [r0, #-4]
  202d46:	6802      	ldr	r2, [r0, #0]
  202d48:	0752      	lsls	r2, r2, #29
  202d4a:	d409      	bmi.n	202d60 <GLCD_Initialize+0x2698>
  202d4c:	6802      	ldr	r2, [r0, #0]
  202d4e:	0752      	lsls	r2, r2, #29
  202d50:	bf5c      	itt	pl
  202d52:	6802      	ldrpl	r2, [r0, #0]
  202d54:	ea5f 7242 	movspl.w	r2, r2, lsl #29
  202d58:	d402      	bmi.n	202d60 <GLCD_Initialize+0x2698>
  202d5a:	6802      	ldr	r2, [r0, #0]
  202d5c:	0752      	lsls	r2, r2, #29
  202d5e:	d5f2      	bpl.n	202d46 <GLCD_Initialize+0x267e>
  202d60:	f850 2c04 	ldr.w	r2, [r0, #-4]
  202d64:	222f      	movs	r2, #47	; 0x2f
  202d66:	f840 2c04 	str.w	r2, [r0, #-4]
  202d6a:	6802      	ldr	r2, [r0, #0]
  202d6c:	0752      	lsls	r2, r2, #29
  202d6e:	d409      	bmi.n	202d84 <GLCD_Initialize+0x26bc>
  202d70:	6802      	ldr	r2, [r0, #0]
  202d72:	0752      	lsls	r2, r2, #29
  202d74:	bf5c      	itt	pl
  202d76:	6802      	ldrpl	r2, [r0, #0]
  202d78:	ea5f 7242 	movspl.w	r2, r2, lsl #29
  202d7c:	d402      	bmi.n	202d84 <GLCD_Initialize+0x26bc>
  202d7e:	6802      	ldr	r2, [r0, #0]
  202d80:	0752      	lsls	r2, r2, #29
  202d82:	d5f2      	bpl.n	202d6a <GLCD_Initialize+0x26a2>
  202d84:	f850 2c04 	ldr.w	r2, [r0, #-4]
  202d88:	680a      	ldr	r2, [r1, #0]
  202d8a:	f042 0201 	orr.w	r2, r2, #1
  202d8e:	600a      	str	r2, [r1, #0]
  202d90:	680a      	ldr	r2, [r1, #0]
  202d92:	f022 0201 	bic.w	r2, r2, #1
  202d96:	600a      	str	r2, [r1, #0]
  202d98:	2270      	movs	r2, #112	; 0x70
  202d9a:	f840 2c04 	str.w	r2, [r0, #-4]
  202d9e:	6802      	ldr	r2, [r0, #0]
  202da0:	0752      	lsls	r2, r2, #29
  202da2:	d409      	bmi.n	202db8 <GLCD_Initialize+0x26f0>
  202da4:	6802      	ldr	r2, [r0, #0]
  202da6:	0752      	lsls	r2, r2, #29
  202da8:	bf5c      	itt	pl
  202daa:	6802      	ldrpl	r2, [r0, #0]
  202dac:	ea5f 7242 	movspl.w	r2, r2, lsl #29
  202db0:	d402      	bmi.n	202db8 <GLCD_Initialize+0x26f0>
  202db2:	6802      	ldr	r2, [r0, #0]
  202db4:	0752      	lsls	r2, r2, #29
  202db6:	d5f2      	bpl.n	202d9e <GLCD_Initialize+0x26d6>
  202db8:	f850 2c04 	ldr.w	r2, [r0, #-4]
  202dbc:	2200      	movs	r2, #0
  202dbe:	f840 2c04 	str.w	r2, [r0, #-4]
  202dc2:	6802      	ldr	r2, [r0, #0]
  202dc4:	0752      	lsls	r2, r2, #29
  202dc6:	d409      	bmi.n	202ddc <GLCD_Initialize+0x2714>
  202dc8:	6802      	ldr	r2, [r0, #0]
  202dca:	0752      	lsls	r2, r2, #29
  202dcc:	bf5c      	itt	pl
  202dce:	6802      	ldrpl	r2, [r0, #0]
  202dd0:	ea5f 7242 	movspl.w	r2, r2, lsl #29
  202dd4:	d402      	bmi.n	202ddc <GLCD_Initialize+0x2714>
  202dd6:	6802      	ldr	r2, [r0, #0]
  202dd8:	0752      	lsls	r2, r2, #29
  202dda:	d5f2      	bpl.n	202dc2 <GLCD_Initialize+0x26fa>
  202ddc:	f850 2c04 	ldr.w	r2, [r0, #-4]
  202de0:	2225      	movs	r2, #37	; 0x25
  202de2:	f840 2c04 	str.w	r2, [r0, #-4]
  202de6:	6802      	ldr	r2, [r0, #0]
  202de8:	0752      	lsls	r2, r2, #29
  202dea:	d409      	bmi.n	202e00 <GLCD_Initialize+0x2738>
  202dec:	6802      	ldr	r2, [r0, #0]
  202dee:	0752      	lsls	r2, r2, #29
  202df0:	bf5c      	itt	pl
  202df2:	6802      	ldrpl	r2, [r0, #0]
  202df4:	ea5f 7242 	movspl.w	r2, r2, lsl #29
  202df8:	d402      	bmi.n	202e00 <GLCD_Initialize+0x2738>
  202dfa:	6802      	ldr	r2, [r0, #0]
  202dfc:	0752      	lsls	r2, r2, #29
  202dfe:	d5f2      	bpl.n	202de6 <GLCD_Initialize+0x271e>
  202e00:	f850 2c04 	ldr.w	r2, [r0, #-4]
  202e04:	680a      	ldr	r2, [r1, #0]
  202e06:	f042 0201 	orr.w	r2, r2, #1
  202e0a:	600a      	str	r2, [r1, #0]
  202e0c:	680a      	ldr	r2, [r1, #0]
  202e0e:	f022 0201 	bic.w	r2, r2, #1
  202e12:	600a      	str	r2, [r1, #0]
  202e14:	2272      	movs	r2, #114	; 0x72
  202e16:	f840 2c04 	str.w	r2, [r0, #-4]
  202e1a:	6802      	ldr	r2, [r0, #0]
  202e1c:	0752      	lsls	r2, r2, #29
  202e1e:	d409      	bmi.n	202e34 <GLCD_Initialize+0x276c>
  202e20:	6802      	ldr	r2, [r0, #0]
  202e22:	0752      	lsls	r2, r2, #29
  202e24:	bf5c      	itt	pl
  202e26:	6802      	ldrpl	r2, [r0, #0]
  202e28:	ea5f 7242 	movspl.w	r2, r2, lsl #29
  202e2c:	d402      	bmi.n	202e34 <GLCD_Initialize+0x276c>
  202e2e:	6802      	ldr	r2, [r0, #0]
  202e30:	0752      	lsls	r2, r2, #29
  202e32:	d5f2      	bpl.n	202e1a <GLCD_Initialize+0x2752>
  202e34:	f850 2c04 	ldr.w	r2, [r0, #-4]
  202e38:	2200      	movs	r2, #0
  202e3a:	f840 2c04 	str.w	r2, [r0, #-4]
  202e3e:	6802      	ldr	r2, [r0, #0]
  202e40:	0752      	lsls	r2, r2, #29
  202e42:	d409      	bmi.n	202e58 <GLCD_Initialize+0x2790>
  202e44:	6802      	ldr	r2, [r0, #0]
  202e46:	0752      	lsls	r2, r2, #29
  202e48:	bf5c      	itt	pl
  202e4a:	6802      	ldrpl	r2, [r0, #0]
  202e4c:	ea5f 7242 	movspl.w	r2, r2, lsl #29
  202e50:	d402      	bmi.n	202e58 <GLCD_Initialize+0x2790>
  202e52:	6802      	ldr	r2, [r0, #0]
  202e54:	0752      	lsls	r2, r2, #29
  202e56:	d5f2      	bpl.n	202e3e <GLCD_Initialize+0x2776>
  202e58:	f850 2c04 	ldr.w	r2, [r0, #-4]
  202e5c:	2257      	movs	r2, #87	; 0x57
  202e5e:	f840 2c04 	str.w	r2, [r0, #-4]
  202e62:	6802      	ldr	r2, [r0, #0]
  202e64:	0752      	lsls	r2, r2, #29
  202e66:	d409      	bmi.n	202e7c <GLCD_Initialize+0x27b4>
  202e68:	6802      	ldr	r2, [r0, #0]
  202e6a:	0752      	lsls	r2, r2, #29
  202e6c:	bf5c      	itt	pl
  202e6e:	6802      	ldrpl	r2, [r0, #0]
  202e70:	ea5f 7242 	movspl.w	r2, r2, lsl #29
  202e74:	d402      	bmi.n	202e7c <GLCD_Initialize+0x27b4>
  202e76:	6802      	ldr	r2, [r0, #0]
  202e78:	0752      	lsls	r2, r2, #29
  202e7a:	d5f2      	bpl.n	202e62 <GLCD_Initialize+0x279a>
  202e7c:	f850 2c04 	ldr.w	r2, [r0, #-4]
  202e80:	680a      	ldr	r2, [r1, #0]
  202e82:	f042 0201 	orr.w	r2, r2, #1
  202e86:	600a      	str	r2, [r1, #0]
  202e88:	680a      	ldr	r2, [r1, #0]
  202e8a:	f022 0201 	bic.w	r2, r2, #1
  202e8e:	600a      	str	r2, [r1, #0]
  202e90:	2270      	movs	r2, #112	; 0x70
  202e92:	f840 2c04 	str.w	r2, [r0, #-4]
  202e96:	6802      	ldr	r2, [r0, #0]
  202e98:	0752      	lsls	r2, r2, #29
  202e9a:	d409      	bmi.n	202eb0 <GLCD_Initialize+0x27e8>
  202e9c:	6802      	ldr	r2, [r0, #0]
  202e9e:	0752      	lsls	r2, r2, #29
  202ea0:	bf5c      	itt	pl
  202ea2:	6802      	ldrpl	r2, [r0, #0]
  202ea4:	ea5f 7242 	movspl.w	r2, r2, lsl #29
  202ea8:	d402      	bmi.n	202eb0 <GLCD_Initialize+0x27e8>
  202eaa:	6802      	ldr	r2, [r0, #0]
  202eac:	0752      	lsls	r2, r2, #29
  202eae:	d5f2      	bpl.n	202e96 <GLCD_Initialize+0x27ce>
  202eb0:	f850 2c04 	ldr.w	r2, [r0, #-4]
  202eb4:	2200      	movs	r2, #0
  202eb6:	f840 2c04 	str.w	r2, [r0, #-4]
  202eba:	6802      	ldr	r2, [r0, #0]
  202ebc:	0752      	lsls	r2, r2, #29
  202ebe:	d409      	bmi.n	202ed4 <GLCD_Initialize+0x280c>
  202ec0:	6802      	ldr	r2, [r0, #0]
  202ec2:	0752      	lsls	r2, r2, #29
  202ec4:	bf5c      	itt	pl
  202ec6:	6802      	ldrpl	r2, [r0, #0]
  202ec8:	ea5f 7242 	movspl.w	r2, r2, lsl #29
  202ecc:	d402      	bmi.n	202ed4 <GLCD_Initialize+0x280c>
  202ece:	6802      	ldr	r2, [r0, #0]
  202ed0:	0752      	lsls	r2, r2, #29
  202ed2:	d5f2      	bpl.n	202eba <GLCD_Initialize+0x27f2>
  202ed4:	f850 2c04 	ldr.w	r2, [r0, #-4]
  202ed8:	2223      	movs	r2, #35	; 0x23
  202eda:	f840 2c04 	str.w	r2, [r0, #-4]
  202ede:	6802      	ldr	r2, [r0, #0]
  202ee0:	0752      	lsls	r2, r2, #29
  202ee2:	d409      	bmi.n	202ef8 <GLCD_Initialize+0x2830>
  202ee4:	6802      	ldr	r2, [r0, #0]
  202ee6:	0752      	lsls	r2, r2, #29
  202ee8:	bf5c      	itt	pl
  202eea:	6802      	ldrpl	r2, [r0, #0]
  202eec:	ea5f 7242 	movspl.w	r2, r2, lsl #29
  202ef0:	d402      	bmi.n	202ef8 <GLCD_Initialize+0x2830>
  202ef2:	6802      	ldr	r2, [r0, #0]
  202ef4:	0752      	lsls	r2, r2, #29
  202ef6:	d5f2      	bpl.n	202ede <GLCD_Initialize+0x2816>
  202ef8:	f850 2c04 	ldr.w	r2, [r0, #-4]
  202efc:	680a      	ldr	r2, [r1, #0]
  202efe:	f042 0201 	orr.w	r2, r2, #1
  202f02:	600a      	str	r2, [r1, #0]
  202f04:	680a      	ldr	r2, [r1, #0]
  202f06:	f022 0201 	bic.w	r2, r2, #1
  202f0a:	600a      	str	r2, [r1, #0]
  202f0c:	2272      	movs	r2, #114	; 0x72
  202f0e:	f840 2c04 	str.w	r2, [r0, #-4]
  202f12:	6802      	ldr	r2, [r0, #0]
  202f14:	0752      	lsls	r2, r2, #29
  202f16:	d409      	bmi.n	202f2c <GLCD_Initialize+0x2864>
  202f18:	6802      	ldr	r2, [r0, #0]
  202f1a:	0752      	lsls	r2, r2, #29
  202f1c:	bf5c      	itt	pl
  202f1e:	6802      	ldrpl	r2, [r0, #0]
  202f20:	ea5f 7242 	movspl.w	r2, r2, lsl #29
  202f24:	d402      	bmi.n	202f2c <GLCD_Initialize+0x2864>
  202f26:	6802      	ldr	r2, [r0, #0]
  202f28:	0752      	lsls	r2, r2, #29
  202f2a:	d5f2      	bpl.n	202f12 <GLCD_Initialize+0x284a>
  202f2c:	f850 2c04 	ldr.w	r2, [r0, #-4]
  202f30:	2200      	movs	r2, #0
  202f32:	f840 2c04 	str.w	r2, [r0, #-4]
  202f36:	6802      	ldr	r2, [r0, #0]
  202f38:	0752      	lsls	r2, r2, #29
  202f3a:	d409      	bmi.n	202f50 <GLCD_Initialize+0x2888>
  202f3c:	6802      	ldr	r2, [r0, #0]
  202f3e:	0752      	lsls	r2, r2, #29
  202f40:	bf5c      	itt	pl
  202f42:	6802      	ldrpl	r2, [r0, #0]
  202f44:	ea5f 7242 	movspl.w	r2, r2, lsl #29
  202f48:	d402      	bmi.n	202f50 <GLCD_Initialize+0x2888>
  202f4a:	6802      	ldr	r2, [r0, #0]
  202f4c:	0752      	lsls	r2, r2, #29
  202f4e:	d5f2      	bpl.n	202f36 <GLCD_Initialize+0x286e>
  202f50:	f850 2c04 	ldr.w	r2, [r0, #-4]
  202f54:	2288      	movs	r2, #136	; 0x88
  202f56:	f840 2c04 	str.w	r2, [r0, #-4]
  202f5a:	6802      	ldr	r2, [r0, #0]
  202f5c:	0752      	lsls	r2, r2, #29
  202f5e:	d409      	bmi.n	202f74 <GLCD_Initialize+0x28ac>
  202f60:	6802      	ldr	r2, [r0, #0]
  202f62:	0752      	lsls	r2, r2, #29
  202f64:	bf5c      	itt	pl
  202f66:	6802      	ldrpl	r2, [r0, #0]
  202f68:	ea5f 7242 	movspl.w	r2, r2, lsl #29
  202f6c:	d402      	bmi.n	202f74 <GLCD_Initialize+0x28ac>
  202f6e:	6802      	ldr	r2, [r0, #0]
  202f70:	0752      	lsls	r2, r2, #29
  202f72:	d5f2      	bpl.n	202f5a <GLCD_Initialize+0x2892>
  202f74:	f850 2c04 	ldr.w	r2, [r0, #-4]
  202f78:	680a      	ldr	r2, [r1, #0]
  202f7a:	f042 0201 	orr.w	r2, r2, #1
  202f7e:	600a      	str	r2, [r1, #0]
  202f80:	680a      	ldr	r2, [r1, #0]
  202f82:	f022 0201 	bic.w	r2, r2, #1
  202f86:	600a      	str	r2, [r1, #0]
  202f88:	2270      	movs	r2, #112	; 0x70
  202f8a:	f840 2c04 	str.w	r2, [r0, #-4]
  202f8e:	6802      	ldr	r2, [r0, #0]
  202f90:	0752      	lsls	r2, r2, #29
  202f92:	d409      	bmi.n	202fa8 <GLCD_Initialize+0x28e0>
  202f94:	6802      	ldr	r2, [r0, #0]
  202f96:	0752      	lsls	r2, r2, #29
  202f98:	bf5c      	itt	pl
  202f9a:	6802      	ldrpl	r2, [r0, #0]
  202f9c:	ea5f 7242 	movspl.w	r2, r2, lsl #29
  202fa0:	d402      	bmi.n	202fa8 <GLCD_Initialize+0x28e0>
  202fa2:	6802      	ldr	r2, [r0, #0]
  202fa4:	0752      	lsls	r2, r2, #29
  202fa6:	d5f2      	bpl.n	202f8e <GLCD_Initialize+0x28c6>
  202fa8:	f850 2c04 	ldr.w	r2, [r0, #-4]
  202fac:	2200      	movs	r2, #0
  202fae:	f840 2c04 	str.w	r2, [r0, #-4]
  202fb2:	6802      	ldr	r2, [r0, #0]
  202fb4:	0752      	lsls	r2, r2, #29
  202fb6:	d409      	bmi.n	202fcc <GLCD_Initialize+0x2904>
  202fb8:	6802      	ldr	r2, [r0, #0]
  202fba:	0752      	lsls	r2, r2, #29
  202fbc:	bf5c      	itt	pl
  202fbe:	6802      	ldrpl	r2, [r0, #0]
  202fc0:	ea5f 7242 	movspl.w	r2, r2, lsl #29
  202fc4:	d402      	bmi.n	202fcc <GLCD_Initialize+0x2904>
  202fc6:	6802      	ldr	r2, [r0, #0]
  202fc8:	0752      	lsls	r2, r2, #29
  202fca:	d5f2      	bpl.n	202fb2 <GLCD_Initialize+0x28ea>
  202fcc:	f850 2c04 	ldr.w	r2, [r0, #-4]
  202fd0:	2218      	movs	r2, #24
  202fd2:	f840 2c04 	str.w	r2, [r0, #-4]
  202fd6:	6802      	ldr	r2, [r0, #0]
  202fd8:	0752      	lsls	r2, r2, #29
  202fda:	d409      	bmi.n	202ff0 <GLCD_Initialize+0x2928>
  202fdc:	6802      	ldr	r2, [r0, #0]
  202fde:	0752      	lsls	r2, r2, #29
  202fe0:	bf5c      	itt	pl
  202fe2:	6802      	ldrpl	r2, [r0, #0]
  202fe4:	ea5f 7242 	movspl.w	r2, r2, lsl #29
  202fe8:	d402      	bmi.n	202ff0 <GLCD_Initialize+0x2928>
  202fea:	6802      	ldr	r2, [r0, #0]
  202fec:	0752      	lsls	r2, r2, #29
  202fee:	d5f2      	bpl.n	202fd6 <GLCD_Initialize+0x290e>
  202ff0:	f850 2c04 	ldr.w	r2, [r0, #-4]
  202ff4:	680a      	ldr	r2, [r1, #0]
  202ff6:	f042 0201 	orr.w	r2, r2, #1
  202ffa:	600a      	str	r2, [r1, #0]
  202ffc:	680a      	ldr	r2, [r1, #0]
  202ffe:	f022 0201 	bic.w	r2, r2, #1
  203002:	600a      	str	r2, [r1, #0]
  203004:	2272      	movs	r2, #114	; 0x72
  203006:	f840 2c04 	str.w	r2, [r0, #-4]
  20300a:	6802      	ldr	r2, [r0, #0]
  20300c:	0752      	lsls	r2, r2, #29
  20300e:	d409      	bmi.n	203024 <GLCD_Initialize+0x295c>
  203010:	6802      	ldr	r2, [r0, #0]
  203012:	0752      	lsls	r2, r2, #29
  203014:	bf5c      	itt	pl
  203016:	6802      	ldrpl	r2, [r0, #0]
  203018:	ea5f 7242 	movspl.w	r2, r2, lsl #29
  20301c:	d402      	bmi.n	203024 <GLCD_Initialize+0x295c>
  20301e:	6802      	ldr	r2, [r0, #0]
  203020:	0752      	lsls	r2, r2, #29
  203022:	d5f2      	bpl.n	20300a <GLCD_Initialize+0x2942>
  203024:	f850 2c04 	ldr.w	r2, [r0, #-4]
  203028:	2200      	movs	r2, #0
  20302a:	f840 2c04 	str.w	r2, [r0, #-4]
  20302e:	6802      	ldr	r2, [r0, #0]
  203030:	0752      	lsls	r2, r2, #29
  203032:	d409      	bmi.n	203048 <GLCD_Initialize+0x2980>
  203034:	6802      	ldr	r2, [r0, #0]
  203036:	0752      	lsls	r2, r2, #29
  203038:	bf5c      	itt	pl
  20303a:	6802      	ldrpl	r2, [r0, #0]
  20303c:	ea5f 7242 	movspl.w	r2, r2, lsl #29
  203040:	d402      	bmi.n	203048 <GLCD_Initialize+0x2980>
  203042:	6802      	ldr	r2, [r0, #0]
  203044:	0752      	lsls	r2, r2, #29
  203046:	d5f2      	bpl.n	20302e <GLCD_Initialize+0x2966>
  203048:	f850 2c04 	ldr.w	r2, [r0, #-4]
  20304c:	2236      	movs	r2, #54	; 0x36
  20304e:	f840 2c04 	str.w	r2, [r0, #-4]
  203052:	6802      	ldr	r2, [r0, #0]
  203054:	0752      	lsls	r2, r2, #29
  203056:	d409      	bmi.n	20306c <GLCD_Initialize+0x29a4>
  203058:	6802      	ldr	r2, [r0, #0]
  20305a:	0752      	lsls	r2, r2, #29
  20305c:	bf5c      	itt	pl
  20305e:	6802      	ldrpl	r2, [r0, #0]
  203060:	ea5f 7242 	movspl.w	r2, r2, lsl #29
  203064:	d402      	bmi.n	20306c <GLCD_Initialize+0x29a4>
  203066:	6802      	ldr	r2, [r0, #0]
  203068:	0752      	lsls	r2, r2, #29
  20306a:	d5f2      	bpl.n	203052 <GLCD_Initialize+0x298a>
  20306c:	f850 2c04 	ldr.w	r2, [r0, #-4]
  203070:	680a      	ldr	r2, [r1, #0]
  203072:	f042 0201 	orr.w	r2, r2, #1
  203076:	600a      	str	r2, [r1, #0]
  203078:	680a      	ldr	r2, [r1, #0]
  20307a:	f022 0201 	bic.w	r2, r2, #1
  20307e:	600a      	str	r2, [r1, #0]
  203080:	2270      	movs	r2, #112	; 0x70
  203082:	f840 2c04 	str.w	r2, [r0, #-4]
  203086:	6802      	ldr	r2, [r0, #0]
  203088:	0752      	lsls	r2, r2, #29
  20308a:	d409      	bmi.n	2030a0 <GLCD_Initialize+0x29d8>
  20308c:	6802      	ldr	r2, [r0, #0]
  20308e:	0752      	lsls	r2, r2, #29
  203090:	bf5c      	itt	pl
  203092:	6802      	ldrpl	r2, [r0, #0]
  203094:	ea5f 7242 	movspl.w	r2, r2, lsl #29
  203098:	d402      	bmi.n	2030a0 <GLCD_Initialize+0x29d8>
  20309a:	6802      	ldr	r2, [r0, #0]
  20309c:	0752      	lsls	r2, r2, #29
  20309e:	d5f2      	bpl.n	203086 <GLCD_Initialize+0x29be>
  2030a0:	f850 2c04 	ldr.w	r2, [r0, #-4]
  2030a4:	2200      	movs	r2, #0
  2030a6:	f840 2c04 	str.w	r2, [r0, #-4]
  2030aa:	6802      	ldr	r2, [r0, #0]
  2030ac:	0752      	lsls	r2, r2, #29
  2030ae:	d409      	bmi.n	2030c4 <GLCD_Initialize+0x29fc>
  2030b0:	6802      	ldr	r2, [r0, #0]
  2030b2:	0752      	lsls	r2, r2, #29
  2030b4:	bf5c      	itt	pl
  2030b6:	6802      	ldrpl	r2, [r0, #0]
  2030b8:	ea5f 7242 	movspl.w	r2, r2, lsl #29
  2030bc:	d402      	bmi.n	2030c4 <GLCD_Initialize+0x29fc>
  2030be:	6802      	ldr	r2, [r0, #0]
  2030c0:	0752      	lsls	r2, r2, #29
  2030c2:	d5f2      	bpl.n	2030aa <GLCD_Initialize+0x29e2>
  2030c4:	f850 2c04 	ldr.w	r2, [r0, #-4]
  2030c8:	2219      	movs	r2, #25
  2030ca:	f840 2c04 	str.w	r2, [r0, #-4]
  2030ce:	6802      	ldr	r2, [r0, #0]
  2030d0:	0752      	lsls	r2, r2, #29
  2030d2:	d409      	bmi.n	2030e8 <GLCD_Initialize+0x2a20>
  2030d4:	6802      	ldr	r2, [r0, #0]
  2030d6:	0752      	lsls	r2, r2, #29
  2030d8:	bf5c      	itt	pl
  2030da:	6802      	ldrpl	r2, [r0, #0]
  2030dc:	ea5f 7242 	movspl.w	r2, r2, lsl #29
  2030e0:	d402      	bmi.n	2030e8 <GLCD_Initialize+0x2a20>
  2030e2:	6802      	ldr	r2, [r0, #0]
  2030e4:	0752      	lsls	r2, r2, #29
  2030e6:	d5f2      	bpl.n	2030ce <GLCD_Initialize+0x2a06>
  2030e8:	f850 2c04 	ldr.w	r2, [r0, #-4]
  2030ec:	680a      	ldr	r2, [r1, #0]
  2030ee:	f042 0201 	orr.w	r2, r2, #1
  2030f2:	600a      	str	r2, [r1, #0]
  2030f4:	680a      	ldr	r2, [r1, #0]
  2030f6:	f022 0201 	bic.w	r2, r2, #1
  2030fa:	600a      	str	r2, [r1, #0]
  2030fc:	2272      	movs	r2, #114	; 0x72
  2030fe:	f840 2c04 	str.w	r2, [r0, #-4]
  203102:	6802      	ldr	r2, [r0, #0]
  203104:	0752      	lsls	r2, r2, #29
  203106:	d409      	bmi.n	20311c <GLCD_Initialize+0x2a54>
  203108:	6802      	ldr	r2, [r0, #0]
  20310a:	0752      	lsls	r2, r2, #29
  20310c:	bf5c      	itt	pl
  20310e:	6802      	ldrpl	r2, [r0, #0]
  203110:	ea5f 7242 	movspl.w	r2, r2, lsl #29
  203114:	d402      	bmi.n	20311c <GLCD_Initialize+0x2a54>
  203116:	6802      	ldr	r2, [r0, #0]
  203118:	0752      	lsls	r2, r2, #29
  20311a:	d5f2      	bpl.n	203102 <GLCD_Initialize+0x2a3a>
  20311c:	f850 2c04 	ldr.w	r2, [r0, #-4]
  203120:	2200      	movs	r2, #0
  203122:	f840 2c04 	str.w	r2, [r0, #-4]
  203126:	6802      	ldr	r2, [r0, #0]
  203128:	0752      	lsls	r2, r2, #29
  20312a:	d409      	bmi.n	203140 <GLCD_Initialize+0x2a78>
  20312c:	6802      	ldr	r2, [r0, #0]
  20312e:	0752      	lsls	r2, r2, #29
  203130:	bf5c      	itt	pl
  203132:	6802      	ldrpl	r2, [r0, #0]
  203134:	ea5f 7242 	movspl.w	r2, r2, lsl #29
  203138:	d402      	bmi.n	203140 <GLCD_Initialize+0x2a78>
  20313a:	6802      	ldr	r2, [r0, #0]
  20313c:	0752      	lsls	r2, r2, #29
  20313e:	d5f2      	bpl.n	203126 <GLCD_Initialize+0x2a5e>
  203140:	f850 2c04 	ldr.w	r2, [r0, #-4]
  203144:	2201      	movs	r2, #1
  203146:	f840 2c04 	str.w	r2, [r0, #-4]
  20314a:	6802      	ldr	r2, [r0, #0]
  20314c:	0752      	lsls	r2, r2, #29
  20314e:	d409      	bmi.n	203164 <GLCD_Initialize+0x2a9c>
  203150:	6802      	ldr	r2, [r0, #0]
  203152:	0752      	lsls	r2, r2, #29
  203154:	bf5c      	itt	pl
  203156:	6802      	ldrpl	r2, [r0, #0]
  203158:	ea5f 7242 	movspl.w	r2, r2, lsl #29
  20315c:	d402      	bmi.n	203164 <GLCD_Initialize+0x2a9c>
  20315e:	6802      	ldr	r2, [r0, #0]
  203160:	0752      	lsls	r2, r2, #29
  203162:	d5f2      	bpl.n	20314a <GLCD_Initialize+0x2a82>
  203164:	f850 2c04 	ldr.w	r2, [r0, #-4]
  203168:	680a      	ldr	r2, [r1, #0]
  20316a:	f042 0201 	orr.w	r2, r2, #1
  20316e:	600a      	str	r2, [r1, #0]
  203170:	680a      	ldr	r2, [r1, #0]
  203172:	f022 0201 	bic.w	r2, r2, #1
  203176:	600a      	str	r2, [r1, #0]
  203178:	2270      	movs	r2, #112	; 0x70
  20317a:	f840 2c04 	str.w	r2, [r0, #-4]
  20317e:	6802      	ldr	r2, [r0, #0]
  203180:	0752      	lsls	r2, r2, #29
  203182:	d409      	bmi.n	203198 <GLCD_Initialize+0x2ad0>
  203184:	6802      	ldr	r2, [r0, #0]
  203186:	0752      	lsls	r2, r2, #29
  203188:	bf5c      	itt	pl
  20318a:	6802      	ldrpl	r2, [r0, #0]
  20318c:	ea5f 7242 	movspl.w	r2, r2, lsl #29
  203190:	d402      	bmi.n	203198 <GLCD_Initialize+0x2ad0>
  203192:	6802      	ldr	r2, [r0, #0]
  203194:	0752      	lsls	r2, r2, #29
  203196:	d5f2      	bpl.n	20317e <GLCD_Initialize+0x2ab6>
  203198:	f850 2c04 	ldr.w	r2, [r0, #-4]
  20319c:	2200      	movs	r2, #0
  20319e:	f840 2c04 	str.w	r2, [r0, #-4]
  2031a2:	6802      	ldr	r2, [r0, #0]
  2031a4:	0752      	lsls	r2, r2, #29
  2031a6:	d409      	bmi.n	2031bc <GLCD_Initialize+0x2af4>
  2031a8:	6802      	ldr	r2, [r0, #0]
  2031aa:	0752      	lsls	r2, r2, #29
  2031ac:	bf5c      	itt	pl
  2031ae:	6802      	ldrpl	r2, [r0, #0]
  2031b0:	ea5f 7242 	movspl.w	r2, r2, lsl #29
  2031b4:	d402      	bmi.n	2031bc <GLCD_Initialize+0x2af4>
  2031b6:	6802      	ldr	r2, [r0, #0]
  2031b8:	0752      	lsls	r2, r2, #29
  2031ba:	d5f2      	bpl.n	2031a2 <GLCD_Initialize+0x2ada>
  2031bc:	f850 2c04 	ldr.w	r2, [r0, #-4]
  2031c0:	2201      	movs	r2, #1
  2031c2:	f840 2c04 	str.w	r2, [r0, #-4]
  2031c6:	6802      	ldr	r2, [r0, #0]
  2031c8:	0752      	lsls	r2, r2, #29
  2031ca:	d409      	bmi.n	2031e0 <GLCD_Initialize+0x2b18>
  2031cc:	6802      	ldr	r2, [r0, #0]
  2031ce:	0752      	lsls	r2, r2, #29
  2031d0:	bf5c      	itt	pl
  2031d2:	6802      	ldrpl	r2, [r0, #0]
  2031d4:	ea5f 7242 	movspl.w	r2, r2, lsl #29
  2031d8:	d402      	bmi.n	2031e0 <GLCD_Initialize+0x2b18>
  2031da:	6802      	ldr	r2, [r0, #0]
  2031dc:	0752      	lsls	r2, r2, #29
  2031de:	d5f2      	bpl.n	2031c6 <GLCD_Initialize+0x2afe>
  2031e0:	f850 2c04 	ldr.w	r2, [r0, #-4]
  2031e4:	680a      	ldr	r2, [r1, #0]
  2031e6:	f042 0201 	orr.w	r2, r2, #1
  2031ea:	600a      	str	r2, [r1, #0]
  2031ec:	680a      	ldr	r2, [r1, #0]
  2031ee:	f022 0201 	bic.w	r2, r2, #1
  2031f2:	600a      	str	r2, [r1, #0]
  2031f4:	2272      	movs	r2, #114	; 0x72
  2031f6:	f840 2c04 	str.w	r2, [r0, #-4]
  2031fa:	6802      	ldr	r2, [r0, #0]
  2031fc:	0752      	lsls	r2, r2, #29
  2031fe:	d409      	bmi.n	203214 <GLCD_Initialize+0x2b4c>
  203200:	6802      	ldr	r2, [r0, #0]
  203202:	0752      	lsls	r2, r2, #29
  203204:	bf5c      	itt	pl
  203206:	6802      	ldrpl	r2, [r0, #0]
  203208:	ea5f 7242 	movspl.w	r2, r2, lsl #29
  20320c:	d402      	bmi.n	203214 <GLCD_Initialize+0x2b4c>
  20320e:	6802      	ldr	r2, [r0, #0]
  203210:	0752      	lsls	r2, r2, #29
  203212:	d5f2      	bpl.n	2031fa <GLCD_Initialize+0x2b32>
  203214:	f850 2c04 	ldr.w	r2, [r0, #-4]
  203218:	2200      	movs	r2, #0
  20321a:	f840 2c04 	str.w	r2, [r0, #-4]
  20321e:	6802      	ldr	r2, [r0, #0]
  203220:	0752      	lsls	r2, r2, #29
  203222:	d409      	bmi.n	203238 <GLCD_Initialize+0x2b70>
  203224:	6802      	ldr	r2, [r0, #0]
  203226:	0752      	lsls	r2, r2, #29
  203228:	bf5c      	itt	pl
  20322a:	6802      	ldrpl	r2, [r0, #0]
  20322c:	ea5f 7242 	movspl.w	r2, r2, lsl #29
  203230:	d402      	bmi.n	203238 <GLCD_Initialize+0x2b70>
  203232:	6802      	ldr	r2, [r0, #0]
  203234:	0752      	lsls	r2, r2, #29
  203236:	d5f2      	bpl.n	20321e <GLCD_Initialize+0x2b56>
  203238:	f850 2c04 	ldr.w	r2, [r0, #-4]
  20323c:	2200      	movs	r2, #0
  20323e:	f840 2c04 	str.w	r2, [r0, #-4]
  203242:	6802      	ldr	r2, [r0, #0]
  203244:	0752      	lsls	r2, r2, #29
  203246:	d409      	bmi.n	20325c <GLCD_Initialize+0x2b94>
  203248:	6802      	ldr	r2, [r0, #0]
  20324a:	0752      	lsls	r2, r2, #29
  20324c:	bf5c      	itt	pl
  20324e:	6802      	ldrpl	r2, [r0, #0]
  203250:	ea5f 7242 	movspl.w	r2, r2, lsl #29
  203254:	d402      	bmi.n	20325c <GLCD_Initialize+0x2b94>
  203256:	6802      	ldr	r2, [r0, #0]
  203258:	0752      	lsls	r2, r2, #29
  20325a:	d5f2      	bpl.n	203242 <GLCD_Initialize+0x2b7a>
  20325c:	f850 2c04 	ldr.w	r2, [r0, #-4]
  203260:	680a      	ldr	r2, [r1, #0]
  203262:	f042 0201 	orr.w	r2, r2, #1
  203266:	600a      	str	r2, [r1, #0]
  203268:	680a      	ldr	r2, [r1, #0]
  20326a:	f022 0201 	bic.w	r2, r2, #1
  20326e:	600a      	str	r2, [r1, #0]
  203270:	2270      	movs	r2, #112	; 0x70
  203272:	f840 2c04 	str.w	r2, [r0, #-4]
  203276:	6802      	ldr	r2, [r0, #0]
  203278:	0752      	lsls	r2, r2, #29
  20327a:	d409      	bmi.n	203290 <GLCD_Initialize+0x2bc8>
  20327c:	6802      	ldr	r2, [r0, #0]
  20327e:	0752      	lsls	r2, r2, #29
  203280:	bf5c      	itt	pl
  203282:	6802      	ldrpl	r2, [r0, #0]
  203284:	ea5f 7242 	movspl.w	r2, r2, lsl #29
  203288:	d402      	bmi.n	203290 <GLCD_Initialize+0x2bc8>
  20328a:	6802      	ldr	r2, [r0, #0]
  20328c:	0752      	lsls	r2, r2, #29
  20328e:	d5f2      	bpl.n	203276 <GLCD_Initialize+0x2bae>
  203290:	f850 2c04 	ldr.w	r2, [r0, #-4]
  203294:	2200      	movs	r2, #0
  203296:	f840 2c04 	str.w	r2, [r0, #-4]
  20329a:	6802      	ldr	r2, [r0, #0]
  20329c:	0752      	lsls	r2, r2, #29
  20329e:	d409      	bmi.n	2032b4 <GLCD_Initialize+0x2bec>
  2032a0:	6802      	ldr	r2, [r0, #0]
  2032a2:	0752      	lsls	r2, r2, #29
  2032a4:	bf5c      	itt	pl
  2032a6:	6802      	ldrpl	r2, [r0, #0]
  2032a8:	ea5f 7242 	movspl.w	r2, r2, lsl #29
  2032ac:	d402      	bmi.n	2032b4 <GLCD_Initialize+0x2bec>
  2032ae:	6802      	ldr	r2, [r0, #0]
  2032b0:	0752      	lsls	r2, r2, #29
  2032b2:	d5f2      	bpl.n	20329a <GLCD_Initialize+0x2bd2>
  2032b4:	f850 2c04 	ldr.w	r2, [r0, #-4]
  2032b8:	221f      	movs	r2, #31
  2032ba:	f840 2c04 	str.w	r2, [r0, #-4]
  2032be:	6802      	ldr	r2, [r0, #0]
  2032c0:	0752      	lsls	r2, r2, #29
  2032c2:	d409      	bmi.n	2032d8 <GLCD_Initialize+0x2c10>
  2032c4:	6802      	ldr	r2, [r0, #0]
  2032c6:	0752      	lsls	r2, r2, #29
  2032c8:	bf5c      	itt	pl
  2032ca:	6802      	ldrpl	r2, [r0, #0]
  2032cc:	ea5f 7242 	movspl.w	r2, r2, lsl #29
  2032d0:	d402      	bmi.n	2032d8 <GLCD_Initialize+0x2c10>
  2032d2:	6802      	ldr	r2, [r0, #0]
  2032d4:	0752      	lsls	r2, r2, #29
  2032d6:	d5f2      	bpl.n	2032be <GLCD_Initialize+0x2bf6>
  2032d8:	f850 2c04 	ldr.w	r2, [r0, #-4]
  2032dc:	680a      	ldr	r2, [r1, #0]
  2032de:	f042 0201 	orr.w	r2, r2, #1
  2032e2:	600a      	str	r2, [r1, #0]
  2032e4:	680a      	ldr	r2, [r1, #0]
  2032e6:	f022 0201 	bic.w	r2, r2, #1
  2032ea:	600a      	str	r2, [r1, #0]
  2032ec:	2272      	movs	r2, #114	; 0x72
  2032ee:	f840 2c04 	str.w	r2, [r0, #-4]
  2032f2:	6802      	ldr	r2, [r0, #0]
  2032f4:	0752      	lsls	r2, r2, #29
  2032f6:	d409      	bmi.n	20330c <GLCD_Initialize+0x2c44>
  2032f8:	6802      	ldr	r2, [r0, #0]
  2032fa:	0752      	lsls	r2, r2, #29
  2032fc:	bf5c      	itt	pl
  2032fe:	6802      	ldrpl	r2, [r0, #0]
  203300:	ea5f 7242 	movspl.w	r2, r2, lsl #29
  203304:	d402      	bmi.n	20330c <GLCD_Initialize+0x2c44>
  203306:	6802      	ldr	r2, [r0, #0]
  203308:	0752      	lsls	r2, r2, #29
  20330a:	d5f2      	bpl.n	2032f2 <GLCD_Initialize+0x2c2a>
  20330c:	f850 2c04 	ldr.w	r2, [r0, #-4]
  203310:	2200      	movs	r2, #0
  203312:	f840 2c04 	str.w	r2, [r0, #-4]
  203316:	6802      	ldr	r2, [r0, #0]
  203318:	0752      	lsls	r2, r2, #29
  20331a:	d409      	bmi.n	203330 <GLCD_Initialize+0x2c68>
  20331c:	6802      	ldr	r2, [r0, #0]
  20331e:	0752      	lsls	r2, r2, #29
  203320:	bf5c      	itt	pl
  203322:	6802      	ldrpl	r2, [r0, #0]
  203324:	ea5f 7242 	movspl.w	r2, r2, lsl #29
  203328:	d402      	bmi.n	203330 <GLCD_Initialize+0x2c68>
  20332a:	6802      	ldr	r2, [r0, #0]
  20332c:	0752      	lsls	r2, r2, #29
  20332e:	d5f2      	bpl.n	203316 <GLCD_Initialize+0x2c4e>
  203330:	f850 2c04 	ldr.w	r2, [r0, #-4]
  203334:	2288      	movs	r2, #136	; 0x88
  203336:	f840 2c04 	str.w	r2, [r0, #-4]
  20333a:	6802      	ldr	r2, [r0, #0]
  20333c:	0752      	lsls	r2, r2, #29
  20333e:	d409      	bmi.n	203354 <GLCD_Initialize+0x2c8c>
  203340:	6802      	ldr	r2, [r0, #0]
  203342:	0752      	lsls	r2, r2, #29
  203344:	bf5c      	itt	pl
  203346:	6802      	ldrpl	r2, [r0, #0]
  203348:	ea5f 7242 	movspl.w	r2, r2, lsl #29
  20334c:	d402      	bmi.n	203354 <GLCD_Initialize+0x2c8c>
  20334e:	6802      	ldr	r2, [r0, #0]
  203350:	0752      	lsls	r2, r2, #29
  203352:	d5f2      	bpl.n	20333a <GLCD_Initialize+0x2c72>
  203354:	f850 2c04 	ldr.w	r2, [r0, #-4]
  203358:	680a      	ldr	r2, [r1, #0]
  20335a:	f042 0201 	orr.w	r2, r2, #1
  20335e:	600a      	str	r2, [r1, #0]
  203360:	f64e 5230 	movw	r2, #60720	; 0xed30
  203364:	f6cf 72ec 	movt	r2, #65516	; 0xffec
  203368:	bf00      	nop
  20336a:	bf00      	nop
  20336c:	bf00      	nop
  20336e:	bf00      	nop
  203370:	bf00      	nop
  203372:	bf00      	nop
  203374:	bf00      	nop
  203376:	bf00      	nop
  203378:	bf00      	nop
  20337a:	bf00      	nop
  20337c:	bf00      	nop
  20337e:	bf00      	nop
  203380:	bf00      	nop
  203382:	bf00      	nop
  203384:	bf00      	nop
  203386:	bf00      	nop
  203388:	bf00      	nop
  20338a:	bf00      	nop
  20338c:	bf00      	nop
  20338e:	bf00      	nop
  203390:	bf00      	nop
  203392:	bf00      	nop
  203394:	bf00      	nop
  203396:	bf00      	nop
  203398:	bf00      	nop
  20339a:	bf00      	nop
  20339c:	bf00      	nop
  20339e:	bf00      	nop
  2033a0:	bf00      	nop
  2033a2:	bf00      	nop
  2033a4:	bf00      	nop
  2033a6:	bf00      	nop
  2033a8:	bf00      	nop
  2033aa:	bf00      	nop
  2033ac:	bf00      	nop
  2033ae:	bf00      	nop
  2033b0:	bf00      	nop
  2033b2:	bf00      	nop
  2033b4:	bf00      	nop
  2033b6:	bf00      	nop
  2033b8:	bf00      	nop
  2033ba:	bf00      	nop
  2033bc:	bf00      	nop
  2033be:	bf00      	nop
  2033c0:	bf00      	nop
  2033c2:	bf00      	nop
  2033c4:	bf00      	nop
  2033c6:	bf00      	nop
  2033c8:	bf00      	nop
  2033ca:	bf00      	nop
  2033cc:	bf00      	nop
  2033ce:	bf00      	nop
  2033d0:	bf00      	nop
  2033d2:	bf00      	nop
  2033d4:	bf00      	nop
  2033d6:	bf00      	nop
  2033d8:	bf00      	nop
  2033da:	bf00      	nop
  2033dc:	bf00      	nop
  2033de:	bf00      	nop
  2033e0:	bf00      	nop
  2033e2:	bf00      	nop
  2033e4:	bf00      	nop
  2033e6:	bf00      	nop
  2033e8:	bf00      	nop
  2033ea:	bf00      	nop
  2033ec:	bf00      	nop
  2033ee:	bf00      	nop
  2033f0:	bf00      	nop
  2033f2:	bf00      	nop
  2033f4:	bf00      	nop
  2033f6:	bf00      	nop
  2033f8:	bf00      	nop
  2033fa:	bf00      	nop
  2033fc:	bf00      	nop
  2033fe:	bf00      	nop
  203400:	bf00      	nop
  203402:	bf00      	nop
  203404:	bf00      	nop
  203406:	bf00      	nop
  203408:	bf00      	nop
  20340a:	bf00      	nop
  20340c:	bf00      	nop
  20340e:	bf00      	nop
  203410:	bf00      	nop
  203412:	bf00      	nop
  203414:	bf00      	nop
  203416:	bf00      	nop
  203418:	bf00      	nop
  20341a:	bf00      	nop
  20341c:	bf00      	nop
  20341e:	bf00      	nop
  203420:	bf00      	nop
  203422:	bf00      	nop
  203424:	bf00      	nop
  203426:	bf00      	nop
  203428:	bf00      	nop
  20342a:	bf00      	nop
  20342c:	bf00      	nop
  20342e:	3264      	adds	r2, #100	; 0x64
  203430:	bf00      	nop
  203432:	d199      	bne.n	203368 <GLCD_Initialize+0x2ca0>
  203434:	680a      	ldr	r2, [r1, #0]
  203436:	f022 0201 	bic.w	r2, r2, #1
  20343a:	600a      	str	r2, [r1, #0]
  20343c:	2270      	movs	r2, #112	; 0x70
  20343e:	f840 2c04 	str.w	r2, [r0, #-4]
  203442:	6802      	ldr	r2, [r0, #0]
  203444:	0752      	lsls	r2, r2, #29
  203446:	d409      	bmi.n	20345c <GLCD_Initialize+0x2d94>
  203448:	6802      	ldr	r2, [r0, #0]
  20344a:	0752      	lsls	r2, r2, #29
  20344c:	bf5c      	itt	pl
  20344e:	6802      	ldrpl	r2, [r0, #0]
  203450:	ea5f 7242 	movspl.w	r2, r2, lsl #29
  203454:	d402      	bmi.n	20345c <GLCD_Initialize+0x2d94>
  203456:	6802      	ldr	r2, [r0, #0]
  203458:	0752      	lsls	r2, r2, #29
  20345a:	d5f2      	bpl.n	203442 <GLCD_Initialize+0x2d7a>
  20345c:	f850 2c04 	ldr.w	r2, [r0, #-4]
  203460:	2200      	movs	r2, #0
  203462:	f840 2c04 	str.w	r2, [r0, #-4]
  203466:	6802      	ldr	r2, [r0, #0]
  203468:	0752      	lsls	r2, r2, #29
  20346a:	d409      	bmi.n	203480 <GLCD_Initialize+0x2db8>
  20346c:	6802      	ldr	r2, [r0, #0]
  20346e:	0752      	lsls	r2, r2, #29
  203470:	bf5c      	itt	pl
  203472:	6802      	ldrpl	r2, [r0, #0]
  203474:	ea5f 7242 	movspl.w	r2, r2, lsl #29
  203478:	d402      	bmi.n	203480 <GLCD_Initialize+0x2db8>
  20347a:	6802      	ldr	r2, [r0, #0]
  20347c:	0752      	lsls	r2, r2, #29
  20347e:	d5f2      	bpl.n	203466 <GLCD_Initialize+0x2d9e>
  203480:	f850 2c04 	ldr.w	r2, [r0, #-4]
  203484:	221f      	movs	r2, #31
  203486:	f840 2c04 	str.w	r2, [r0, #-4]
  20348a:	6802      	ldr	r2, [r0, #0]
  20348c:	0752      	lsls	r2, r2, #29
  20348e:	d409      	bmi.n	2034a4 <GLCD_Initialize+0x2ddc>
  203490:	6802      	ldr	r2, [r0, #0]
  203492:	0752      	lsls	r2, r2, #29
  203494:	bf5c      	itt	pl
  203496:	6802      	ldrpl	r2, [r0, #0]
  203498:	ea5f 7242 	movspl.w	r2, r2, lsl #29
  20349c:	d402      	bmi.n	2034a4 <GLCD_Initialize+0x2ddc>
  20349e:	6802      	ldr	r2, [r0, #0]
  2034a0:	0752      	lsls	r2, r2, #29
  2034a2:	d5f2      	bpl.n	20348a <GLCD_Initialize+0x2dc2>
  2034a4:	f850 2c04 	ldr.w	r2, [r0, #-4]
  2034a8:	680a      	ldr	r2, [r1, #0]
  2034aa:	f042 0201 	orr.w	r2, r2, #1
  2034ae:	600a      	str	r2, [r1, #0]
  2034b0:	680a      	ldr	r2, [r1, #0]
  2034b2:	f022 0201 	bic.w	r2, r2, #1
  2034b6:	600a      	str	r2, [r1, #0]
  2034b8:	2272      	movs	r2, #114	; 0x72
  2034ba:	f840 2c04 	str.w	r2, [r0, #-4]
  2034be:	6802      	ldr	r2, [r0, #0]
  2034c0:	0752      	lsls	r2, r2, #29
  2034c2:	d409      	bmi.n	2034d8 <GLCD_Initialize+0x2e10>
  2034c4:	6802      	ldr	r2, [r0, #0]
  2034c6:	0752      	lsls	r2, r2, #29
  2034c8:	bf5c      	itt	pl
  2034ca:	6802      	ldrpl	r2, [r0, #0]
  2034cc:	ea5f 7242 	movspl.w	r2, r2, lsl #29
  2034d0:	d402      	bmi.n	2034d8 <GLCD_Initialize+0x2e10>
  2034d2:	6802      	ldr	r2, [r0, #0]
  2034d4:	0752      	lsls	r2, r2, #29
  2034d6:	d5f2      	bpl.n	2034be <GLCD_Initialize+0x2df6>
  2034d8:	f850 2c04 	ldr.w	r2, [r0, #-4]
  2034dc:	2200      	movs	r2, #0
  2034de:	f840 2c04 	str.w	r2, [r0, #-4]
  2034e2:	6802      	ldr	r2, [r0, #0]
  2034e4:	0752      	lsls	r2, r2, #29
  2034e6:	d409      	bmi.n	2034fc <GLCD_Initialize+0x2e34>
  2034e8:	6802      	ldr	r2, [r0, #0]
  2034ea:	0752      	lsls	r2, r2, #29
  2034ec:	bf5c      	itt	pl
  2034ee:	6802      	ldrpl	r2, [r0, #0]
  2034f0:	ea5f 7242 	movspl.w	r2, r2, lsl #29
  2034f4:	d402      	bmi.n	2034fc <GLCD_Initialize+0x2e34>
  2034f6:	6802      	ldr	r2, [r0, #0]
  2034f8:	0752      	lsls	r2, r2, #29
  2034fa:	d5f2      	bpl.n	2034e2 <GLCD_Initialize+0x2e1a>
  2034fc:	f850 2c04 	ldr.w	r2, [r0, #-4]
  203500:	2282      	movs	r2, #130	; 0x82
  203502:	f840 2c04 	str.w	r2, [r0, #-4]
  203506:	6802      	ldr	r2, [r0, #0]
  203508:	0752      	lsls	r2, r2, #29
  20350a:	d409      	bmi.n	203520 <GLCD_Initialize+0x2e58>
  20350c:	6802      	ldr	r2, [r0, #0]
  20350e:	0752      	lsls	r2, r2, #29
  203510:	bf5c      	itt	pl
  203512:	6802      	ldrpl	r2, [r0, #0]
  203514:	ea5f 7242 	movspl.w	r2, r2, lsl #29
  203518:	d402      	bmi.n	203520 <GLCD_Initialize+0x2e58>
  20351a:	6802      	ldr	r2, [r0, #0]
  20351c:	0752      	lsls	r2, r2, #29
  20351e:	d5f2      	bpl.n	203506 <GLCD_Initialize+0x2e3e>
  203520:	f850 2c04 	ldr.w	r2, [r0, #-4]
  203524:	680a      	ldr	r2, [r1, #0]
  203526:	f042 0301 	orr.w	r3, r2, #1
  20352a:	f642 7270 	movw	r2, #12144	; 0x2f70
  20352e:	f6cf 72fc 	movt	r2, #65532	; 0xfffc
  203532:	600b      	str	r3, [r1, #0]
  203534:	4613      	mov	r3, r2
  203536:	bf00      	nop
  203538:	bf00      	nop
  20353a:	bf00      	nop
  20353c:	bf00      	nop
  20353e:	bf00      	nop
  203540:	bf00      	nop
  203542:	bf00      	nop
  203544:	bf00      	nop
  203546:	bf00      	nop
  203548:	bf00      	nop
  20354a:	bf00      	nop
  20354c:	bf00      	nop
  20354e:	bf00      	nop
  203550:	bf00      	nop
  203552:	bf00      	nop
  203554:	bf00      	nop
  203556:	bf00      	nop
  203558:	bf00      	nop
  20355a:	bf00      	nop
  20355c:	bf00      	nop
  20355e:	bf00      	nop
  203560:	bf00      	nop
  203562:	bf00      	nop
  203564:	bf00      	nop
  203566:	bf00      	nop
  203568:	bf00      	nop
  20356a:	bf00      	nop
  20356c:	bf00      	nop
  20356e:	bf00      	nop
  203570:	bf00      	nop
  203572:	bf00      	nop
  203574:	bf00      	nop
  203576:	bf00      	nop
  203578:	bf00      	nop
  20357a:	bf00      	nop
  20357c:	bf00      	nop
  20357e:	bf00      	nop
  203580:	bf00      	nop
  203582:	bf00      	nop
  203584:	bf00      	nop
  203586:	bf00      	nop
  203588:	bf00      	nop
  20358a:	bf00      	nop
  20358c:	bf00      	nop
  20358e:	bf00      	nop
  203590:	bf00      	nop
  203592:	bf00      	nop
  203594:	bf00      	nop
  203596:	bf00      	nop
  203598:	bf00      	nop
  20359a:	bf00      	nop
  20359c:	bf00      	nop
  20359e:	bf00      	nop
  2035a0:	bf00      	nop
  2035a2:	bf00      	nop
  2035a4:	bf00      	nop
  2035a6:	bf00      	nop
  2035a8:	bf00      	nop
  2035aa:	bf00      	nop
  2035ac:	bf00      	nop
  2035ae:	bf00      	nop
  2035b0:	bf00      	nop
  2035b2:	bf00      	nop
  2035b4:	bf00      	nop
  2035b6:	bf00      	nop
  2035b8:	bf00      	nop
  2035ba:	bf00      	nop
  2035bc:	bf00      	nop
  2035be:	bf00      	nop
  2035c0:	bf00      	nop
  2035c2:	bf00      	nop
  2035c4:	bf00      	nop
  2035c6:	bf00      	nop
  2035c8:	bf00      	nop
  2035ca:	bf00      	nop
  2035cc:	bf00      	nop
  2035ce:	bf00      	nop
  2035d0:	bf00      	nop
  2035d2:	bf00      	nop
  2035d4:	bf00      	nop
  2035d6:	bf00      	nop
  2035d8:	bf00      	nop
  2035da:	bf00      	nop
  2035dc:	bf00      	nop
  2035de:	bf00      	nop
  2035e0:	bf00      	nop
  2035e2:	bf00      	nop
  2035e4:	bf00      	nop
  2035e6:	bf00      	nop
  2035e8:	bf00      	nop
  2035ea:	bf00      	nop
  2035ec:	bf00      	nop
  2035ee:	bf00      	nop
  2035f0:	bf00      	nop
  2035f2:	bf00      	nop
  2035f4:	bf00      	nop
  2035f6:	bf00      	nop
  2035f8:	bf00      	nop
  2035fa:	bf00      	nop
  2035fc:	bf00      	nop
  2035fe:	3364      	adds	r3, #100	; 0x64
  203600:	bf00      	nop
  203602:	d199      	bne.n	203538 <GLCD_Initialize+0x2e70>
  203604:	680b      	ldr	r3, [r1, #0]
  203606:	f023 0301 	bic.w	r3, r3, #1
  20360a:	600b      	str	r3, [r1, #0]
  20360c:	2370      	movs	r3, #112	; 0x70
  20360e:	f840 3c04 	str.w	r3, [r0, #-4]
  203612:	6803      	ldr	r3, [r0, #0]
  203614:	075b      	lsls	r3, r3, #29
  203616:	d409      	bmi.n	20362c <GLCD_Initialize+0x2f64>
  203618:	6803      	ldr	r3, [r0, #0]
  20361a:	075b      	lsls	r3, r3, #29
  20361c:	bf5c      	itt	pl
  20361e:	6803      	ldrpl	r3, [r0, #0]
  203620:	ea5f 7343 	movspl.w	r3, r3, lsl #29
  203624:	d402      	bmi.n	20362c <GLCD_Initialize+0x2f64>
  203626:	6803      	ldr	r3, [r0, #0]
  203628:	075b      	lsls	r3, r3, #29
  20362a:	d5f2      	bpl.n	203612 <GLCD_Initialize+0x2f4a>
  20362c:	f850 3c04 	ldr.w	r3, [r0, #-4]
  203630:	2300      	movs	r3, #0
  203632:	f840 3c04 	str.w	r3, [r0, #-4]
  203636:	6803      	ldr	r3, [r0, #0]
  203638:	075b      	lsls	r3, r3, #29
  20363a:	d409      	bmi.n	203650 <GLCD_Initialize+0x2f88>
  20363c:	6803      	ldr	r3, [r0, #0]
  20363e:	075b      	lsls	r3, r3, #29
  203640:	bf5c      	itt	pl
  203642:	6803      	ldrpl	r3, [r0, #0]
  203644:	ea5f 7343 	movspl.w	r3, r3, lsl #29
  203648:	d402      	bmi.n	203650 <GLCD_Initialize+0x2f88>
  20364a:	6803      	ldr	r3, [r0, #0]
  20364c:	075b      	lsls	r3, r3, #29
  20364e:	d5f2      	bpl.n	203636 <GLCD_Initialize+0x2f6e>
  203650:	f850 3c04 	ldr.w	r3, [r0, #-4]
  203654:	231f      	movs	r3, #31
  203656:	f840 3c04 	str.w	r3, [r0, #-4]
  20365a:	6803      	ldr	r3, [r0, #0]
  20365c:	075b      	lsls	r3, r3, #29
  20365e:	d409      	bmi.n	203674 <GLCD_Initialize+0x2fac>
  203660:	6803      	ldr	r3, [r0, #0]
  203662:	075b      	lsls	r3, r3, #29
  203664:	bf5c      	itt	pl
  203666:	6803      	ldrpl	r3, [r0, #0]
  203668:	ea5f 7343 	movspl.w	r3, r3, lsl #29
  20366c:	d402      	bmi.n	203674 <GLCD_Initialize+0x2fac>
  20366e:	6803      	ldr	r3, [r0, #0]
  203670:	075b      	lsls	r3, r3, #29
  203672:	d5f2      	bpl.n	20365a <GLCD_Initialize+0x2f92>
  203674:	f850 3c04 	ldr.w	r3, [r0, #-4]
  203678:	680b      	ldr	r3, [r1, #0]
  20367a:	f043 0301 	orr.w	r3, r3, #1
  20367e:	600b      	str	r3, [r1, #0]
  203680:	680b      	ldr	r3, [r1, #0]
  203682:	f023 0301 	bic.w	r3, r3, #1
  203686:	600b      	str	r3, [r1, #0]
  203688:	2372      	movs	r3, #114	; 0x72
  20368a:	f840 3c04 	str.w	r3, [r0, #-4]
  20368e:	6803      	ldr	r3, [r0, #0]
  203690:	075b      	lsls	r3, r3, #29
  203692:	d409      	bmi.n	2036a8 <GLCD_Initialize+0x2fe0>
  203694:	6803      	ldr	r3, [r0, #0]
  203696:	075b      	lsls	r3, r3, #29
  203698:	bf5c      	itt	pl
  20369a:	6803      	ldrpl	r3, [r0, #0]
  20369c:	ea5f 7343 	movspl.w	r3, r3, lsl #29
  2036a0:	d402      	bmi.n	2036a8 <GLCD_Initialize+0x2fe0>
  2036a2:	6803      	ldr	r3, [r0, #0]
  2036a4:	075b      	lsls	r3, r3, #29
  2036a6:	d5f2      	bpl.n	20368e <GLCD_Initialize+0x2fc6>
  2036a8:	f850 3c04 	ldr.w	r3, [r0, #-4]
  2036ac:	2300      	movs	r3, #0
  2036ae:	f840 3c04 	str.w	r3, [r0, #-4]
  2036b2:	6803      	ldr	r3, [r0, #0]
  2036b4:	075b      	lsls	r3, r3, #29
  2036b6:	d409      	bmi.n	2036cc <GLCD_Initialize+0x3004>
  2036b8:	6803      	ldr	r3, [r0, #0]
  2036ba:	075b      	lsls	r3, r3, #29
  2036bc:	bf5c      	itt	pl
  2036be:	6803      	ldrpl	r3, [r0, #0]
  2036c0:	ea5f 7343 	movspl.w	r3, r3, lsl #29
  2036c4:	d402      	bmi.n	2036cc <GLCD_Initialize+0x3004>
  2036c6:	6803      	ldr	r3, [r0, #0]
  2036c8:	075b      	lsls	r3, r3, #29
  2036ca:	d5f2      	bpl.n	2036b2 <GLCD_Initialize+0x2fea>
  2036cc:	f850 3c04 	ldr.w	r3, [r0, #-4]
  2036d0:	2392      	movs	r3, #146	; 0x92
  2036d2:	f840 3c04 	str.w	r3, [r0, #-4]
  2036d6:	6803      	ldr	r3, [r0, #0]
  2036d8:	075b      	lsls	r3, r3, #29
  2036da:	d409      	bmi.n	2036f0 <GLCD_Initialize+0x3028>
  2036dc:	6803      	ldr	r3, [r0, #0]
  2036de:	075b      	lsls	r3, r3, #29
  2036e0:	bf5c      	itt	pl
  2036e2:	6803      	ldrpl	r3, [r0, #0]
  2036e4:	ea5f 7343 	movspl.w	r3, r3, lsl #29
  2036e8:	d402      	bmi.n	2036f0 <GLCD_Initialize+0x3028>
  2036ea:	6803      	ldr	r3, [r0, #0]
  2036ec:	075b      	lsls	r3, r3, #29
  2036ee:	d5f2      	bpl.n	2036d6 <GLCD_Initialize+0x300e>
  2036f0:	f850 3c04 	ldr.w	r3, [r0, #-4]
  2036f4:	680b      	ldr	r3, [r1, #0]
  2036f6:	f043 0301 	orr.w	r3, r3, #1
  2036fa:	600b      	str	r3, [r1, #0]
  2036fc:	4613      	mov	r3, r2
  2036fe:	bf00      	nop
  203700:	bf00      	nop
  203702:	bf00      	nop
  203704:	bf00      	nop
  203706:	bf00      	nop
  203708:	bf00      	nop
  20370a:	bf00      	nop
  20370c:	bf00      	nop
  20370e:	bf00      	nop
  203710:	bf00      	nop
  203712:	bf00      	nop
  203714:	bf00      	nop
  203716:	bf00      	nop
  203718:	bf00      	nop
  20371a:	bf00      	nop
  20371c:	bf00      	nop
  20371e:	bf00      	nop
  203720:	bf00      	nop
  203722:	bf00      	nop
  203724:	bf00      	nop
  203726:	bf00      	nop
  203728:	bf00      	nop
  20372a:	bf00      	nop
  20372c:	bf00      	nop
  20372e:	bf00      	nop
  203730:	bf00      	nop
  203732:	bf00      	nop
  203734:	bf00      	nop
  203736:	bf00      	nop
  203738:	bf00      	nop
  20373a:	bf00      	nop
  20373c:	bf00      	nop
  20373e:	bf00      	nop
  203740:	bf00      	nop
  203742:	bf00      	nop
  203744:	bf00      	nop
  203746:	bf00      	nop
  203748:	bf00      	nop
  20374a:	bf00      	nop
  20374c:	bf00      	nop
  20374e:	bf00      	nop
  203750:	bf00      	nop
  203752:	bf00      	nop
  203754:	bf00      	nop
  203756:	bf00      	nop
  203758:	bf00      	nop
  20375a:	bf00      	nop
  20375c:	bf00      	nop
  20375e:	bf00      	nop
  203760:	bf00      	nop
  203762:	bf00      	nop
  203764:	bf00      	nop
  203766:	bf00      	nop
  203768:	bf00      	nop
  20376a:	bf00      	nop
  20376c:	bf00      	nop
  20376e:	bf00      	nop
  203770:	bf00      	nop
  203772:	bf00      	nop
  203774:	bf00      	nop
  203776:	bf00      	nop
  203778:	bf00      	nop
  20377a:	bf00      	nop
  20377c:	bf00      	nop
  20377e:	bf00      	nop
  203780:	bf00      	nop
  203782:	bf00      	nop
  203784:	bf00      	nop
  203786:	bf00      	nop
  203788:	bf00      	nop
  20378a:	bf00      	nop
  20378c:	bf00      	nop
  20378e:	bf00      	nop
  203790:	bf00      	nop
  203792:	bf00      	nop
  203794:	bf00      	nop
  203796:	bf00      	nop
  203798:	bf00      	nop
  20379a:	bf00      	nop
  20379c:	bf00      	nop
  20379e:	bf00      	nop
  2037a0:	bf00      	nop
  2037a2:	bf00      	nop
  2037a4:	bf00      	nop
  2037a6:	bf00      	nop
  2037a8:	bf00      	nop
  2037aa:	bf00      	nop
  2037ac:	bf00      	nop
  2037ae:	bf00      	nop
  2037b0:	bf00      	nop
  2037b2:	bf00      	nop
  2037b4:	bf00      	nop
  2037b6:	bf00      	nop
  2037b8:	bf00      	nop
  2037ba:	bf00      	nop
  2037bc:	bf00      	nop
  2037be:	bf00      	nop
  2037c0:	bf00      	nop
  2037c2:	bf00      	nop
  2037c4:	bf00      	nop
  2037c6:	3364      	adds	r3, #100	; 0x64
  2037c8:	bf00      	nop
  2037ca:	d199      	bne.n	203700 <GLCD_Initialize+0x3038>
  2037cc:	680b      	ldr	r3, [r1, #0]
  2037ce:	f023 0301 	bic.w	r3, r3, #1
  2037d2:	600b      	str	r3, [r1, #0]
  2037d4:	2370      	movs	r3, #112	; 0x70
  2037d6:	f840 3c04 	str.w	r3, [r0, #-4]
  2037da:	6803      	ldr	r3, [r0, #0]
  2037dc:	075b      	lsls	r3, r3, #29
  2037de:	d409      	bmi.n	2037f4 <GLCD_Initialize+0x312c>
  2037e0:	6803      	ldr	r3, [r0, #0]
  2037e2:	075b      	lsls	r3, r3, #29
  2037e4:	bf5c      	itt	pl
  2037e6:	6803      	ldrpl	r3, [r0, #0]
  2037e8:	ea5f 7343 	movspl.w	r3, r3, lsl #29
  2037ec:	d402      	bmi.n	2037f4 <GLCD_Initialize+0x312c>
  2037ee:	6803      	ldr	r3, [r0, #0]
  2037f0:	075b      	lsls	r3, r3, #29
  2037f2:	d5f2      	bpl.n	2037da <GLCD_Initialize+0x3112>
  2037f4:	f850 3c04 	ldr.w	r3, [r0, #-4]
  2037f8:	2300      	movs	r3, #0
  2037fa:	f840 3c04 	str.w	r3, [r0, #-4]
  2037fe:	6803      	ldr	r3, [r0, #0]
  203800:	075b      	lsls	r3, r3, #29
  203802:	d409      	bmi.n	203818 <GLCD_Initialize+0x3150>
  203804:	6803      	ldr	r3, [r0, #0]
  203806:	075b      	lsls	r3, r3, #29
  203808:	bf5c      	itt	pl
  20380a:	6803      	ldrpl	r3, [r0, #0]
  20380c:	ea5f 7343 	movspl.w	r3, r3, lsl #29
  203810:	d402      	bmi.n	203818 <GLCD_Initialize+0x3150>
  203812:	6803      	ldr	r3, [r0, #0]
  203814:	075b      	lsls	r3, r3, #29
  203816:	d5f2      	bpl.n	2037fe <GLCD_Initialize+0x3136>
  203818:	f850 3c04 	ldr.w	r3, [r0, #-4]
  20381c:	231f      	movs	r3, #31
  20381e:	f840 3c04 	str.w	r3, [r0, #-4]
  203822:	6803      	ldr	r3, [r0, #0]
  203824:	075b      	lsls	r3, r3, #29
  203826:	d409      	bmi.n	20383c <GLCD_Initialize+0x3174>
  203828:	6803      	ldr	r3, [r0, #0]
  20382a:	075b      	lsls	r3, r3, #29
  20382c:	bf5c      	itt	pl
  20382e:	6803      	ldrpl	r3, [r0, #0]
  203830:	ea5f 7343 	movspl.w	r3, r3, lsl #29
  203834:	d402      	bmi.n	20383c <GLCD_Initialize+0x3174>
  203836:	6803      	ldr	r3, [r0, #0]
  203838:	075b      	lsls	r3, r3, #29
  20383a:	d5f2      	bpl.n	203822 <GLCD_Initialize+0x315a>
  20383c:	f850 3c04 	ldr.w	r3, [r0, #-4]
  203840:	680b      	ldr	r3, [r1, #0]
  203842:	f043 0301 	orr.w	r3, r3, #1
  203846:	600b      	str	r3, [r1, #0]
  203848:	680b      	ldr	r3, [r1, #0]
  20384a:	f023 0301 	bic.w	r3, r3, #1
  20384e:	600b      	str	r3, [r1, #0]
  203850:	2372      	movs	r3, #114	; 0x72
  203852:	f840 3c04 	str.w	r3, [r0, #-4]
  203856:	6803      	ldr	r3, [r0, #0]
  203858:	075b      	lsls	r3, r3, #29
  20385a:	d409      	bmi.n	203870 <GLCD_Initialize+0x31a8>
  20385c:	6803      	ldr	r3, [r0, #0]
  20385e:	075b      	lsls	r3, r3, #29
  203860:	bf5c      	itt	pl
  203862:	6803      	ldrpl	r3, [r0, #0]
  203864:	ea5f 7343 	movspl.w	r3, r3, lsl #29
  203868:	d402      	bmi.n	203870 <GLCD_Initialize+0x31a8>
  20386a:	6803      	ldr	r3, [r0, #0]
  20386c:	075b      	lsls	r3, r3, #29
  20386e:	d5f2      	bpl.n	203856 <GLCD_Initialize+0x318e>
  203870:	f850 3c04 	ldr.w	r3, [r0, #-4]
  203874:	2300      	movs	r3, #0
  203876:	f840 3c04 	str.w	r3, [r0, #-4]
  20387a:	6803      	ldr	r3, [r0, #0]
  20387c:	075b      	lsls	r3, r3, #29
  20387e:	d409      	bmi.n	203894 <GLCD_Initialize+0x31cc>
  203880:	6803      	ldr	r3, [r0, #0]
  203882:	075b      	lsls	r3, r3, #29
  203884:	bf5c      	itt	pl
  203886:	6803      	ldrpl	r3, [r0, #0]
  203888:	ea5f 7343 	movspl.w	r3, r3, lsl #29
  20388c:	d402      	bmi.n	203894 <GLCD_Initialize+0x31cc>
  20388e:	6803      	ldr	r3, [r0, #0]
  203890:	075b      	lsls	r3, r3, #29
  203892:	d5f2      	bpl.n	20387a <GLCD_Initialize+0x31b2>
  203894:	f850 3c04 	ldr.w	r3, [r0, #-4]
  203898:	23d2      	movs	r3, #210	; 0xd2
  20389a:	f840 3c04 	str.w	r3, [r0, #-4]
  20389e:	6803      	ldr	r3, [r0, #0]
  2038a0:	075b      	lsls	r3, r3, #29
  2038a2:	d409      	bmi.n	2038b8 <GLCD_Initialize+0x31f0>
  2038a4:	6803      	ldr	r3, [r0, #0]
  2038a6:	075b      	lsls	r3, r3, #29
  2038a8:	bf5c      	itt	pl
  2038aa:	6803      	ldrpl	r3, [r0, #0]
  2038ac:	ea5f 7343 	movspl.w	r3, r3, lsl #29
  2038b0:	d402      	bmi.n	2038b8 <GLCD_Initialize+0x31f0>
  2038b2:	6803      	ldr	r3, [r0, #0]
  2038b4:	075b      	lsls	r3, r3, #29
  2038b6:	d5f2      	bpl.n	20389e <GLCD_Initialize+0x31d6>
  2038b8:	f850 3c04 	ldr.w	r3, [r0, #-4]
  2038bc:	680b      	ldr	r3, [r1, #0]
  2038be:	f043 0301 	orr.w	r3, r3, #1
  2038c2:	600b      	str	r3, [r1, #0]
  2038c4:	bf00      	nop
  2038c6:	bf00      	nop
  2038c8:	bf00      	nop
  2038ca:	bf00      	nop
  2038cc:	bf00      	nop
  2038ce:	bf00      	nop
  2038d0:	bf00      	nop
  2038d2:	bf00      	nop
  2038d4:	bf00      	nop
  2038d6:	bf00      	nop
  2038d8:	bf00      	nop
  2038da:	bf00      	nop
  2038dc:	bf00      	nop
  2038de:	bf00      	nop
  2038e0:	bf00      	nop
  2038e2:	bf00      	nop
  2038e4:	bf00      	nop
  2038e6:	bf00      	nop
  2038e8:	bf00      	nop
  2038ea:	bf00      	nop
  2038ec:	bf00      	nop
  2038ee:	bf00      	nop
  2038f0:	bf00      	nop
  2038f2:	bf00      	nop
  2038f4:	bf00      	nop
  2038f6:	bf00      	nop
  2038f8:	bf00      	nop
  2038fa:	bf00      	nop
  2038fc:	bf00      	nop
  2038fe:	bf00      	nop
  203900:	bf00      	nop
  203902:	bf00      	nop
  203904:	bf00      	nop
  203906:	bf00      	nop
  203908:	bf00      	nop
  20390a:	bf00      	nop
  20390c:	bf00      	nop
  20390e:	bf00      	nop
  203910:	bf00      	nop
  203912:	bf00      	nop
  203914:	bf00      	nop
  203916:	bf00      	nop
  203918:	bf00      	nop
  20391a:	bf00      	nop
  20391c:	bf00      	nop
  20391e:	bf00      	nop
  203920:	bf00      	nop
  203922:	bf00      	nop
  203924:	bf00      	nop
  203926:	bf00      	nop
  203928:	bf00      	nop
  20392a:	bf00      	nop
  20392c:	bf00      	nop
  20392e:	bf00      	nop
  203930:	bf00      	nop
  203932:	bf00      	nop
  203934:	bf00      	nop
  203936:	bf00      	nop
  203938:	bf00      	nop
  20393a:	bf00      	nop
  20393c:	bf00      	nop
  20393e:	bf00      	nop
  203940:	bf00      	nop
  203942:	bf00      	nop
  203944:	bf00      	nop
  203946:	bf00      	nop
  203948:	bf00      	nop
  20394a:	bf00      	nop
  20394c:	bf00      	nop
  20394e:	bf00      	nop
  203950:	bf00      	nop
  203952:	bf00      	nop
  203954:	bf00      	nop
  203956:	bf00      	nop
  203958:	bf00      	nop
  20395a:	bf00      	nop
  20395c:	bf00      	nop
  20395e:	bf00      	nop
  203960:	bf00      	nop
  203962:	bf00      	nop
  203964:	bf00      	nop
  203966:	bf00      	nop
  203968:	bf00      	nop
  20396a:	bf00      	nop
  20396c:	bf00      	nop
  20396e:	bf00      	nop
  203970:	bf00      	nop
  203972:	bf00      	nop
  203974:	bf00      	nop
  203976:	bf00      	nop
  203978:	bf00      	nop
  20397a:	bf00      	nop
  20397c:	bf00      	nop
  20397e:	bf00      	nop
  203980:	bf00      	nop
  203982:	bf00      	nop
  203984:	bf00      	nop
  203986:	bf00      	nop
  203988:	bf00      	nop
  20398a:	3264      	adds	r2, #100	; 0x64
  20398c:	bf00      	nop
  20398e:	d199      	bne.n	2038c4 <GLCD_Initialize+0x31fc>
  203990:	680a      	ldr	r2, [r1, #0]
  203992:	f022 0201 	bic.w	r2, r2, #1
  203996:	600a      	str	r2, [r1, #0]
  203998:	2270      	movs	r2, #112	; 0x70
  20399a:	f840 2c04 	str.w	r2, [r0, #-4]
  20399e:	6802      	ldr	r2, [r0, #0]
  2039a0:	0752      	lsls	r2, r2, #29
  2039a2:	d409      	bmi.n	2039b8 <GLCD_Initialize+0x32f0>
  2039a4:	6802      	ldr	r2, [r0, #0]
  2039a6:	0752      	lsls	r2, r2, #29
  2039a8:	bf5c      	itt	pl
  2039aa:	6802      	ldrpl	r2, [r0, #0]
  2039ac:	ea5f 7242 	movspl.w	r2, r2, lsl #29
  2039b0:	d402      	bmi.n	2039b8 <GLCD_Initialize+0x32f0>
  2039b2:	6802      	ldr	r2, [r0, #0]
  2039b4:	0752      	lsls	r2, r2, #29
  2039b6:	d5f2      	bpl.n	20399e <GLCD_Initialize+0x32d6>
  2039b8:	f850 2c04 	ldr.w	r2, [r0, #-4]
  2039bc:	2200      	movs	r2, #0
  2039be:	f840 2c04 	str.w	r2, [r0, #-4]
  2039c2:	6802      	ldr	r2, [r0, #0]
  2039c4:	0752      	lsls	r2, r2, #29
  2039c6:	d409      	bmi.n	2039dc <GLCD_Initialize+0x3314>
  2039c8:	6802      	ldr	r2, [r0, #0]
  2039ca:	0752      	lsls	r2, r2, #29
  2039cc:	bf5c      	itt	pl
  2039ce:	6802      	ldrpl	r2, [r0, #0]
  2039d0:	ea5f 7242 	movspl.w	r2, r2, lsl #29
  2039d4:	d402      	bmi.n	2039dc <GLCD_Initialize+0x3314>
  2039d6:	6802      	ldr	r2, [r0, #0]
  2039d8:	0752      	lsls	r2, r2, #29
  2039da:	d5f2      	bpl.n	2039c2 <GLCD_Initialize+0x32fa>
  2039dc:	f850 2c04 	ldr.w	r2, [r0, #-4]
  2039e0:	2217      	movs	r2, #23
  2039e2:	f840 2c04 	str.w	r2, [r0, #-4]
  2039e6:	6802      	ldr	r2, [r0, #0]
  2039e8:	0752      	lsls	r2, r2, #29
  2039ea:	d409      	bmi.n	203a00 <GLCD_Initialize+0x3338>
  2039ec:	6802      	ldr	r2, [r0, #0]
  2039ee:	0752      	lsls	r2, r2, #29
  2039f0:	bf5c      	itt	pl
  2039f2:	6802      	ldrpl	r2, [r0, #0]
  2039f4:	ea5f 7242 	movspl.w	r2, r2, lsl #29
  2039f8:	d402      	bmi.n	203a00 <GLCD_Initialize+0x3338>
  2039fa:	6802      	ldr	r2, [r0, #0]
  2039fc:	0752      	lsls	r2, r2, #29
  2039fe:	d5f2      	bpl.n	2039e6 <GLCD_Initialize+0x331e>
  203a00:	f850 2c04 	ldr.w	r2, [r0, #-4]
  203a04:	680a      	ldr	r2, [r1, #0]
  203a06:	f042 0201 	orr.w	r2, r2, #1
  203a0a:	600a      	str	r2, [r1, #0]
  203a0c:	680a      	ldr	r2, [r1, #0]
  203a0e:	f022 0201 	bic.w	r2, r2, #1
  203a12:	600a      	str	r2, [r1, #0]
  203a14:	2272      	movs	r2, #114	; 0x72
  203a16:	f840 2c04 	str.w	r2, [r0, #-4]
  203a1a:	6802      	ldr	r2, [r0, #0]
  203a1c:	0752      	lsls	r2, r2, #29
  203a1e:	d409      	bmi.n	203a34 <GLCD_Initialize+0x336c>
  203a20:	6802      	ldr	r2, [r0, #0]
  203a22:	0752      	lsls	r2, r2, #29
  203a24:	bf5c      	itt	pl
  203a26:	6802      	ldrpl	r2, [r0, #0]
  203a28:	ea5f 7242 	movspl.w	r2, r2, lsl #29
  203a2c:	d402      	bmi.n	203a34 <GLCD_Initialize+0x336c>
  203a2e:	6802      	ldr	r2, [r0, #0]
  203a30:	0752      	lsls	r2, r2, #29
  203a32:	d5f2      	bpl.n	203a1a <GLCD_Initialize+0x3352>
  203a34:	f850 2c04 	ldr.w	r2, [r0, #-4]
  203a38:	2200      	movs	r2, #0
  203a3a:	f840 2c04 	str.w	r2, [r0, #-4]
  203a3e:	6802      	ldr	r2, [r0, #0]
  203a40:	0752      	lsls	r2, r2, #29
  203a42:	d409      	bmi.n	203a58 <GLCD_Initialize+0x3390>
  203a44:	6802      	ldr	r2, [r0, #0]
  203a46:	0752      	lsls	r2, r2, #29
  203a48:	bf5c      	itt	pl
  203a4a:	6802      	ldrpl	r2, [r0, #0]
  203a4c:	ea5f 7242 	movspl.w	r2, r2, lsl #29
  203a50:	d402      	bmi.n	203a58 <GLCD_Initialize+0x3390>
  203a52:	6802      	ldr	r2, [r0, #0]
  203a54:	0752      	lsls	r2, r2, #29
  203a56:	d5f2      	bpl.n	203a3e <GLCD_Initialize+0x3376>
  203a58:	f850 2c04 	ldr.w	r2, [r0, #-4]
  203a5c:	2255      	movs	r2, #85	; 0x55
  203a5e:	f840 2c04 	str.w	r2, [r0, #-4]
  203a62:	6802      	ldr	r2, [r0, #0]
  203a64:	0752      	lsls	r2, r2, #29
  203a66:	d409      	bmi.n	203a7c <GLCD_Initialize+0x33b4>
  203a68:	6802      	ldr	r2, [r0, #0]
  203a6a:	0752      	lsls	r2, r2, #29
  203a6c:	bf5c      	itt	pl
  203a6e:	6802      	ldrpl	r2, [r0, #0]
  203a70:	ea5f 7242 	movspl.w	r2, r2, lsl #29
  203a74:	d402      	bmi.n	203a7c <GLCD_Initialize+0x33b4>
  203a76:	6802      	ldr	r2, [r0, #0]
  203a78:	0752      	lsls	r2, r2, #29
  203a7a:	d5f2      	bpl.n	203a62 <GLCD_Initialize+0x339a>
  203a7c:	f850 2c04 	ldr.w	r2, [r0, #-4]
  203a80:	680a      	ldr	r2, [r1, #0]
  203a82:	f042 0201 	orr.w	r2, r2, #1
  203a86:	600a      	str	r2, [r1, #0]
  203a88:	680a      	ldr	r2, [r1, #0]
  203a8a:	f022 0201 	bic.w	r2, r2, #1
  203a8e:	600a      	str	r2, [r1, #0]
  203a90:	2270      	movs	r2, #112	; 0x70
  203a92:	f840 2c04 	str.w	r2, [r0, #-4]
  203a96:	6802      	ldr	r2, [r0, #0]
  203a98:	0752      	lsls	r2, r2, #29
  203a9a:	d409      	bmi.n	203ab0 <GLCD_Initialize+0x33e8>
  203a9c:	6802      	ldr	r2, [r0, #0]
  203a9e:	0752      	lsls	r2, r2, #29
  203aa0:	bf5c      	itt	pl
  203aa2:	6802      	ldrpl	r2, [r0, #0]
  203aa4:	ea5f 7242 	movspl.w	r2, r2, lsl #29
  203aa8:	d402      	bmi.n	203ab0 <GLCD_Initialize+0x33e8>
  203aaa:	6802      	ldr	r2, [r0, #0]
  203aac:	0752      	lsls	r2, r2, #29
  203aae:	d5f2      	bpl.n	203a96 <GLCD_Initialize+0x33ce>
  203ab0:	f850 2c04 	ldr.w	r2, [r0, #-4]
  203ab4:	2200      	movs	r2, #0
  203ab6:	f840 2c04 	str.w	r2, [r0, #-4]
  203aba:	6802      	ldr	r2, [r0, #0]
  203abc:	0752      	lsls	r2, r2, #29
  203abe:	d409      	bmi.n	203ad4 <GLCD_Initialize+0x340c>
  203ac0:	6802      	ldr	r2, [r0, #0]
  203ac2:	0752      	lsls	r2, r2, #29
  203ac4:	bf5c      	itt	pl
  203ac6:	6802      	ldrpl	r2, [r0, #0]
  203ac8:	ea5f 7242 	movspl.w	r2, r2, lsl #29
  203acc:	d402      	bmi.n	203ad4 <GLCD_Initialize+0x340c>
  203ace:	6802      	ldr	r2, [r0, #0]
  203ad0:	0752      	lsls	r2, r2, #29
  203ad2:	d5f2      	bpl.n	203aba <GLCD_Initialize+0x33f2>
  203ad4:	f850 2c04 	ldr.w	r2, [r0, #-4]
  203ad8:	2200      	movs	r2, #0
  203ada:	f840 2c04 	str.w	r2, [r0, #-4]
  203ade:	6802      	ldr	r2, [r0, #0]
  203ae0:	0752      	lsls	r2, r2, #29
  203ae2:	d409      	bmi.n	203af8 <GLCD_Initialize+0x3430>
  203ae4:	6802      	ldr	r2, [r0, #0]
  203ae6:	0752      	lsls	r2, r2, #29
  203ae8:	bf5c      	itt	pl
  203aea:	6802      	ldrpl	r2, [r0, #0]
  203aec:	ea5f 7242 	movspl.w	r2, r2, lsl #29
  203af0:	d402      	bmi.n	203af8 <GLCD_Initialize+0x3430>
  203af2:	6802      	ldr	r2, [r0, #0]
  203af4:	0752      	lsls	r2, r2, #29
  203af6:	d5f2      	bpl.n	203ade <GLCD_Initialize+0x3416>
  203af8:	f850 2c04 	ldr.w	r2, [r0, #-4]
  203afc:	680a      	ldr	r2, [r1, #0]
  203afe:	f042 0201 	orr.w	r2, r2, #1
  203b02:	600a      	str	r2, [r1, #0]
  203b04:	680a      	ldr	r2, [r1, #0]
  203b06:	f022 0201 	bic.w	r2, r2, #1
  203b0a:	600a      	str	r2, [r1, #0]
  203b0c:	2272      	movs	r2, #114	; 0x72
  203b0e:	f840 2c04 	str.w	r2, [r0, #-4]
  203b12:	6802      	ldr	r2, [r0, #0]
  203b14:	0752      	lsls	r2, r2, #29
  203b16:	d409      	bmi.n	203b2c <GLCD_Initialize+0x3464>
  203b18:	6802      	ldr	r2, [r0, #0]
  203b1a:	0752      	lsls	r2, r2, #29
  203b1c:	bf5c      	itt	pl
  203b1e:	6802      	ldrpl	r2, [r0, #0]
  203b20:	ea5f 7242 	movspl.w	r2, r2, lsl #29
  203b24:	d402      	bmi.n	203b2c <GLCD_Initialize+0x3464>
  203b26:	6802      	ldr	r2, [r0, #0]
  203b28:	0752      	lsls	r2, r2, #29
  203b2a:	d5f2      	bpl.n	203b12 <GLCD_Initialize+0x344a>
  203b2c:	f850 2c04 	ldr.w	r2, [r0, #-4]
  203b30:	2200      	movs	r2, #0
  203b32:	f840 2c04 	str.w	r2, [r0, #-4]
  203b36:	6802      	ldr	r2, [r0, #0]
  203b38:	0752      	lsls	r2, r2, #29
  203b3a:	d409      	bmi.n	203b50 <GLCD_Initialize+0x3488>
  203b3c:	6802      	ldr	r2, [r0, #0]
  203b3e:	0752      	lsls	r2, r2, #29
  203b40:	bf5c      	itt	pl
  203b42:	6802      	ldrpl	r2, [r0, #0]
  203b44:	ea5f 7242 	movspl.w	r2, r2, lsl #29
  203b48:	d402      	bmi.n	203b50 <GLCD_Initialize+0x3488>
  203b4a:	6802      	ldr	r2, [r0, #0]
  203b4c:	0752      	lsls	r2, r2, #29
  203b4e:	d5f2      	bpl.n	203b36 <GLCD_Initialize+0x346e>
  203b50:	f850 2c04 	ldr.w	r2, [r0, #-4]
  203b54:	2200      	movs	r2, #0
  203b56:	f840 2c04 	str.w	r2, [r0, #-4]
  203b5a:	6802      	ldr	r2, [r0, #0]
  203b5c:	0752      	lsls	r2, r2, #29
  203b5e:	d409      	bmi.n	203b74 <GLCD_Initialize+0x34ac>
  203b60:	6802      	ldr	r2, [r0, #0]
  203b62:	0752      	lsls	r2, r2, #29
  203b64:	bf5c      	itt	pl
  203b66:	6802      	ldrpl	r2, [r0, #0]
  203b68:	ea5f 7242 	movspl.w	r2, r2, lsl #29
  203b6c:	d402      	bmi.n	203b74 <GLCD_Initialize+0x34ac>
  203b6e:	6802      	ldr	r2, [r0, #0]
  203b70:	0752      	lsls	r2, r2, #29
  203b72:	d5f2      	bpl.n	203b5a <GLCD_Initialize+0x3492>
  203b74:	f850 2c04 	ldr.w	r2, [r0, #-4]
  203b78:	680a      	ldr	r2, [r1, #0]
  203b7a:	f042 0201 	orr.w	r2, r2, #1
  203b7e:	600a      	str	r2, [r1, #0]
  203b80:	680a      	ldr	r2, [r1, #0]
  203b82:	f022 0201 	bic.w	r2, r2, #1
  203b86:	600a      	str	r2, [r1, #0]
  203b88:	2270      	movs	r2, #112	; 0x70
  203b8a:	f840 2c04 	str.w	r2, [r0, #-4]
  203b8e:	6802      	ldr	r2, [r0, #0]
  203b90:	0752      	lsls	r2, r2, #29
  203b92:	d409      	bmi.n	203ba8 <GLCD_Initialize+0x34e0>
  203b94:	6802      	ldr	r2, [r0, #0]
  203b96:	0752      	lsls	r2, r2, #29
  203b98:	bf5c      	itt	pl
  203b9a:	6802      	ldrpl	r2, [r0, #0]
  203b9c:	ea5f 7242 	movspl.w	r2, r2, lsl #29
  203ba0:	d402      	bmi.n	203ba8 <GLCD_Initialize+0x34e0>
  203ba2:	6802      	ldr	r2, [r0, #0]
  203ba4:	0752      	lsls	r2, r2, #29
  203ba6:	d5f2      	bpl.n	203b8e <GLCD_Initialize+0x34c6>
  203ba8:	f850 2c04 	ldr.w	r2, [r0, #-4]
  203bac:	2200      	movs	r2, #0
  203bae:	f840 2c04 	str.w	r2, [r0, #-4]
  203bb2:	6802      	ldr	r2, [r0, #0]
  203bb4:	0752      	lsls	r2, r2, #29
  203bb6:	d409      	bmi.n	203bcc <GLCD_Initialize+0x3504>
  203bb8:	6802      	ldr	r2, [r0, #0]
  203bba:	0752      	lsls	r2, r2, #29
  203bbc:	bf5c      	itt	pl
  203bbe:	6802      	ldrpl	r2, [r0, #0]
  203bc0:	ea5f 7242 	movspl.w	r2, r2, lsl #29
  203bc4:	d402      	bmi.n	203bcc <GLCD_Initialize+0x3504>
  203bc6:	6802      	ldr	r2, [r0, #0]
  203bc8:	0752      	lsls	r2, r2, #29
  203bca:	d5f2      	bpl.n	203bb2 <GLCD_Initialize+0x34ea>
  203bcc:	f850 2c04 	ldr.w	r2, [r0, #-4]
  203bd0:	222f      	movs	r2, #47	; 0x2f
  203bd2:	f840 2c04 	str.w	r2, [r0, #-4]
  203bd6:	6802      	ldr	r2, [r0, #0]
  203bd8:	0752      	lsls	r2, r2, #29
  203bda:	d409      	bmi.n	203bf0 <GLCD_Initialize+0x3528>
  203bdc:	6802      	ldr	r2, [r0, #0]
  203bde:	0752      	lsls	r2, r2, #29
  203be0:	bf5c      	itt	pl
  203be2:	6802      	ldrpl	r2, [r0, #0]
  203be4:	ea5f 7242 	movspl.w	r2, r2, lsl #29
  203be8:	d402      	bmi.n	203bf0 <GLCD_Initialize+0x3528>
  203bea:	6802      	ldr	r2, [r0, #0]
  203bec:	0752      	lsls	r2, r2, #29
  203bee:	d5f2      	bpl.n	203bd6 <GLCD_Initialize+0x350e>
  203bf0:	f850 2c04 	ldr.w	r2, [r0, #-4]
  203bf4:	680a      	ldr	r2, [r1, #0]
  203bf6:	f042 0201 	orr.w	r2, r2, #1
  203bfa:	600a      	str	r2, [r1, #0]
  203bfc:	680a      	ldr	r2, [r1, #0]
  203bfe:	f022 0201 	bic.w	r2, r2, #1
  203c02:	600a      	str	r2, [r1, #0]
  203c04:	2272      	movs	r2, #114	; 0x72
  203c06:	f840 2c04 	str.w	r2, [r0, #-4]
  203c0a:	6802      	ldr	r2, [r0, #0]
  203c0c:	0752      	lsls	r2, r2, #29
  203c0e:	d409      	bmi.n	203c24 <GLCD_Initialize+0x355c>
  203c10:	6802      	ldr	r2, [r0, #0]
  203c12:	0752      	lsls	r2, r2, #29
  203c14:	bf5c      	itt	pl
  203c16:	6802      	ldrpl	r2, [r0, #0]
  203c18:	ea5f 7242 	movspl.w	r2, r2, lsl #29
  203c1c:	d402      	bmi.n	203c24 <GLCD_Initialize+0x355c>
  203c1e:	6802      	ldr	r2, [r0, #0]
  203c20:	0752      	lsls	r2, r2, #29
  203c22:	d5f2      	bpl.n	203c0a <GLCD_Initialize+0x3542>
  203c24:	f850 2c04 	ldr.w	r2, [r0, #-4]
  203c28:	2200      	movs	r2, #0
  203c2a:	f840 2c04 	str.w	r2, [r0, #-4]
  203c2e:	6802      	ldr	r2, [r0, #0]
  203c30:	0752      	lsls	r2, r2, #29
  203c32:	d409      	bmi.n	203c48 <GLCD_Initialize+0x3580>
  203c34:	6802      	ldr	r2, [r0, #0]
  203c36:	0752      	lsls	r2, r2, #29
  203c38:	bf5c      	itt	pl
  203c3a:	6802      	ldrpl	r2, [r0, #0]
  203c3c:	ea5f 7242 	movspl.w	r2, r2, lsl #29
  203c40:	d402      	bmi.n	203c48 <GLCD_Initialize+0x3580>
  203c42:	6802      	ldr	r2, [r0, #0]
  203c44:	0752      	lsls	r2, r2, #29
  203c46:	d5f2      	bpl.n	203c2e <GLCD_Initialize+0x3566>
  203c48:	f850 2c04 	ldr.w	r2, [r0, #-4]
  203c4c:	2211      	movs	r2, #17
  203c4e:	f840 2c04 	str.w	r2, [r0, #-4]
  203c52:	6802      	ldr	r2, [r0, #0]
  203c54:	0752      	lsls	r2, r2, #29
  203c56:	d409      	bmi.n	203c6c <GLCD_Initialize+0x35a4>
  203c58:	6802      	ldr	r2, [r0, #0]
  203c5a:	0752      	lsls	r2, r2, #29
  203c5c:	bf5c      	itt	pl
  203c5e:	6802      	ldrpl	r2, [r0, #0]
  203c60:	ea5f 7242 	movspl.w	r2, r2, lsl #29
  203c64:	d402      	bmi.n	203c6c <GLCD_Initialize+0x35a4>
  203c66:	6802      	ldr	r2, [r0, #0]
  203c68:	0752      	lsls	r2, r2, #29
  203c6a:	d5f2      	bpl.n	203c52 <GLCD_Initialize+0x358a>
  203c6c:	f850 2c04 	ldr.w	r2, [r0, #-4]
  203c70:	680a      	ldr	r2, [r1, #0]
  203c72:	f042 0201 	orr.w	r2, r2, #1
  203c76:	600a      	str	r2, [r1, #0]
  203c78:	680a      	ldr	r2, [r1, #0]
  203c7a:	f022 0201 	bic.w	r2, r2, #1
  203c7e:	600a      	str	r2, [r1, #0]
  203c80:	2270      	movs	r2, #112	; 0x70
  203c82:	f840 2c04 	str.w	r2, [r0, #-4]
  203c86:	6802      	ldr	r2, [r0, #0]
  203c88:	0752      	lsls	r2, r2, #29
  203c8a:	d409      	bmi.n	203ca0 <GLCD_Initialize+0x35d8>
  203c8c:	6802      	ldr	r2, [r0, #0]
  203c8e:	0752      	lsls	r2, r2, #29
  203c90:	bf5c      	itt	pl
  203c92:	6802      	ldrpl	r2, [r0, #0]
  203c94:	ea5f 7242 	movspl.w	r2, r2, lsl #29
  203c98:	d402      	bmi.n	203ca0 <GLCD_Initialize+0x35d8>
  203c9a:	6802      	ldr	r2, [r0, #0]
  203c9c:	0752      	lsls	r2, r2, #29
  203c9e:	d5f2      	bpl.n	203c86 <GLCD_Initialize+0x35be>
  203ca0:	f850 2c04 	ldr.w	r2, [r0, #-4]
  203ca4:	2200      	movs	r2, #0
  203ca6:	f840 2c04 	str.w	r2, [r0, #-4]
  203caa:	6802      	ldr	r2, [r0, #0]
  203cac:	0752      	lsls	r2, r2, #29
  203cae:	d409      	bmi.n	203cc4 <GLCD_Initialize+0x35fc>
  203cb0:	6802      	ldr	r2, [r0, #0]
  203cb2:	0752      	lsls	r2, r2, #29
  203cb4:	bf5c      	itt	pl
  203cb6:	6802      	ldrpl	r2, [r0, #0]
  203cb8:	ea5f 7242 	movspl.w	r2, r2, lsl #29
  203cbc:	d402      	bmi.n	203cc4 <GLCD_Initialize+0x35fc>
  203cbe:	6802      	ldr	r2, [r0, #0]
  203cc0:	0752      	lsls	r2, r2, #29
  203cc2:	d5f2      	bpl.n	203caa <GLCD_Initialize+0x35e2>
  203cc4:	f850 2c04 	ldr.w	r2, [r0, #-4]
  203cc8:	2231      	movs	r2, #49	; 0x31
  203cca:	f840 2c04 	str.w	r2, [r0, #-4]
  203cce:	6802      	ldr	r2, [r0, #0]
  203cd0:	0752      	lsls	r2, r2, #29
  203cd2:	d409      	bmi.n	203ce8 <GLCD_Initialize+0x3620>
  203cd4:	6802      	ldr	r2, [r0, #0]
  203cd6:	0752      	lsls	r2, r2, #29
  203cd8:	bf5c      	itt	pl
  203cda:	6802      	ldrpl	r2, [r0, #0]
  203cdc:	ea5f 7242 	movspl.w	r2, r2, lsl #29
  203ce0:	d402      	bmi.n	203ce8 <GLCD_Initialize+0x3620>
  203ce2:	6802      	ldr	r2, [r0, #0]
  203ce4:	0752      	lsls	r2, r2, #29
  203ce6:	d5f2      	bpl.n	203cce <GLCD_Initialize+0x3606>
  203ce8:	f850 2c04 	ldr.w	r2, [r0, #-4]
  203cec:	680a      	ldr	r2, [r1, #0]
  203cee:	f042 0201 	orr.w	r2, r2, #1
  203cf2:	600a      	str	r2, [r1, #0]
  203cf4:	680a      	ldr	r2, [r1, #0]
  203cf6:	f022 0201 	bic.w	r2, r2, #1
  203cfa:	600a      	str	r2, [r1, #0]
  203cfc:	2272      	movs	r2, #114	; 0x72
  203cfe:	f840 2c04 	str.w	r2, [r0, #-4]
  203d02:	6802      	ldr	r2, [r0, #0]
  203d04:	0752      	lsls	r2, r2, #29
  203d06:	d409      	bmi.n	203d1c <GLCD_Initialize+0x3654>
  203d08:	6802      	ldr	r2, [r0, #0]
  203d0a:	0752      	lsls	r2, r2, #29
  203d0c:	bf5c      	itt	pl
  203d0e:	6802      	ldrpl	r2, [r0, #0]
  203d10:	ea5f 7242 	movspl.w	r2, r2, lsl #29
  203d14:	d402      	bmi.n	203d1c <GLCD_Initialize+0x3654>
  203d16:	6802      	ldr	r2, [r0, #0]
  203d18:	0752      	lsls	r2, r2, #29
  203d1a:	d5f2      	bpl.n	203d02 <GLCD_Initialize+0x363a>
  203d1c:	f850 2c04 	ldr.w	r2, [r0, #-4]
  203d20:	2200      	movs	r2, #0
  203d22:	f840 2c04 	str.w	r2, [r0, #-4]
  203d26:	6802      	ldr	r2, [r0, #0]
  203d28:	0752      	lsls	r2, r2, #29
  203d2a:	d409      	bmi.n	203d40 <GLCD_Initialize+0x3678>
  203d2c:	6802      	ldr	r2, [r0, #0]
  203d2e:	0752      	lsls	r2, r2, #29
  203d30:	bf5c      	itt	pl
  203d32:	6802      	ldrpl	r2, [r0, #0]
  203d34:	ea5f 7242 	movspl.w	r2, r2, lsl #29
  203d38:	d402      	bmi.n	203d40 <GLCD_Initialize+0x3678>
  203d3a:	6802      	ldr	r2, [r0, #0]
  203d3c:	0752      	lsls	r2, r2, #29
  203d3e:	d5f2      	bpl.n	203d26 <GLCD_Initialize+0x365e>
  203d40:	f850 2c04 	ldr.w	r2, [r0, #-4]
  203d44:	2200      	movs	r2, #0
  203d46:	f840 2c04 	str.w	r2, [r0, #-4]
  203d4a:	6802      	ldr	r2, [r0, #0]
  203d4c:	0752      	lsls	r2, r2, #29
  203d4e:	d409      	bmi.n	203d64 <GLCD_Initialize+0x369c>
  203d50:	6802      	ldr	r2, [r0, #0]
  203d52:	0752      	lsls	r2, r2, #29
  203d54:	bf5c      	itt	pl
  203d56:	6802      	ldrpl	r2, [r0, #0]
  203d58:	ea5f 7242 	movspl.w	r2, r2, lsl #29
  203d5c:	d402      	bmi.n	203d64 <GLCD_Initialize+0x369c>
  203d5e:	6802      	ldr	r2, [r0, #0]
  203d60:	0752      	lsls	r2, r2, #29
  203d62:	d5f2      	bpl.n	203d4a <GLCD_Initialize+0x3682>
  203d64:	f850 2c04 	ldr.w	r2, [r0, #-4]
  203d68:	680a      	ldr	r2, [r1, #0]
  203d6a:	f042 0201 	orr.w	r2, r2, #1
  203d6e:	600a      	str	r2, [r1, #0]
  203d70:	680a      	ldr	r2, [r1, #0]
  203d72:	f022 0201 	bic.w	r2, r2, #1
  203d76:	600a      	str	r2, [r1, #0]
  203d78:	2270      	movs	r2, #112	; 0x70
  203d7a:	f840 2c04 	str.w	r2, [r0, #-4]
  203d7e:	6802      	ldr	r2, [r0, #0]
  203d80:	0752      	lsls	r2, r2, #29
  203d82:	d409      	bmi.n	203d98 <GLCD_Initialize+0x36d0>
  203d84:	6802      	ldr	r2, [r0, #0]
  203d86:	0752      	lsls	r2, r2, #29
  203d88:	bf5c      	itt	pl
  203d8a:	6802      	ldrpl	r2, [r0, #0]
  203d8c:	ea5f 7242 	movspl.w	r2, r2, lsl #29
  203d90:	d402      	bmi.n	203d98 <GLCD_Initialize+0x36d0>
  203d92:	6802      	ldr	r2, [r0, #0]
  203d94:	0752      	lsls	r2, r2, #29
  203d96:	d5f2      	bpl.n	203d7e <GLCD_Initialize+0x36b6>
  203d98:	f850 2c04 	ldr.w	r2, [r0, #-4]
  203d9c:	2200      	movs	r2, #0
  203d9e:	f840 2c04 	str.w	r2, [r0, #-4]
  203da2:	6802      	ldr	r2, [r0, #0]
  203da4:	0752      	lsls	r2, r2, #29
  203da6:	d409      	bmi.n	203dbc <GLCD_Initialize+0x36f4>
  203da8:	6802      	ldr	r2, [r0, #0]
  203daa:	0752      	lsls	r2, r2, #29
  203dac:	bf5c      	itt	pl
  203dae:	6802      	ldrpl	r2, [r0, #0]
  203db0:	ea5f 7242 	movspl.w	r2, r2, lsl #29
  203db4:	d402      	bmi.n	203dbc <GLCD_Initialize+0x36f4>
  203db6:	6802      	ldr	r2, [r0, #0]
  203db8:	0752      	lsls	r2, r2, #29
  203dba:	d5f2      	bpl.n	203da2 <GLCD_Initialize+0x36da>
  203dbc:	f850 2c04 	ldr.w	r2, [r0, #-4]
  203dc0:	2232      	movs	r2, #50	; 0x32
  203dc2:	f840 2c04 	str.w	r2, [r0, #-4]
  203dc6:	6802      	ldr	r2, [r0, #0]
  203dc8:	0752      	lsls	r2, r2, #29
  203dca:	d409      	bmi.n	203de0 <GLCD_Initialize+0x3718>
  203dcc:	6802      	ldr	r2, [r0, #0]
  203dce:	0752      	lsls	r2, r2, #29
  203dd0:	bf5c      	itt	pl
  203dd2:	6802      	ldrpl	r2, [r0, #0]
  203dd4:	ea5f 7242 	movspl.w	r2, r2, lsl #29
  203dd8:	d402      	bmi.n	203de0 <GLCD_Initialize+0x3718>
  203dda:	6802      	ldr	r2, [r0, #0]
  203ddc:	0752      	lsls	r2, r2, #29
  203dde:	d5f2      	bpl.n	203dc6 <GLCD_Initialize+0x36fe>
  203de0:	f850 2c04 	ldr.w	r2, [r0, #-4]
  203de4:	680a      	ldr	r2, [r1, #0]
  203de6:	f042 0201 	orr.w	r2, r2, #1
  203dea:	600a      	str	r2, [r1, #0]
  203dec:	680a      	ldr	r2, [r1, #0]
  203dee:	f022 0201 	bic.w	r2, r2, #1
  203df2:	600a      	str	r2, [r1, #0]
  203df4:	2272      	movs	r2, #114	; 0x72
  203df6:	f840 2c04 	str.w	r2, [r0, #-4]
  203dfa:	6802      	ldr	r2, [r0, #0]
  203dfc:	0752      	lsls	r2, r2, #29
  203dfe:	d409      	bmi.n	203e14 <GLCD_Initialize+0x374c>
  203e00:	6802      	ldr	r2, [r0, #0]
  203e02:	0752      	lsls	r2, r2, #29
  203e04:	bf5c      	itt	pl
  203e06:	6802      	ldrpl	r2, [r0, #0]
  203e08:	ea5f 7242 	movspl.w	r2, r2, lsl #29
  203e0c:	d402      	bmi.n	203e14 <GLCD_Initialize+0x374c>
  203e0e:	6802      	ldr	r2, [r0, #0]
  203e10:	0752      	lsls	r2, r2, #29
  203e12:	d5f2      	bpl.n	203dfa <GLCD_Initialize+0x3732>
  203e14:	f850 2c04 	ldr.w	r2, [r0, #-4]
  203e18:	2200      	movs	r2, #0
  203e1a:	f840 2c04 	str.w	r2, [r0, #-4]
  203e1e:	6802      	ldr	r2, [r0, #0]
  203e20:	0752      	lsls	r2, r2, #29
  203e22:	d409      	bmi.n	203e38 <GLCD_Initialize+0x3770>
  203e24:	6802      	ldr	r2, [r0, #0]
  203e26:	0752      	lsls	r2, r2, #29
  203e28:	bf5c      	itt	pl
  203e2a:	6802      	ldrpl	r2, [r0, #0]
  203e2c:	ea5f 7242 	movspl.w	r2, r2, lsl #29
  203e30:	d402      	bmi.n	203e38 <GLCD_Initialize+0x3770>
  203e32:	6802      	ldr	r2, [r0, #0]
  203e34:	0752      	lsls	r2, r2, #29
  203e36:	d5f2      	bpl.n	203e1e <GLCD_Initialize+0x3756>
  203e38:	f850 2c04 	ldr.w	r2, [r0, #-4]
  203e3c:	2200      	movs	r2, #0
  203e3e:	f840 2c04 	str.w	r2, [r0, #-4]
  203e42:	6802      	ldr	r2, [r0, #0]
  203e44:	0752      	lsls	r2, r2, #29
  203e46:	d409      	bmi.n	203e5c <GLCD_Initialize+0x3794>
  203e48:	6802      	ldr	r2, [r0, #0]
  203e4a:	0752      	lsls	r2, r2, #29
  203e4c:	bf5c      	itt	pl
  203e4e:	6802      	ldrpl	r2, [r0, #0]
  203e50:	ea5f 7242 	movspl.w	r2, r2, lsl #29
  203e54:	d402      	bmi.n	203e5c <GLCD_Initialize+0x3794>
  203e56:	6802      	ldr	r2, [r0, #0]
  203e58:	0752      	lsls	r2, r2, #29
  203e5a:	d5f2      	bpl.n	203e42 <GLCD_Initialize+0x377a>
  203e5c:	f850 2c04 	ldr.w	r2, [r0, #-4]
  203e60:	680a      	ldr	r2, [r1, #0]
  203e62:	f042 0201 	orr.w	r2, r2, #1
  203e66:	600a      	str	r2, [r1, #0]
  203e68:	680a      	ldr	r2, [r1, #0]
  203e6a:	f022 0201 	bic.w	r2, r2, #1
  203e6e:	600a      	str	r2, [r1, #0]
  203e70:	2270      	movs	r2, #112	; 0x70
  203e72:	f840 2c04 	str.w	r2, [r0, #-4]
  203e76:	6802      	ldr	r2, [r0, #0]
  203e78:	0752      	lsls	r2, r2, #29
  203e7a:	d409      	bmi.n	203e90 <GLCD_Initialize+0x37c8>
  203e7c:	6802      	ldr	r2, [r0, #0]
  203e7e:	0752      	lsls	r2, r2, #29
  203e80:	bf5c      	itt	pl
  203e82:	6802      	ldrpl	r2, [r0, #0]
  203e84:	ea5f 7242 	movspl.w	r2, r2, lsl #29
  203e88:	d402      	bmi.n	203e90 <GLCD_Initialize+0x37c8>
  203e8a:	6802      	ldr	r2, [r0, #0]
  203e8c:	0752      	lsls	r2, r2, #29
  203e8e:	d5f2      	bpl.n	203e76 <GLCD_Initialize+0x37ae>
  203e90:	f850 2c04 	ldr.w	r2, [r0, #-4]
  203e94:	2200      	movs	r2, #0
  203e96:	f840 2c04 	str.w	r2, [r0, #-4]
  203e9a:	6802      	ldr	r2, [r0, #0]
  203e9c:	0752      	lsls	r2, r2, #29
  203e9e:	d409      	bmi.n	203eb4 <GLCD_Initialize+0x37ec>
  203ea0:	6802      	ldr	r2, [r0, #0]
  203ea2:	0752      	lsls	r2, r2, #29
  203ea4:	bf5c      	itt	pl
  203ea6:	6802      	ldrpl	r2, [r0, #0]
  203ea8:	ea5f 7242 	movspl.w	r2, r2, lsl #29
  203eac:	d402      	bmi.n	203eb4 <GLCD_Initialize+0x37ec>
  203eae:	6802      	ldr	r2, [r0, #0]
  203eb0:	0752      	lsls	r2, r2, #29
  203eb2:	d5f2      	bpl.n	203e9a <GLCD_Initialize+0x37d2>
  203eb4:	f850 2c04 	ldr.w	r2, [r0, #-4]
  203eb8:	2228      	movs	r2, #40	; 0x28
  203eba:	f840 2c04 	str.w	r2, [r0, #-4]
  203ebe:	6802      	ldr	r2, [r0, #0]
  203ec0:	0752      	lsls	r2, r2, #29
  203ec2:	d409      	bmi.n	203ed8 <GLCD_Initialize+0x3810>
  203ec4:	6802      	ldr	r2, [r0, #0]
  203ec6:	0752      	lsls	r2, r2, #29
  203ec8:	bf5c      	itt	pl
  203eca:	6802      	ldrpl	r2, [r0, #0]
  203ecc:	ea5f 7242 	movspl.w	r2, r2, lsl #29
  203ed0:	d402      	bmi.n	203ed8 <GLCD_Initialize+0x3810>
  203ed2:	6802      	ldr	r2, [r0, #0]
  203ed4:	0752      	lsls	r2, r2, #29
  203ed6:	d5f2      	bpl.n	203ebe <GLCD_Initialize+0x37f6>
  203ed8:	f850 2c04 	ldr.w	r2, [r0, #-4]
  203edc:	680a      	ldr	r2, [r1, #0]
  203ede:	f042 0201 	orr.w	r2, r2, #1
  203ee2:	600a      	str	r2, [r1, #0]
  203ee4:	680a      	ldr	r2, [r1, #0]
  203ee6:	f022 0201 	bic.w	r2, r2, #1
  203eea:	600a      	str	r2, [r1, #0]
  203eec:	2272      	movs	r2, #114	; 0x72
  203eee:	f840 2c04 	str.w	r2, [r0, #-4]
  203ef2:	6802      	ldr	r2, [r0, #0]
  203ef4:	0752      	lsls	r2, r2, #29
  203ef6:	d409      	bmi.n	203f0c <GLCD_Initialize+0x3844>
  203ef8:	6802      	ldr	r2, [r0, #0]
  203efa:	0752      	lsls	r2, r2, #29
  203efc:	bf5c      	itt	pl
  203efe:	6802      	ldrpl	r2, [r0, #0]
  203f00:	ea5f 7242 	movspl.w	r2, r2, lsl #29
  203f04:	d402      	bmi.n	203f0c <GLCD_Initialize+0x3844>
  203f06:	6802      	ldr	r2, [r0, #0]
  203f08:	0752      	lsls	r2, r2, #29
  203f0a:	d5f2      	bpl.n	203ef2 <GLCD_Initialize+0x382a>
  203f0c:	f850 2c04 	ldr.w	r2, [r0, #-4]
  203f10:	2200      	movs	r2, #0
  203f12:	f840 2c04 	str.w	r2, [r0, #-4]
  203f16:	6802      	ldr	r2, [r0, #0]
  203f18:	0752      	lsls	r2, r2, #29
  203f1a:	d409      	bmi.n	203f30 <GLCD_Initialize+0x3868>
  203f1c:	6802      	ldr	r2, [r0, #0]
  203f1e:	0752      	lsls	r2, r2, #29
  203f20:	bf5c      	itt	pl
  203f22:	6802      	ldrpl	r2, [r0, #0]
  203f24:	ea5f 7242 	movspl.w	r2, r2, lsl #29
  203f28:	d402      	bmi.n	203f30 <GLCD_Initialize+0x3868>
  203f2a:	6802      	ldr	r2, [r0, #0]
  203f2c:	0752      	lsls	r2, r2, #29
  203f2e:	d5f2      	bpl.n	203f16 <GLCD_Initialize+0x384e>
  203f30:	f850 2c04 	ldr.w	r2, [r0, #-4]
  203f34:	2238      	movs	r2, #56	; 0x38
  203f36:	f840 2c04 	str.w	r2, [r0, #-4]
  203f3a:	6802      	ldr	r2, [r0, #0]
  203f3c:	0752      	lsls	r2, r2, #29
  203f3e:	d409      	bmi.n	203f54 <GLCD_Initialize+0x388c>
  203f40:	6802      	ldr	r2, [r0, #0]
  203f42:	0752      	lsls	r2, r2, #29
  203f44:	bf5c      	itt	pl
  203f46:	6802      	ldrpl	r2, [r0, #0]
  203f48:	ea5f 7242 	movspl.w	r2, r2, lsl #29
  203f4c:	d402      	bmi.n	203f54 <GLCD_Initialize+0x388c>
  203f4e:	6802      	ldr	r2, [r0, #0]
  203f50:	0752      	lsls	r2, r2, #29
  203f52:	d5f2      	bpl.n	203f3a <GLCD_Initialize+0x3872>
  203f54:	f850 2c04 	ldr.w	r2, [r0, #-4]
  203f58:	680a      	ldr	r2, [r1, #0]
  203f5a:	f042 0201 	orr.w	r2, r2, #1
  203f5e:	600a      	str	r2, [r1, #0]
  203f60:	f24b 42c0 	movw	r2, #46272	; 0xb4c0
  203f64:	f6cf 72b3 	movt	r2, #65459	; 0xffb3
  203f68:	bf00      	nop
  203f6a:	bf00      	nop
  203f6c:	bf00      	nop
  203f6e:	bf00      	nop
  203f70:	bf00      	nop
  203f72:	bf00      	nop
  203f74:	bf00      	nop
  203f76:	bf00      	nop
  203f78:	bf00      	nop
  203f7a:	bf00      	nop
  203f7c:	bf00      	nop
  203f7e:	bf00      	nop
  203f80:	bf00      	nop
  203f82:	bf00      	nop
  203f84:	bf00      	nop
  203f86:	bf00      	nop
  203f88:	bf00      	nop
  203f8a:	bf00      	nop
  203f8c:	bf00      	nop
  203f8e:	bf00      	nop
  203f90:	bf00      	nop
  203f92:	bf00      	nop
  203f94:	bf00      	nop
  203f96:	bf00      	nop
  203f98:	bf00      	nop
  203f9a:	bf00      	nop
  203f9c:	bf00      	nop
  203f9e:	bf00      	nop
  203fa0:	bf00      	nop
  203fa2:	bf00      	nop
  203fa4:	bf00      	nop
  203fa6:	bf00      	nop
  203fa8:	bf00      	nop
  203faa:	bf00      	nop
  203fac:	bf00      	nop
  203fae:	bf00      	nop
  203fb0:	bf00      	nop
  203fb2:	bf00      	nop
  203fb4:	bf00      	nop
  203fb6:	bf00      	nop
  203fb8:	bf00      	nop
  203fba:	bf00      	nop
  203fbc:	bf00      	nop
  203fbe:	bf00      	nop
  203fc0:	bf00      	nop
  203fc2:	bf00      	nop
  203fc4:	bf00      	nop
  203fc6:	bf00      	nop
  203fc8:	bf00      	nop
  203fca:	bf00      	nop
  203fcc:	bf00      	nop
  203fce:	bf00      	nop
  203fd0:	bf00      	nop
  203fd2:	bf00      	nop
  203fd4:	bf00      	nop
  203fd6:	bf00      	nop
  203fd8:	bf00      	nop
  203fda:	bf00      	nop
  203fdc:	bf00      	nop
  203fde:	bf00      	nop
  203fe0:	bf00      	nop
  203fe2:	bf00      	nop
  203fe4:	bf00      	nop
  203fe6:	bf00      	nop
  203fe8:	bf00      	nop
  203fea:	bf00      	nop
  203fec:	bf00      	nop
  203fee:	bf00      	nop
  203ff0:	bf00      	nop
  203ff2:	bf00      	nop
  203ff4:	bf00      	nop
  203ff6:	bf00      	nop
  203ff8:	bf00      	nop
  203ffa:	bf00      	nop
  203ffc:	bf00      	nop
  203ffe:	bf00      	nop
  204000:	bf00      	nop
  204002:	bf00      	nop
  204004:	bf00      	nop
  204006:	bf00      	nop
  204008:	bf00      	nop
  20400a:	bf00      	nop
  20400c:	bf00      	nop
  20400e:	bf00      	nop
  204010:	bf00      	nop
  204012:	bf00      	nop
  204014:	bf00      	nop
  204016:	bf00      	nop
  204018:	bf00      	nop
  20401a:	bf00      	nop
  20401c:	bf00      	nop
  20401e:	bf00      	nop
  204020:	bf00      	nop
  204022:	bf00      	nop
  204024:	bf00      	nop
  204026:	bf00      	nop
  204028:	bf00      	nop
  20402a:	bf00      	nop
  20402c:	bf00      	nop
  20402e:	3264      	adds	r2, #100	; 0x64
  204030:	bf00      	nop
  204032:	d199      	bne.n	203f68 <GLCD_Initialize+0x38a0>
  204034:	680a      	ldr	r2, [r1, #0]
  204036:	f022 0201 	bic.w	r2, r2, #1
  20403a:	600a      	str	r2, [r1, #0]
  20403c:	2270      	movs	r2, #112	; 0x70
  20403e:	f840 2c04 	str.w	r2, [r0, #-4]
  204042:	6802      	ldr	r2, [r0, #0]
  204044:	0752      	lsls	r2, r2, #29
  204046:	d409      	bmi.n	20405c <GLCD_Initialize+0x3994>
  204048:	6802      	ldr	r2, [r0, #0]
  20404a:	0752      	lsls	r2, r2, #29
  20404c:	bf5c      	itt	pl
  20404e:	6802      	ldrpl	r2, [r0, #0]
  204050:	ea5f 7242 	movspl.w	r2, r2, lsl #29
  204054:	d402      	bmi.n	20405c <GLCD_Initialize+0x3994>
  204056:	6802      	ldr	r2, [r0, #0]
  204058:	0752      	lsls	r2, r2, #29
  20405a:	d5f2      	bpl.n	204042 <GLCD_Initialize+0x397a>
  20405c:	f850 2c04 	ldr.w	r2, [r0, #-4]
  204060:	2200      	movs	r2, #0
  204062:	f840 2c04 	str.w	r2, [r0, #-4]
  204066:	6802      	ldr	r2, [r0, #0]
  204068:	0752      	lsls	r2, r2, #29
  20406a:	d409      	bmi.n	204080 <GLCD_Initialize+0x39b8>
  20406c:	6802      	ldr	r2, [r0, #0]
  20406e:	0752      	lsls	r2, r2, #29
  204070:	bf5c      	itt	pl
  204072:	6802      	ldrpl	r2, [r0, #0]
  204074:	ea5f 7242 	movspl.w	r2, r2, lsl #29
  204078:	d402      	bmi.n	204080 <GLCD_Initialize+0x39b8>
  20407a:	6802      	ldr	r2, [r0, #0]
  20407c:	0752      	lsls	r2, r2, #29
  20407e:	d5f2      	bpl.n	204066 <GLCD_Initialize+0x399e>
  204080:	f850 2c04 	ldr.w	r2, [r0, #-4]
  204084:	2228      	movs	r2, #40	; 0x28
  204086:	f840 2c04 	str.w	r2, [r0, #-4]
  20408a:	6802      	ldr	r2, [r0, #0]
  20408c:	0752      	lsls	r2, r2, #29
  20408e:	d409      	bmi.n	2040a4 <GLCD_Initialize+0x39dc>
  204090:	6802      	ldr	r2, [r0, #0]
  204092:	0752      	lsls	r2, r2, #29
  204094:	bf5c      	itt	pl
  204096:	6802      	ldrpl	r2, [r0, #0]
  204098:	ea5f 7242 	movspl.w	r2, r2, lsl #29
  20409c:	d402      	bmi.n	2040a4 <GLCD_Initialize+0x39dc>
  20409e:	6802      	ldr	r2, [r0, #0]
  2040a0:	0752      	lsls	r2, r2, #29
  2040a2:	d5f2      	bpl.n	20408a <GLCD_Initialize+0x39c2>
  2040a4:	f850 2c04 	ldr.w	r2, [r0, #-4]
  2040a8:	680a      	ldr	r2, [r1, #0]
  2040aa:	f042 0201 	orr.w	r2, r2, #1
  2040ae:	600a      	str	r2, [r1, #0]
  2040b0:	680a      	ldr	r2, [r1, #0]
  2040b2:	f022 0201 	bic.w	r2, r2, #1
  2040b6:	600a      	str	r2, [r1, #0]
  2040b8:	2272      	movs	r2, #114	; 0x72
  2040ba:	f840 2c04 	str.w	r2, [r0, #-4]
  2040be:	6802      	ldr	r2, [r0, #0]
  2040c0:	0752      	lsls	r2, r2, #29
  2040c2:	d409      	bmi.n	2040d8 <GLCD_Initialize+0x3a10>
  2040c4:	6802      	ldr	r2, [r0, #0]
  2040c6:	0752      	lsls	r2, r2, #29
  2040c8:	bf5c      	itt	pl
  2040ca:	6802      	ldrpl	r2, [r0, #0]
  2040cc:	ea5f 7242 	movspl.w	r2, r2, lsl #29
  2040d0:	d402      	bmi.n	2040d8 <GLCD_Initialize+0x3a10>
  2040d2:	6802      	ldr	r2, [r0, #0]
  2040d4:	0752      	lsls	r2, r2, #29
  2040d6:	d5f2      	bpl.n	2040be <GLCD_Initialize+0x39f6>
  2040d8:	f850 2c04 	ldr.w	r2, [r0, #-4]
  2040dc:	2200      	movs	r2, #0
  2040de:	f840 2c04 	str.w	r2, [r0, #-4]
  2040e2:	6802      	ldr	r2, [r0, #0]
  2040e4:	0752      	lsls	r2, r2, #29
  2040e6:	d409      	bmi.n	2040fc <GLCD_Initialize+0x3a34>
  2040e8:	6802      	ldr	r2, [r0, #0]
  2040ea:	0752      	lsls	r2, r2, #29
  2040ec:	bf5c      	itt	pl
  2040ee:	6802      	ldrpl	r2, [r0, #0]
  2040f0:	ea5f 7242 	movspl.w	r2, r2, lsl #29
  2040f4:	d402      	bmi.n	2040fc <GLCD_Initialize+0x3a34>
  2040f6:	6802      	ldr	r2, [r0, #0]
  2040f8:	0752      	lsls	r2, r2, #29
  2040fa:	d5f2      	bpl.n	2040e2 <GLCD_Initialize+0x3a1a>
  2040fc:	f850 2c04 	ldr.w	r2, [r0, #-4]
  204100:	223c      	movs	r2, #60	; 0x3c
  204102:	f840 2c04 	str.w	r2, [r0, #-4]
  204106:	6802      	ldr	r2, [r0, #0]
  204108:	0752      	lsls	r2, r2, #29
  20410a:	d409      	bmi.n	204120 <GLCD_Initialize+0x3a58>
  20410c:	6802      	ldr	r2, [r0, #0]
  20410e:	0752      	lsls	r2, r2, #29
  204110:	bf5c      	itt	pl
  204112:	6802      	ldrpl	r2, [r0, #0]
  204114:	ea5f 7242 	movspl.w	r2, r2, lsl #29
  204118:	d402      	bmi.n	204120 <GLCD_Initialize+0x3a58>
  20411a:	6802      	ldr	r2, [r0, #0]
  20411c:	0752      	lsls	r2, r2, #29
  20411e:	d5f2      	bpl.n	204106 <GLCD_Initialize+0x3a3e>
  204120:	f850 2c04 	ldr.w	r2, [r0, #-4]
  204124:	680a      	ldr	r2, [r1, #0]
  204126:	f042 0201 	orr.w	r2, r2, #1
  20412a:	600a      	str	r2, [r1, #0]
  20412c:	680a      	ldr	r2, [r1, #0]
  20412e:	f022 0201 	bic.w	r2, r2, #1
  204132:	600a      	str	r2, [r1, #0]
  204134:	2270      	movs	r2, #112	; 0x70
  204136:	f840 2c04 	str.w	r2, [r0, #-4]
  20413a:	6802      	ldr	r2, [r0, #0]
  20413c:	0752      	lsls	r2, r2, #29
  20413e:	d409      	bmi.n	204154 <GLCD_Initialize+0x3a8c>
  204140:	6802      	ldr	r2, [r0, #0]
  204142:	0752      	lsls	r2, r2, #29
  204144:	bf5c      	itt	pl
  204146:	6802      	ldrpl	r2, [r0, #0]
  204148:	ea5f 7242 	movspl.w	r2, r2, lsl #29
  20414c:	d402      	bmi.n	204154 <GLCD_Initialize+0x3a8c>
  20414e:	6802      	ldr	r2, [r0, #0]
  204150:	0752      	lsls	r2, r2, #29
  204152:	d5f2      	bpl.n	20413a <GLCD_Initialize+0x3a72>
  204154:	f850 2c04 	ldr.w	r2, [r0, #-4]
  204158:	2200      	movs	r2, #0
  20415a:	f840 2c04 	str.w	r2, [r0, #-4]
  20415e:	6802      	ldr	r2, [r0, #0]
  204160:	0752      	lsls	r2, r2, #29
  204162:	d409      	bmi.n	204178 <GLCD_Initialize+0x3ab0>
  204164:	6802      	ldr	r2, [r0, #0]
  204166:	0752      	lsls	r2, r2, #29
  204168:	bf5c      	itt	pl
  20416a:	6802      	ldrpl	r2, [r0, #0]
  20416c:	ea5f 7242 	movspl.w	r2, r2, lsl #29
  204170:	d402      	bmi.n	204178 <GLCD_Initialize+0x3ab0>
  204172:	6802      	ldr	r2, [r0, #0]
  204174:	0752      	lsls	r2, r2, #29
  204176:	d5f2      	bpl.n	20415e <GLCD_Initialize+0x3a96>
  204178:	f850 2c04 	ldr.w	r2, [r0, #-4]
  20417c:	2216      	movs	r2, #22
  20417e:	f840 2c04 	str.w	r2, [r0, #-4]
  204182:	6802      	ldr	r2, [r0, #0]
  204184:	0752      	lsls	r2, r2, #29
  204186:	d409      	bmi.n	20419c <GLCD_Initialize+0x3ad4>
  204188:	6802      	ldr	r2, [r0, #0]
  20418a:	0752      	lsls	r2, r2, #29
  20418c:	bf5c      	itt	pl
  20418e:	6802      	ldrpl	r2, [r0, #0]
  204190:	ea5f 7242 	movspl.w	r2, r2, lsl #29
  204194:	d402      	bmi.n	20419c <GLCD_Initialize+0x3ad4>
  204196:	6802      	ldr	r2, [r0, #0]
  204198:	0752      	lsls	r2, r2, #29
  20419a:	d5f2      	bpl.n	204182 <GLCD_Initialize+0x3aba>
  20419c:	f850 2c04 	ldr.w	r2, [r0, #-4]
  2041a0:	680a      	ldr	r2, [r1, #0]
  2041a2:	f042 0201 	orr.w	r2, r2, #1
  2041a6:	600a      	str	r2, [r1, #0]
  2041a8:	680a      	ldr	r2, [r1, #0]
  2041aa:	f022 0201 	bic.w	r2, r2, #1
  2041ae:	600a      	str	r2, [r1, #0]
  2041b0:	2272      	movs	r2, #114	; 0x72
  2041b2:	f840 2c04 	str.w	r2, [r0, #-4]
  2041b6:	6802      	ldr	r2, [r0, #0]
  2041b8:	0752      	lsls	r2, r2, #29
  2041ba:	d409      	bmi.n	2041d0 <GLCD_Initialize+0x3b08>
  2041bc:	6802      	ldr	r2, [r0, #0]
  2041be:	0752      	lsls	r2, r2, #29
  2041c0:	bf5c      	itt	pl
  2041c2:	6802      	ldrpl	r2, [r0, #0]
  2041c4:	ea5f 7242 	movspl.w	r2, r2, lsl #29
  2041c8:	d402      	bmi.n	2041d0 <GLCD_Initialize+0x3b08>
  2041ca:	6802      	ldr	r2, [r0, #0]
  2041cc:	0752      	lsls	r2, r2, #29
  2041ce:	d5f2      	bpl.n	2041b6 <GLCD_Initialize+0x3aee>
  2041d0:	f850 2c04 	ldr.w	r2, [r0, #-4]
  2041d4:	2200      	movs	r2, #0
  2041d6:	f840 2c04 	str.w	r2, [r0, #-4]
  2041da:	6802      	ldr	r2, [r0, #0]
  2041dc:	0752      	lsls	r2, r2, #29
  2041de:	d409      	bmi.n	2041f4 <GLCD_Initialize+0x3b2c>
  2041e0:	6802      	ldr	r2, [r0, #0]
  2041e2:	0752      	lsls	r2, r2, #29
  2041e4:	bf5c      	itt	pl
  2041e6:	6802      	ldrpl	r2, [r0, #0]
  2041e8:	ea5f 7242 	movspl.w	r2, r2, lsl #29
  2041ec:	d402      	bmi.n	2041f4 <GLCD_Initialize+0x3b2c>
  2041ee:	6802      	ldr	r2, [r0, #0]
  2041f0:	0752      	lsls	r2, r2, #29
  2041f2:	d5f2      	bpl.n	2041da <GLCD_Initialize+0x3b12>
  2041f4:	f850 2c04 	ldr.w	r2, [r0, #-4]
  2041f8:	22a8      	movs	r2, #168	; 0xa8
  2041fa:	f840 2c04 	str.w	r2, [r0, #-4]
  2041fe:	6802      	ldr	r2, [r0, #0]
  204200:	0752      	lsls	r2, r2, #29
  204202:	d409      	bmi.n	204218 <GLCD_Initialize+0x3b50>
  204204:	6802      	ldr	r2, [r0, #0]
  204206:	0752      	lsls	r2, r2, #29
  204208:	bf5c      	itt	pl
  20420a:	6802      	ldrpl	r2, [r0, #0]
  20420c:	ea5f 7242 	movspl.w	r2, r2, lsl #29
  204210:	d402      	bmi.n	204218 <GLCD_Initialize+0x3b50>
  204212:	6802      	ldr	r2, [r0, #0]
  204214:	0752      	lsls	r2, r2, #29
  204216:	d5f2      	bpl.n	2041fe <GLCD_Initialize+0x3b36>
  204218:	f850 2c04 	ldr.w	r2, [r0, #-4]
  20421c:	680a      	ldr	r2, [r1, #0]
  20421e:	f042 0201 	orr.w	r2, r2, #1
  204222:	600a      	str	r2, [r1, #0]
  204224:	680a      	ldr	r2, [r1, #0]
  204226:	f022 0201 	bic.w	r2, r2, #1
  20422a:	600a      	str	r2, [r1, #0]
  20422c:	2270      	movs	r2, #112	; 0x70
  20422e:	f840 2c04 	str.w	r2, [r0, #-4]
  204232:	6802      	ldr	r2, [r0, #0]
  204234:	0752      	lsls	r2, r2, #29
  204236:	d409      	bmi.n	20424c <GLCD_Initialize+0x3b84>
  204238:	6802      	ldr	r2, [r0, #0]
  20423a:	0752      	lsls	r2, r2, #29
  20423c:	bf5c      	itt	pl
  20423e:	6802      	ldrpl	r2, [r0, #0]
  204240:	ea5f 7242 	movspl.w	r2, r2, lsl #29
  204244:	d402      	bmi.n	20424c <GLCD_Initialize+0x3b84>
  204246:	6802      	ldr	r2, [r0, #0]
  204248:	0752      	lsls	r2, r2, #29
  20424a:	d5f2      	bpl.n	204232 <GLCD_Initialize+0x3b6a>
  20424c:	f850 2c04 	ldr.w	r2, [r0, #-4]
  204250:	2200      	movs	r2, #0
  204252:	f840 2c04 	str.w	r2, [r0, #-4]
  204256:	6802      	ldr	r2, [r0, #0]
  204258:	0752      	lsls	r2, r2, #29
  20425a:	d409      	bmi.n	204270 <GLCD_Initialize+0x3ba8>
  20425c:	6802      	ldr	r2, [r0, #0]
  20425e:	0752      	lsls	r2, r2, #29
  204260:	bf5c      	itt	pl
  204262:	6802      	ldrpl	r2, [r0, #0]
  204264:	ea5f 7242 	movspl.w	r2, r2, lsl #29
  204268:	d402      	bmi.n	204270 <GLCD_Initialize+0x3ba8>
  20426a:	6802      	ldr	r2, [r0, #0]
  20426c:	0752      	lsls	r2, r2, #29
  20426e:	d5f2      	bpl.n	204256 <GLCD_Initialize+0x3b8e>
  204270:	f850 2c04 	ldr.w	r2, [r0, #-4]
  204274:	220e      	movs	r2, #14
  204276:	f840 2c04 	str.w	r2, [r0, #-4]
  20427a:	6802      	ldr	r2, [r0, #0]
  20427c:	0752      	lsls	r2, r2, #29
  20427e:	d409      	bmi.n	204294 <GLCD_Initialize+0x3bcc>
  204280:	6802      	ldr	r2, [r0, #0]
  204282:	0752      	lsls	r2, r2, #29
  204284:	bf5c      	itt	pl
  204286:	6802      	ldrpl	r2, [r0, #0]
  204288:	ea5f 7242 	movspl.w	r2, r2, lsl #29
  20428c:	d402      	bmi.n	204294 <GLCD_Initialize+0x3bcc>
  20428e:	6802      	ldr	r2, [r0, #0]
  204290:	0752      	lsls	r2, r2, #29
  204292:	d5f2      	bpl.n	20427a <GLCD_Initialize+0x3bb2>
  204294:	f850 2c04 	ldr.w	r2, [r0, #-4]
  204298:	680a      	ldr	r2, [r1, #0]
  20429a:	f042 0201 	orr.w	r2, r2, #1
  20429e:	600a      	str	r2, [r1, #0]
  2042a0:	680a      	ldr	r2, [r1, #0]
  2042a2:	f022 0201 	bic.w	r2, r2, #1
  2042a6:	600a      	str	r2, [r1, #0]
  2042a8:	2272      	movs	r2, #114	; 0x72
  2042aa:	f840 2c04 	str.w	r2, [r0, #-4]
  2042ae:	6802      	ldr	r2, [r0, #0]
  2042b0:	0752      	lsls	r2, r2, #29
  2042b2:	d409      	bmi.n	2042c8 <GLCD_Initialize+0x3c00>
  2042b4:	6802      	ldr	r2, [r0, #0]
  2042b6:	0752      	lsls	r2, r2, #29
  2042b8:	bf5c      	itt	pl
  2042ba:	6802      	ldrpl	r2, [r0, #0]
  2042bc:	ea5f 7242 	movspl.w	r2, r2, lsl #29
  2042c0:	d402      	bmi.n	2042c8 <GLCD_Initialize+0x3c00>
  2042c2:	6802      	ldr	r2, [r0, #0]
  2042c4:	0752      	lsls	r2, r2, #29
  2042c6:	d5f2      	bpl.n	2042ae <GLCD_Initialize+0x3be6>
  2042c8:	f850 2c04 	ldr.w	r2, [r0, #-4]
  2042cc:	2200      	movs	r2, #0
  2042ce:	f840 2c04 	str.w	r2, [r0, #-4]
  2042d2:	6802      	ldr	r2, [r0, #0]
  2042d4:	0752      	lsls	r2, r2, #29
  2042d6:	d409      	bmi.n	2042ec <GLCD_Initialize+0x3c24>
  2042d8:	6802      	ldr	r2, [r0, #0]
  2042da:	0752      	lsls	r2, r2, #29
  2042dc:	bf5c      	itt	pl
  2042de:	6802      	ldrpl	r2, [r0, #0]
  2042e0:	ea5f 7242 	movspl.w	r2, r2, lsl #29
  2042e4:	d402      	bmi.n	2042ec <GLCD_Initialize+0x3c24>
  2042e6:	6802      	ldr	r2, [r0, #0]
  2042e8:	0752      	lsls	r2, r2, #29
  2042ea:	d5f2      	bpl.n	2042d2 <GLCD_Initialize+0x3c0a>
  2042ec:	f850 2c04 	ldr.w	r2, [r0, #-4]
  2042f0:	2200      	movs	r2, #0
  2042f2:	f840 2c04 	str.w	r2, [r0, #-4]
  2042f6:	6802      	ldr	r2, [r0, #0]
  2042f8:	0752      	lsls	r2, r2, #29
  2042fa:	d409      	bmi.n	204310 <GLCD_Initialize+0x3c48>
  2042fc:	6802      	ldr	r2, [r0, #0]
  2042fe:	0752      	lsls	r2, r2, #29
  204300:	bf5c      	itt	pl
  204302:	6802      	ldrpl	r2, [r0, #0]
  204304:	ea5f 7242 	movspl.w	r2, r2, lsl #29
  204308:	d402      	bmi.n	204310 <GLCD_Initialize+0x3c48>
  20430a:	6802      	ldr	r2, [r0, #0]
  20430c:	0752      	lsls	r2, r2, #29
  20430e:	d5f2      	bpl.n	2042f6 <GLCD_Initialize+0x3c2e>
  204310:	f850 2c04 	ldr.w	r2, [r0, #-4]
  204314:	680a      	ldr	r2, [r1, #0]
  204316:	f042 0201 	orr.w	r2, r2, #1
  20431a:	600a      	str	r2, [r1, #0]
  20431c:	680a      	ldr	r2, [r1, #0]
  20431e:	f022 0201 	bic.w	r2, r2, #1
  204322:	600a      	str	r2, [r1, #0]
  204324:	2270      	movs	r2, #112	; 0x70
  204326:	f840 2c04 	str.w	r2, [r0, #-4]
  20432a:	6802      	ldr	r2, [r0, #0]
  20432c:	0752      	lsls	r2, r2, #29
  20432e:	d409      	bmi.n	204344 <GLCD_Initialize+0x3c7c>
  204330:	6802      	ldr	r2, [r0, #0]
  204332:	0752      	lsls	r2, r2, #29
  204334:	bf5c      	itt	pl
  204336:	6802      	ldrpl	r2, [r0, #0]
  204338:	ea5f 7242 	movspl.w	r2, r2, lsl #29
  20433c:	d402      	bmi.n	204344 <GLCD_Initialize+0x3c7c>
  20433e:	6802      	ldr	r2, [r0, #0]
  204340:	0752      	lsls	r2, r2, #29
  204342:	d5f2      	bpl.n	20432a <GLCD_Initialize+0x3c62>
  204344:	f850 2c04 	ldr.w	r2, [r0, #-4]
  204348:	2200      	movs	r2, #0
  20434a:	f840 2c04 	str.w	r2, [r0, #-4]
  20434e:	6802      	ldr	r2, [r0, #0]
  204350:	0752      	lsls	r2, r2, #29
  204352:	d409      	bmi.n	204368 <GLCD_Initialize+0x3ca0>
  204354:	6802      	ldr	r2, [r0, #0]
  204356:	0752      	lsls	r2, r2, #29
  204358:	bf5c      	itt	pl
  20435a:	6802      	ldrpl	r2, [r0, #0]
  20435c:	ea5f 7242 	movspl.w	r2, r2, lsl #29
  204360:	d402      	bmi.n	204368 <GLCD_Initialize+0x3ca0>
  204362:	6802      	ldr	r2, [r0, #0]
  204364:	0752      	lsls	r2, r2, #29
  204366:	d5f2      	bpl.n	20434e <GLCD_Initialize+0x3c86>
  204368:	f850 2c04 	ldr.w	r2, [r0, #-4]
  20436c:	220f      	movs	r2, #15
  20436e:	f840 2c04 	str.w	r2, [r0, #-4]
  204372:	6802      	ldr	r2, [r0, #0]
  204374:	0752      	lsls	r2, r2, #29
  204376:	d409      	bmi.n	20438c <GLCD_Initialize+0x3cc4>
  204378:	6802      	ldr	r2, [r0, #0]
  20437a:	0752      	lsls	r2, r2, #29
  20437c:	bf5c      	itt	pl
  20437e:	6802      	ldrpl	r2, [r0, #0]
  204380:	ea5f 7242 	movspl.w	r2, r2, lsl #29
  204384:	d402      	bmi.n	20438c <GLCD_Initialize+0x3cc4>
  204386:	6802      	ldr	r2, [r0, #0]
  204388:	0752      	lsls	r2, r2, #29
  20438a:	d5f2      	bpl.n	204372 <GLCD_Initialize+0x3caa>
  20438c:	f850 2c04 	ldr.w	r2, [r0, #-4]
  204390:	680a      	ldr	r2, [r1, #0]
  204392:	f042 0201 	orr.w	r2, r2, #1
  204396:	600a      	str	r2, [r1, #0]
  204398:	680a      	ldr	r2, [r1, #0]
  20439a:	f022 0201 	bic.w	r2, r2, #1
  20439e:	600a      	str	r2, [r1, #0]
  2043a0:	2272      	movs	r2, #114	; 0x72
  2043a2:	f840 2c04 	str.w	r2, [r0, #-4]
  2043a6:	6802      	ldr	r2, [r0, #0]
  2043a8:	0752      	lsls	r2, r2, #29
  2043aa:	d409      	bmi.n	2043c0 <GLCD_Initialize+0x3cf8>
  2043ac:	6802      	ldr	r2, [r0, #0]
  2043ae:	0752      	lsls	r2, r2, #29
  2043b0:	bf5c      	itt	pl
  2043b2:	6802      	ldrpl	r2, [r0, #0]
  2043b4:	ea5f 7242 	movspl.w	r2, r2, lsl #29
  2043b8:	d402      	bmi.n	2043c0 <GLCD_Initialize+0x3cf8>
  2043ba:	6802      	ldr	r2, [r0, #0]
  2043bc:	0752      	lsls	r2, r2, #29
  2043be:	d5f2      	bpl.n	2043a6 <GLCD_Initialize+0x3cde>
  2043c0:	f850 2c04 	ldr.w	r2, [r0, #-4]
  2043c4:	2200      	movs	r2, #0
  2043c6:	f840 2c04 	str.w	r2, [r0, #-4]
  2043ca:	6802      	ldr	r2, [r0, #0]
  2043cc:	0752      	lsls	r2, r2, #29
  2043ce:	d409      	bmi.n	2043e4 <GLCD_Initialize+0x3d1c>
  2043d0:	6802      	ldr	r2, [r0, #0]
  2043d2:	0752      	lsls	r2, r2, #29
  2043d4:	bf5c      	itt	pl
  2043d6:	6802      	ldrpl	r2, [r0, #0]
  2043d8:	ea5f 7242 	movspl.w	r2, r2, lsl #29
  2043dc:	d402      	bmi.n	2043e4 <GLCD_Initialize+0x3d1c>
  2043de:	6802      	ldr	r2, [r0, #0]
  2043e0:	0752      	lsls	r2, r2, #29
  2043e2:	d5f2      	bpl.n	2043ca <GLCD_Initialize+0x3d02>
  2043e4:	f850 2c04 	ldr.w	r2, [r0, #-4]
  2043e8:	2200      	movs	r2, #0
  2043ea:	f840 2c04 	str.w	r2, [r0, #-4]
  2043ee:	6802      	ldr	r2, [r0, #0]
  2043f0:	0752      	lsls	r2, r2, #29
  2043f2:	d409      	bmi.n	204408 <GLCD_Initialize+0x3d40>
  2043f4:	6802      	ldr	r2, [r0, #0]
  2043f6:	0752      	lsls	r2, r2, #29
  2043f8:	bf5c      	itt	pl
  2043fa:	6802      	ldrpl	r2, [r0, #0]
  2043fc:	ea5f 7242 	movspl.w	r2, r2, lsl #29
  204400:	d402      	bmi.n	204408 <GLCD_Initialize+0x3d40>
  204402:	6802      	ldr	r2, [r0, #0]
  204404:	0752      	lsls	r2, r2, #29
  204406:	d5f2      	bpl.n	2043ee <GLCD_Initialize+0x3d26>
  204408:	f850 2c04 	ldr.w	r2, [r0, #-4]
  20440c:	680a      	ldr	r2, [r1, #0]
  20440e:	f042 0201 	orr.w	r2, r2, #1
  204412:	600a      	str	r2, [r1, #0]
  204414:	680a      	ldr	r2, [r1, #0]
  204416:	f022 0201 	bic.w	r2, r2, #1
  20441a:	600a      	str	r2, [r1, #0]
  20441c:	2270      	movs	r2, #112	; 0x70
  20441e:	f840 2c04 	str.w	r2, [r0, #-4]
  204422:	6802      	ldr	r2, [r0, #0]
  204424:	0752      	lsls	r2, r2, #29
  204426:	d409      	bmi.n	20443c <GLCD_Initialize+0x3d74>
  204428:	6802      	ldr	r2, [r0, #0]
  20442a:	0752      	lsls	r2, r2, #29
  20442c:	bf5c      	itt	pl
  20442e:	6802      	ldrpl	r2, [r0, #0]
  204430:	ea5f 7242 	movspl.w	r2, r2, lsl #29
  204434:	d402      	bmi.n	20443c <GLCD_Initialize+0x3d74>
  204436:	6802      	ldr	r2, [r0, #0]
  204438:	0752      	lsls	r2, r2, #29
  20443a:	d5f2      	bpl.n	204422 <GLCD_Initialize+0x3d5a>
  20443c:	f850 2c04 	ldr.w	r2, [r0, #-4]
  204440:	2200      	movs	r2, #0
  204442:	f840 2c04 	str.w	r2, [r0, #-4]
  204446:	6802      	ldr	r2, [r0, #0]
  204448:	0752      	lsls	r2, r2, #29
  20444a:	d409      	bmi.n	204460 <GLCD_Initialize+0x3d98>
  20444c:	6802      	ldr	r2, [r0, #0]
  20444e:	0752      	lsls	r2, r2, #29
  204450:	bf5c      	itt	pl
  204452:	6802      	ldrpl	r2, [r0, #0]
  204454:	ea5f 7242 	movspl.w	r2, r2, lsl #29
  204458:	d402      	bmi.n	204460 <GLCD_Initialize+0x3d98>
  20445a:	6802      	ldr	r2, [r0, #0]
  20445c:	0752      	lsls	r2, r2, #29
  20445e:	d5f2      	bpl.n	204446 <GLCD_Initialize+0x3d7e>
  204460:	f850 2c04 	ldr.w	r2, [r0, #-4]
  204464:	2210      	movs	r2, #16
  204466:	f840 2c04 	str.w	r2, [r0, #-4]
  20446a:	6802      	ldr	r2, [r0, #0]
  20446c:	0752      	lsls	r2, r2, #29
  20446e:	d409      	bmi.n	204484 <GLCD_Initialize+0x3dbc>
  204470:	6802      	ldr	r2, [r0, #0]
  204472:	0752      	lsls	r2, r2, #29
  204474:	bf5c      	itt	pl
  204476:	6802      	ldrpl	r2, [r0, #0]
  204478:	ea5f 7242 	movspl.w	r2, r2, lsl #29
  20447c:	d402      	bmi.n	204484 <GLCD_Initialize+0x3dbc>
  20447e:	6802      	ldr	r2, [r0, #0]
  204480:	0752      	lsls	r2, r2, #29
  204482:	d5f2      	bpl.n	20446a <GLCD_Initialize+0x3da2>
  204484:	f850 2c04 	ldr.w	r2, [r0, #-4]
  204488:	680a      	ldr	r2, [r1, #0]
  20448a:	f042 0201 	orr.w	r2, r2, #1
  20448e:	600a      	str	r2, [r1, #0]
  204490:	680a      	ldr	r2, [r1, #0]
  204492:	f022 0201 	bic.w	r2, r2, #1
  204496:	600a      	str	r2, [r1, #0]
  204498:	2272      	movs	r2, #114	; 0x72
  20449a:	f840 2c04 	str.w	r2, [r0, #-4]
  20449e:	6802      	ldr	r2, [r0, #0]
  2044a0:	0752      	lsls	r2, r2, #29
  2044a2:	d409      	bmi.n	2044b8 <GLCD_Initialize+0x3df0>
  2044a4:	6802      	ldr	r2, [r0, #0]
  2044a6:	0752      	lsls	r2, r2, #29
  2044a8:	bf5c      	itt	pl
  2044aa:	6802      	ldrpl	r2, [r0, #0]
  2044ac:	ea5f 7242 	movspl.w	r2, r2, lsl #29
  2044b0:	d402      	bmi.n	2044b8 <GLCD_Initialize+0x3df0>
  2044b2:	6802      	ldr	r2, [r0, #0]
  2044b4:	0752      	lsls	r2, r2, #29
  2044b6:	d5f2      	bpl.n	20449e <GLCD_Initialize+0x3dd6>
  2044b8:	f850 2c04 	ldr.w	r2, [r0, #-4]
  2044bc:	2200      	movs	r2, #0
  2044be:	f840 2c04 	str.w	r2, [r0, #-4]
  2044c2:	6802      	ldr	r2, [r0, #0]
  2044c4:	0752      	lsls	r2, r2, #29
  2044c6:	d409      	bmi.n	2044dc <GLCD_Initialize+0x3e14>
  2044c8:	6802      	ldr	r2, [r0, #0]
  2044ca:	0752      	lsls	r2, r2, #29
  2044cc:	bf5c      	itt	pl
  2044ce:	6802      	ldrpl	r2, [r0, #0]
  2044d0:	ea5f 7242 	movspl.w	r2, r2, lsl #29
  2044d4:	d402      	bmi.n	2044dc <GLCD_Initialize+0x3e14>
  2044d6:	6802      	ldr	r2, [r0, #0]
  2044d8:	0752      	lsls	r2, r2, #29
  2044da:	d5f2      	bpl.n	2044c2 <GLCD_Initialize+0x3dfa>
  2044dc:	f850 2c04 	ldr.w	r2, [r0, #-4]
  2044e0:	2201      	movs	r2, #1
  2044e2:	f840 2c04 	str.w	r2, [r0, #-4]
  2044e6:	6802      	ldr	r2, [r0, #0]
  2044e8:	0752      	lsls	r2, r2, #29
  2044ea:	d409      	bmi.n	204500 <GLCD_Initialize+0x3e38>
  2044ec:	6802      	ldr	r2, [r0, #0]
  2044ee:	0752      	lsls	r2, r2, #29
  2044f0:	bf5c      	itt	pl
  2044f2:	6802      	ldrpl	r2, [r0, #0]
  2044f4:	ea5f 7242 	movspl.w	r2, r2, lsl #29
  2044f8:	d402      	bmi.n	204500 <GLCD_Initialize+0x3e38>
  2044fa:	6802      	ldr	r2, [r0, #0]
  2044fc:	0752      	lsls	r2, r2, #29
  2044fe:	d5f2      	bpl.n	2044e6 <GLCD_Initialize+0x3e1e>
  204500:	f850 2c04 	ldr.w	r2, [r0, #-4]
  204504:	680a      	ldr	r2, [r1, #0]
  204506:	f042 0201 	orr.w	r2, r2, #1
  20450a:	600a      	str	r2, [r1, #0]
  20450c:	680a      	ldr	r2, [r1, #0]
  20450e:	f022 0201 	bic.w	r2, r2, #1
  204512:	600a      	str	r2, [r1, #0]
  204514:	2270      	movs	r2, #112	; 0x70
  204516:	f840 2c04 	str.w	r2, [r0, #-4]
  20451a:	6802      	ldr	r2, [r0, #0]
  20451c:	0752      	lsls	r2, r2, #29
  20451e:	d409      	bmi.n	204534 <GLCD_Initialize+0x3e6c>
  204520:	6802      	ldr	r2, [r0, #0]
  204522:	0752      	lsls	r2, r2, #29
  204524:	bf5c      	itt	pl
  204526:	6802      	ldrpl	r2, [r0, #0]
  204528:	ea5f 7242 	movspl.w	r2, r2, lsl #29
  20452c:	d402      	bmi.n	204534 <GLCD_Initialize+0x3e6c>
  20452e:	6802      	ldr	r2, [r0, #0]
  204530:	0752      	lsls	r2, r2, #29
  204532:	d5f2      	bpl.n	20451a <GLCD_Initialize+0x3e52>
  204534:	f850 2c04 	ldr.w	r2, [r0, #-4]
  204538:	2200      	movs	r2, #0
  20453a:	f840 2c04 	str.w	r2, [r0, #-4]
  20453e:	6802      	ldr	r2, [r0, #0]
  204540:	0752      	lsls	r2, r2, #29
  204542:	d409      	bmi.n	204558 <GLCD_Initialize+0x3e90>
  204544:	6802      	ldr	r2, [r0, #0]
  204546:	0752      	lsls	r2, r2, #29
  204548:	bf5c      	itt	pl
  20454a:	6802      	ldrpl	r2, [r0, #0]
  20454c:	ea5f 7242 	movspl.w	r2, r2, lsl #29
  204550:	d402      	bmi.n	204558 <GLCD_Initialize+0x3e90>
  204552:	6802      	ldr	r2, [r0, #0]
  204554:	0752      	lsls	r2, r2, #29
  204556:	d5f2      	bpl.n	20453e <GLCD_Initialize+0x3e76>
  204558:	f850 2c04 	ldr.w	r2, [r0, #-4]
  20455c:	2211      	movs	r2, #17
  20455e:	f840 2c04 	str.w	r2, [r0, #-4]
  204562:	6802      	ldr	r2, [r0, #0]
  204564:	0752      	lsls	r2, r2, #29
  204566:	d409      	bmi.n	20457c <GLCD_Initialize+0x3eb4>
  204568:	6802      	ldr	r2, [r0, #0]
  20456a:	0752      	lsls	r2, r2, #29
  20456c:	bf5c      	itt	pl
  20456e:	6802      	ldrpl	r2, [r0, #0]
  204570:	ea5f 7242 	movspl.w	r2, r2, lsl #29
  204574:	d402      	bmi.n	20457c <GLCD_Initialize+0x3eb4>
  204576:	6802      	ldr	r2, [r0, #0]
  204578:	0752      	lsls	r2, r2, #29
  20457a:	d5f2      	bpl.n	204562 <GLCD_Initialize+0x3e9a>
  20457c:	f850 2c04 	ldr.w	r2, [r0, #-4]
  204580:	680a      	ldr	r2, [r1, #0]
  204582:	f042 0201 	orr.w	r2, r2, #1
  204586:	600a      	str	r2, [r1, #0]
  204588:	680a      	ldr	r2, [r1, #0]
  20458a:	f022 0201 	bic.w	r2, r2, #1
  20458e:	600a      	str	r2, [r1, #0]
  204590:	2272      	movs	r2, #114	; 0x72
  204592:	f840 2c04 	str.w	r2, [r0, #-4]
  204596:	6802      	ldr	r2, [r0, #0]
  204598:	0752      	lsls	r2, r2, #29
  20459a:	d409      	bmi.n	2045b0 <GLCD_Initialize+0x3ee8>
  20459c:	6802      	ldr	r2, [r0, #0]
  20459e:	0752      	lsls	r2, r2, #29
  2045a0:	bf5c      	itt	pl
  2045a2:	6802      	ldrpl	r2, [r0, #0]
  2045a4:	ea5f 7242 	movspl.w	r2, r2, lsl #29
  2045a8:	d402      	bmi.n	2045b0 <GLCD_Initialize+0x3ee8>
  2045aa:	6802      	ldr	r2, [r0, #0]
  2045ac:	0752      	lsls	r2, r2, #29
  2045ae:	d5f2      	bpl.n	204596 <GLCD_Initialize+0x3ece>
  2045b0:	f850 2c04 	ldr.w	r2, [r0, #-4]
  2045b4:	2200      	movs	r2, #0
  2045b6:	f840 2c04 	str.w	r2, [r0, #-4]
  2045ba:	6802      	ldr	r2, [r0, #0]
  2045bc:	0752      	lsls	r2, r2, #29
  2045be:	d409      	bmi.n	2045d4 <GLCD_Initialize+0x3f0c>
  2045c0:	6802      	ldr	r2, [r0, #0]
  2045c2:	0752      	lsls	r2, r2, #29
  2045c4:	bf5c      	itt	pl
  2045c6:	6802      	ldrpl	r2, [r0, #0]
  2045c8:	ea5f 7242 	movspl.w	r2, r2, lsl #29
  2045cc:	d402      	bmi.n	2045d4 <GLCD_Initialize+0x3f0c>
  2045ce:	6802      	ldr	r2, [r0, #0]
  2045d0:	0752      	lsls	r2, r2, #29
  2045d2:	d5f2      	bpl.n	2045ba <GLCD_Initialize+0x3ef2>
  2045d4:	f850 2c04 	ldr.w	r2, [r0, #-4]
  2045d8:	2240      	movs	r2, #64	; 0x40
  2045da:	f840 2c04 	str.w	r2, [r0, #-4]
  2045de:	6802      	ldr	r2, [r0, #0]
  2045e0:	0752      	lsls	r2, r2, #29
  2045e2:	d409      	bmi.n	2045f8 <GLCD_Initialize+0x3f30>
  2045e4:	6802      	ldr	r2, [r0, #0]
  2045e6:	0752      	lsls	r2, r2, #29
  2045e8:	bf5c      	itt	pl
  2045ea:	6802      	ldrpl	r2, [r0, #0]
  2045ec:	ea5f 7242 	movspl.w	r2, r2, lsl #29
  2045f0:	d402      	bmi.n	2045f8 <GLCD_Initialize+0x3f30>
  2045f2:	6802      	ldr	r2, [r0, #0]
  2045f4:	0752      	lsls	r2, r2, #29
  2045f6:	d5f2      	bpl.n	2045de <GLCD_Initialize+0x3f16>
  2045f8:	f850 2c04 	ldr.w	r2, [r0, #-4]
  2045fc:	680a      	ldr	r2, [r1, #0]
  2045fe:	f042 0201 	orr.w	r2, r2, #1
  204602:	600a      	str	r2, [r1, #0]
  204604:	680a      	ldr	r2, [r1, #0]
  204606:	f022 0201 	bic.w	r2, r2, #1
  20460a:	600a      	str	r2, [r1, #0]
  20460c:	2270      	movs	r2, #112	; 0x70
  20460e:	f840 2c04 	str.w	r2, [r0, #-4]
  204612:	6802      	ldr	r2, [r0, #0]
  204614:	0752      	lsls	r2, r2, #29
  204616:	d409      	bmi.n	20462c <GLCD_Initialize+0x3f64>
  204618:	6802      	ldr	r2, [r0, #0]
  20461a:	0752      	lsls	r2, r2, #29
  20461c:	bf5c      	itt	pl
  20461e:	6802      	ldrpl	r2, [r0, #0]
  204620:	ea5f 7242 	movspl.w	r2, r2, lsl #29
  204624:	d402      	bmi.n	20462c <GLCD_Initialize+0x3f64>
  204626:	6802      	ldr	r2, [r0, #0]
  204628:	0752      	lsls	r2, r2, #29
  20462a:	d5f2      	bpl.n	204612 <GLCD_Initialize+0x3f4a>
  20462c:	f850 2c04 	ldr.w	r2, [r0, #-4]
  204630:	2200      	movs	r2, #0
  204632:	f840 2c04 	str.w	r2, [r0, #-4]
  204636:	6802      	ldr	r2, [r0, #0]
  204638:	0752      	lsls	r2, r2, #29
  20463a:	d409      	bmi.n	204650 <GLCD_Initialize+0x3f88>
  20463c:	6802      	ldr	r2, [r0, #0]
  20463e:	0752      	lsls	r2, r2, #29
  204640:	bf5c      	itt	pl
  204642:	6802      	ldrpl	r2, [r0, #0]
  204644:	ea5f 7242 	movspl.w	r2, r2, lsl #29
  204648:	d402      	bmi.n	204650 <GLCD_Initialize+0x3f88>
  20464a:	6802      	ldr	r2, [r0, #0]
  20464c:	0752      	lsls	r2, r2, #29
  20464e:	d5f2      	bpl.n	204636 <GLCD_Initialize+0x3f6e>
  204650:	f850 2c04 	ldr.w	r2, [r0, #-4]
  204654:	2212      	movs	r2, #18
  204656:	f840 2c04 	str.w	r2, [r0, #-4]
  20465a:	6802      	ldr	r2, [r0, #0]
  20465c:	0752      	lsls	r2, r2, #29
  20465e:	d409      	bmi.n	204674 <GLCD_Initialize+0x3fac>
  204660:	6802      	ldr	r2, [r0, #0]
  204662:	0752      	lsls	r2, r2, #29
  204664:	bf5c      	itt	pl
  204666:	6802      	ldrpl	r2, [r0, #0]
  204668:	ea5f 7242 	movspl.w	r2, r2, lsl #29
  20466c:	d402      	bmi.n	204674 <GLCD_Initialize+0x3fac>
  20466e:	6802      	ldr	r2, [r0, #0]
  204670:	0752      	lsls	r2, r2, #29
  204672:	d5f2      	bpl.n	20465a <GLCD_Initialize+0x3f92>
  204674:	f850 2c04 	ldr.w	r2, [r0, #-4]
  204678:	680a      	ldr	r2, [r1, #0]
  20467a:	f042 0201 	orr.w	r2, r2, #1
  20467e:	600a      	str	r2, [r1, #0]
  204680:	680a      	ldr	r2, [r1, #0]
  204682:	f022 0201 	bic.w	r2, r2, #1
  204686:	600a      	str	r2, [r1, #0]
  204688:	2272      	movs	r2, #114	; 0x72
  20468a:	f840 2c04 	str.w	r2, [r0, #-4]
  20468e:	6802      	ldr	r2, [r0, #0]
  204690:	0752      	lsls	r2, r2, #29
  204692:	d409      	bmi.n	2046a8 <GLCD_Initialize+0x3fe0>
  204694:	6802      	ldr	r2, [r0, #0]
  204696:	0752      	lsls	r2, r2, #29
  204698:	bf5c      	itt	pl
  20469a:	6802      	ldrpl	r2, [r0, #0]
  20469c:	ea5f 7242 	movspl.w	r2, r2, lsl #29
  2046a0:	d402      	bmi.n	2046a8 <GLCD_Initialize+0x3fe0>
  2046a2:	6802      	ldr	r2, [r0, #0]
  2046a4:	0752      	lsls	r2, r2, #29
  2046a6:	d5f2      	bpl.n	20468e <GLCD_Initialize+0x3fc6>
  2046a8:	f850 2c04 	ldr.w	r2, [r0, #-4]
  2046ac:	2200      	movs	r2, #0
  2046ae:	f840 2c04 	str.w	r2, [r0, #-4]
  2046b2:	6802      	ldr	r2, [r0, #0]
  2046b4:	0752      	lsls	r2, r2, #29
  2046b6:	d409      	bmi.n	2046cc <GLCD_Initialize+0x4004>
  2046b8:	6802      	ldr	r2, [r0, #0]
  2046ba:	0752      	lsls	r2, r2, #29
  2046bc:	bf5c      	itt	pl
  2046be:	6802      	ldrpl	r2, [r0, #0]
  2046c0:	ea5f 7242 	movspl.w	r2, r2, lsl #29
  2046c4:	d402      	bmi.n	2046cc <GLCD_Initialize+0x4004>
  2046c6:	6802      	ldr	r2, [r0, #0]
  2046c8:	0752      	lsls	r2, r2, #29
  2046ca:	d5f2      	bpl.n	2046b2 <GLCD_Initialize+0x3fea>
  2046cc:	f850 2c04 	ldr.w	r2, [r0, #-4]
  2046d0:	2200      	movs	r2, #0
  2046d2:	f840 2c04 	str.w	r2, [r0, #-4]
  2046d6:	6802      	ldr	r2, [r0, #0]
  2046d8:	0752      	lsls	r2, r2, #29
  2046da:	d409      	bmi.n	2046f0 <GLCD_Initialize+0x4028>
  2046dc:	6802      	ldr	r2, [r0, #0]
  2046de:	0752      	lsls	r2, r2, #29
  2046e0:	bf5c      	itt	pl
  2046e2:	6802      	ldrpl	r2, [r0, #0]
  2046e4:	ea5f 7242 	movspl.w	r2, r2, lsl #29
  2046e8:	d402      	bmi.n	2046f0 <GLCD_Initialize+0x4028>
  2046ea:	6802      	ldr	r2, [r0, #0]
  2046ec:	0752      	lsls	r2, r2, #29
  2046ee:	d5f2      	bpl.n	2046d6 <GLCD_Initialize+0x400e>
  2046f0:	f850 2c04 	ldr.w	r2, [r0, #-4]
  2046f4:	680a      	ldr	r2, [r1, #0]
  2046f6:	f042 0201 	orr.w	r2, r2, #1
  2046fa:	600a      	str	r2, [r1, #0]
  2046fc:	680a      	ldr	r2, [r1, #0]
  2046fe:	f022 0201 	bic.w	r2, r2, #1
  204702:	600a      	str	r2, [r1, #0]
  204704:	2270      	movs	r2, #112	; 0x70
  204706:	f840 2c04 	str.w	r2, [r0, #-4]
  20470a:	6802      	ldr	r2, [r0, #0]
  20470c:	0752      	lsls	r2, r2, #29
  20470e:	d409      	bmi.n	204724 <GLCD_Initialize+0x405c>
  204710:	6802      	ldr	r2, [r0, #0]
  204712:	0752      	lsls	r2, r2, #29
  204714:	bf5c      	itt	pl
  204716:	6802      	ldrpl	r2, [r0, #0]
  204718:	ea5f 7242 	movspl.w	r2, r2, lsl #29
  20471c:	d402      	bmi.n	204724 <GLCD_Initialize+0x405c>
  20471e:	6802      	ldr	r2, [r0, #0]
  204720:	0752      	lsls	r2, r2, #29
  204722:	d5f2      	bpl.n	20470a <GLCD_Initialize+0x4042>
  204724:	f850 2c04 	ldr.w	r2, [r0, #-4]
  204728:	2200      	movs	r2, #0
  20472a:	f840 2c04 	str.w	r2, [r0, #-4]
  20472e:	6802      	ldr	r2, [r0, #0]
  204730:	0752      	lsls	r2, r2, #29
  204732:	d409      	bmi.n	204748 <GLCD_Initialize+0x4080>
  204734:	6802      	ldr	r2, [r0, #0]
  204736:	0752      	lsls	r2, r2, #29
  204738:	bf5c      	itt	pl
  20473a:	6802      	ldrpl	r2, [r0, #0]
  20473c:	ea5f 7242 	movspl.w	r2, r2, lsl #29
  204740:	d402      	bmi.n	204748 <GLCD_Initialize+0x4080>
  204742:	6802      	ldr	r2, [r0, #0]
  204744:	0752      	lsls	r2, r2, #29
  204746:	d5f2      	bpl.n	20472e <GLCD_Initialize+0x4066>
  204748:	f850 2c04 	ldr.w	r2, [r0, #-4]
  20474c:	2213      	movs	r2, #19
  20474e:	f840 2c04 	str.w	r2, [r0, #-4]
  204752:	6802      	ldr	r2, [r0, #0]
  204754:	0752      	lsls	r2, r2, #29
  204756:	d409      	bmi.n	20476c <GLCD_Initialize+0x40a4>
  204758:	6802      	ldr	r2, [r0, #0]
  20475a:	0752      	lsls	r2, r2, #29
  20475c:	bf5c      	itt	pl
  20475e:	6802      	ldrpl	r2, [r0, #0]
  204760:	ea5f 7242 	movspl.w	r2, r2, lsl #29
  204764:	d402      	bmi.n	20476c <GLCD_Initialize+0x40a4>
  204766:	6802      	ldr	r2, [r0, #0]
  204768:	0752      	lsls	r2, r2, #29
  20476a:	d5f2      	bpl.n	204752 <GLCD_Initialize+0x408a>
  20476c:	f850 2c04 	ldr.w	r2, [r0, #-4]
  204770:	680a      	ldr	r2, [r1, #0]
  204772:	f042 0201 	orr.w	r2, r2, #1
  204776:	600a      	str	r2, [r1, #0]
  204778:	680a      	ldr	r2, [r1, #0]
  20477a:	f022 0201 	bic.w	r2, r2, #1
  20477e:	600a      	str	r2, [r1, #0]
  204780:	2272      	movs	r2, #114	; 0x72
  204782:	f840 2c04 	str.w	r2, [r0, #-4]
  204786:	6802      	ldr	r2, [r0, #0]
  204788:	0752      	lsls	r2, r2, #29
  20478a:	d409      	bmi.n	2047a0 <GLCD_Initialize+0x40d8>
  20478c:	6802      	ldr	r2, [r0, #0]
  20478e:	0752      	lsls	r2, r2, #29
  204790:	bf5c      	itt	pl
  204792:	6802      	ldrpl	r2, [r0, #0]
  204794:	ea5f 7242 	movspl.w	r2, r2, lsl #29
  204798:	d402      	bmi.n	2047a0 <GLCD_Initialize+0x40d8>
  20479a:	6802      	ldr	r2, [r0, #0]
  20479c:	0752      	lsls	r2, r2, #29
  20479e:	d5f2      	bpl.n	204786 <GLCD_Initialize+0x40be>
  2047a0:	f850 2c04 	ldr.w	r2, [r0, #-4]
  2047a4:	2200      	movs	r2, #0
  2047a6:	f840 2c04 	str.w	r2, [r0, #-4]
  2047aa:	6802      	ldr	r2, [r0, #0]
  2047ac:	0752      	lsls	r2, r2, #29
  2047ae:	d409      	bmi.n	2047c4 <GLCD_Initialize+0x40fc>
  2047b0:	6802      	ldr	r2, [r0, #0]
  2047b2:	0752      	lsls	r2, r2, #29
  2047b4:	bf5c      	itt	pl
  2047b6:	6802      	ldrpl	r2, [r0, #0]
  2047b8:	ea5f 7242 	movspl.w	r2, r2, lsl #29
  2047bc:	d402      	bmi.n	2047c4 <GLCD_Initialize+0x40fc>
  2047be:	6802      	ldr	r2, [r0, #0]
  2047c0:	0752      	lsls	r2, r2, #29
  2047c2:	d5f2      	bpl.n	2047aa <GLCD_Initialize+0x40e2>
  2047c4:	f850 2c04 	ldr.w	r2, [r0, #-4]
  2047c8:	2200      	movs	r2, #0
  2047ca:	f840 2c04 	str.w	r2, [r0, #-4]
  2047ce:	6802      	ldr	r2, [r0, #0]
  2047d0:	0752      	lsls	r2, r2, #29
  2047d2:	d409      	bmi.n	2047e8 <GLCD_Initialize+0x4120>
  2047d4:	6802      	ldr	r2, [r0, #0]
  2047d6:	0752      	lsls	r2, r2, #29
  2047d8:	bf5c      	itt	pl
  2047da:	6802      	ldrpl	r2, [r0, #0]
  2047dc:	ea5f 7242 	movspl.w	r2, r2, lsl #29
  2047e0:	d402      	bmi.n	2047e8 <GLCD_Initialize+0x4120>
  2047e2:	6802      	ldr	r2, [r0, #0]
  2047e4:	0752      	lsls	r2, r2, #29
  2047e6:	d5f2      	bpl.n	2047ce <GLCD_Initialize+0x4106>
  2047e8:	f850 0c04 	ldr.w	r0, [r0, #-4]
  2047ec:	6808      	ldr	r0, [r1, #0]
  2047ee:	f040 0001 	orr.w	r0, r0, #1
  2047f2:	6008      	str	r0, [r1, #0]
  2047f4:	6808      	ldr	r0, [r1, #0]
  2047f6:	f040 0040 	orr.w	r0, r0, #64	; 0x40
  2047fa:	6008      	str	r0, [r1, #0]
  2047fc:	4770      	bx	lr
	...

00204800 <GLCD_SetWindow>:
  204800:	b5b0      	push	{r4, r5, r7, lr}
  204802:	f242 0c4c 	movw	ip, #8268	; 0x204c
  204806:	f2c4 0c30 	movt	ip, #16432	; 0x4030
  20480a:	f8dc 5000 	ldr.w	r5, [ip]
  20480e:	440b      	add	r3, r1
  204810:	f1a3 0e01 	sub.w	lr, r3, #1
  204814:	f025 0301 	bic.w	r3, r5, #1
  204818:	f8cc 3000 	str.w	r3, [ip]
  20481c:	f246 030c 	movw	r3, #24588	; 0x600c
  204820:	1e44      	subs	r4, r0, #1
  204822:	f2c4 0320 	movt	r3, #16416	; 0x4020
  204826:	2570      	movs	r5, #112	; 0x70
  204828:	f843 5c04 	str.w	r5, [r3, #-4]
  20482c:	681d      	ldr	r5, [r3, #0]
  20482e:	076d      	lsls	r5, r5, #29
  204830:	d409      	bmi.n	204846 <GLCD_SetWindow+0x46>
  204832:	681d      	ldr	r5, [r3, #0]
  204834:	076d      	lsls	r5, r5, #29
  204836:	bf5c      	itt	pl
  204838:	681d      	ldrpl	r5, [r3, #0]
  20483a:	ea5f 7545 	movspl.w	r5, r5, lsl #29
  20483e:	d402      	bmi.n	204846 <GLCD_SetWindow+0x46>
  204840:	681d      	ldr	r5, [r3, #0]
  204842:	076d      	lsls	r5, r5, #29
  204844:	d5f2      	bpl.n	20482c <GLCD_SetWindow+0x2c>
  204846:	4422      	add	r2, r4
  204848:	f853 4c04 	ldr.w	r4, [r3, #-4]
  20484c:	2400      	movs	r4, #0
  20484e:	f843 4c04 	str.w	r4, [r3, #-4]
  204852:	681c      	ldr	r4, [r3, #0]
  204854:	0764      	lsls	r4, r4, #29
  204856:	d409      	bmi.n	20486c <GLCD_SetWindow+0x6c>
  204858:	681c      	ldr	r4, [r3, #0]
  20485a:	0764      	lsls	r4, r4, #29
  20485c:	bf5c      	itt	pl
  20485e:	681c      	ldrpl	r4, [r3, #0]
  204860:	ea5f 7444 	movspl.w	r4, r4, lsl #29
  204864:	d402      	bmi.n	20486c <GLCD_SetWindow+0x6c>
  204866:	681c      	ldr	r4, [r3, #0]
  204868:	0764      	lsls	r4, r4, #29
  20486a:	d5f2      	bpl.n	204852 <GLCD_SetWindow+0x52>
  20486c:	f853 4c04 	ldr.w	r4, [r3, #-4]
  204870:	2402      	movs	r4, #2
  204872:	f843 4c04 	str.w	r4, [r3, #-4]
  204876:	681c      	ldr	r4, [r3, #0]
  204878:	0764      	lsls	r4, r4, #29
  20487a:	d409      	bmi.n	204890 <GLCD_SetWindow+0x90>
  20487c:	681c      	ldr	r4, [r3, #0]
  20487e:	0764      	lsls	r4, r4, #29
  204880:	bf5c      	itt	pl
  204882:	681c      	ldrpl	r4, [r3, #0]
  204884:	ea5f 7444 	movspl.w	r4, r4, lsl #29
  204888:	d402      	bmi.n	204890 <GLCD_SetWindow+0x90>
  20488a:	681c      	ldr	r4, [r3, #0]
  20488c:	0764      	lsls	r4, r4, #29
  20488e:	d5f2      	bpl.n	204876 <GLCD_SetWindow+0x76>
  204890:	f853 4c04 	ldr.w	r4, [r3, #-4]
  204894:	f8dc 4000 	ldr.w	r4, [ip]
  204898:	f044 0401 	orr.w	r4, r4, #1
  20489c:	f8cc 4000 	str.w	r4, [ip]
  2048a0:	f8dc 4000 	ldr.w	r4, [ip]
  2048a4:	f024 0401 	bic.w	r4, r4, #1
  2048a8:	f8cc 4000 	str.w	r4, [ip]
  2048ac:	2472      	movs	r4, #114	; 0x72
  2048ae:	f843 4c04 	str.w	r4, [r3, #-4]
  2048b2:	681c      	ldr	r4, [r3, #0]
  2048b4:	0764      	lsls	r4, r4, #29
  2048b6:	d409      	bmi.n	2048cc <GLCD_SetWindow+0xcc>
  2048b8:	681c      	ldr	r4, [r3, #0]
  2048ba:	0764      	lsls	r4, r4, #29
  2048bc:	bf5c      	itt	pl
  2048be:	681c      	ldrpl	r4, [r3, #0]
  2048c0:	ea5f 7444 	movspl.w	r4, r4, lsl #29
  2048c4:	d402      	bmi.n	2048cc <GLCD_SetWindow+0xcc>
  2048c6:	681c      	ldr	r4, [r3, #0]
  2048c8:	0764      	lsls	r4, r4, #29
  2048ca:	d5f2      	bpl.n	2048b2 <GLCD_SetWindow+0xb2>
  2048cc:	f3c0 4407 	ubfx	r4, r0, #16, #8
  2048d0:	f853 5c04 	ldr.w	r5, [r3, #-4]
  2048d4:	f843 4c04 	str.w	r4, [r3, #-4]
  2048d8:	681c      	ldr	r4, [r3, #0]
  2048da:	0764      	lsls	r4, r4, #29
  2048dc:	d409      	bmi.n	2048f2 <GLCD_SetWindow+0xf2>
  2048de:	681c      	ldr	r4, [r3, #0]
  2048e0:	0764      	lsls	r4, r4, #29
  2048e2:	bf5c      	itt	pl
  2048e4:	681c      	ldrpl	r4, [r3, #0]
  2048e6:	ea5f 7444 	movspl.w	r4, r4, lsl #29
  2048ea:	d402      	bmi.n	2048f2 <GLCD_SetWindow+0xf2>
  2048ec:	681c      	ldr	r4, [r3, #0]
  2048ee:	0764      	lsls	r4, r4, #29
  2048f0:	d5f2      	bpl.n	2048d8 <GLCD_SetWindow+0xd8>
  2048f2:	f3c0 2407 	ubfx	r4, r0, #8, #8
  2048f6:	f853 5c04 	ldr.w	r5, [r3, #-4]
  2048fa:	f843 4c04 	str.w	r4, [r3, #-4]
  2048fe:	681c      	ldr	r4, [r3, #0]
  204900:	0764      	lsls	r4, r4, #29
  204902:	d409      	bmi.n	204918 <GLCD_SetWindow+0x118>
  204904:	681c      	ldr	r4, [r3, #0]
  204906:	0764      	lsls	r4, r4, #29
  204908:	bf5c      	itt	pl
  20490a:	681c      	ldrpl	r4, [r3, #0]
  20490c:	ea5f 7444 	movspl.w	r4, r4, lsl #29
  204910:	d402      	bmi.n	204918 <GLCD_SetWindow+0x118>
  204912:	681c      	ldr	r4, [r3, #0]
  204914:	0764      	lsls	r4, r4, #29
  204916:	d5f2      	bpl.n	2048fe <GLCD_SetWindow+0xfe>
  204918:	f853 4c04 	ldr.w	r4, [r3, #-4]
  20491c:	f8dc 4000 	ldr.w	r4, [ip]
  204920:	f044 0401 	orr.w	r4, r4, #1
  204924:	f8cc 4000 	str.w	r4, [ip]
  204928:	f8dc 4000 	ldr.w	r4, [ip]
  20492c:	f024 0401 	bic.w	r4, r4, #1
  204930:	f8cc 4000 	str.w	r4, [ip]
  204934:	2470      	movs	r4, #112	; 0x70
  204936:	f843 4c04 	str.w	r4, [r3, #-4]
  20493a:	681c      	ldr	r4, [r3, #0]
  20493c:	0764      	lsls	r4, r4, #29
  20493e:	d409      	bmi.n	204954 <GLCD_SetWindow+0x154>
  204940:	681c      	ldr	r4, [r3, #0]
  204942:	0764      	lsls	r4, r4, #29
  204944:	bf5c      	itt	pl
  204946:	681c      	ldrpl	r4, [r3, #0]
  204948:	ea5f 7444 	movspl.w	r4, r4, lsl #29
  20494c:	d402      	bmi.n	204954 <GLCD_SetWindow+0x154>
  20494e:	681c      	ldr	r4, [r3, #0]
  204950:	0764      	lsls	r4, r4, #29
  204952:	d5f2      	bpl.n	20493a <GLCD_SetWindow+0x13a>
  204954:	f853 4c04 	ldr.w	r4, [r3, #-4]
  204958:	2400      	movs	r4, #0
  20495a:	f843 4c04 	str.w	r4, [r3, #-4]
  20495e:	681c      	ldr	r4, [r3, #0]
  204960:	0764      	lsls	r4, r4, #29
  204962:	d409      	bmi.n	204978 <GLCD_SetWindow+0x178>
  204964:	681c      	ldr	r4, [r3, #0]
  204966:	0764      	lsls	r4, r4, #29
  204968:	bf5c      	itt	pl
  20496a:	681c      	ldrpl	r4, [r3, #0]
  20496c:	ea5f 7444 	movspl.w	r4, r4, lsl #29
  204970:	d402      	bmi.n	204978 <GLCD_SetWindow+0x178>
  204972:	681c      	ldr	r4, [r3, #0]
  204974:	0764      	lsls	r4, r4, #29
  204976:	d5f2      	bpl.n	20495e <GLCD_SetWindow+0x15e>
  204978:	f853 4c04 	ldr.w	r4, [r3, #-4]
  20497c:	2403      	movs	r4, #3
  20497e:	f843 4c04 	str.w	r4, [r3, #-4]
  204982:	681c      	ldr	r4, [r3, #0]
  204984:	0764      	lsls	r4, r4, #29
  204986:	d409      	bmi.n	20499c <GLCD_SetWindow+0x19c>
  204988:	681c      	ldr	r4, [r3, #0]
  20498a:	0764      	lsls	r4, r4, #29
  20498c:	bf5c      	itt	pl
  20498e:	681c      	ldrpl	r4, [r3, #0]
  204990:	ea5f 7444 	movspl.w	r4, r4, lsl #29
  204994:	d402      	bmi.n	20499c <GLCD_SetWindow+0x19c>
  204996:	681c      	ldr	r4, [r3, #0]
  204998:	0764      	lsls	r4, r4, #29
  20499a:	d5f2      	bpl.n	204982 <GLCD_SetWindow+0x182>
  20499c:	f853 4c04 	ldr.w	r4, [r3, #-4]
  2049a0:	f8dc 4000 	ldr.w	r4, [ip]
  2049a4:	f044 0401 	orr.w	r4, r4, #1
  2049a8:	f8cc 4000 	str.w	r4, [ip]
  2049ac:	f8dc 4000 	ldr.w	r4, [ip]
  2049b0:	f024 0401 	bic.w	r4, r4, #1
  2049b4:	f8cc 4000 	str.w	r4, [ip]
  2049b8:	2472      	movs	r4, #114	; 0x72
  2049ba:	f843 4c04 	str.w	r4, [r3, #-4]
  2049be:	681c      	ldr	r4, [r3, #0]
  2049c0:	0764      	lsls	r4, r4, #29
  2049c2:	d409      	bmi.n	2049d8 <GLCD_SetWindow+0x1d8>
  2049c4:	681c      	ldr	r4, [r3, #0]
  2049c6:	0764      	lsls	r4, r4, #29
  2049c8:	bf5c      	itt	pl
  2049ca:	681c      	ldrpl	r4, [r3, #0]
  2049cc:	ea5f 7444 	movspl.w	r4, r4, lsl #29
  2049d0:	d402      	bmi.n	2049d8 <GLCD_SetWindow+0x1d8>
  2049d2:	681c      	ldr	r4, [r3, #0]
  2049d4:	0764      	lsls	r4, r4, #29
  2049d6:	d5f2      	bpl.n	2049be <GLCD_SetWindow+0x1be>
  2049d8:	f853 4c04 	ldr.w	r4, [r3, #-4]
  2049dc:	2400      	movs	r4, #0
  2049de:	f843 4c04 	str.w	r4, [r3, #-4]
  2049e2:	681c      	ldr	r4, [r3, #0]
  2049e4:	0764      	lsls	r4, r4, #29
  2049e6:	d409      	bmi.n	2049fc <GLCD_SetWindow+0x1fc>
  2049e8:	681c      	ldr	r4, [r3, #0]
  2049ea:	0764      	lsls	r4, r4, #29
  2049ec:	bf5c      	itt	pl
  2049ee:	681c      	ldrpl	r4, [r3, #0]
  2049f0:	ea5f 7444 	movspl.w	r4, r4, lsl #29
  2049f4:	d402      	bmi.n	2049fc <GLCD_SetWindow+0x1fc>
  2049f6:	681c      	ldr	r4, [r3, #0]
  2049f8:	0764      	lsls	r4, r4, #29
  2049fa:	d5f2      	bpl.n	2049e2 <GLCD_SetWindow+0x1e2>
  2049fc:	b2c0      	uxtb	r0, r0
  2049fe:	f853 4c04 	ldr.w	r4, [r3, #-4]
  204a02:	f843 0c04 	str.w	r0, [r3, #-4]
  204a06:	6818      	ldr	r0, [r3, #0]
  204a08:	0740      	lsls	r0, r0, #29
  204a0a:	d409      	bmi.n	204a20 <GLCD_SetWindow+0x220>
  204a0c:	6818      	ldr	r0, [r3, #0]
  204a0e:	0740      	lsls	r0, r0, #29
  204a10:	bf5c      	itt	pl
  204a12:	6818      	ldrpl	r0, [r3, #0]
  204a14:	ea5f 7040 	movspl.w	r0, r0, lsl #29
  204a18:	d402      	bmi.n	204a20 <GLCD_SetWindow+0x220>
  204a1a:	6818      	ldr	r0, [r3, #0]
  204a1c:	0740      	lsls	r0, r0, #29
  204a1e:	d5f2      	bpl.n	204a06 <GLCD_SetWindow+0x206>
  204a20:	f853 0c04 	ldr.w	r0, [r3, #-4]
  204a24:	f8dc 0000 	ldr.w	r0, [ip]
  204a28:	f040 0001 	orr.w	r0, r0, #1
  204a2c:	f8cc 0000 	str.w	r0, [ip]
  204a30:	f8dc 0000 	ldr.w	r0, [ip]
  204a34:	f020 0001 	bic.w	r0, r0, #1
  204a38:	f8cc 0000 	str.w	r0, [ip]
  204a3c:	2070      	movs	r0, #112	; 0x70
  204a3e:	f843 0c04 	str.w	r0, [r3, #-4]
  204a42:	6818      	ldr	r0, [r3, #0]
  204a44:	0740      	lsls	r0, r0, #29
  204a46:	d409      	bmi.n	204a5c <GLCD_SetWindow+0x25c>
  204a48:	6818      	ldr	r0, [r3, #0]
  204a4a:	0740      	lsls	r0, r0, #29
  204a4c:	bf5c      	itt	pl
  204a4e:	6818      	ldrpl	r0, [r3, #0]
  204a50:	ea5f 7040 	movspl.w	r0, r0, lsl #29
  204a54:	d402      	bmi.n	204a5c <GLCD_SetWindow+0x25c>
  204a56:	6818      	ldr	r0, [r3, #0]
  204a58:	0740      	lsls	r0, r0, #29
  204a5a:	d5f2      	bpl.n	204a42 <GLCD_SetWindow+0x242>
  204a5c:	f853 0c04 	ldr.w	r0, [r3, #-4]
  204a60:	2000      	movs	r0, #0
  204a62:	f843 0c04 	str.w	r0, [r3, #-4]
  204a66:	6818      	ldr	r0, [r3, #0]
  204a68:	0740      	lsls	r0, r0, #29
  204a6a:	d409      	bmi.n	204a80 <GLCD_SetWindow+0x280>
  204a6c:	6818      	ldr	r0, [r3, #0]
  204a6e:	0740      	lsls	r0, r0, #29
  204a70:	bf5c      	itt	pl
  204a72:	6818      	ldrpl	r0, [r3, #0]
  204a74:	ea5f 7040 	movspl.w	r0, r0, lsl #29
  204a78:	d402      	bmi.n	204a80 <GLCD_SetWindow+0x280>
  204a7a:	6818      	ldr	r0, [r3, #0]
  204a7c:	0740      	lsls	r0, r0, #29
  204a7e:	d5f2      	bpl.n	204a66 <GLCD_SetWindow+0x266>
  204a80:	f853 0c04 	ldr.w	r0, [r3, #-4]
  204a84:	2004      	movs	r0, #4
  204a86:	f843 0c04 	str.w	r0, [r3, #-4]
  204a8a:	6818      	ldr	r0, [r3, #0]
  204a8c:	0740      	lsls	r0, r0, #29
  204a8e:	d409      	bmi.n	204aa4 <GLCD_SetWindow+0x2a4>
  204a90:	6818      	ldr	r0, [r3, #0]
  204a92:	0740      	lsls	r0, r0, #29
  204a94:	bf5c      	itt	pl
  204a96:	6818      	ldrpl	r0, [r3, #0]
  204a98:	ea5f 7040 	movspl.w	r0, r0, lsl #29
  204a9c:	d402      	bmi.n	204aa4 <GLCD_SetWindow+0x2a4>
  204a9e:	6818      	ldr	r0, [r3, #0]
  204aa0:	0740      	lsls	r0, r0, #29
  204aa2:	d5f2      	bpl.n	204a8a <GLCD_SetWindow+0x28a>
  204aa4:	f853 0c04 	ldr.w	r0, [r3, #-4]
  204aa8:	f8dc 0000 	ldr.w	r0, [ip]
  204aac:	f040 0001 	orr.w	r0, r0, #1
  204ab0:	f8cc 0000 	str.w	r0, [ip]
  204ab4:	f8dc 0000 	ldr.w	r0, [ip]
  204ab8:	f020 0001 	bic.w	r0, r0, #1
  204abc:	f8cc 0000 	str.w	r0, [ip]
  204ac0:	2072      	movs	r0, #114	; 0x72
  204ac2:	f843 0c04 	str.w	r0, [r3, #-4]
  204ac6:	6818      	ldr	r0, [r3, #0]
  204ac8:	0740      	lsls	r0, r0, #29
  204aca:	d409      	bmi.n	204ae0 <GLCD_SetWindow+0x2e0>
  204acc:	6818      	ldr	r0, [r3, #0]
  204ace:	0740      	lsls	r0, r0, #29
  204ad0:	bf5c      	itt	pl
  204ad2:	6818      	ldrpl	r0, [r3, #0]
  204ad4:	ea5f 7040 	movspl.w	r0, r0, lsl #29
  204ad8:	d402      	bmi.n	204ae0 <GLCD_SetWindow+0x2e0>
  204ada:	6818      	ldr	r0, [r3, #0]
  204adc:	0740      	lsls	r0, r0, #29
  204ade:	d5f2      	bpl.n	204ac6 <GLCD_SetWindow+0x2c6>
  204ae0:	f3c2 4007 	ubfx	r0, r2, #16, #8
  204ae4:	f853 4c04 	ldr.w	r4, [r3, #-4]
  204ae8:	f843 0c04 	str.w	r0, [r3, #-4]
  204aec:	6818      	ldr	r0, [r3, #0]
  204aee:	0740      	lsls	r0, r0, #29
  204af0:	d409      	bmi.n	204b06 <GLCD_SetWindow+0x306>
  204af2:	6818      	ldr	r0, [r3, #0]
  204af4:	0740      	lsls	r0, r0, #29
  204af6:	bf5c      	itt	pl
  204af8:	6818      	ldrpl	r0, [r3, #0]
  204afa:	ea5f 7040 	movspl.w	r0, r0, lsl #29
  204afe:	d402      	bmi.n	204b06 <GLCD_SetWindow+0x306>
  204b00:	6818      	ldr	r0, [r3, #0]
  204b02:	0740      	lsls	r0, r0, #29
  204b04:	d5f2      	bpl.n	204aec <GLCD_SetWindow+0x2ec>
  204b06:	f3c2 2007 	ubfx	r0, r2, #8, #8
  204b0a:	f853 4c04 	ldr.w	r4, [r3, #-4]
  204b0e:	f843 0c04 	str.w	r0, [r3, #-4]
  204b12:	6818      	ldr	r0, [r3, #0]
  204b14:	0740      	lsls	r0, r0, #29
  204b16:	d409      	bmi.n	204b2c <GLCD_SetWindow+0x32c>
  204b18:	6818      	ldr	r0, [r3, #0]
  204b1a:	0740      	lsls	r0, r0, #29
  204b1c:	bf5c      	itt	pl
  204b1e:	6818      	ldrpl	r0, [r3, #0]
  204b20:	ea5f 7040 	movspl.w	r0, r0, lsl #29
  204b24:	d402      	bmi.n	204b2c <GLCD_SetWindow+0x32c>
  204b26:	6818      	ldr	r0, [r3, #0]
  204b28:	0740      	lsls	r0, r0, #29
  204b2a:	d5f2      	bpl.n	204b12 <GLCD_SetWindow+0x312>
  204b2c:	f853 0c04 	ldr.w	r0, [r3, #-4]
  204b30:	f8dc 0000 	ldr.w	r0, [ip]
  204b34:	f040 0001 	orr.w	r0, r0, #1
  204b38:	f8cc 0000 	str.w	r0, [ip]
  204b3c:	f8dc 0000 	ldr.w	r0, [ip]
  204b40:	f020 0001 	bic.w	r0, r0, #1
  204b44:	f8cc 0000 	str.w	r0, [ip]
  204b48:	2070      	movs	r0, #112	; 0x70
  204b4a:	f843 0c04 	str.w	r0, [r3, #-4]
  204b4e:	6818      	ldr	r0, [r3, #0]
  204b50:	0740      	lsls	r0, r0, #29
  204b52:	d409      	bmi.n	204b68 <GLCD_SetWindow+0x368>
  204b54:	6818      	ldr	r0, [r3, #0]
  204b56:	0740      	lsls	r0, r0, #29
  204b58:	bf5c      	itt	pl
  204b5a:	6818      	ldrpl	r0, [r3, #0]
  204b5c:	ea5f 7040 	movspl.w	r0, r0, lsl #29
  204b60:	d402      	bmi.n	204b68 <GLCD_SetWindow+0x368>
  204b62:	6818      	ldr	r0, [r3, #0]
  204b64:	0740      	lsls	r0, r0, #29
  204b66:	d5f2      	bpl.n	204b4e <GLCD_SetWindow+0x34e>
  204b68:	f853 0c04 	ldr.w	r0, [r3, #-4]
  204b6c:	2000      	movs	r0, #0
  204b6e:	f843 0c04 	str.w	r0, [r3, #-4]
  204b72:	6818      	ldr	r0, [r3, #0]
  204b74:	0740      	lsls	r0, r0, #29
  204b76:	d409      	bmi.n	204b8c <GLCD_SetWindow+0x38c>
  204b78:	6818      	ldr	r0, [r3, #0]
  204b7a:	0740      	lsls	r0, r0, #29
  204b7c:	bf5c      	itt	pl
  204b7e:	6818      	ldrpl	r0, [r3, #0]
  204b80:	ea5f 7040 	movspl.w	r0, r0, lsl #29
  204b84:	d402      	bmi.n	204b8c <GLCD_SetWindow+0x38c>
  204b86:	6818      	ldr	r0, [r3, #0]
  204b88:	0740      	lsls	r0, r0, #29
  204b8a:	d5f2      	bpl.n	204b72 <GLCD_SetWindow+0x372>
  204b8c:	f853 0c04 	ldr.w	r0, [r3, #-4]
  204b90:	2005      	movs	r0, #5
  204b92:	f843 0c04 	str.w	r0, [r3, #-4]
  204b96:	6818      	ldr	r0, [r3, #0]
  204b98:	0740      	lsls	r0, r0, #29
  204b9a:	d409      	bmi.n	204bb0 <GLCD_SetWindow+0x3b0>
  204b9c:	6818      	ldr	r0, [r3, #0]
  204b9e:	0740      	lsls	r0, r0, #29
  204ba0:	bf5c      	itt	pl
  204ba2:	6818      	ldrpl	r0, [r3, #0]
  204ba4:	ea5f 7040 	movspl.w	r0, r0, lsl #29
  204ba8:	d402      	bmi.n	204bb0 <GLCD_SetWindow+0x3b0>
  204baa:	6818      	ldr	r0, [r3, #0]
  204bac:	0740      	lsls	r0, r0, #29
  204bae:	d5f2      	bpl.n	204b96 <GLCD_SetWindow+0x396>
  204bb0:	f853 0c04 	ldr.w	r0, [r3, #-4]
  204bb4:	f8dc 0000 	ldr.w	r0, [ip]
  204bb8:	f040 0001 	orr.w	r0, r0, #1
  204bbc:	f8cc 0000 	str.w	r0, [ip]
  204bc0:	f8dc 0000 	ldr.w	r0, [ip]
  204bc4:	f020 0001 	bic.w	r0, r0, #1
  204bc8:	f8cc 0000 	str.w	r0, [ip]
  204bcc:	2072      	movs	r0, #114	; 0x72
  204bce:	f843 0c04 	str.w	r0, [r3, #-4]
  204bd2:	6818      	ldr	r0, [r3, #0]
  204bd4:	0740      	lsls	r0, r0, #29
  204bd6:	d409      	bmi.n	204bec <GLCD_SetWindow+0x3ec>
  204bd8:	6818      	ldr	r0, [r3, #0]
  204bda:	0740      	lsls	r0, r0, #29
  204bdc:	bf5c      	itt	pl
  204bde:	6818      	ldrpl	r0, [r3, #0]
  204be0:	ea5f 7040 	movspl.w	r0, r0, lsl #29
  204be4:	d402      	bmi.n	204bec <GLCD_SetWindow+0x3ec>
  204be6:	6818      	ldr	r0, [r3, #0]
  204be8:	0740      	lsls	r0, r0, #29
  204bea:	d5f2      	bpl.n	204bd2 <GLCD_SetWindow+0x3d2>
  204bec:	f853 0c04 	ldr.w	r0, [r3, #-4]
  204bf0:	2000      	movs	r0, #0
  204bf2:	f843 0c04 	str.w	r0, [r3, #-4]
  204bf6:	6818      	ldr	r0, [r3, #0]
  204bf8:	0740      	lsls	r0, r0, #29
  204bfa:	d409      	bmi.n	204c10 <GLCD_SetWindow+0x410>
  204bfc:	6818      	ldr	r0, [r3, #0]
  204bfe:	0740      	lsls	r0, r0, #29
  204c00:	bf5c      	itt	pl
  204c02:	6818      	ldrpl	r0, [r3, #0]
  204c04:	ea5f 7040 	movspl.w	r0, r0, lsl #29
  204c08:	d402      	bmi.n	204c10 <GLCD_SetWindow+0x410>
  204c0a:	6818      	ldr	r0, [r3, #0]
  204c0c:	0740      	lsls	r0, r0, #29
  204c0e:	d5f2      	bpl.n	204bf6 <GLCD_SetWindow+0x3f6>
  204c10:	b2d0      	uxtb	r0, r2
  204c12:	f853 2c04 	ldr.w	r2, [r3, #-4]
  204c16:	f843 0c04 	str.w	r0, [r3, #-4]
  204c1a:	6818      	ldr	r0, [r3, #0]
  204c1c:	0740      	lsls	r0, r0, #29
  204c1e:	d409      	bmi.n	204c34 <GLCD_SetWindow+0x434>
  204c20:	6818      	ldr	r0, [r3, #0]
  204c22:	0740      	lsls	r0, r0, #29
  204c24:	bf5c      	itt	pl
  204c26:	6818      	ldrpl	r0, [r3, #0]
  204c28:	ea5f 7040 	movspl.w	r0, r0, lsl #29
  204c2c:	d402      	bmi.n	204c34 <GLCD_SetWindow+0x434>
  204c2e:	6818      	ldr	r0, [r3, #0]
  204c30:	0740      	lsls	r0, r0, #29
  204c32:	d5f2      	bpl.n	204c1a <GLCD_SetWindow+0x41a>
  204c34:	f853 0c04 	ldr.w	r0, [r3, #-4]
  204c38:	f8dc 0000 	ldr.w	r0, [ip]
  204c3c:	f040 0001 	orr.w	r0, r0, #1
  204c40:	f8cc 0000 	str.w	r0, [ip]
  204c44:	f8dc 0000 	ldr.w	r0, [ip]
  204c48:	f020 0001 	bic.w	r0, r0, #1
  204c4c:	f8cc 0000 	str.w	r0, [ip]
  204c50:	2070      	movs	r0, #112	; 0x70
  204c52:	f843 0c04 	str.w	r0, [r3, #-4]
  204c56:	6818      	ldr	r0, [r3, #0]
  204c58:	0740      	lsls	r0, r0, #29
  204c5a:	d409      	bmi.n	204c70 <GLCD_SetWindow+0x470>
  204c5c:	6818      	ldr	r0, [r3, #0]
  204c5e:	0740      	lsls	r0, r0, #29
  204c60:	bf5c      	itt	pl
  204c62:	6818      	ldrpl	r0, [r3, #0]
  204c64:	ea5f 7040 	movspl.w	r0, r0, lsl #29
  204c68:	d402      	bmi.n	204c70 <GLCD_SetWindow+0x470>
  204c6a:	6818      	ldr	r0, [r3, #0]
  204c6c:	0740      	lsls	r0, r0, #29
  204c6e:	d5f2      	bpl.n	204c56 <GLCD_SetWindow+0x456>
  204c70:	f853 0c04 	ldr.w	r0, [r3, #-4]
  204c74:	2000      	movs	r0, #0
  204c76:	f843 0c04 	str.w	r0, [r3, #-4]
  204c7a:	6818      	ldr	r0, [r3, #0]
  204c7c:	0740      	lsls	r0, r0, #29
  204c7e:	d409      	bmi.n	204c94 <GLCD_SetWindow+0x494>
  204c80:	6818      	ldr	r0, [r3, #0]
  204c82:	0740      	lsls	r0, r0, #29
  204c84:	bf5c      	itt	pl
  204c86:	6818      	ldrpl	r0, [r3, #0]
  204c88:	ea5f 7040 	movspl.w	r0, r0, lsl #29
  204c8c:	d402      	bmi.n	204c94 <GLCD_SetWindow+0x494>
  204c8e:	6818      	ldr	r0, [r3, #0]
  204c90:	0740      	lsls	r0, r0, #29
  204c92:	d5f2      	bpl.n	204c7a <GLCD_SetWindow+0x47a>
  204c94:	f853 0c04 	ldr.w	r0, [r3, #-4]
  204c98:	2006      	movs	r0, #6
  204c9a:	f843 0c04 	str.w	r0, [r3, #-4]
  204c9e:	6818      	ldr	r0, [r3, #0]
  204ca0:	0740      	lsls	r0, r0, #29
  204ca2:	d409      	bmi.n	204cb8 <GLCD_SetWindow+0x4b8>
  204ca4:	6818      	ldr	r0, [r3, #0]
  204ca6:	0740      	lsls	r0, r0, #29
  204ca8:	bf5c      	itt	pl
  204caa:	6818      	ldrpl	r0, [r3, #0]
  204cac:	ea5f 7040 	movspl.w	r0, r0, lsl #29
  204cb0:	d402      	bmi.n	204cb8 <GLCD_SetWindow+0x4b8>
  204cb2:	6818      	ldr	r0, [r3, #0]
  204cb4:	0740      	lsls	r0, r0, #29
  204cb6:	d5f2      	bpl.n	204c9e <GLCD_SetWindow+0x49e>
  204cb8:	f853 0c04 	ldr.w	r0, [r3, #-4]
  204cbc:	f8dc 0000 	ldr.w	r0, [ip]
  204cc0:	f040 0001 	orr.w	r0, r0, #1
  204cc4:	f8cc 0000 	str.w	r0, [ip]
  204cc8:	f8dc 0000 	ldr.w	r0, [ip]
  204ccc:	f020 0001 	bic.w	r0, r0, #1
  204cd0:	f8cc 0000 	str.w	r0, [ip]
  204cd4:	2072      	movs	r0, #114	; 0x72
  204cd6:	f843 0c04 	str.w	r0, [r3, #-4]
  204cda:	6818      	ldr	r0, [r3, #0]
  204cdc:	0740      	lsls	r0, r0, #29
  204cde:	d409      	bmi.n	204cf4 <GLCD_SetWindow+0x4f4>
  204ce0:	6818      	ldr	r0, [r3, #0]
  204ce2:	0740      	lsls	r0, r0, #29
  204ce4:	bf5c      	itt	pl
  204ce6:	6818      	ldrpl	r0, [r3, #0]
  204ce8:	ea5f 7040 	movspl.w	r0, r0, lsl #29
  204cec:	d402      	bmi.n	204cf4 <GLCD_SetWindow+0x4f4>
  204cee:	6818      	ldr	r0, [r3, #0]
  204cf0:	0740      	lsls	r0, r0, #29
  204cf2:	d5f2      	bpl.n	204cda <GLCD_SetWindow+0x4da>
  204cf4:	f853 0c04 	ldr.w	r0, [r3, #-4]
  204cf8:	2000      	movs	r0, #0
  204cfa:	f843 0c04 	str.w	r0, [r3, #-4]
  204cfe:	6818      	ldr	r0, [r3, #0]
  204d00:	0740      	lsls	r0, r0, #29
  204d02:	d409      	bmi.n	204d18 <GLCD_SetWindow+0x518>
  204d04:	6818      	ldr	r0, [r3, #0]
  204d06:	0740      	lsls	r0, r0, #29
  204d08:	bf5c      	itt	pl
  204d0a:	6818      	ldrpl	r0, [r3, #0]
  204d0c:	ea5f 7040 	movspl.w	r0, r0, lsl #29
  204d10:	d402      	bmi.n	204d18 <GLCD_SetWindow+0x518>
  204d12:	6818      	ldr	r0, [r3, #0]
  204d14:	0740      	lsls	r0, r0, #29
  204d16:	d5f2      	bpl.n	204cfe <GLCD_SetWindow+0x4fe>
  204d18:	f853 0c04 	ldr.w	r0, [r3, #-4]
  204d1c:	2000      	movs	r0, #0
  204d1e:	f843 0c04 	str.w	r0, [r3, #-4]
  204d22:	6818      	ldr	r0, [r3, #0]
  204d24:	0740      	lsls	r0, r0, #29
  204d26:	d409      	bmi.n	204d3c <GLCD_SetWindow+0x53c>
  204d28:	6818      	ldr	r0, [r3, #0]
  204d2a:	0740      	lsls	r0, r0, #29
  204d2c:	bf5c      	itt	pl
  204d2e:	6818      	ldrpl	r0, [r3, #0]
  204d30:	ea5f 7040 	movspl.w	r0, r0, lsl #29
  204d34:	d402      	bmi.n	204d3c <GLCD_SetWindow+0x53c>
  204d36:	6818      	ldr	r0, [r3, #0]
  204d38:	0740      	lsls	r0, r0, #29
  204d3a:	d5f2      	bpl.n	204d22 <GLCD_SetWindow+0x522>
  204d3c:	f853 0c04 	ldr.w	r0, [r3, #-4]
  204d40:	f8dc 0000 	ldr.w	r0, [ip]
  204d44:	f040 0001 	orr.w	r0, r0, #1
  204d48:	f8cc 0000 	str.w	r0, [ip]
  204d4c:	f8dc 0000 	ldr.w	r0, [ip]
  204d50:	f020 0001 	bic.w	r0, r0, #1
  204d54:	f8cc 0000 	str.w	r0, [ip]
  204d58:	2070      	movs	r0, #112	; 0x70
  204d5a:	f843 0c04 	str.w	r0, [r3, #-4]
  204d5e:	6818      	ldr	r0, [r3, #0]
  204d60:	0740      	lsls	r0, r0, #29
  204d62:	d409      	bmi.n	204d78 <GLCD_SetWindow+0x578>
  204d64:	6818      	ldr	r0, [r3, #0]
  204d66:	0740      	lsls	r0, r0, #29
  204d68:	bf5c      	itt	pl
  204d6a:	6818      	ldrpl	r0, [r3, #0]
  204d6c:	ea5f 7040 	movspl.w	r0, r0, lsl #29
  204d70:	d402      	bmi.n	204d78 <GLCD_SetWindow+0x578>
  204d72:	6818      	ldr	r0, [r3, #0]
  204d74:	0740      	lsls	r0, r0, #29
  204d76:	d5f2      	bpl.n	204d5e <GLCD_SetWindow+0x55e>
  204d78:	f853 0c04 	ldr.w	r0, [r3, #-4]
  204d7c:	2000      	movs	r0, #0
  204d7e:	f843 0c04 	str.w	r0, [r3, #-4]
  204d82:	6818      	ldr	r0, [r3, #0]
  204d84:	0740      	lsls	r0, r0, #29
  204d86:	d409      	bmi.n	204d9c <GLCD_SetWindow+0x59c>
  204d88:	6818      	ldr	r0, [r3, #0]
  204d8a:	0740      	lsls	r0, r0, #29
  204d8c:	bf5c      	itt	pl
  204d8e:	6818      	ldrpl	r0, [r3, #0]
  204d90:	ea5f 7040 	movspl.w	r0, r0, lsl #29
  204d94:	d402      	bmi.n	204d9c <GLCD_SetWindow+0x59c>
  204d96:	6818      	ldr	r0, [r3, #0]
  204d98:	0740      	lsls	r0, r0, #29
  204d9a:	d5f2      	bpl.n	204d82 <GLCD_SetWindow+0x582>
  204d9c:	f853 0c04 	ldr.w	r0, [r3, #-4]
  204da0:	2007      	movs	r0, #7
  204da2:	f843 0c04 	str.w	r0, [r3, #-4]
  204da6:	6818      	ldr	r0, [r3, #0]
  204da8:	0740      	lsls	r0, r0, #29
  204daa:	d409      	bmi.n	204dc0 <GLCD_SetWindow+0x5c0>
  204dac:	6818      	ldr	r0, [r3, #0]
  204dae:	0740      	lsls	r0, r0, #29
  204db0:	bf5c      	itt	pl
  204db2:	6818      	ldrpl	r0, [r3, #0]
  204db4:	ea5f 7040 	movspl.w	r0, r0, lsl #29
  204db8:	d402      	bmi.n	204dc0 <GLCD_SetWindow+0x5c0>
  204dba:	6818      	ldr	r0, [r3, #0]
  204dbc:	0740      	lsls	r0, r0, #29
  204dbe:	d5f2      	bpl.n	204da6 <GLCD_SetWindow+0x5a6>
  204dc0:	f853 0c04 	ldr.w	r0, [r3, #-4]
  204dc4:	f8dc 0000 	ldr.w	r0, [ip]
  204dc8:	f040 0001 	orr.w	r0, r0, #1
  204dcc:	f8cc 0000 	str.w	r0, [ip]
  204dd0:	f8dc 0000 	ldr.w	r0, [ip]
  204dd4:	f020 0001 	bic.w	r0, r0, #1
  204dd8:	f8cc 0000 	str.w	r0, [ip]
  204ddc:	2072      	movs	r0, #114	; 0x72
  204dde:	f843 0c04 	str.w	r0, [r3, #-4]
  204de2:	6818      	ldr	r0, [r3, #0]
  204de4:	0740      	lsls	r0, r0, #29
  204de6:	d409      	bmi.n	204dfc <GLCD_SetWindow+0x5fc>
  204de8:	6818      	ldr	r0, [r3, #0]
  204dea:	0740      	lsls	r0, r0, #29
  204dec:	bf5c      	itt	pl
  204dee:	6818      	ldrpl	r0, [r3, #0]
  204df0:	ea5f 7040 	movspl.w	r0, r0, lsl #29
  204df4:	d402      	bmi.n	204dfc <GLCD_SetWindow+0x5fc>
  204df6:	6818      	ldr	r0, [r3, #0]
  204df8:	0740      	lsls	r0, r0, #29
  204dfa:	d5f2      	bpl.n	204de2 <GLCD_SetWindow+0x5e2>
  204dfc:	f853 0c04 	ldr.w	r0, [r3, #-4]
  204e00:	2000      	movs	r0, #0
  204e02:	f843 0c04 	str.w	r0, [r3, #-4]
  204e06:	6818      	ldr	r0, [r3, #0]
  204e08:	0740      	lsls	r0, r0, #29
  204e0a:	d409      	bmi.n	204e20 <GLCD_SetWindow+0x620>
  204e0c:	6818      	ldr	r0, [r3, #0]
  204e0e:	0740      	lsls	r0, r0, #29
  204e10:	bf5c      	itt	pl
  204e12:	6818      	ldrpl	r0, [r3, #0]
  204e14:	ea5f 7040 	movspl.w	r0, r0, lsl #29
  204e18:	d402      	bmi.n	204e20 <GLCD_SetWindow+0x620>
  204e1a:	6818      	ldr	r0, [r3, #0]
  204e1c:	0740      	lsls	r0, r0, #29
  204e1e:	d5f2      	bpl.n	204e06 <GLCD_SetWindow+0x606>
  204e20:	b2c8      	uxtb	r0, r1
  204e22:	f853 1c04 	ldr.w	r1, [r3, #-4]
  204e26:	f843 0c04 	str.w	r0, [r3, #-4]
  204e2a:	6818      	ldr	r0, [r3, #0]
  204e2c:	0740      	lsls	r0, r0, #29
  204e2e:	d409      	bmi.n	204e44 <GLCD_SetWindow+0x644>
  204e30:	6818      	ldr	r0, [r3, #0]
  204e32:	0740      	lsls	r0, r0, #29
  204e34:	bf5c      	itt	pl
  204e36:	6818      	ldrpl	r0, [r3, #0]
  204e38:	ea5f 7040 	movspl.w	r0, r0, lsl #29
  204e3c:	d402      	bmi.n	204e44 <GLCD_SetWindow+0x644>
  204e3e:	6818      	ldr	r0, [r3, #0]
  204e40:	0740      	lsls	r0, r0, #29
  204e42:	d5f2      	bpl.n	204e2a <GLCD_SetWindow+0x62a>
  204e44:	f853 0c04 	ldr.w	r0, [r3, #-4]
  204e48:	f8dc 0000 	ldr.w	r0, [ip]
  204e4c:	f040 0001 	orr.w	r0, r0, #1
  204e50:	f8cc 0000 	str.w	r0, [ip]
  204e54:	f8dc 0000 	ldr.w	r0, [ip]
  204e58:	f020 0001 	bic.w	r0, r0, #1
  204e5c:	f8cc 0000 	str.w	r0, [ip]
  204e60:	2070      	movs	r0, #112	; 0x70
  204e62:	f843 0c04 	str.w	r0, [r3, #-4]
  204e66:	6818      	ldr	r0, [r3, #0]
  204e68:	0740      	lsls	r0, r0, #29
  204e6a:	d409      	bmi.n	204e80 <GLCD_SetWindow+0x680>
  204e6c:	6818      	ldr	r0, [r3, #0]
  204e6e:	0740      	lsls	r0, r0, #29
  204e70:	bf5c      	itt	pl
  204e72:	6818      	ldrpl	r0, [r3, #0]
  204e74:	ea5f 7040 	movspl.w	r0, r0, lsl #29
  204e78:	d402      	bmi.n	204e80 <GLCD_SetWindow+0x680>
  204e7a:	6818      	ldr	r0, [r3, #0]
  204e7c:	0740      	lsls	r0, r0, #29
  204e7e:	d5f2      	bpl.n	204e66 <GLCD_SetWindow+0x666>
  204e80:	f853 0c04 	ldr.w	r0, [r3, #-4]
  204e84:	2000      	movs	r0, #0
  204e86:	f843 0c04 	str.w	r0, [r3, #-4]
  204e8a:	6818      	ldr	r0, [r3, #0]
  204e8c:	0740      	lsls	r0, r0, #29
  204e8e:	d409      	bmi.n	204ea4 <GLCD_SetWindow+0x6a4>
  204e90:	6818      	ldr	r0, [r3, #0]
  204e92:	0740      	lsls	r0, r0, #29
  204e94:	bf5c      	itt	pl
  204e96:	6818      	ldrpl	r0, [r3, #0]
  204e98:	ea5f 7040 	movspl.w	r0, r0, lsl #29
  204e9c:	d402      	bmi.n	204ea4 <GLCD_SetWindow+0x6a4>
  204e9e:	6818      	ldr	r0, [r3, #0]
  204ea0:	0740      	lsls	r0, r0, #29
  204ea2:	d5f2      	bpl.n	204e8a <GLCD_SetWindow+0x68a>
  204ea4:	f853 0c04 	ldr.w	r0, [r3, #-4]
  204ea8:	2008      	movs	r0, #8
  204eaa:	f843 0c04 	str.w	r0, [r3, #-4]
  204eae:	6818      	ldr	r0, [r3, #0]
  204eb0:	0740      	lsls	r0, r0, #29
  204eb2:	d409      	bmi.n	204ec8 <GLCD_SetWindow+0x6c8>
  204eb4:	6818      	ldr	r0, [r3, #0]
  204eb6:	0740      	lsls	r0, r0, #29
  204eb8:	bf5c      	itt	pl
  204eba:	6818      	ldrpl	r0, [r3, #0]
  204ebc:	ea5f 7040 	movspl.w	r0, r0, lsl #29
  204ec0:	d402      	bmi.n	204ec8 <GLCD_SetWindow+0x6c8>
  204ec2:	6818      	ldr	r0, [r3, #0]
  204ec4:	0740      	lsls	r0, r0, #29
  204ec6:	d5f2      	bpl.n	204eae <GLCD_SetWindow+0x6ae>
  204ec8:	f853 0c04 	ldr.w	r0, [r3, #-4]
  204ecc:	f8dc 0000 	ldr.w	r0, [ip]
  204ed0:	f040 0001 	orr.w	r0, r0, #1
  204ed4:	f8cc 0000 	str.w	r0, [ip]
  204ed8:	f8dc 0000 	ldr.w	r0, [ip]
  204edc:	f020 0001 	bic.w	r0, r0, #1
  204ee0:	f8cc 0000 	str.w	r0, [ip]
  204ee4:	2072      	movs	r0, #114	; 0x72
  204ee6:	f843 0c04 	str.w	r0, [r3, #-4]
  204eea:	6818      	ldr	r0, [r3, #0]
  204eec:	0740      	lsls	r0, r0, #29
  204eee:	d409      	bmi.n	204f04 <GLCD_SetWindow+0x704>
  204ef0:	6818      	ldr	r0, [r3, #0]
  204ef2:	0740      	lsls	r0, r0, #29
  204ef4:	bf5c      	itt	pl
  204ef6:	6818      	ldrpl	r0, [r3, #0]
  204ef8:	ea5f 7040 	movspl.w	r0, r0, lsl #29
  204efc:	d402      	bmi.n	204f04 <GLCD_SetWindow+0x704>
  204efe:	6818      	ldr	r0, [r3, #0]
  204f00:	0740      	lsls	r0, r0, #29
  204f02:	d5f2      	bpl.n	204eea <GLCD_SetWindow+0x6ea>
  204f04:	f3ce 4007 	ubfx	r0, lr, #16, #8
  204f08:	f853 1c04 	ldr.w	r1, [r3, #-4]
  204f0c:	f843 0c04 	str.w	r0, [r3, #-4]
  204f10:	6818      	ldr	r0, [r3, #0]
  204f12:	0740      	lsls	r0, r0, #29
  204f14:	d409      	bmi.n	204f2a <GLCD_SetWindow+0x72a>
  204f16:	6818      	ldr	r0, [r3, #0]
  204f18:	0740      	lsls	r0, r0, #29
  204f1a:	bf5c      	itt	pl
  204f1c:	6818      	ldrpl	r0, [r3, #0]
  204f1e:	ea5f 7040 	movspl.w	r0, r0, lsl #29
  204f22:	d402      	bmi.n	204f2a <GLCD_SetWindow+0x72a>
  204f24:	6818      	ldr	r0, [r3, #0]
  204f26:	0740      	lsls	r0, r0, #29
  204f28:	d5f2      	bpl.n	204f10 <GLCD_SetWindow+0x710>
  204f2a:	f3ce 2007 	ubfx	r0, lr, #8, #8
  204f2e:	f853 1c04 	ldr.w	r1, [r3, #-4]
  204f32:	f843 0c04 	str.w	r0, [r3, #-4]
  204f36:	6818      	ldr	r0, [r3, #0]
  204f38:	0740      	lsls	r0, r0, #29
  204f3a:	d409      	bmi.n	204f50 <GLCD_SetWindow+0x750>
  204f3c:	6818      	ldr	r0, [r3, #0]
  204f3e:	0740      	lsls	r0, r0, #29
  204f40:	bf5c      	itt	pl
  204f42:	6818      	ldrpl	r0, [r3, #0]
  204f44:	ea5f 7040 	movspl.w	r0, r0, lsl #29
  204f48:	d402      	bmi.n	204f50 <GLCD_SetWindow+0x750>
  204f4a:	6818      	ldr	r0, [r3, #0]
  204f4c:	0740      	lsls	r0, r0, #29
  204f4e:	d5f2      	bpl.n	204f36 <GLCD_SetWindow+0x736>
  204f50:	f853 0c04 	ldr.w	r0, [r3, #-4]
  204f54:	f8dc 0000 	ldr.w	r0, [ip]
  204f58:	f040 0001 	orr.w	r0, r0, #1
  204f5c:	f8cc 0000 	str.w	r0, [ip]
  204f60:	f8dc 0000 	ldr.w	r0, [ip]
  204f64:	f020 0001 	bic.w	r0, r0, #1
  204f68:	f8cc 0000 	str.w	r0, [ip]
  204f6c:	2070      	movs	r0, #112	; 0x70
  204f6e:	f843 0c04 	str.w	r0, [r3, #-4]
  204f72:	6818      	ldr	r0, [r3, #0]
  204f74:	0740      	lsls	r0, r0, #29
  204f76:	d409      	bmi.n	204f8c <GLCD_SetWindow+0x78c>
  204f78:	6818      	ldr	r0, [r3, #0]
  204f7a:	0740      	lsls	r0, r0, #29
  204f7c:	bf5c      	itt	pl
  204f7e:	6818      	ldrpl	r0, [r3, #0]
  204f80:	ea5f 7040 	movspl.w	r0, r0, lsl #29
  204f84:	d402      	bmi.n	204f8c <GLCD_SetWindow+0x78c>
  204f86:	6818      	ldr	r0, [r3, #0]
  204f88:	0740      	lsls	r0, r0, #29
  204f8a:	d5f2      	bpl.n	204f72 <GLCD_SetWindow+0x772>
  204f8c:	f853 0c04 	ldr.w	r0, [r3, #-4]
  204f90:	2000      	movs	r0, #0
  204f92:	f843 0c04 	str.w	r0, [r3, #-4]
  204f96:	6818      	ldr	r0, [r3, #0]
  204f98:	0740      	lsls	r0, r0, #29
  204f9a:	d409      	bmi.n	204fb0 <GLCD_SetWindow+0x7b0>
  204f9c:	6818      	ldr	r0, [r3, #0]
  204f9e:	0740      	lsls	r0, r0, #29
  204fa0:	bf5c      	itt	pl
  204fa2:	6818      	ldrpl	r0, [r3, #0]
  204fa4:	ea5f 7040 	movspl.w	r0, r0, lsl #29
  204fa8:	d402      	bmi.n	204fb0 <GLCD_SetWindow+0x7b0>
  204faa:	6818      	ldr	r0, [r3, #0]
  204fac:	0740      	lsls	r0, r0, #29
  204fae:	d5f2      	bpl.n	204f96 <GLCD_SetWindow+0x796>
  204fb0:	f853 0c04 	ldr.w	r0, [r3, #-4]
  204fb4:	2009      	movs	r0, #9
  204fb6:	f843 0c04 	str.w	r0, [r3, #-4]
  204fba:	6818      	ldr	r0, [r3, #0]
  204fbc:	0740      	lsls	r0, r0, #29
  204fbe:	d409      	bmi.n	204fd4 <GLCD_SetWindow+0x7d4>
  204fc0:	6818      	ldr	r0, [r3, #0]
  204fc2:	0740      	lsls	r0, r0, #29
  204fc4:	bf5c      	itt	pl
  204fc6:	6818      	ldrpl	r0, [r3, #0]
  204fc8:	ea5f 7040 	movspl.w	r0, r0, lsl #29
  204fcc:	d402      	bmi.n	204fd4 <GLCD_SetWindow+0x7d4>
  204fce:	6818      	ldr	r0, [r3, #0]
  204fd0:	0740      	lsls	r0, r0, #29
  204fd2:	d5f2      	bpl.n	204fba <GLCD_SetWindow+0x7ba>
  204fd4:	f853 0c04 	ldr.w	r0, [r3, #-4]
  204fd8:	f8dc 0000 	ldr.w	r0, [ip]
  204fdc:	f040 0001 	orr.w	r0, r0, #1
  204fe0:	f8cc 0000 	str.w	r0, [ip]
  204fe4:	f8dc 0000 	ldr.w	r0, [ip]
  204fe8:	f020 0001 	bic.w	r0, r0, #1
  204fec:	f8cc 0000 	str.w	r0, [ip]
  204ff0:	2072      	movs	r0, #114	; 0x72
  204ff2:	f843 0c04 	str.w	r0, [r3, #-4]
  204ff6:	6818      	ldr	r0, [r3, #0]
  204ff8:	0740      	lsls	r0, r0, #29
  204ffa:	d409      	bmi.n	205010 <GLCD_SetWindow+0x810>
  204ffc:	6818      	ldr	r0, [r3, #0]
  204ffe:	0740      	lsls	r0, r0, #29
  205000:	bf5c      	itt	pl
  205002:	6818      	ldrpl	r0, [r3, #0]
  205004:	ea5f 7040 	movspl.w	r0, r0, lsl #29
  205008:	d402      	bmi.n	205010 <GLCD_SetWindow+0x810>
  20500a:	6818      	ldr	r0, [r3, #0]
  20500c:	0740      	lsls	r0, r0, #29
  20500e:	d5f2      	bpl.n	204ff6 <GLCD_SetWindow+0x7f6>
  205010:	f853 0c04 	ldr.w	r0, [r3, #-4]
  205014:	2000      	movs	r0, #0
  205016:	f843 0c04 	str.w	r0, [r3, #-4]
  20501a:	6818      	ldr	r0, [r3, #0]
  20501c:	0740      	lsls	r0, r0, #29
  20501e:	d409      	bmi.n	205034 <GLCD_SetWindow+0x834>
  205020:	6818      	ldr	r0, [r3, #0]
  205022:	0740      	lsls	r0, r0, #29
  205024:	bf5c      	itt	pl
  205026:	6818      	ldrpl	r0, [r3, #0]
  205028:	ea5f 7040 	movspl.w	r0, r0, lsl #29
  20502c:	d402      	bmi.n	205034 <GLCD_SetWindow+0x834>
  20502e:	6818      	ldr	r0, [r3, #0]
  205030:	0740      	lsls	r0, r0, #29
  205032:	d5f2      	bpl.n	20501a <GLCD_SetWindow+0x81a>
  205034:	fa5f f08e 	uxtb.w	r0, lr
  205038:	f853 1c04 	ldr.w	r1, [r3, #-4]
  20503c:	f843 0c04 	str.w	r0, [r3, #-4]
  205040:	6818      	ldr	r0, [r3, #0]
  205042:	0740      	lsls	r0, r0, #29
  205044:	d409      	bmi.n	20505a <GLCD_SetWindow+0x85a>
  205046:	6818      	ldr	r0, [r3, #0]
  205048:	0740      	lsls	r0, r0, #29
  20504a:	bf5c      	itt	pl
  20504c:	6818      	ldrpl	r0, [r3, #0]
  20504e:	ea5f 7040 	movspl.w	r0, r0, lsl #29
  205052:	d402      	bmi.n	20505a <GLCD_SetWindow+0x85a>
  205054:	6818      	ldr	r0, [r3, #0]
  205056:	0740      	lsls	r0, r0, #29
  205058:	d5f2      	bpl.n	205040 <GLCD_SetWindow+0x840>
  20505a:	f853 0c04 	ldr.w	r0, [r3, #-4]
  20505e:	f8dc 0000 	ldr.w	r0, [ip]
  205062:	f040 0001 	orr.w	r0, r0, #1
  205066:	f8cc 0000 	str.w	r0, [ip]
  20506a:	bdb0      	pop	{r4, r5, r7, pc}

0020506c <HardFault_Handler>:
  20506c:	e7fe      	b.n	20506c <HardFault_Handler>
	...

00205070 <I2C_rx>:
  205070:	e92d 43f0 	stmdb	sp!, {r4, r5, r6, r7, r8, r9, lr}
  205074:	f247 0c00 	movw	ip, #28672	; 0x7000
  205078:	f2c4 0c20 	movt	ip, #16416	; 0x4020
  20507c:	2303      	movs	r3, #3
  20507e:	f242 0218 	movw	r2, #8216	; 0x2018
  205082:	f2c4 0230 	movt	r2, #16432	; 0x4030
  205086:	f8cc 3000 	str.w	r3, [ip]
  20508a:	6817      	ldr	r7, [r2, #0]
  20508c:	f117 0f10 	cmn.w	r7, #16
  205090:	f107 030f 	add.w	r3, r7, #15
  205094:	d91c      	bls.n	2050d0 <I2C_rx+0x60>
  205096:	bf00      	nop
  205098:	6816      	ldr	r6, [r2, #0]
  20509a:	42be      	cmp	r6, r7
  20509c:	d313      	bcc.n	2050c6 <I2C_rx+0x56>
  20509e:	6816      	ldr	r6, [r2, #0]
  2050a0:	42be      	cmp	r6, r7
  2050a2:	d310      	bcc.n	2050c6 <I2C_rx+0x56>
  2050a4:	6816      	ldr	r6, [r2, #0]
  2050a6:	42be      	cmp	r6, r7
  2050a8:	d30d      	bcc.n	2050c6 <I2C_rx+0x56>
  2050aa:	6816      	ldr	r6, [r2, #0]
  2050ac:	42be      	cmp	r6, r7
  2050ae:	d2f3      	bcs.n	205098 <I2C_rx+0x28>
  2050b0:	e009      	b.n	2050c6 <I2C_rx+0x56>
  2050b2:	bf00      	nop
  2050b4:	6817      	ldr	r7, [r2, #0]
  2050b6:	429f      	cmp	r7, r3
  2050b8:	d222      	bcs.n	205100 <I2C_rx+0x90>
  2050ba:	6817      	ldr	r7, [r2, #0]
  2050bc:	429f      	cmp	r7, r3
  2050be:	d21f      	bcs.n	205100 <I2C_rx+0x90>
  2050c0:	6817      	ldr	r7, [r2, #0]
  2050c2:	429f      	cmp	r7, r3
  2050c4:	d21c      	bcs.n	205100 <I2C_rx+0x90>
  2050c6:	6817      	ldr	r7, [r2, #0]
  2050c8:	429f      	cmp	r7, r3
  2050ca:	d3f3      	bcc.n	2050b4 <I2C_rx+0x44>
  2050cc:	e018      	b.n	205100 <I2C_rx+0x90>
  2050ce:	bf00      	nop
  2050d0:	6816      	ldr	r6, [r2, #0]
  2050d2:	42be      	cmp	r6, r7
  2050d4:	d314      	bcc.n	205100 <I2C_rx+0x90>
  2050d6:	6816      	ldr	r6, [r2, #0]
  2050d8:	429e      	cmp	r6, r3
  2050da:	d211      	bcs.n	205100 <I2C_rx+0x90>
  2050dc:	6816      	ldr	r6, [r2, #0]
  2050de:	42be      	cmp	r6, r7
  2050e0:	d30e      	bcc.n	205100 <I2C_rx+0x90>
  2050e2:	6816      	ldr	r6, [r2, #0]
  2050e4:	429e      	cmp	r6, r3
  2050e6:	d20b      	bcs.n	205100 <I2C_rx+0x90>
  2050e8:	6816      	ldr	r6, [r2, #0]
  2050ea:	42be      	cmp	r6, r7
  2050ec:	d308      	bcc.n	205100 <I2C_rx+0x90>
  2050ee:	6816      	ldr	r6, [r2, #0]
  2050f0:	429e      	cmp	r6, r3
  2050f2:	d205      	bcs.n	205100 <I2C_rx+0x90>
  2050f4:	6816      	ldr	r6, [r2, #0]
  2050f6:	42be      	cmp	r6, r7
  2050f8:	d302      	bcc.n	205100 <I2C_rx+0x90>
  2050fa:	6816      	ldr	r6, [r2, #0]
  2050fc:	429e      	cmp	r6, r3
  2050fe:	d3e7      	bcc.n	2050d0 <I2C_rx+0x60>
  205100:	2302      	movs	r3, #2
  205102:	f8cc 3004 	str.w	r3, [ip, #4]
  205106:	6817      	ldr	r7, [r2, #0]
  205108:	f117 0f10 	cmn.w	r7, #16
  20510c:	f107 030f 	add.w	r3, r7, #15
  205110:	d91c      	bls.n	20514c <I2C_rx+0xdc>
  205112:	bf00      	nop
  205114:	6816      	ldr	r6, [r2, #0]
  205116:	42be      	cmp	r6, r7
  205118:	d313      	bcc.n	205142 <I2C_rx+0xd2>
  20511a:	6816      	ldr	r6, [r2, #0]
  20511c:	42be      	cmp	r6, r7
  20511e:	d310      	bcc.n	205142 <I2C_rx+0xd2>
  205120:	6816      	ldr	r6, [r2, #0]
  205122:	42be      	cmp	r6, r7
  205124:	d30d      	bcc.n	205142 <I2C_rx+0xd2>
  205126:	6816      	ldr	r6, [r2, #0]
  205128:	42be      	cmp	r6, r7
  20512a:	d2f3      	bcs.n	205114 <I2C_rx+0xa4>
  20512c:	e009      	b.n	205142 <I2C_rx+0xd2>
  20512e:	bf00      	nop
  205130:	6817      	ldr	r7, [r2, #0]
  205132:	429f      	cmp	r7, r3
  205134:	d222      	bcs.n	20517c <I2C_rx+0x10c>
  205136:	6817      	ldr	r7, [r2, #0]
  205138:	429f      	cmp	r7, r3
  20513a:	d21f      	bcs.n	20517c <I2C_rx+0x10c>
  20513c:	6817      	ldr	r7, [r2, #0]
  20513e:	429f      	cmp	r7, r3
  205140:	d21c      	bcs.n	20517c <I2C_rx+0x10c>
  205142:	6817      	ldr	r7, [r2, #0]
  205144:	429f      	cmp	r7, r3
  205146:	d3f3      	bcc.n	205130 <I2C_rx+0xc0>
  205148:	e018      	b.n	20517c <I2C_rx+0x10c>
  20514a:	bf00      	nop
  20514c:	6816      	ldr	r6, [r2, #0]
  20514e:	42be      	cmp	r6, r7
  205150:	d314      	bcc.n	20517c <I2C_rx+0x10c>
  205152:	6816      	ldr	r6, [r2, #0]
  205154:	429e      	cmp	r6, r3
  205156:	d211      	bcs.n	20517c <I2C_rx+0x10c>
  205158:	6816      	ldr	r6, [r2, #0]
  20515a:	42be      	cmp	r6, r7
  20515c:	d30e      	bcc.n	20517c <I2C_rx+0x10c>
  20515e:	6816      	ldr	r6, [r2, #0]
  205160:	429e      	cmp	r6, r3
  205162:	d20b      	bcs.n	20517c <I2C_rx+0x10c>
  205164:	6816      	ldr	r6, [r2, #0]
  205166:	42be      	cmp	r6, r7
  205168:	d308      	bcc.n	20517c <I2C_rx+0x10c>
  20516a:	6816      	ldr	r6, [r2, #0]
  20516c:	429e      	cmp	r6, r3
  20516e:	d205      	bcs.n	20517c <I2C_rx+0x10c>
  205170:	6816      	ldr	r6, [r2, #0]
  205172:	42be      	cmp	r6, r7
  205174:	d302      	bcc.n	20517c <I2C_rx+0x10c>
  205176:	6816      	ldr	r6, [r2, #0]
  205178:	429e      	cmp	r6, r3
  20517a:	d3e7      	bcc.n	20514c <I2C_rx+0xdc>
  20517c:	2301      	movs	r3, #1
  20517e:	f8cc 3004 	str.w	r3, [ip, #4]
  205182:	6817      	ldr	r7, [r2, #0]
  205184:	f117 0f10 	cmn.w	r7, #16
  205188:	f107 030f 	add.w	r3, r7, #15
  20518c:	d91c      	bls.n	2051c8 <I2C_rx+0x158>
  20518e:	bf00      	nop
  205190:	6816      	ldr	r6, [r2, #0]
  205192:	42be      	cmp	r6, r7
  205194:	d313      	bcc.n	2051be <I2C_rx+0x14e>
  205196:	6816      	ldr	r6, [r2, #0]
  205198:	42be      	cmp	r6, r7
  20519a:	d310      	bcc.n	2051be <I2C_rx+0x14e>
  20519c:	6816      	ldr	r6, [r2, #0]
  20519e:	42be      	cmp	r6, r7
  2051a0:	d30d      	bcc.n	2051be <I2C_rx+0x14e>
  2051a2:	6816      	ldr	r6, [r2, #0]
  2051a4:	42be      	cmp	r6, r7
  2051a6:	d2f3      	bcs.n	205190 <I2C_rx+0x120>
  2051a8:	e009      	b.n	2051be <I2C_rx+0x14e>
  2051aa:	bf00      	nop
  2051ac:	6817      	ldr	r7, [r2, #0]
  2051ae:	429f      	cmp	r7, r3
  2051b0:	d222      	bcs.n	2051f8 <I2C_rx+0x188>
  2051b2:	6817      	ldr	r7, [r2, #0]
  2051b4:	429f      	cmp	r7, r3
  2051b6:	d21f      	bcs.n	2051f8 <I2C_rx+0x188>
  2051b8:	6817      	ldr	r7, [r2, #0]
  2051ba:	429f      	cmp	r7, r3
  2051bc:	d21c      	bcs.n	2051f8 <I2C_rx+0x188>
  2051be:	6817      	ldr	r7, [r2, #0]
  2051c0:	429f      	cmp	r7, r3
  2051c2:	d3f3      	bcc.n	2051ac <I2C_rx+0x13c>
  2051c4:	e018      	b.n	2051f8 <I2C_rx+0x188>
  2051c6:	bf00      	nop
  2051c8:	6816      	ldr	r6, [r2, #0]
  2051ca:	42be      	cmp	r6, r7
  2051cc:	d314      	bcc.n	2051f8 <I2C_rx+0x188>
  2051ce:	6816      	ldr	r6, [r2, #0]
  2051d0:	429e      	cmp	r6, r3
  2051d2:	d211      	bcs.n	2051f8 <I2C_rx+0x188>
  2051d4:	6816      	ldr	r6, [r2, #0]
  2051d6:	42be      	cmp	r6, r7
  2051d8:	d30e      	bcc.n	2051f8 <I2C_rx+0x188>
  2051da:	6816      	ldr	r6, [r2, #0]
  2051dc:	429e      	cmp	r6, r3
  2051de:	d20b      	bcs.n	2051f8 <I2C_rx+0x188>
  2051e0:	6816      	ldr	r6, [r2, #0]
  2051e2:	42be      	cmp	r6, r7
  2051e4:	d308      	bcc.n	2051f8 <I2C_rx+0x188>
  2051e6:	6816      	ldr	r6, [r2, #0]
  2051e8:	429e      	cmp	r6, r3
  2051ea:	d205      	bcs.n	2051f8 <I2C_rx+0x188>
  2051ec:	6816      	ldr	r6, [r2, #0]
  2051ee:	42be      	cmp	r6, r7
  2051f0:	d302      	bcc.n	2051f8 <I2C_rx+0x188>
  2051f2:	6816      	ldr	r6, [r2, #0]
  2051f4:	429e      	cmp	r6, r3
  2051f6:	d3e7      	bcc.n	2051c8 <I2C_rx+0x158>
  2051f8:	2383      	movs	r3, #131	; 0x83
  2051fa:	2400      	movs	r4, #0
  2051fc:	f04f 0e02 	mov.w	lr, #2
  205200:	f04f 0801 	mov.w	r8, #1
  205204:	e008      	b.n	205218 <I2C_rx+0x1a8>
  205206:	bf00      	nop
  205208:	005b      	lsls	r3, r3, #1
  20520a:	2c07      	cmp	r4, #7
  20520c:	f104 0401 	add.w	r4, r4, #1
  205210:	f8cc 8004 	str.w	r8, [ip, #4]
  205214:	f080 8082 	bcs.w	20531c <I2C_rx+0x2ac>
  205218:	b25e      	sxtb	r6, r3
  20521a:	2e00      	cmp	r6, #0
  20521c:	4666      	mov	r6, ip
  20521e:	bf58      	it	pl
  205220:	3604      	addpl	r6, #4
  205222:	f8c6 e000 	str.w	lr, [r6]
  205226:	6817      	ldr	r7, [r2, #0]
  205228:	f117 0f10 	cmn.w	r7, #16
  20522c:	f107 060f 	add.w	r6, r7, #15
  205230:	d91a      	bls.n	205268 <I2C_rx+0x1f8>
  205232:	bf00      	nop
  205234:	6815      	ldr	r5, [r2, #0]
  205236:	42bd      	cmp	r5, r7
  205238:	d308      	bcc.n	20524c <I2C_rx+0x1dc>
  20523a:	6815      	ldr	r5, [r2, #0]
  20523c:	42bd      	cmp	r5, r7
  20523e:	d305      	bcc.n	20524c <I2C_rx+0x1dc>
  205240:	6815      	ldr	r5, [r2, #0]
  205242:	42bd      	cmp	r5, r7
  205244:	d302      	bcc.n	20524c <I2C_rx+0x1dc>
  205246:	6815      	ldr	r5, [r2, #0]
  205248:	42bd      	cmp	r5, r7
  20524a:	d2f3      	bcs.n	205234 <I2C_rx+0x1c4>
  20524c:	6815      	ldr	r5, [r2, #0]
  20524e:	42b5      	cmp	r5, r6
  205250:	d222      	bcs.n	205298 <I2C_rx+0x228>
  205252:	6815      	ldr	r5, [r2, #0]
  205254:	42b5      	cmp	r5, r6
  205256:	d21f      	bcs.n	205298 <I2C_rx+0x228>
  205258:	6815      	ldr	r5, [r2, #0]
  20525a:	42b5      	cmp	r5, r6
  20525c:	d21c      	bcs.n	205298 <I2C_rx+0x228>
  20525e:	6815      	ldr	r5, [r2, #0]
  205260:	42b5      	cmp	r5, r6
  205262:	d3f3      	bcc.n	20524c <I2C_rx+0x1dc>
  205264:	e018      	b.n	205298 <I2C_rx+0x228>
  205266:	bf00      	nop
  205268:	6815      	ldr	r5, [r2, #0]
  20526a:	42bd      	cmp	r5, r7
  20526c:	d314      	bcc.n	205298 <I2C_rx+0x228>
  20526e:	6815      	ldr	r5, [r2, #0]
  205270:	42b5      	cmp	r5, r6
  205272:	d211      	bcs.n	205298 <I2C_rx+0x228>
  205274:	6815      	ldr	r5, [r2, #0]
  205276:	42bd      	cmp	r5, r7
  205278:	d30e      	bcc.n	205298 <I2C_rx+0x228>
  20527a:	6815      	ldr	r5, [r2, #0]
  20527c:	42b5      	cmp	r5, r6
  20527e:	d20b      	bcs.n	205298 <I2C_rx+0x228>
  205280:	6815      	ldr	r5, [r2, #0]
  205282:	42bd      	cmp	r5, r7
  205284:	d308      	bcc.n	205298 <I2C_rx+0x228>
  205286:	6815      	ldr	r5, [r2, #0]
  205288:	42b5      	cmp	r5, r6
  20528a:	d205      	bcs.n	205298 <I2C_rx+0x228>
  20528c:	6815      	ldr	r5, [r2, #0]
  20528e:	42bd      	cmp	r5, r7
  205290:	d302      	bcc.n	205298 <I2C_rx+0x228>
  205292:	6815      	ldr	r5, [r2, #0]
  205294:	42b5      	cmp	r5, r6
  205296:	d3e7      	bcc.n	205268 <I2C_rx+0x1f8>
  205298:	f8cc 8000 	str.w	r8, [ip]
  20529c:	6817      	ldr	r7, [r2, #0]
  20529e:	f117 0f10 	cmn.w	r7, #16
  2052a2:	f107 060f 	add.w	r6, r7, #15
  2052a6:	d919      	bls.n	2052dc <I2C_rx+0x26c>
  2052a8:	6815      	ldr	r5, [r2, #0]
  2052aa:	42bd      	cmp	r5, r7
  2052ac:	d308      	bcc.n	2052c0 <I2C_rx+0x250>
  2052ae:	6815      	ldr	r5, [r2, #0]
  2052b0:	42bd      	cmp	r5, r7
  2052b2:	d305      	bcc.n	2052c0 <I2C_rx+0x250>
  2052b4:	6815      	ldr	r5, [r2, #0]
  2052b6:	42bd      	cmp	r5, r7
  2052b8:	d302      	bcc.n	2052c0 <I2C_rx+0x250>
  2052ba:	6815      	ldr	r5, [r2, #0]
  2052bc:	42bd      	cmp	r5, r7
  2052be:	d2f3      	bcs.n	2052a8 <I2C_rx+0x238>
  2052c0:	6815      	ldr	r5, [r2, #0]
  2052c2:	42b5      	cmp	r5, r6
  2052c4:	d2a0      	bcs.n	205208 <I2C_rx+0x198>
  2052c6:	6815      	ldr	r5, [r2, #0]
  2052c8:	42b5      	cmp	r5, r6
  2052ca:	d29d      	bcs.n	205208 <I2C_rx+0x198>
  2052cc:	6815      	ldr	r5, [r2, #0]
  2052ce:	42b5      	cmp	r5, r6
  2052d0:	f4bf af9a 	bcs.w	205208 <I2C_rx+0x198>
  2052d4:	6815      	ldr	r5, [r2, #0]
  2052d6:	42b5      	cmp	r5, r6
  2052d8:	d3f2      	bcc.n	2052c0 <I2C_rx+0x250>
  2052da:	e795      	b.n	205208 <I2C_rx+0x198>
  2052dc:	6815      	ldr	r5, [r2, #0]
  2052de:	42bd      	cmp	r5, r7
  2052e0:	f4ff af92 	bcc.w	205208 <I2C_rx+0x198>
  2052e4:	6815      	ldr	r5, [r2, #0]
  2052e6:	42b5      	cmp	r5, r6
  2052e8:	f4bf af8e 	bcs.w	205208 <I2C_rx+0x198>
  2052ec:	6815      	ldr	r5, [r2, #0]
  2052ee:	42bd      	cmp	r5, r7
  2052f0:	f4ff af8a 	bcc.w	205208 <I2C_rx+0x198>
  2052f4:	6815      	ldr	r5, [r2, #0]
  2052f6:	42b5      	cmp	r5, r6
  2052f8:	f4bf af86 	bcs.w	205208 <I2C_rx+0x198>
  2052fc:	6815      	ldr	r5, [r2, #0]
  2052fe:	42bd      	cmp	r5, r7
  205300:	f4ff af82 	bcc.w	205208 <I2C_rx+0x198>
  205304:	6815      	ldr	r5, [r2, #0]
  205306:	42b5      	cmp	r5, r6
  205308:	f4bf af7e 	bcs.w	205208 <I2C_rx+0x198>
  20530c:	6815      	ldr	r5, [r2, #0]
  20530e:	42bd      	cmp	r5, r7
  205310:	f4ff af7a 	bcc.w	205208 <I2C_rx+0x198>
  205314:	6815      	ldr	r5, [r2, #0]
  205316:	42b5      	cmp	r5, r6
  205318:	d3e0      	bcc.n	2052dc <I2C_rx+0x26c>
  20531a:	e775      	b.n	205208 <I2C_rx+0x198>
  20531c:	2302      	movs	r3, #2
  20531e:	f8cc 3000 	str.w	r3, [ip]
  205322:	6817      	ldr	r7, [r2, #0]
  205324:	f117 0f10 	cmn.w	r7, #16
  205328:	f107 030f 	add.w	r3, r7, #15
  20532c:	d91c      	bls.n	205368 <I2C_rx+0x2f8>
  20532e:	bf00      	nop
  205330:	6816      	ldr	r6, [r2, #0]
  205332:	42be      	cmp	r6, r7
  205334:	d313      	bcc.n	20535e <I2C_rx+0x2ee>
  205336:	6816      	ldr	r6, [r2, #0]
  205338:	42be      	cmp	r6, r7
  20533a:	d310      	bcc.n	20535e <I2C_rx+0x2ee>
  20533c:	6816      	ldr	r6, [r2, #0]
  20533e:	42be      	cmp	r6, r7
  205340:	d30d      	bcc.n	20535e <I2C_rx+0x2ee>
  205342:	6816      	ldr	r6, [r2, #0]
  205344:	42be      	cmp	r6, r7
  205346:	d2f3      	bcs.n	205330 <I2C_rx+0x2c0>
  205348:	e009      	b.n	20535e <I2C_rx+0x2ee>
  20534a:	bf00      	nop
  20534c:	6817      	ldr	r7, [r2, #0]
  20534e:	429f      	cmp	r7, r3
  205350:	d222      	bcs.n	205398 <I2C_rx+0x328>
  205352:	6817      	ldr	r7, [r2, #0]
  205354:	429f      	cmp	r7, r3
  205356:	d21f      	bcs.n	205398 <I2C_rx+0x328>
  205358:	6817      	ldr	r7, [r2, #0]
  20535a:	429f      	cmp	r7, r3
  20535c:	d21c      	bcs.n	205398 <I2C_rx+0x328>
  20535e:	6817      	ldr	r7, [r2, #0]
  205360:	429f      	cmp	r7, r3
  205362:	d3f3      	bcc.n	20534c <I2C_rx+0x2dc>
  205364:	e018      	b.n	205398 <I2C_rx+0x328>
  205366:	bf00      	nop
  205368:	6816      	ldr	r6, [r2, #0]
  20536a:	42be      	cmp	r6, r7
  20536c:	d314      	bcc.n	205398 <I2C_rx+0x328>
  20536e:	6816      	ldr	r6, [r2, #0]
  205370:	429e      	cmp	r6, r3
  205372:	d211      	bcs.n	205398 <I2C_rx+0x328>
  205374:	6816      	ldr	r6, [r2, #0]
  205376:	42be      	cmp	r6, r7
  205378:	d30e      	bcc.n	205398 <I2C_rx+0x328>
  20537a:	6816      	ldr	r6, [r2, #0]
  20537c:	429e      	cmp	r6, r3
  20537e:	d20b      	bcs.n	205398 <I2C_rx+0x328>
  205380:	6816      	ldr	r6, [r2, #0]
  205382:	42be      	cmp	r6, r7
  205384:	d308      	bcc.n	205398 <I2C_rx+0x328>
  205386:	6816      	ldr	r6, [r2, #0]
  205388:	429e      	cmp	r6, r3
  20538a:	d205      	bcs.n	205398 <I2C_rx+0x328>
  20538c:	6816      	ldr	r6, [r2, #0]
  20538e:	42be      	cmp	r6, r7
  205390:	d302      	bcc.n	205398 <I2C_rx+0x328>
  205392:	6816      	ldr	r6, [r2, #0]
  205394:	429e      	cmp	r6, r3
  205396:	d3e7      	bcc.n	205368 <I2C_rx+0x2f8>
  205398:	2301      	movs	r3, #1
  20539a:	f8cc 3000 	str.w	r3, [ip]
  20539e:	6817      	ldr	r7, [r2, #0]
  2053a0:	f117 0f10 	cmn.w	r7, #16
  2053a4:	f107 030f 	add.w	r3, r7, #15
  2053a8:	d91c      	bls.n	2053e4 <I2C_rx+0x374>
  2053aa:	bf00      	nop
  2053ac:	6816      	ldr	r6, [r2, #0]
  2053ae:	42be      	cmp	r6, r7
  2053b0:	d313      	bcc.n	2053da <I2C_rx+0x36a>
  2053b2:	6816      	ldr	r6, [r2, #0]
  2053b4:	42be      	cmp	r6, r7
  2053b6:	d310      	bcc.n	2053da <I2C_rx+0x36a>
  2053b8:	6816      	ldr	r6, [r2, #0]
  2053ba:	42be      	cmp	r6, r7
  2053bc:	d30d      	bcc.n	2053da <I2C_rx+0x36a>
  2053be:	6816      	ldr	r6, [r2, #0]
  2053c0:	42be      	cmp	r6, r7
  2053c2:	d2f3      	bcs.n	2053ac <I2C_rx+0x33c>
  2053c4:	e009      	b.n	2053da <I2C_rx+0x36a>
  2053c6:	bf00      	nop
  2053c8:	6817      	ldr	r7, [r2, #0]
  2053ca:	429f      	cmp	r7, r3
  2053cc:	d222      	bcs.n	205414 <I2C_rx+0x3a4>
  2053ce:	6817      	ldr	r7, [r2, #0]
  2053d0:	429f      	cmp	r7, r3
  2053d2:	d21f      	bcs.n	205414 <I2C_rx+0x3a4>
  2053d4:	6817      	ldr	r7, [r2, #0]
  2053d6:	429f      	cmp	r7, r3
  2053d8:	d21c      	bcs.n	205414 <I2C_rx+0x3a4>
  2053da:	6817      	ldr	r7, [r2, #0]
  2053dc:	429f      	cmp	r7, r3
  2053de:	d3f3      	bcc.n	2053c8 <I2C_rx+0x358>
  2053e0:	e018      	b.n	205414 <I2C_rx+0x3a4>
  2053e2:	bf00      	nop
  2053e4:	6816      	ldr	r6, [r2, #0]
  2053e6:	42be      	cmp	r6, r7
  2053e8:	d314      	bcc.n	205414 <I2C_rx+0x3a4>
  2053ea:	6816      	ldr	r6, [r2, #0]
  2053ec:	429e      	cmp	r6, r3
  2053ee:	d211      	bcs.n	205414 <I2C_rx+0x3a4>
  2053f0:	6816      	ldr	r6, [r2, #0]
  2053f2:	42be      	cmp	r6, r7
  2053f4:	d30e      	bcc.n	205414 <I2C_rx+0x3a4>
  2053f6:	6816      	ldr	r6, [r2, #0]
  2053f8:	429e      	cmp	r6, r3
  2053fa:	d20b      	bcs.n	205414 <I2C_rx+0x3a4>
  2053fc:	6816      	ldr	r6, [r2, #0]
  2053fe:	42be      	cmp	r6, r7
  205400:	d308      	bcc.n	205414 <I2C_rx+0x3a4>
  205402:	6816      	ldr	r6, [r2, #0]
  205404:	429e      	cmp	r6, r3
  205406:	d205      	bcs.n	205414 <I2C_rx+0x3a4>
  205408:	6816      	ldr	r6, [r2, #0]
  20540a:	42be      	cmp	r6, r7
  20540c:	d302      	bcc.n	205414 <I2C_rx+0x3a4>
  20540e:	6816      	ldr	r6, [r2, #0]
  205410:	429e      	cmp	r6, r3
  205412:	d3e7      	bcc.n	2053e4 <I2C_rx+0x374>
  205414:	f8dc 3000 	ldr.w	r3, [ip]
  205418:	f04f 0801 	mov.w	r8, #1
  20541c:	2400      	movs	r4, #0
  20541e:	f04f 0e02 	mov.w	lr, #2
  205422:	2500      	movs	r5, #0
  205424:	f8cc 8004 	str.w	r8, [ip, #4]
  205428:	e00e      	b.n	205448 <I2C_rx+0x3d8>
  20542a:	bf00      	nop
  20542c:	f8dc 3000 	ldr.w	r3, [ip]
  205430:	0064      	lsls	r4, r4, #1
  205432:	f3c3 0340 	ubfx	r3, r3, #1, #1
  205436:	2d07      	cmp	r5, #7
  205438:	ea44 0403 	orr.w	r4, r4, r3
  20543c:	f105 0501 	add.w	r5, r5, #1
  205440:	f8cc 8004 	str.w	r8, [ip, #4]
  205444:	f080 807e 	bcs.w	205544 <I2C_rx+0x4d4>
  205448:	f8cc e000 	str.w	lr, [ip]
  20544c:	6817      	ldr	r7, [r2, #0]
  20544e:	f117 0f10 	cmn.w	r7, #16
  205452:	f107 060f 	add.w	r6, r7, #15
  205456:	d919      	bls.n	20548c <I2C_rx+0x41c>
  205458:	6813      	ldr	r3, [r2, #0]
  20545a:	42bb      	cmp	r3, r7
  20545c:	d308      	bcc.n	205470 <I2C_rx+0x400>
  20545e:	6813      	ldr	r3, [r2, #0]
  205460:	42bb      	cmp	r3, r7
  205462:	d305      	bcc.n	205470 <I2C_rx+0x400>
  205464:	6813      	ldr	r3, [r2, #0]
  205466:	42bb      	cmp	r3, r7
  205468:	d302      	bcc.n	205470 <I2C_rx+0x400>
  20546a:	6813      	ldr	r3, [r2, #0]
  20546c:	42bb      	cmp	r3, r7
  20546e:	d2f3      	bcs.n	205458 <I2C_rx+0x3e8>
  205470:	6813      	ldr	r3, [r2, #0]
  205472:	42b3      	cmp	r3, r6
  205474:	d222      	bcs.n	2054bc <I2C_rx+0x44c>
  205476:	6813      	ldr	r3, [r2, #0]
  205478:	42b3      	cmp	r3, r6
  20547a:	d21f      	bcs.n	2054bc <I2C_rx+0x44c>
  20547c:	6813      	ldr	r3, [r2, #0]
  20547e:	42b3      	cmp	r3, r6
  205480:	d21c      	bcs.n	2054bc <I2C_rx+0x44c>
  205482:	6813      	ldr	r3, [r2, #0]
  205484:	42b3      	cmp	r3, r6
  205486:	d3f3      	bcc.n	205470 <I2C_rx+0x400>
  205488:	e018      	b.n	2054bc <I2C_rx+0x44c>
  20548a:	bf00      	nop
  20548c:	6813      	ldr	r3, [r2, #0]
  20548e:	42bb      	cmp	r3, r7
  205490:	d314      	bcc.n	2054bc <I2C_rx+0x44c>
  205492:	6813      	ldr	r3, [r2, #0]
  205494:	42b3      	cmp	r3, r6
  205496:	d211      	bcs.n	2054bc <I2C_rx+0x44c>
  205498:	6813      	ldr	r3, [r2, #0]
  20549a:	42bb      	cmp	r3, r7
  20549c:	d30e      	bcc.n	2054bc <I2C_rx+0x44c>
  20549e:	6813      	ldr	r3, [r2, #0]
  2054a0:	42b3      	cmp	r3, r6
  2054a2:	d20b      	bcs.n	2054bc <I2C_rx+0x44c>
  2054a4:	6813      	ldr	r3, [r2, #0]
  2054a6:	42bb      	cmp	r3, r7
  2054a8:	d308      	bcc.n	2054bc <I2C_rx+0x44c>
  2054aa:	6813      	ldr	r3, [r2, #0]
  2054ac:	42b3      	cmp	r3, r6
  2054ae:	d205      	bcs.n	2054bc <I2C_rx+0x44c>
  2054b0:	6813      	ldr	r3, [r2, #0]
  2054b2:	42bb      	cmp	r3, r7
  2054b4:	d302      	bcc.n	2054bc <I2C_rx+0x44c>
  2054b6:	6813      	ldr	r3, [r2, #0]
  2054b8:	42b3      	cmp	r3, r6
  2054ba:	d3e7      	bcc.n	20548c <I2C_rx+0x41c>
  2054bc:	f8cc 8000 	str.w	r8, [ip]
  2054c0:	6817      	ldr	r7, [r2, #0]
  2054c2:	f117 0f10 	cmn.w	r7, #16
  2054c6:	f107 060f 	add.w	r6, r7, #15
  2054ca:	d91b      	bls.n	205504 <I2C_rx+0x494>
  2054cc:	6813      	ldr	r3, [r2, #0]
  2054ce:	42bb      	cmp	r3, r7
  2054d0:	d308      	bcc.n	2054e4 <I2C_rx+0x474>
  2054d2:	6813      	ldr	r3, [r2, #0]
  2054d4:	42bb      	cmp	r3, r7
  2054d6:	d305      	bcc.n	2054e4 <I2C_rx+0x474>
  2054d8:	6813      	ldr	r3, [r2, #0]
  2054da:	42bb      	cmp	r3, r7
  2054dc:	d302      	bcc.n	2054e4 <I2C_rx+0x474>
  2054de:	6813      	ldr	r3, [r2, #0]
  2054e0:	42bb      	cmp	r3, r7
  2054e2:	d2f3      	bcs.n	2054cc <I2C_rx+0x45c>
  2054e4:	6813      	ldr	r3, [r2, #0]
  2054e6:	42b3      	cmp	r3, r6
  2054e8:	d2a0      	bcs.n	20542c <I2C_rx+0x3bc>
  2054ea:	6813      	ldr	r3, [r2, #0]
  2054ec:	42b3      	cmp	r3, r6
  2054ee:	f4bf af9d 	bcs.w	20542c <I2C_rx+0x3bc>
  2054f2:	6813      	ldr	r3, [r2, #0]
  2054f4:	42b3      	cmp	r3, r6
  2054f6:	f4bf af99 	bcs.w	20542c <I2C_rx+0x3bc>
  2054fa:	6813      	ldr	r3, [r2, #0]
  2054fc:	42b3      	cmp	r3, r6
  2054fe:	d3f1      	bcc.n	2054e4 <I2C_rx+0x474>
  205500:	e794      	b.n	20542c <I2C_rx+0x3bc>
  205502:	bf00      	nop
  205504:	6813      	ldr	r3, [r2, #0]
  205506:	42bb      	cmp	r3, r7
  205508:	f4ff af90 	bcc.w	20542c <I2C_rx+0x3bc>
  20550c:	6813      	ldr	r3, [r2, #0]
  20550e:	42b3      	cmp	r3, r6
  205510:	f4bf af8c 	bcs.w	20542c <I2C_rx+0x3bc>
  205514:	6813      	ldr	r3, [r2, #0]
  205516:	42bb      	cmp	r3, r7
  205518:	f4ff af88 	bcc.w	20542c <I2C_rx+0x3bc>
  20551c:	6813      	ldr	r3, [r2, #0]
  20551e:	42b3      	cmp	r3, r6
  205520:	f4bf af84 	bcs.w	20542c <I2C_rx+0x3bc>
  205524:	6813      	ldr	r3, [r2, #0]
  205526:	42bb      	cmp	r3, r7
  205528:	f4ff af80 	bcc.w	20542c <I2C_rx+0x3bc>
  20552c:	6813      	ldr	r3, [r2, #0]
  20552e:	42b3      	cmp	r3, r6
  205530:	f4bf af7c 	bcs.w	20542c <I2C_rx+0x3bc>
  205534:	6813      	ldr	r3, [r2, #0]
  205536:	42bb      	cmp	r3, r7
  205538:	f4ff af78 	bcc.w	20542c <I2C_rx+0x3bc>
  20553c:	6813      	ldr	r3, [r2, #0]
  20553e:	42b3      	cmp	r3, r6
  205540:	d3e0      	bcc.n	205504 <I2C_rx+0x494>
  205542:	e773      	b.n	20542c <I2C_rx+0x3bc>
  205544:	2902      	cmp	r1, #2
  205546:	7004      	strb	r4, [r0, #0]
  205548:	f0c0 8116 	bcc.w	205778 <I2C_rx+0x708>
  20554c:	f04f 0901 	mov.w	r9, #1
  205550:	f04f 0e02 	mov.w	lr, #2
  205554:	f04f 0801 	mov.w	r8, #1
  205558:	e007      	b.n	20556a <I2C_rx+0x4fa>
  20555a:	bf00      	nop
  20555c:	f800 5008 	strb.w	r5, [r0, r8]
  205560:	f108 0801 	add.w	r8, r8, #1
  205564:	4588      	cmp	r8, r1
  205566:	f000 8107 	beq.w	205778 <I2C_rx+0x708>
  20556a:	f8cc e004 	str.w	lr, [ip, #4]
  20556e:	6816      	ldr	r6, [r2, #0]
  205570:	f116 0f10 	cmn.w	r6, #16
  205574:	f106 050f 	add.w	r5, r6, #15
  205578:	d91a      	bls.n	2055b0 <I2C_rx+0x540>
  20557a:	bf00      	nop
  20557c:	6814      	ldr	r4, [r2, #0]
  20557e:	42b4      	cmp	r4, r6
  205580:	d308      	bcc.n	205594 <I2C_rx+0x524>
  205582:	6814      	ldr	r4, [r2, #0]
  205584:	42b4      	cmp	r4, r6
  205586:	d305      	bcc.n	205594 <I2C_rx+0x524>
  205588:	6814      	ldr	r4, [r2, #0]
  20558a:	42b4      	cmp	r4, r6
  20558c:	d302      	bcc.n	205594 <I2C_rx+0x524>
  20558e:	6814      	ldr	r4, [r2, #0]
  205590:	42b4      	cmp	r4, r6
  205592:	d2f3      	bcs.n	20557c <I2C_rx+0x50c>
  205594:	6814      	ldr	r4, [r2, #0]
  205596:	42ac      	cmp	r4, r5
  205598:	d222      	bcs.n	2055e0 <I2C_rx+0x570>
  20559a:	6814      	ldr	r4, [r2, #0]
  20559c:	42ac      	cmp	r4, r5
  20559e:	d21f      	bcs.n	2055e0 <I2C_rx+0x570>
  2055a0:	6814      	ldr	r4, [r2, #0]
  2055a2:	42ac      	cmp	r4, r5
  2055a4:	d21c      	bcs.n	2055e0 <I2C_rx+0x570>
  2055a6:	6814      	ldr	r4, [r2, #0]
  2055a8:	42ac      	cmp	r4, r5
  2055aa:	d3f3      	bcc.n	205594 <I2C_rx+0x524>
  2055ac:	e018      	b.n	2055e0 <I2C_rx+0x570>
  2055ae:	bf00      	nop
  2055b0:	6814      	ldr	r4, [r2, #0]
  2055b2:	42b4      	cmp	r4, r6
  2055b4:	d314      	bcc.n	2055e0 <I2C_rx+0x570>
  2055b6:	6814      	ldr	r4, [r2, #0]
  2055b8:	42ac      	cmp	r4, r5
  2055ba:	d211      	bcs.n	2055e0 <I2C_rx+0x570>
  2055bc:	6814      	ldr	r4, [r2, #0]
  2055be:	42b4      	cmp	r4, r6
  2055c0:	d30e      	bcc.n	2055e0 <I2C_rx+0x570>
  2055c2:	6814      	ldr	r4, [r2, #0]
  2055c4:	42ac      	cmp	r4, r5
  2055c6:	d20b      	bcs.n	2055e0 <I2C_rx+0x570>
  2055c8:	6814      	ldr	r4, [r2, #0]
  2055ca:	42b4      	cmp	r4, r6
  2055cc:	d308      	bcc.n	2055e0 <I2C_rx+0x570>
  2055ce:	6814      	ldr	r4, [r2, #0]
  2055d0:	42ac      	cmp	r4, r5
  2055d2:	d205      	bcs.n	2055e0 <I2C_rx+0x570>
  2055d4:	6814      	ldr	r4, [r2, #0]
  2055d6:	42b4      	cmp	r4, r6
  2055d8:	d302      	bcc.n	2055e0 <I2C_rx+0x570>
  2055da:	6814      	ldr	r4, [r2, #0]
  2055dc:	42ac      	cmp	r4, r5
  2055de:	d3e7      	bcc.n	2055b0 <I2C_rx+0x540>
  2055e0:	f8cc 9000 	str.w	r9, [ip]
  2055e4:	6816      	ldr	r6, [r2, #0]
  2055e6:	f116 0f10 	cmn.w	r6, #16
  2055ea:	f106 050f 	add.w	r5, r6, #15
  2055ee:	d919      	bls.n	205624 <I2C_rx+0x5b4>
  2055f0:	6814      	ldr	r4, [r2, #0]
  2055f2:	42b4      	cmp	r4, r6
  2055f4:	d308      	bcc.n	205608 <I2C_rx+0x598>
  2055f6:	6814      	ldr	r4, [r2, #0]
  2055f8:	42b4      	cmp	r4, r6
  2055fa:	d305      	bcc.n	205608 <I2C_rx+0x598>
  2055fc:	6814      	ldr	r4, [r2, #0]
  2055fe:	42b4      	cmp	r4, r6
  205600:	d302      	bcc.n	205608 <I2C_rx+0x598>
  205602:	6814      	ldr	r4, [r2, #0]
  205604:	42b4      	cmp	r4, r6
  205606:	d2f3      	bcs.n	2055f0 <I2C_rx+0x580>
  205608:	6814      	ldr	r4, [r2, #0]
  20560a:	42ac      	cmp	r4, r5
  20560c:	d222      	bcs.n	205654 <I2C_rx+0x5e4>
  20560e:	6814      	ldr	r4, [r2, #0]
  205610:	42ac      	cmp	r4, r5
  205612:	d21f      	bcs.n	205654 <I2C_rx+0x5e4>
  205614:	6814      	ldr	r4, [r2, #0]
  205616:	42ac      	cmp	r4, r5
  205618:	d21c      	bcs.n	205654 <I2C_rx+0x5e4>
  20561a:	6814      	ldr	r4, [r2, #0]
  20561c:	42ac      	cmp	r4, r5
  20561e:	d3f3      	bcc.n	205608 <I2C_rx+0x598>
  205620:	e018      	b.n	205654 <I2C_rx+0x5e4>
  205622:	bf00      	nop
  205624:	6814      	ldr	r4, [r2, #0]
  205626:	42b4      	cmp	r4, r6
  205628:	d314      	bcc.n	205654 <I2C_rx+0x5e4>
  20562a:	6814      	ldr	r4, [r2, #0]
  20562c:	42ac      	cmp	r4, r5
  20562e:	d211      	bcs.n	205654 <I2C_rx+0x5e4>
  205630:	6814      	ldr	r4, [r2, #0]
  205632:	42b4      	cmp	r4, r6
  205634:	d30e      	bcc.n	205654 <I2C_rx+0x5e4>
  205636:	6814      	ldr	r4, [r2, #0]
  205638:	42ac      	cmp	r4, r5
  20563a:	d20b      	bcs.n	205654 <I2C_rx+0x5e4>
  20563c:	6814      	ldr	r4, [r2, #0]
  20563e:	42b4      	cmp	r4, r6
  205640:	d308      	bcc.n	205654 <I2C_rx+0x5e4>
  205642:	6814      	ldr	r4, [r2, #0]
  205644:	42ac      	cmp	r4, r5
  205646:	d205      	bcs.n	205654 <I2C_rx+0x5e4>
  205648:	6814      	ldr	r4, [r2, #0]
  20564a:	42b4      	cmp	r4, r6
  20564c:	d302      	bcc.n	205654 <I2C_rx+0x5e4>
  20564e:	6814      	ldr	r4, [r2, #0]
  205650:	42ac      	cmp	r4, r5
  205652:	d3e7      	bcc.n	205624 <I2C_rx+0x5b4>
  205654:	2500      	movs	r5, #0
  205656:	2600      	movs	r6, #0
  205658:	f8cc 9004 	str.w	r9, [ip, #4]
  20565c:	e00e      	b.n	20567c <I2C_rx+0x60c>
  20565e:	bf00      	nop
  205660:	f8dc 3000 	ldr.w	r3, [ip]
  205664:	006c      	lsls	r4, r5, #1
  205666:	f3c3 0340 	ubfx	r3, r3, #1, #1
  20566a:	2e07      	cmp	r6, #7
  20566c:	ea43 0504 	orr.w	r5, r3, r4
  205670:	f106 0601 	add.w	r6, r6, #1
  205674:	f8cc 9004 	str.w	r9, [ip, #4]
  205678:	f4bf af70 	bcs.w	20555c <I2C_rx+0x4ec>
  20567c:	f8cc e000 	str.w	lr, [ip]
  205680:	6814      	ldr	r4, [r2, #0]
  205682:	f114 0f10 	cmn.w	r4, #16
  205686:	f104 070f 	add.w	r7, r4, #15
  20568a:	d919      	bls.n	2056c0 <I2C_rx+0x650>
  20568c:	6813      	ldr	r3, [r2, #0]
  20568e:	42a3      	cmp	r3, r4
  205690:	d308      	bcc.n	2056a4 <I2C_rx+0x634>
  205692:	6813      	ldr	r3, [r2, #0]
  205694:	42a3      	cmp	r3, r4
  205696:	d305      	bcc.n	2056a4 <I2C_rx+0x634>
  205698:	6813      	ldr	r3, [r2, #0]
  20569a:	42a3      	cmp	r3, r4
  20569c:	d302      	bcc.n	2056a4 <I2C_rx+0x634>
  20569e:	6813      	ldr	r3, [r2, #0]
  2056a0:	42a3      	cmp	r3, r4
  2056a2:	d2f3      	bcs.n	20568c <I2C_rx+0x61c>
  2056a4:	6813      	ldr	r3, [r2, #0]
  2056a6:	42bb      	cmp	r3, r7
  2056a8:	d222      	bcs.n	2056f0 <I2C_rx+0x680>
  2056aa:	6813      	ldr	r3, [r2, #0]
  2056ac:	42bb      	cmp	r3, r7
  2056ae:	d21f      	bcs.n	2056f0 <I2C_rx+0x680>
  2056b0:	6813      	ldr	r3, [r2, #0]
  2056b2:	42bb      	cmp	r3, r7
  2056b4:	d21c      	bcs.n	2056f0 <I2C_rx+0x680>
  2056b6:	6813      	ldr	r3, [r2, #0]
  2056b8:	42bb      	cmp	r3, r7
  2056ba:	d3f3      	bcc.n	2056a4 <I2C_rx+0x634>
  2056bc:	e018      	b.n	2056f0 <I2C_rx+0x680>
  2056be:	bf00      	nop
  2056c0:	6813      	ldr	r3, [r2, #0]
  2056c2:	42a3      	cmp	r3, r4
  2056c4:	d314      	bcc.n	2056f0 <I2C_rx+0x680>
  2056c6:	6813      	ldr	r3, [r2, #0]
  2056c8:	42bb      	cmp	r3, r7
  2056ca:	d211      	bcs.n	2056f0 <I2C_rx+0x680>
  2056cc:	6813      	ldr	r3, [r2, #0]
  2056ce:	42a3      	cmp	r3, r4
  2056d0:	d30e      	bcc.n	2056f0 <I2C_rx+0x680>
  2056d2:	6813      	ldr	r3, [r2, #0]
  2056d4:	42bb      	cmp	r3, r7
  2056d6:	d20b      	bcs.n	2056f0 <I2C_rx+0x680>
  2056d8:	6813      	ldr	r3, [r2, #0]
  2056da:	42a3      	cmp	r3, r4
  2056dc:	d308      	bcc.n	2056f0 <I2C_rx+0x680>
  2056de:	6813      	ldr	r3, [r2, #0]
  2056e0:	42bb      	cmp	r3, r7
  2056e2:	d205      	bcs.n	2056f0 <I2C_rx+0x680>
  2056e4:	6813      	ldr	r3, [r2, #0]
  2056e6:	42a3      	cmp	r3, r4
  2056e8:	d302      	bcc.n	2056f0 <I2C_rx+0x680>
  2056ea:	6813      	ldr	r3, [r2, #0]
  2056ec:	42bb      	cmp	r3, r7
  2056ee:	d3e7      	bcc.n	2056c0 <I2C_rx+0x650>
  2056f0:	f8cc 9000 	str.w	r9, [ip]
  2056f4:	6814      	ldr	r4, [r2, #0]
  2056f6:	f114 0f10 	cmn.w	r4, #16
  2056fa:	f104 070f 	add.w	r7, r4, #15
  2056fe:	d91b      	bls.n	205738 <I2C_rx+0x6c8>
  205700:	6813      	ldr	r3, [r2, #0]
  205702:	42a3      	cmp	r3, r4
  205704:	d308      	bcc.n	205718 <I2C_rx+0x6a8>
  205706:	6813      	ldr	r3, [r2, #0]
  205708:	42a3      	cmp	r3, r4
  20570a:	d305      	bcc.n	205718 <I2C_rx+0x6a8>
  20570c:	6813      	ldr	r3, [r2, #0]
  20570e:	42a3      	cmp	r3, r4
  205710:	d302      	bcc.n	205718 <I2C_rx+0x6a8>
  205712:	6813      	ldr	r3, [r2, #0]
  205714:	42a3      	cmp	r3, r4
  205716:	d2f3      	bcs.n	205700 <I2C_rx+0x690>
  205718:	6813      	ldr	r3, [r2, #0]
  20571a:	42bb      	cmp	r3, r7
  20571c:	d2a0      	bcs.n	205660 <I2C_rx+0x5f0>
  20571e:	6813      	ldr	r3, [r2, #0]
  205720:	42bb      	cmp	r3, r7
  205722:	f4bf af9d 	bcs.w	205660 <I2C_rx+0x5f0>
  205726:	6813      	ldr	r3, [r2, #0]
  205728:	42bb      	cmp	r3, r7
  20572a:	f4bf af99 	bcs.w	205660 <I2C_rx+0x5f0>
  20572e:	6813      	ldr	r3, [r2, #0]
  205730:	42bb      	cmp	r3, r7
  205732:	d3f1      	bcc.n	205718 <I2C_rx+0x6a8>
  205734:	e794      	b.n	205660 <I2C_rx+0x5f0>
  205736:	bf00      	nop
  205738:	6813      	ldr	r3, [r2, #0]
  20573a:	42a3      	cmp	r3, r4
  20573c:	f4ff af90 	bcc.w	205660 <I2C_rx+0x5f0>
  205740:	6813      	ldr	r3, [r2, #0]
  205742:	42bb      	cmp	r3, r7
  205744:	f4bf af8c 	bcs.w	205660 <I2C_rx+0x5f0>
  205748:	6813      	ldr	r3, [r2, #0]
  20574a:	42a3      	cmp	r3, r4
  20574c:	f4ff af88 	bcc.w	205660 <I2C_rx+0x5f0>
  205750:	6813      	ldr	r3, [r2, #0]
  205752:	42bb      	cmp	r3, r7
  205754:	f4bf af84 	bcs.w	205660 <I2C_rx+0x5f0>
  205758:	6813      	ldr	r3, [r2, #0]
  20575a:	42a3      	cmp	r3, r4
  20575c:	f4ff af80 	bcc.w	205660 <I2C_rx+0x5f0>
  205760:	6813      	ldr	r3, [r2, #0]
  205762:	42bb      	cmp	r3, r7
  205764:	f4bf af7c 	bcs.w	205660 <I2C_rx+0x5f0>
  205768:	6813      	ldr	r3, [r2, #0]
  20576a:	42a3      	cmp	r3, r4
  20576c:	f4ff af78 	bcc.w	205660 <I2C_rx+0x5f0>
  205770:	6813      	ldr	r3, [r2, #0]
  205772:	42bb      	cmp	r3, r7
  205774:	d3e0      	bcc.n	205738 <I2C_rx+0x6c8>
  205776:	e773      	b.n	205660 <I2C_rx+0x5f0>
  205778:	2002      	movs	r0, #2
  20577a:	f8cc 0000 	str.w	r0, [ip]
  20577e:	6811      	ldr	r1, [r2, #0]
  205780:	f111 0f10 	cmn.w	r1, #16
  205784:	f101 000f 	add.w	r0, r1, #15
  205788:	d91c      	bls.n	2057c4 <I2C_rx+0x754>
  20578a:	bf00      	nop
  20578c:	6813      	ldr	r3, [r2, #0]
  20578e:	428b      	cmp	r3, r1
  205790:	d313      	bcc.n	2057ba <I2C_rx+0x74a>
  205792:	6813      	ldr	r3, [r2, #0]
  205794:	428b      	cmp	r3, r1
  205796:	d310      	bcc.n	2057ba <I2C_rx+0x74a>
  205798:	6813      	ldr	r3, [r2, #0]
  20579a:	428b      	cmp	r3, r1
  20579c:	d30d      	bcc.n	2057ba <I2C_rx+0x74a>
  20579e:	6813      	ldr	r3, [r2, #0]
  2057a0:	428b      	cmp	r3, r1
  2057a2:	d2f3      	bcs.n	20578c <I2C_rx+0x71c>
  2057a4:	e009      	b.n	2057ba <I2C_rx+0x74a>
  2057a6:	bf00      	nop
  2057a8:	6811      	ldr	r1, [r2, #0]
  2057aa:	4281      	cmp	r1, r0
  2057ac:	d222      	bcs.n	2057f4 <I2C_rx+0x784>
  2057ae:	6811      	ldr	r1, [r2, #0]
  2057b0:	4281      	cmp	r1, r0
  2057b2:	d21f      	bcs.n	2057f4 <I2C_rx+0x784>
  2057b4:	6811      	ldr	r1, [r2, #0]
  2057b6:	4281      	cmp	r1, r0
  2057b8:	d21c      	bcs.n	2057f4 <I2C_rx+0x784>
  2057ba:	6811      	ldr	r1, [r2, #0]
  2057bc:	4281      	cmp	r1, r0
  2057be:	d3f3      	bcc.n	2057a8 <I2C_rx+0x738>
  2057c0:	e018      	b.n	2057f4 <I2C_rx+0x784>
  2057c2:	bf00      	nop
  2057c4:	6813      	ldr	r3, [r2, #0]
  2057c6:	428b      	cmp	r3, r1
  2057c8:	d314      	bcc.n	2057f4 <I2C_rx+0x784>
  2057ca:	6813      	ldr	r3, [r2, #0]
  2057cc:	4283      	cmp	r3, r0
  2057ce:	d211      	bcs.n	2057f4 <I2C_rx+0x784>
  2057d0:	6813      	ldr	r3, [r2, #0]
  2057d2:	428b      	cmp	r3, r1
  2057d4:	d30e      	bcc.n	2057f4 <I2C_rx+0x784>
  2057d6:	6813      	ldr	r3, [r2, #0]
  2057d8:	4283      	cmp	r3, r0
  2057da:	d20b      	bcs.n	2057f4 <I2C_rx+0x784>
  2057dc:	6813      	ldr	r3, [r2, #0]
  2057de:	428b      	cmp	r3, r1
  2057e0:	d308      	bcc.n	2057f4 <I2C_rx+0x784>
  2057e2:	6813      	ldr	r3, [r2, #0]
  2057e4:	4283      	cmp	r3, r0
  2057e6:	d205      	bcs.n	2057f4 <I2C_rx+0x784>
  2057e8:	6813      	ldr	r3, [r2, #0]
  2057ea:	428b      	cmp	r3, r1
  2057ec:	d302      	bcc.n	2057f4 <I2C_rx+0x784>
  2057ee:	6813      	ldr	r3, [r2, #0]
  2057f0:	4283      	cmp	r3, r0
  2057f2:	d3e7      	bcc.n	2057c4 <I2C_rx+0x754>
  2057f4:	2001      	movs	r0, #1
  2057f6:	f8cc 0000 	str.w	r0, [ip]
  2057fa:	6811      	ldr	r1, [r2, #0]
  2057fc:	f111 0f10 	cmn.w	r1, #16
  205800:	f101 000f 	add.w	r0, r1, #15
  205804:	d91c      	bls.n	205840 <I2C_rx+0x7d0>
  205806:	bf00      	nop
  205808:	6813      	ldr	r3, [r2, #0]
  20580a:	428b      	cmp	r3, r1
  20580c:	d313      	bcc.n	205836 <I2C_rx+0x7c6>
  20580e:	6813      	ldr	r3, [r2, #0]
  205810:	428b      	cmp	r3, r1
  205812:	d310      	bcc.n	205836 <I2C_rx+0x7c6>
  205814:	6813      	ldr	r3, [r2, #0]
  205816:	428b      	cmp	r3, r1
  205818:	d30d      	bcc.n	205836 <I2C_rx+0x7c6>
  20581a:	6813      	ldr	r3, [r2, #0]
  20581c:	428b      	cmp	r3, r1
  20581e:	d2f3      	bcs.n	205808 <I2C_rx+0x798>
  205820:	e009      	b.n	205836 <I2C_rx+0x7c6>
  205822:	bf00      	nop
  205824:	6811      	ldr	r1, [r2, #0]
  205826:	4281      	cmp	r1, r0
  205828:	d222      	bcs.n	205870 <I2C_rx+0x800>
  20582a:	6811      	ldr	r1, [r2, #0]
  20582c:	4281      	cmp	r1, r0
  20582e:	d21f      	bcs.n	205870 <I2C_rx+0x800>
  205830:	6811      	ldr	r1, [r2, #0]
  205832:	4281      	cmp	r1, r0
  205834:	d21c      	bcs.n	205870 <I2C_rx+0x800>
  205836:	6811      	ldr	r1, [r2, #0]
  205838:	4281      	cmp	r1, r0
  20583a:	d3f3      	bcc.n	205824 <I2C_rx+0x7b4>
  20583c:	e018      	b.n	205870 <I2C_rx+0x800>
  20583e:	bf00      	nop
  205840:	6813      	ldr	r3, [r2, #0]
  205842:	428b      	cmp	r3, r1
  205844:	d314      	bcc.n	205870 <I2C_rx+0x800>
  205846:	6813      	ldr	r3, [r2, #0]
  205848:	4283      	cmp	r3, r0
  20584a:	d211      	bcs.n	205870 <I2C_rx+0x800>
  20584c:	6813      	ldr	r3, [r2, #0]
  20584e:	428b      	cmp	r3, r1
  205850:	d30e      	bcc.n	205870 <I2C_rx+0x800>
  205852:	6813      	ldr	r3, [r2, #0]
  205854:	4283      	cmp	r3, r0
  205856:	d20b      	bcs.n	205870 <I2C_rx+0x800>
  205858:	6813      	ldr	r3, [r2, #0]
  20585a:	428b      	cmp	r3, r1
  20585c:	d308      	bcc.n	205870 <I2C_rx+0x800>
  20585e:	6813      	ldr	r3, [r2, #0]
  205860:	4283      	cmp	r3, r0
  205862:	d205      	bcs.n	205870 <I2C_rx+0x800>
  205864:	6813      	ldr	r3, [r2, #0]
  205866:	428b      	cmp	r3, r1
  205868:	d302      	bcc.n	205870 <I2C_rx+0x800>
  20586a:	6813      	ldr	r3, [r2, #0]
  20586c:	4283      	cmp	r3, r0
  20586e:	d3e7      	bcc.n	205840 <I2C_rx+0x7d0>
  205870:	2001      	movs	r0, #1
  205872:	f8cc 0004 	str.w	r0, [ip, #4]
  205876:	2002      	movs	r0, #2
  205878:	f8cc 0004 	str.w	r0, [ip, #4]
  20587c:	6811      	ldr	r1, [r2, #0]
  20587e:	f111 0f10 	cmn.w	r1, #16
  205882:	f101 000f 	add.w	r0, r1, #15
  205886:	d91b      	bls.n	2058c0 <I2C_rx+0x850>
  205888:	6813      	ldr	r3, [r2, #0]
  20588a:	428b      	cmp	r3, r1
  20588c:	d313      	bcc.n	2058b6 <I2C_rx+0x846>
  20588e:	6813      	ldr	r3, [r2, #0]
  205890:	428b      	cmp	r3, r1
  205892:	d310      	bcc.n	2058b6 <I2C_rx+0x846>
  205894:	6813      	ldr	r3, [r2, #0]
  205896:	428b      	cmp	r3, r1
  205898:	d30d      	bcc.n	2058b6 <I2C_rx+0x846>
  20589a:	6813      	ldr	r3, [r2, #0]
  20589c:	428b      	cmp	r3, r1
  20589e:	d2f3      	bcs.n	205888 <I2C_rx+0x818>
  2058a0:	e009      	b.n	2058b6 <I2C_rx+0x846>
  2058a2:	bf00      	nop
  2058a4:	6811      	ldr	r1, [r2, #0]
  2058a6:	4281      	cmp	r1, r0
  2058a8:	d222      	bcs.n	2058f0 <I2C_rx+0x880>
  2058aa:	6811      	ldr	r1, [r2, #0]
  2058ac:	4281      	cmp	r1, r0
  2058ae:	d21f      	bcs.n	2058f0 <I2C_rx+0x880>
  2058b0:	6811      	ldr	r1, [r2, #0]
  2058b2:	4281      	cmp	r1, r0
  2058b4:	d21c      	bcs.n	2058f0 <I2C_rx+0x880>
  2058b6:	6811      	ldr	r1, [r2, #0]
  2058b8:	4281      	cmp	r1, r0
  2058ba:	d3f3      	bcc.n	2058a4 <I2C_rx+0x834>
  2058bc:	e018      	b.n	2058f0 <I2C_rx+0x880>
  2058be:	bf00      	nop
  2058c0:	6813      	ldr	r3, [r2, #0]
  2058c2:	428b      	cmp	r3, r1
  2058c4:	d314      	bcc.n	2058f0 <I2C_rx+0x880>
  2058c6:	6813      	ldr	r3, [r2, #0]
  2058c8:	4283      	cmp	r3, r0
  2058ca:	d211      	bcs.n	2058f0 <I2C_rx+0x880>
  2058cc:	6813      	ldr	r3, [r2, #0]
  2058ce:	428b      	cmp	r3, r1
  2058d0:	d30e      	bcc.n	2058f0 <I2C_rx+0x880>
  2058d2:	6813      	ldr	r3, [r2, #0]
  2058d4:	4283      	cmp	r3, r0
  2058d6:	d20b      	bcs.n	2058f0 <I2C_rx+0x880>
  2058d8:	6813      	ldr	r3, [r2, #0]
  2058da:	428b      	cmp	r3, r1
  2058dc:	d308      	bcc.n	2058f0 <I2C_rx+0x880>
  2058de:	6813      	ldr	r3, [r2, #0]
  2058e0:	4283      	cmp	r3, r0
  2058e2:	d205      	bcs.n	2058f0 <I2C_rx+0x880>
  2058e4:	6813      	ldr	r3, [r2, #0]
  2058e6:	428b      	cmp	r3, r1
  2058e8:	d302      	bcc.n	2058f0 <I2C_rx+0x880>
  2058ea:	6813      	ldr	r3, [r2, #0]
  2058ec:	4283      	cmp	r3, r0
  2058ee:	d3e7      	bcc.n	2058c0 <I2C_rx+0x850>
  2058f0:	2001      	movs	r0, #1
  2058f2:	f8cc 0000 	str.w	r0, [ip]
  2058f6:	6811      	ldr	r1, [r2, #0]
  2058f8:	f111 0f10 	cmn.w	r1, #16
  2058fc:	f101 000f 	add.w	r0, r1, #15
  205900:	d91c      	bls.n	20593c <I2C_rx+0x8cc>
  205902:	bf00      	nop
  205904:	6813      	ldr	r3, [r2, #0]
  205906:	428b      	cmp	r3, r1
  205908:	d313      	bcc.n	205932 <I2C_rx+0x8c2>
  20590a:	6813      	ldr	r3, [r2, #0]
  20590c:	428b      	cmp	r3, r1
  20590e:	d310      	bcc.n	205932 <I2C_rx+0x8c2>
  205910:	6813      	ldr	r3, [r2, #0]
  205912:	428b      	cmp	r3, r1
  205914:	d30d      	bcc.n	205932 <I2C_rx+0x8c2>
  205916:	6813      	ldr	r3, [r2, #0]
  205918:	428b      	cmp	r3, r1
  20591a:	d2f3      	bcs.n	205904 <I2C_rx+0x894>
  20591c:	e009      	b.n	205932 <I2C_rx+0x8c2>
  20591e:	bf00      	nop
  205920:	6811      	ldr	r1, [r2, #0]
  205922:	4281      	cmp	r1, r0
  205924:	d222      	bcs.n	20596c <I2C_rx+0x8fc>
  205926:	6811      	ldr	r1, [r2, #0]
  205928:	4281      	cmp	r1, r0
  20592a:	d21f      	bcs.n	20596c <I2C_rx+0x8fc>
  20592c:	6811      	ldr	r1, [r2, #0]
  20592e:	4281      	cmp	r1, r0
  205930:	d21c      	bcs.n	20596c <I2C_rx+0x8fc>
  205932:	6811      	ldr	r1, [r2, #0]
  205934:	4281      	cmp	r1, r0
  205936:	d3f3      	bcc.n	205920 <I2C_rx+0x8b0>
  205938:	e018      	b.n	20596c <I2C_rx+0x8fc>
  20593a:	bf00      	nop
  20593c:	6813      	ldr	r3, [r2, #0]
  20593e:	428b      	cmp	r3, r1
  205940:	d314      	bcc.n	20596c <I2C_rx+0x8fc>
  205942:	6813      	ldr	r3, [r2, #0]
  205944:	4283      	cmp	r3, r0
  205946:	d211      	bcs.n	20596c <I2C_rx+0x8fc>
  205948:	6813      	ldr	r3, [r2, #0]
  20594a:	428b      	cmp	r3, r1
  20594c:	d30e      	bcc.n	20596c <I2C_rx+0x8fc>
  20594e:	6813      	ldr	r3, [r2, #0]
  205950:	4283      	cmp	r3, r0
  205952:	d20b      	bcs.n	20596c <I2C_rx+0x8fc>
  205954:	6813      	ldr	r3, [r2, #0]
  205956:	428b      	cmp	r3, r1
  205958:	d308      	bcc.n	20596c <I2C_rx+0x8fc>
  20595a:	6813      	ldr	r3, [r2, #0]
  20595c:	4283      	cmp	r3, r0
  20595e:	d205      	bcs.n	20596c <I2C_rx+0x8fc>
  205960:	6813      	ldr	r3, [r2, #0]
  205962:	428b      	cmp	r3, r1
  205964:	d302      	bcc.n	20596c <I2C_rx+0x8fc>
  205966:	6813      	ldr	r3, [r2, #0]
  205968:	4283      	cmp	r3, r0
  20596a:	d3e7      	bcc.n	20593c <I2C_rx+0x8cc>
  20596c:	2002      	movs	r0, #2
  20596e:	f8cc 0000 	str.w	r0, [ip]
  205972:	6811      	ldr	r1, [r2, #0]
  205974:	f111 0f10 	cmn.w	r1, #16
  205978:	f101 000f 	add.w	r0, r1, #15
  20597c:	d91e      	bls.n	2059bc <I2C_rx+0x94c>
  20597e:	bf00      	nop
  205980:	6813      	ldr	r3, [r2, #0]
  205982:	428b      	cmp	r3, r1
  205984:	d312      	bcc.n	2059ac <I2C_rx+0x93c>
  205986:	6813      	ldr	r3, [r2, #0]
  205988:	428b      	cmp	r3, r1
  20598a:	d30f      	bcc.n	2059ac <I2C_rx+0x93c>
  20598c:	6813      	ldr	r3, [r2, #0]
  20598e:	428b      	cmp	r3, r1
  205990:	d30c      	bcc.n	2059ac <I2C_rx+0x93c>
  205992:	6813      	ldr	r3, [r2, #0]
  205994:	428b      	cmp	r3, r1
  205996:	d2f3      	bcs.n	205980 <I2C_rx+0x910>
  205998:	e008      	b.n	2059ac <I2C_rx+0x93c>
  20599a:	bf00      	nop
  20599c:	6811      	ldr	r1, [r2, #0]
  20599e:	4281      	cmp	r1, r0
  2059a0:	bf28      	it	cs
  2059a2:	e8bd 83f0 	ldmiacs.w	sp!, {r4, r5, r6, r7, r8, r9, pc}
  2059a6:	6811      	ldr	r1, [r2, #0]
  2059a8:	4281      	cmp	r1, r0
  2059aa:	d21f      	bcs.n	2059ec <I2C_rx+0x97c>
  2059ac:	6811      	ldr	r1, [r2, #0]
  2059ae:	4281      	cmp	r1, r0
  2059b0:	d21c      	bcs.n	2059ec <I2C_rx+0x97c>
  2059b2:	6811      	ldr	r1, [r2, #0]
  2059b4:	4281      	cmp	r1, r0
  2059b6:	d3f1      	bcc.n	20599c <I2C_rx+0x92c>
  2059b8:	e018      	b.n	2059ec <I2C_rx+0x97c>
  2059ba:	bf00      	nop
  2059bc:	6813      	ldr	r3, [r2, #0]
  2059be:	428b      	cmp	r3, r1
  2059c0:	d314      	bcc.n	2059ec <I2C_rx+0x97c>
  2059c2:	6813      	ldr	r3, [r2, #0]
  2059c4:	4283      	cmp	r3, r0
  2059c6:	d211      	bcs.n	2059ec <I2C_rx+0x97c>
  2059c8:	6813      	ldr	r3, [r2, #0]
  2059ca:	428b      	cmp	r3, r1
  2059cc:	d30e      	bcc.n	2059ec <I2C_rx+0x97c>
  2059ce:	6813      	ldr	r3, [r2, #0]
  2059d0:	4283      	cmp	r3, r0
  2059d2:	d20b      	bcs.n	2059ec <I2C_rx+0x97c>
  2059d4:	6813      	ldr	r3, [r2, #0]
  2059d6:	428b      	cmp	r3, r1
  2059d8:	d308      	bcc.n	2059ec <I2C_rx+0x97c>
  2059da:	6813      	ldr	r3, [r2, #0]
  2059dc:	4283      	cmp	r3, r0
  2059de:	d205      	bcs.n	2059ec <I2C_rx+0x97c>
  2059e0:	6813      	ldr	r3, [r2, #0]
  2059e2:	428b      	cmp	r3, r1
  2059e4:	d302      	bcc.n	2059ec <I2C_rx+0x97c>
  2059e6:	6813      	ldr	r3, [r2, #0]
  2059e8:	4283      	cmp	r3, r0
  2059ea:	d3e7      	bcc.n	2059bc <I2C_rx+0x94c>
  2059ec:	e8bd 83f0 	ldmia.w	sp!, {r4, r5, r6, r7, r8, r9, pc}

002059f0 <I2C_tx>:
  2059f0:	e92d 4ff0 	stmdb	sp!, {r4, r5, r6, r7, r8, r9, sl, fp, lr}
  2059f4:	f247 0c00 	movw	ip, #28672	; 0x7000
  2059f8:	f2c4 0c20 	movt	ip, #16416	; 0x4020
  2059fc:	2703      	movs	r7, #3
  2059fe:	f242 0318 	movw	r3, #8216	; 0x2018
  205a02:	f2c4 0330 	movt	r3, #16432	; 0x4030
  205a06:	f8cc 7000 	str.w	r7, [ip]
  205a0a:	681e      	ldr	r6, [r3, #0]
  205a0c:	f116 0f10 	cmn.w	r6, #16
  205a10:	f106 070f 	add.w	r7, r6, #15
  205a14:	d91c      	bls.n	205a50 <I2C_tx+0x60>
  205a16:	bf00      	nop
  205a18:	681d      	ldr	r5, [r3, #0]
  205a1a:	42b5      	cmp	r5, r6
  205a1c:	d313      	bcc.n	205a46 <I2C_tx+0x56>
  205a1e:	681d      	ldr	r5, [r3, #0]
  205a20:	42b5      	cmp	r5, r6
  205a22:	d310      	bcc.n	205a46 <I2C_tx+0x56>
  205a24:	681d      	ldr	r5, [r3, #0]
  205a26:	42b5      	cmp	r5, r6
  205a28:	d30d      	bcc.n	205a46 <I2C_tx+0x56>
  205a2a:	681d      	ldr	r5, [r3, #0]
  205a2c:	42b5      	cmp	r5, r6
  205a2e:	d2f3      	bcs.n	205a18 <I2C_tx+0x28>
  205a30:	e009      	b.n	205a46 <I2C_tx+0x56>
  205a32:	bf00      	nop
  205a34:	681e      	ldr	r6, [r3, #0]
  205a36:	42be      	cmp	r6, r7
  205a38:	d222      	bcs.n	205a80 <I2C_tx+0x90>
  205a3a:	681e      	ldr	r6, [r3, #0]
  205a3c:	42be      	cmp	r6, r7
  205a3e:	d21f      	bcs.n	205a80 <I2C_tx+0x90>
  205a40:	681e      	ldr	r6, [r3, #0]
  205a42:	42be      	cmp	r6, r7
  205a44:	d21c      	bcs.n	205a80 <I2C_tx+0x90>
  205a46:	681e      	ldr	r6, [r3, #0]
  205a48:	42be      	cmp	r6, r7
  205a4a:	d3f3      	bcc.n	205a34 <I2C_tx+0x44>
  205a4c:	e018      	b.n	205a80 <I2C_tx+0x90>
  205a4e:	bf00      	nop
  205a50:	681d      	ldr	r5, [r3, #0]
  205a52:	42b5      	cmp	r5, r6
  205a54:	d314      	bcc.n	205a80 <I2C_tx+0x90>
  205a56:	681d      	ldr	r5, [r3, #0]
  205a58:	42bd      	cmp	r5, r7
  205a5a:	d211      	bcs.n	205a80 <I2C_tx+0x90>
  205a5c:	681d      	ldr	r5, [r3, #0]
  205a5e:	42b5      	cmp	r5, r6
  205a60:	d30e      	bcc.n	205a80 <I2C_tx+0x90>
  205a62:	681d      	ldr	r5, [r3, #0]
  205a64:	42bd      	cmp	r5, r7
  205a66:	d20b      	bcs.n	205a80 <I2C_tx+0x90>
  205a68:	681d      	ldr	r5, [r3, #0]
  205a6a:	42b5      	cmp	r5, r6
  205a6c:	d308      	bcc.n	205a80 <I2C_tx+0x90>
  205a6e:	681d      	ldr	r5, [r3, #0]
  205a70:	42bd      	cmp	r5, r7
  205a72:	d205      	bcs.n	205a80 <I2C_tx+0x90>
  205a74:	681d      	ldr	r5, [r3, #0]
  205a76:	42b5      	cmp	r5, r6
  205a78:	d302      	bcc.n	205a80 <I2C_tx+0x90>
  205a7a:	681d      	ldr	r5, [r3, #0]
  205a7c:	42bd      	cmp	r5, r7
  205a7e:	d3e7      	bcc.n	205a50 <I2C_tx+0x60>
  205a80:	2702      	movs	r7, #2
  205a82:	f8cc 7004 	str.w	r7, [ip, #4]
  205a86:	681e      	ldr	r6, [r3, #0]
  205a88:	f116 0f10 	cmn.w	r6, #16
  205a8c:	f106 070f 	add.w	r7, r6, #15
  205a90:	d91c      	bls.n	205acc <I2C_tx+0xdc>
  205a92:	bf00      	nop
  205a94:	681d      	ldr	r5, [r3, #0]
  205a96:	42b5      	cmp	r5, r6
  205a98:	d313      	bcc.n	205ac2 <I2C_tx+0xd2>
  205a9a:	681d      	ldr	r5, [r3, #0]
  205a9c:	42b5      	cmp	r5, r6
  205a9e:	d310      	bcc.n	205ac2 <I2C_tx+0xd2>
  205aa0:	681d      	ldr	r5, [r3, #0]
  205aa2:	42b5      	cmp	r5, r6
  205aa4:	d30d      	bcc.n	205ac2 <I2C_tx+0xd2>
  205aa6:	681d      	ldr	r5, [r3, #0]
  205aa8:	42b5      	cmp	r5, r6
  205aaa:	d2f3      	bcs.n	205a94 <I2C_tx+0xa4>
  205aac:	e009      	b.n	205ac2 <I2C_tx+0xd2>
  205aae:	bf00      	nop
  205ab0:	681e      	ldr	r6, [r3, #0]
  205ab2:	42be      	cmp	r6, r7
  205ab4:	d222      	bcs.n	205afc <I2C_tx+0x10c>
  205ab6:	681e      	ldr	r6, [r3, #0]
  205ab8:	42be      	cmp	r6, r7
  205aba:	d21f      	bcs.n	205afc <I2C_tx+0x10c>
  205abc:	681e      	ldr	r6, [r3, #0]
  205abe:	42be      	cmp	r6, r7
  205ac0:	d21c      	bcs.n	205afc <I2C_tx+0x10c>
  205ac2:	681e      	ldr	r6, [r3, #0]
  205ac4:	42be      	cmp	r6, r7
  205ac6:	d3f3      	bcc.n	205ab0 <I2C_tx+0xc0>
  205ac8:	e018      	b.n	205afc <I2C_tx+0x10c>
  205aca:	bf00      	nop
  205acc:	681d      	ldr	r5, [r3, #0]
  205ace:	42b5      	cmp	r5, r6
  205ad0:	d314      	bcc.n	205afc <I2C_tx+0x10c>
  205ad2:	681d      	ldr	r5, [r3, #0]
  205ad4:	42bd      	cmp	r5, r7
  205ad6:	d211      	bcs.n	205afc <I2C_tx+0x10c>
  205ad8:	681d      	ldr	r5, [r3, #0]
  205ada:	42b5      	cmp	r5, r6
  205adc:	d30e      	bcc.n	205afc <I2C_tx+0x10c>
  205ade:	681d      	ldr	r5, [r3, #0]
  205ae0:	42bd      	cmp	r5, r7
  205ae2:	d20b      	bcs.n	205afc <I2C_tx+0x10c>
  205ae4:	681d      	ldr	r5, [r3, #0]
  205ae6:	42b5      	cmp	r5, r6
  205ae8:	d308      	bcc.n	205afc <I2C_tx+0x10c>
  205aea:	681d      	ldr	r5, [r3, #0]
  205aec:	42bd      	cmp	r5, r7
  205aee:	d205      	bcs.n	205afc <I2C_tx+0x10c>
  205af0:	681d      	ldr	r5, [r3, #0]
  205af2:	42b5      	cmp	r5, r6
  205af4:	d302      	bcc.n	205afc <I2C_tx+0x10c>
  205af6:	681d      	ldr	r5, [r3, #0]
  205af8:	42bd      	cmp	r5, r7
  205afa:	d3e7      	bcc.n	205acc <I2C_tx+0xdc>
  205afc:	2701      	movs	r7, #1
  205afe:	f8cc 7004 	str.w	r7, [ip, #4]
  205b02:	681e      	ldr	r6, [r3, #0]
  205b04:	f116 0f10 	cmn.w	r6, #16
  205b08:	f106 070f 	add.w	r7, r6, #15
  205b0c:	d91c      	bls.n	205b48 <I2C_tx+0x158>
  205b0e:	bf00      	nop
  205b10:	681d      	ldr	r5, [r3, #0]
  205b12:	42b5      	cmp	r5, r6
  205b14:	d313      	bcc.n	205b3e <I2C_tx+0x14e>
  205b16:	681d      	ldr	r5, [r3, #0]
  205b18:	42b5      	cmp	r5, r6
  205b1a:	d310      	bcc.n	205b3e <I2C_tx+0x14e>
  205b1c:	681d      	ldr	r5, [r3, #0]
  205b1e:	42b5      	cmp	r5, r6
  205b20:	d30d      	bcc.n	205b3e <I2C_tx+0x14e>
  205b22:	681d      	ldr	r5, [r3, #0]
  205b24:	42b5      	cmp	r5, r6
  205b26:	d2f3      	bcs.n	205b10 <I2C_tx+0x120>
  205b28:	e009      	b.n	205b3e <I2C_tx+0x14e>
  205b2a:	bf00      	nop
  205b2c:	681e      	ldr	r6, [r3, #0]
  205b2e:	42be      	cmp	r6, r7
  205b30:	d222      	bcs.n	205b78 <I2C_tx+0x188>
  205b32:	681e      	ldr	r6, [r3, #0]
  205b34:	42be      	cmp	r6, r7
  205b36:	d21f      	bcs.n	205b78 <I2C_tx+0x188>
  205b38:	681e      	ldr	r6, [r3, #0]
  205b3a:	42be      	cmp	r6, r7
  205b3c:	d21c      	bcs.n	205b78 <I2C_tx+0x188>
  205b3e:	681e      	ldr	r6, [r3, #0]
  205b40:	42be      	cmp	r6, r7
  205b42:	d3f3      	bcc.n	205b2c <I2C_tx+0x13c>
  205b44:	e018      	b.n	205b78 <I2C_tx+0x188>
  205b46:	bf00      	nop
  205b48:	681d      	ldr	r5, [r3, #0]
  205b4a:	42b5      	cmp	r5, r6
  205b4c:	d314      	bcc.n	205b78 <I2C_tx+0x188>
  205b4e:	681d      	ldr	r5, [r3, #0]
  205b50:	42bd      	cmp	r5, r7
  205b52:	d211      	bcs.n	205b78 <I2C_tx+0x188>
  205b54:	681d      	ldr	r5, [r3, #0]
  205b56:	42b5      	cmp	r5, r6
  205b58:	d30e      	bcc.n	205b78 <I2C_tx+0x188>
  205b5a:	681d      	ldr	r5, [r3, #0]
  205b5c:	42bd      	cmp	r5, r7
  205b5e:	d20b      	bcs.n	205b78 <I2C_tx+0x188>
  205b60:	681d      	ldr	r5, [r3, #0]
  205b62:	42b5      	cmp	r5, r6
  205b64:	d308      	bcc.n	205b78 <I2C_tx+0x188>
  205b66:	681d      	ldr	r5, [r3, #0]
  205b68:	42bd      	cmp	r5, r7
  205b6a:	d205      	bcs.n	205b78 <I2C_tx+0x188>
  205b6c:	681d      	ldr	r5, [r3, #0]
  205b6e:	42b5      	cmp	r5, r6
  205b70:	d302      	bcc.n	205b78 <I2C_tx+0x188>
  205b72:	681d      	ldr	r5, [r3, #0]
  205b74:	42bd      	cmp	r5, r7
  205b76:	d3e7      	bcc.n	205b48 <I2C_tx+0x158>
  205b78:	2482      	movs	r4, #130	; 0x82
  205b7a:	f04f 0a00 	mov.w	sl, #0
  205b7e:	f10c 0e04 	add.w	lr, ip, #4
  205b82:	f04f 0802 	mov.w	r8, #2
  205b86:	f04f 0901 	mov.w	r9, #1
  205b8a:	e008      	b.n	205b9e <I2C_tx+0x1ae>
  205b8c:	0064      	lsls	r4, r4, #1
  205b8e:	f1ba 0f07 	cmp.w	sl, #7
  205b92:	f10a 0a01 	add.w	sl, sl, #1
  205b96:	f8cc 9004 	str.w	r9, [ip, #4]
  205b9a:	f080 8083 	bcs.w	205ca4 <I2C_tx+0x2b4>
  205b9e:	b266      	sxtb	r6, r4
  205ba0:	2e00      	cmp	r6, #0
  205ba2:	4676      	mov	r6, lr
  205ba4:	bf48      	it	mi
  205ba6:	4666      	movmi	r6, ip
  205ba8:	f8c6 8000 	str.w	r8, [r6]
  205bac:	681f      	ldr	r7, [r3, #0]
  205bae:	f117 0f10 	cmn.w	r7, #16
  205bb2:	f107 060f 	add.w	r6, r7, #15
  205bb6:	d919      	bls.n	205bec <I2C_tx+0x1fc>
  205bb8:	681d      	ldr	r5, [r3, #0]
  205bba:	42bd      	cmp	r5, r7
  205bbc:	d308      	bcc.n	205bd0 <I2C_tx+0x1e0>
  205bbe:	681d      	ldr	r5, [r3, #0]
  205bc0:	42bd      	cmp	r5, r7
  205bc2:	d305      	bcc.n	205bd0 <I2C_tx+0x1e0>
  205bc4:	681d      	ldr	r5, [r3, #0]
  205bc6:	42bd      	cmp	r5, r7
  205bc8:	d302      	bcc.n	205bd0 <I2C_tx+0x1e0>
  205bca:	681d      	ldr	r5, [r3, #0]
  205bcc:	42bd      	cmp	r5, r7
  205bce:	d2f3      	bcs.n	205bb8 <I2C_tx+0x1c8>
  205bd0:	681d      	ldr	r5, [r3, #0]
  205bd2:	42b5      	cmp	r5, r6
  205bd4:	d222      	bcs.n	205c1c <I2C_tx+0x22c>
  205bd6:	681d      	ldr	r5, [r3, #0]
  205bd8:	42b5      	cmp	r5, r6
  205bda:	d21f      	bcs.n	205c1c <I2C_tx+0x22c>
  205bdc:	681d      	ldr	r5, [r3, #0]
  205bde:	42b5      	cmp	r5, r6
  205be0:	d21c      	bcs.n	205c1c <I2C_tx+0x22c>
  205be2:	681d      	ldr	r5, [r3, #0]
  205be4:	42b5      	cmp	r5, r6
  205be6:	d3f3      	bcc.n	205bd0 <I2C_tx+0x1e0>
  205be8:	e018      	b.n	205c1c <I2C_tx+0x22c>
  205bea:	bf00      	nop
  205bec:	681d      	ldr	r5, [r3, #0]
  205bee:	42bd      	cmp	r5, r7
  205bf0:	d314      	bcc.n	205c1c <I2C_tx+0x22c>
  205bf2:	681d      	ldr	r5, [r3, #0]
  205bf4:	42b5      	cmp	r5, r6
  205bf6:	d211      	bcs.n	205c1c <I2C_tx+0x22c>
  205bf8:	681d      	ldr	r5, [r3, #0]
  205bfa:	42bd      	cmp	r5, r7
  205bfc:	d30e      	bcc.n	205c1c <I2C_tx+0x22c>
  205bfe:	681d      	ldr	r5, [r3, #0]
  205c00:	42b5      	cmp	r5, r6
  205c02:	d20b      	bcs.n	205c1c <I2C_tx+0x22c>
  205c04:	681d      	ldr	r5, [r3, #0]
  205c06:	42bd      	cmp	r5, r7
  205c08:	d308      	bcc.n	205c1c <I2C_tx+0x22c>
  205c0a:	681d      	ldr	r5, [r3, #0]
  205c0c:	42b5      	cmp	r5, r6
  205c0e:	d205      	bcs.n	205c1c <I2C_tx+0x22c>
  205c10:	681d      	ldr	r5, [r3, #0]
  205c12:	42bd      	cmp	r5, r7
  205c14:	d302      	bcc.n	205c1c <I2C_tx+0x22c>
  205c16:	681d      	ldr	r5, [r3, #0]
  205c18:	42b5      	cmp	r5, r6
  205c1a:	d3e7      	bcc.n	205bec <I2C_tx+0x1fc>
  205c1c:	f8cc 9000 	str.w	r9, [ip]
  205c20:	681f      	ldr	r7, [r3, #0]
  205c22:	f117 0f10 	cmn.w	r7, #16
  205c26:	f107 060f 	add.w	r6, r7, #15
  205c2a:	d91b      	bls.n	205c64 <I2C_tx+0x274>
  205c2c:	681d      	ldr	r5, [r3, #0]
  205c2e:	42bd      	cmp	r5, r7
  205c30:	d308      	bcc.n	205c44 <I2C_tx+0x254>
  205c32:	681d      	ldr	r5, [r3, #0]
  205c34:	42bd      	cmp	r5, r7
  205c36:	d305      	bcc.n	205c44 <I2C_tx+0x254>
  205c38:	681d      	ldr	r5, [r3, #0]
  205c3a:	42bd      	cmp	r5, r7
  205c3c:	d302      	bcc.n	205c44 <I2C_tx+0x254>
  205c3e:	681d      	ldr	r5, [r3, #0]
  205c40:	42bd      	cmp	r5, r7
  205c42:	d2f3      	bcs.n	205c2c <I2C_tx+0x23c>
  205c44:	681d      	ldr	r5, [r3, #0]
  205c46:	42b5      	cmp	r5, r6
  205c48:	d2a0      	bcs.n	205b8c <I2C_tx+0x19c>
  205c4a:	681d      	ldr	r5, [r3, #0]
  205c4c:	42b5      	cmp	r5, r6
  205c4e:	f4bf af9d 	bcs.w	205b8c <I2C_tx+0x19c>
  205c52:	681d      	ldr	r5, [r3, #0]
  205c54:	42b5      	cmp	r5, r6
  205c56:	f4bf af99 	bcs.w	205b8c <I2C_tx+0x19c>
  205c5a:	681d      	ldr	r5, [r3, #0]
  205c5c:	42b5      	cmp	r5, r6
  205c5e:	d3f1      	bcc.n	205c44 <I2C_tx+0x254>
  205c60:	e794      	b.n	205b8c <I2C_tx+0x19c>
  205c62:	bf00      	nop
  205c64:	681d      	ldr	r5, [r3, #0]
  205c66:	42bd      	cmp	r5, r7
  205c68:	f4ff af90 	bcc.w	205b8c <I2C_tx+0x19c>
  205c6c:	681d      	ldr	r5, [r3, #0]
  205c6e:	42b5      	cmp	r5, r6
  205c70:	f4bf af8c 	bcs.w	205b8c <I2C_tx+0x19c>
  205c74:	681d      	ldr	r5, [r3, #0]
  205c76:	42bd      	cmp	r5, r7
  205c78:	f4ff af88 	bcc.w	205b8c <I2C_tx+0x19c>
  205c7c:	681d      	ldr	r5, [r3, #0]
  205c7e:	42b5      	cmp	r5, r6
  205c80:	f4bf af84 	bcs.w	205b8c <I2C_tx+0x19c>
  205c84:	681d      	ldr	r5, [r3, #0]
  205c86:	42bd      	cmp	r5, r7
  205c88:	f4ff af80 	bcc.w	205b8c <I2C_tx+0x19c>
  205c8c:	681d      	ldr	r5, [r3, #0]
  205c8e:	42b5      	cmp	r5, r6
  205c90:	f4bf af7c 	bcs.w	205b8c <I2C_tx+0x19c>
  205c94:	681d      	ldr	r5, [r3, #0]
  205c96:	42bd      	cmp	r5, r7
  205c98:	f4ff af78 	bcc.w	205b8c <I2C_tx+0x19c>
  205c9c:	681d      	ldr	r5, [r3, #0]
  205c9e:	42b5      	cmp	r5, r6
  205ca0:	d3e0      	bcc.n	205c64 <I2C_tx+0x274>
  205ca2:	e773      	b.n	205b8c <I2C_tx+0x19c>
  205ca4:	2402      	movs	r4, #2
  205ca6:	f8cc 4000 	str.w	r4, [ip]
  205caa:	681d      	ldr	r5, [r3, #0]
  205cac:	f115 0f10 	cmn.w	r5, #16
  205cb0:	f105 040f 	add.w	r4, r5, #15
  205cb4:	d91c      	bls.n	205cf0 <I2C_tx+0x300>
  205cb6:	bf00      	nop
  205cb8:	681e      	ldr	r6, [r3, #0]
  205cba:	42ae      	cmp	r6, r5
  205cbc:	d313      	bcc.n	205ce6 <I2C_tx+0x2f6>
  205cbe:	681e      	ldr	r6, [r3, #0]
  205cc0:	42ae      	cmp	r6, r5
  205cc2:	d310      	bcc.n	205ce6 <I2C_tx+0x2f6>
  205cc4:	681e      	ldr	r6, [r3, #0]
  205cc6:	42ae      	cmp	r6, r5
  205cc8:	d30d      	bcc.n	205ce6 <I2C_tx+0x2f6>
  205cca:	681e      	ldr	r6, [r3, #0]
  205ccc:	42ae      	cmp	r6, r5
  205cce:	d2f3      	bcs.n	205cb8 <I2C_tx+0x2c8>
  205cd0:	e009      	b.n	205ce6 <I2C_tx+0x2f6>
  205cd2:	bf00      	nop
  205cd4:	681d      	ldr	r5, [r3, #0]
  205cd6:	42a5      	cmp	r5, r4
  205cd8:	d222      	bcs.n	205d20 <I2C_tx+0x330>
  205cda:	681d      	ldr	r5, [r3, #0]
  205cdc:	42a5      	cmp	r5, r4
  205cde:	d21f      	bcs.n	205d20 <I2C_tx+0x330>
  205ce0:	681d      	ldr	r5, [r3, #0]
  205ce2:	42a5      	cmp	r5, r4
  205ce4:	d21c      	bcs.n	205d20 <I2C_tx+0x330>
  205ce6:	681d      	ldr	r5, [r3, #0]
  205ce8:	42a5      	cmp	r5, r4
  205cea:	d3f3      	bcc.n	205cd4 <I2C_tx+0x2e4>
  205cec:	e018      	b.n	205d20 <I2C_tx+0x330>
  205cee:	bf00      	nop
  205cf0:	681e      	ldr	r6, [r3, #0]
  205cf2:	42ae      	cmp	r6, r5
  205cf4:	d314      	bcc.n	205d20 <I2C_tx+0x330>
  205cf6:	681e      	ldr	r6, [r3, #0]
  205cf8:	42a6      	cmp	r6, r4
  205cfa:	d211      	bcs.n	205d20 <I2C_tx+0x330>
  205cfc:	681e      	ldr	r6, [r3, #0]
  205cfe:	42ae      	cmp	r6, r5
  205d00:	d30e      	bcc.n	205d20 <I2C_tx+0x330>
  205d02:	681e      	ldr	r6, [r3, #0]
  205d04:	42a6      	cmp	r6, r4
  205d06:	d20b      	bcs.n	205d20 <I2C_tx+0x330>
  205d08:	681e      	ldr	r6, [r3, #0]
  205d0a:	42ae      	cmp	r6, r5
  205d0c:	d308      	bcc.n	205d20 <I2C_tx+0x330>
  205d0e:	681e      	ldr	r6, [r3, #0]
  205d10:	42a6      	cmp	r6, r4
  205d12:	d205      	bcs.n	205d20 <I2C_tx+0x330>
  205d14:	681e      	ldr	r6, [r3, #0]
  205d16:	42ae      	cmp	r6, r5
  205d18:	d302      	bcc.n	205d20 <I2C_tx+0x330>
  205d1a:	681e      	ldr	r6, [r3, #0]
  205d1c:	42a6      	cmp	r6, r4
  205d1e:	d3e7      	bcc.n	205cf0 <I2C_tx+0x300>
  205d20:	2401      	movs	r4, #1
  205d22:	f8cc 4000 	str.w	r4, [ip]
  205d26:	681d      	ldr	r5, [r3, #0]
  205d28:	f115 0f10 	cmn.w	r5, #16
  205d2c:	f105 040f 	add.w	r4, r5, #15
  205d30:	d91c      	bls.n	205d6c <I2C_tx+0x37c>
  205d32:	bf00      	nop
  205d34:	681e      	ldr	r6, [r3, #0]
  205d36:	42ae      	cmp	r6, r5
  205d38:	d313      	bcc.n	205d62 <I2C_tx+0x372>
  205d3a:	681e      	ldr	r6, [r3, #0]
  205d3c:	42ae      	cmp	r6, r5
  205d3e:	d310      	bcc.n	205d62 <I2C_tx+0x372>
  205d40:	681e      	ldr	r6, [r3, #0]
  205d42:	42ae      	cmp	r6, r5
  205d44:	d30d      	bcc.n	205d62 <I2C_tx+0x372>
  205d46:	681e      	ldr	r6, [r3, #0]
  205d48:	42ae      	cmp	r6, r5
  205d4a:	d2f3      	bcs.n	205d34 <I2C_tx+0x344>
  205d4c:	e009      	b.n	205d62 <I2C_tx+0x372>
  205d4e:	bf00      	nop
  205d50:	681d      	ldr	r5, [r3, #0]
  205d52:	42a5      	cmp	r5, r4
  205d54:	d222      	bcs.n	205d9c <I2C_tx+0x3ac>
  205d56:	681d      	ldr	r5, [r3, #0]
  205d58:	42a5      	cmp	r5, r4
  205d5a:	d21f      	bcs.n	205d9c <I2C_tx+0x3ac>
  205d5c:	681d      	ldr	r5, [r3, #0]
  205d5e:	42a5      	cmp	r5, r4
  205d60:	d21c      	bcs.n	205d9c <I2C_tx+0x3ac>
  205d62:	681d      	ldr	r5, [r3, #0]
  205d64:	42a5      	cmp	r5, r4
  205d66:	d3f3      	bcc.n	205d50 <I2C_tx+0x360>
  205d68:	e018      	b.n	205d9c <I2C_tx+0x3ac>
  205d6a:	bf00      	nop
  205d6c:	681e      	ldr	r6, [r3, #0]
  205d6e:	42ae      	cmp	r6, r5
  205d70:	d314      	bcc.n	205d9c <I2C_tx+0x3ac>
  205d72:	681e      	ldr	r6, [r3, #0]
  205d74:	42a6      	cmp	r6, r4
  205d76:	d211      	bcs.n	205d9c <I2C_tx+0x3ac>
  205d78:	681e      	ldr	r6, [r3, #0]
  205d7a:	42ae      	cmp	r6, r5
  205d7c:	d30e      	bcc.n	205d9c <I2C_tx+0x3ac>
  205d7e:	681e      	ldr	r6, [r3, #0]
  205d80:	42a6      	cmp	r6, r4
  205d82:	d20b      	bcs.n	205d9c <I2C_tx+0x3ac>
  205d84:	681e      	ldr	r6, [r3, #0]
  205d86:	42ae      	cmp	r6, r5
  205d88:	d308      	bcc.n	205d9c <I2C_tx+0x3ac>
  205d8a:	681e      	ldr	r6, [r3, #0]
  205d8c:	42a6      	cmp	r6, r4
  205d8e:	d205      	bcs.n	205d9c <I2C_tx+0x3ac>
  205d90:	681e      	ldr	r6, [r3, #0]
  205d92:	42ae      	cmp	r6, r5
  205d94:	d302      	bcc.n	205d9c <I2C_tx+0x3ac>
  205d96:	681e      	ldr	r6, [r3, #0]
  205d98:	42a6      	cmp	r6, r4
  205d9a:	d3e7      	bcc.n	205d6c <I2C_tx+0x37c>
  205d9c:	f8dc 4000 	ldr.w	r4, [ip]
  205da0:	f04f 0a01 	mov.w	sl, #1
  205da4:	f04f 0800 	mov.w	r8, #0
  205da8:	f04f 0902 	mov.w	r9, #2
  205dac:	f8cc a004 	str.w	sl, [ip, #4]
  205db0:	e009      	b.n	205dc6 <I2C_tx+0x3d6>
  205db2:	bf00      	nop
  205db4:	f108 0801 	add.w	r8, r8, #1
  205db8:	f8dc 4000 	ldr.w	r4, [ip]
  205dbc:	4588      	cmp	r8, r1
  205dbe:	f8cc a004 	str.w	sl, [ip, #4]
  205dc2:	f000 810f 	beq.w	205fe4 <I2C_tx+0x5f4>
  205dc6:	f810 7008 	ldrb.w	r7, [r0, r8]
  205dca:	f04f 0b00 	mov.w	fp, #0
  205dce:	e008      	b.n	205de2 <I2C_tx+0x3f2>
  205dd0:	007f      	lsls	r7, r7, #1
  205dd2:	f1bb 0f07 	cmp.w	fp, #7
  205dd6:	f10b 0b01 	add.w	fp, fp, #1
  205dda:	f8cc a004 	str.w	sl, [ip, #4]
  205dde:	f080 8083 	bcs.w	205ee8 <I2C_tx+0x4f8>
  205de2:	b27c      	sxtb	r4, r7
  205de4:	2c00      	cmp	r4, #0
  205de6:	4674      	mov	r4, lr
  205de8:	bf48      	it	mi
  205dea:	4664      	movmi	r4, ip
  205dec:	f8c4 9000 	str.w	r9, [r4]
  205df0:	681c      	ldr	r4, [r3, #0]
  205df2:	f114 0f10 	cmn.w	r4, #16
  205df6:	f104 060f 	add.w	r6, r4, #15
  205dfa:	d919      	bls.n	205e30 <I2C_tx+0x440>
  205dfc:	681d      	ldr	r5, [r3, #0]
  205dfe:	42a5      	cmp	r5, r4
  205e00:	d308      	bcc.n	205e14 <I2C_tx+0x424>
  205e02:	681d      	ldr	r5, [r3, #0]
  205e04:	42a5      	cmp	r5, r4
  205e06:	d305      	bcc.n	205e14 <I2C_tx+0x424>
  205e08:	681d      	ldr	r5, [r3, #0]
  205e0a:	42a5      	cmp	r5, r4
  205e0c:	d302      	bcc.n	205e14 <I2C_tx+0x424>
  205e0e:	681d      	ldr	r5, [r3, #0]
  205e10:	42a5      	cmp	r5, r4
  205e12:	d2f3      	bcs.n	205dfc <I2C_tx+0x40c>
  205e14:	681c      	ldr	r4, [r3, #0]
  205e16:	42b4      	cmp	r4, r6
  205e18:	d222      	bcs.n	205e60 <I2C_tx+0x470>
  205e1a:	681c      	ldr	r4, [r3, #0]
  205e1c:	42b4      	cmp	r4, r6
  205e1e:	d21f      	bcs.n	205e60 <I2C_tx+0x470>
  205e20:	681c      	ldr	r4, [r3, #0]
  205e22:	42b4      	cmp	r4, r6
  205e24:	d21c      	bcs.n	205e60 <I2C_tx+0x470>
  205e26:	681c      	ldr	r4, [r3, #0]
  205e28:	42b4      	cmp	r4, r6
  205e2a:	d3f3      	bcc.n	205e14 <I2C_tx+0x424>
  205e2c:	e018      	b.n	205e60 <I2C_tx+0x470>
  205e2e:	bf00      	nop
  205e30:	681d      	ldr	r5, [r3, #0]
  205e32:	42a5      	cmp	r5, r4
  205e34:	d314      	bcc.n	205e60 <I2C_tx+0x470>
  205e36:	681d      	ldr	r5, [r3, #0]
  205e38:	42b5      	cmp	r5, r6
  205e3a:	d211      	bcs.n	205e60 <I2C_tx+0x470>
  205e3c:	681d      	ldr	r5, [r3, #0]
  205e3e:	42a5      	cmp	r5, r4
  205e40:	d30e      	bcc.n	205e60 <I2C_tx+0x470>
  205e42:	681d      	ldr	r5, [r3, #0]
  205e44:	42b5      	cmp	r5, r6
  205e46:	d20b      	bcs.n	205e60 <I2C_tx+0x470>
  205e48:	681d      	ldr	r5, [r3, #0]
  205e4a:	42a5      	cmp	r5, r4
  205e4c:	d308      	bcc.n	205e60 <I2C_tx+0x470>
  205e4e:	681d      	ldr	r5, [r3, #0]
  205e50:	42b5      	cmp	r5, r6
  205e52:	d205      	bcs.n	205e60 <I2C_tx+0x470>
  205e54:	681d      	ldr	r5, [r3, #0]
  205e56:	42a5      	cmp	r5, r4
  205e58:	d302      	bcc.n	205e60 <I2C_tx+0x470>
  205e5a:	681d      	ldr	r5, [r3, #0]
  205e5c:	42b5      	cmp	r5, r6
  205e5e:	d3e7      	bcc.n	205e30 <I2C_tx+0x440>
  205e60:	f8cc a000 	str.w	sl, [ip]
  205e64:	681c      	ldr	r4, [r3, #0]
  205e66:	f114 0f10 	cmn.w	r4, #16
  205e6a:	f104 060f 	add.w	r6, r4, #15
  205e6e:	d91b      	bls.n	205ea8 <I2C_tx+0x4b8>
  205e70:	681d      	ldr	r5, [r3, #0]
  205e72:	42a5      	cmp	r5, r4
  205e74:	d308      	bcc.n	205e88 <I2C_tx+0x498>
  205e76:	681d      	ldr	r5, [r3, #0]
  205e78:	42a5      	cmp	r5, r4
  205e7a:	d305      	bcc.n	205e88 <I2C_tx+0x498>
  205e7c:	681d      	ldr	r5, [r3, #0]
  205e7e:	42a5      	cmp	r5, r4
  205e80:	d302      	bcc.n	205e88 <I2C_tx+0x498>
  205e82:	681d      	ldr	r5, [r3, #0]
  205e84:	42a5      	cmp	r5, r4
  205e86:	d2f3      	bcs.n	205e70 <I2C_tx+0x480>
  205e88:	681c      	ldr	r4, [r3, #0]
  205e8a:	42b4      	cmp	r4, r6
  205e8c:	d2a0      	bcs.n	205dd0 <I2C_tx+0x3e0>
  205e8e:	681c      	ldr	r4, [r3, #0]
  205e90:	42b4      	cmp	r4, r6
  205e92:	f4bf af9d 	bcs.w	205dd0 <I2C_tx+0x3e0>
  205e96:	681c      	ldr	r4, [r3, #0]
  205e98:	42b4      	cmp	r4, r6
  205e9a:	f4bf af99 	bcs.w	205dd0 <I2C_tx+0x3e0>
  205e9e:	681c      	ldr	r4, [r3, #0]
  205ea0:	42b4      	cmp	r4, r6
  205ea2:	d3f1      	bcc.n	205e88 <I2C_tx+0x498>
  205ea4:	e794      	b.n	205dd0 <I2C_tx+0x3e0>
  205ea6:	bf00      	nop
  205ea8:	681d      	ldr	r5, [r3, #0]
  205eaa:	42a5      	cmp	r5, r4
  205eac:	f4ff af90 	bcc.w	205dd0 <I2C_tx+0x3e0>
  205eb0:	681d      	ldr	r5, [r3, #0]
  205eb2:	42b5      	cmp	r5, r6
  205eb4:	f4bf af8c 	bcs.w	205dd0 <I2C_tx+0x3e0>
  205eb8:	681d      	ldr	r5, [r3, #0]
  205eba:	42a5      	cmp	r5, r4
  205ebc:	f4ff af88 	bcc.w	205dd0 <I2C_tx+0x3e0>
  205ec0:	681d      	ldr	r5, [r3, #0]
  205ec2:	42b5      	cmp	r5, r6
  205ec4:	f4bf af84 	bcs.w	205dd0 <I2C_tx+0x3e0>
  205ec8:	681d      	ldr	r5, [r3, #0]
  205eca:	42a5      	cmp	r5, r4
  205ecc:	f4ff af80 	bcc.w	205dd0 <I2C_tx+0x3e0>
  205ed0:	681d      	ldr	r5, [r3, #0]
  205ed2:	42b5      	cmp	r5, r6
  205ed4:	f4bf af7c 	bcs.w	205dd0 <I2C_tx+0x3e0>
  205ed8:	681d      	ldr	r5, [r3, #0]
  205eda:	42a5      	cmp	r5, r4
  205edc:	f4ff af78 	bcc.w	205dd0 <I2C_tx+0x3e0>
  205ee0:	681d      	ldr	r5, [r3, #0]
  205ee2:	42b5      	cmp	r5, r6
  205ee4:	d3e0      	bcc.n	205ea8 <I2C_tx+0x4b8>
  205ee6:	e773      	b.n	205dd0 <I2C_tx+0x3e0>
  205ee8:	f8cc 9000 	str.w	r9, [ip]
  205eec:	681c      	ldr	r4, [r3, #0]
  205eee:	f114 0f10 	cmn.w	r4, #16
  205ef2:	f104 050f 	add.w	r5, r4, #15
  205ef6:	d919      	bls.n	205f2c <I2C_tx+0x53c>
  205ef8:	681e      	ldr	r6, [r3, #0]
  205efa:	42a6      	cmp	r6, r4
  205efc:	d308      	bcc.n	205f10 <I2C_tx+0x520>
  205efe:	681e      	ldr	r6, [r3, #0]
  205f00:	42a6      	cmp	r6, r4
  205f02:	d305      	bcc.n	205f10 <I2C_tx+0x520>
  205f04:	681e      	ldr	r6, [r3, #0]
  205f06:	42a6      	cmp	r6, r4
  205f08:	d302      	bcc.n	205f10 <I2C_tx+0x520>
  205f0a:	681e      	ldr	r6, [r3, #0]
  205f0c:	42a6      	cmp	r6, r4
  205f0e:	d2f3      	bcs.n	205ef8 <I2C_tx+0x508>
  205f10:	681c      	ldr	r4, [r3, #0]
  205f12:	42ac      	cmp	r4, r5
  205f14:	d222      	bcs.n	205f5c <I2C_tx+0x56c>
  205f16:	681c      	ldr	r4, [r3, #0]
  205f18:	42ac      	cmp	r4, r5
  205f1a:	d21f      	bcs.n	205f5c <I2C_tx+0x56c>
  205f1c:	681c      	ldr	r4, [r3, #0]
  205f1e:	42ac      	cmp	r4, r5
  205f20:	d21c      	bcs.n	205f5c <I2C_tx+0x56c>
  205f22:	681c      	ldr	r4, [r3, #0]
  205f24:	42ac      	cmp	r4, r5
  205f26:	d3f3      	bcc.n	205f10 <I2C_tx+0x520>
  205f28:	e018      	b.n	205f5c <I2C_tx+0x56c>
  205f2a:	bf00      	nop
  205f2c:	681e      	ldr	r6, [r3, #0]
  205f2e:	42a6      	cmp	r6, r4
  205f30:	d314      	bcc.n	205f5c <I2C_tx+0x56c>
  205f32:	681e      	ldr	r6, [r3, #0]
  205f34:	42ae      	cmp	r6, r5
  205f36:	d211      	bcs.n	205f5c <I2C_tx+0x56c>
  205f38:	681e      	ldr	r6, [r3, #0]
  205f3a:	42a6      	cmp	r6, r4
  205f3c:	d30e      	bcc.n	205f5c <I2C_tx+0x56c>
  205f3e:	681e      	ldr	r6, [r3, #0]
  205f40:	42ae      	cmp	r6, r5
  205f42:	d20b      	bcs.n	205f5c <I2C_tx+0x56c>
  205f44:	681e      	ldr	r6, [r3, #0]
  205f46:	42a6      	cmp	r6, r4
  205f48:	d308      	bcc.n	205f5c <I2C_tx+0x56c>
  205f4a:	681e      	ldr	r6, [r3, #0]
  205f4c:	42ae      	cmp	r6, r5
  205f4e:	d205      	bcs.n	205f5c <I2C_tx+0x56c>
  205f50:	681e      	ldr	r6, [r3, #0]
  205f52:	42a6      	cmp	r6, r4
  205f54:	d302      	bcc.n	205f5c <I2C_tx+0x56c>
  205f56:	681e      	ldr	r6, [r3, #0]
  205f58:	42ae      	cmp	r6, r5
  205f5a:	d3e7      	bcc.n	205f2c <I2C_tx+0x53c>
  205f5c:	f8cc a000 	str.w	sl, [ip]
  205f60:	681c      	ldr	r4, [r3, #0]
  205f62:	f114 0f10 	cmn.w	r4, #16
  205f66:	f104 050f 	add.w	r5, r4, #15
  205f6a:	d91b      	bls.n	205fa4 <I2C_tx+0x5b4>
  205f6c:	681e      	ldr	r6, [r3, #0]
  205f6e:	42a6      	cmp	r6, r4
  205f70:	d308      	bcc.n	205f84 <I2C_tx+0x594>
  205f72:	681e      	ldr	r6, [r3, #0]
  205f74:	42a6      	cmp	r6, r4
  205f76:	d305      	bcc.n	205f84 <I2C_tx+0x594>
  205f78:	681e      	ldr	r6, [r3, #0]
  205f7a:	42a6      	cmp	r6, r4
  205f7c:	d302      	bcc.n	205f84 <I2C_tx+0x594>
  205f7e:	681e      	ldr	r6, [r3, #0]
  205f80:	42a6      	cmp	r6, r4
  205f82:	d2f3      	bcs.n	205f6c <I2C_tx+0x57c>
  205f84:	681c      	ldr	r4, [r3, #0]
  205f86:	42ac      	cmp	r4, r5
  205f88:	f4bf af14 	bcs.w	205db4 <I2C_tx+0x3c4>
  205f8c:	681c      	ldr	r4, [r3, #0]
  205f8e:	42ac      	cmp	r4, r5
  205f90:	f4bf af10 	bcs.w	205db4 <I2C_tx+0x3c4>
  205f94:	681c      	ldr	r4, [r3, #0]
  205f96:	42ac      	cmp	r4, r5
  205f98:	f4bf af0c 	bcs.w	205db4 <I2C_tx+0x3c4>
  205f9c:	681c      	ldr	r4, [r3, #0]
  205f9e:	42ac      	cmp	r4, r5
  205fa0:	d3f0      	bcc.n	205f84 <I2C_tx+0x594>
  205fa2:	e707      	b.n	205db4 <I2C_tx+0x3c4>
  205fa4:	681e      	ldr	r6, [r3, #0]
  205fa6:	42a6      	cmp	r6, r4
  205fa8:	f4ff af04 	bcc.w	205db4 <I2C_tx+0x3c4>
  205fac:	681e      	ldr	r6, [r3, #0]
  205fae:	42ae      	cmp	r6, r5
  205fb0:	f4bf af00 	bcs.w	205db4 <I2C_tx+0x3c4>
  205fb4:	681e      	ldr	r6, [r3, #0]
  205fb6:	42a6      	cmp	r6, r4
  205fb8:	f4ff aefc 	bcc.w	205db4 <I2C_tx+0x3c4>
  205fbc:	681e      	ldr	r6, [r3, #0]
  205fbe:	42ae      	cmp	r6, r5
  205fc0:	f4bf aef8 	bcs.w	205db4 <I2C_tx+0x3c4>
  205fc4:	681e      	ldr	r6, [r3, #0]
  205fc6:	42a6      	cmp	r6, r4
  205fc8:	f4ff aef4 	bcc.w	205db4 <I2C_tx+0x3c4>
  205fcc:	681e      	ldr	r6, [r3, #0]
  205fce:	42ae      	cmp	r6, r5
  205fd0:	f4bf aef0 	bcs.w	205db4 <I2C_tx+0x3c4>
  205fd4:	681e      	ldr	r6, [r3, #0]
  205fd6:	42a6      	cmp	r6, r4
  205fd8:	f4ff aeec 	bcc.w	205db4 <I2C_tx+0x3c4>
  205fdc:	681e      	ldr	r6, [r3, #0]
  205fde:	42ae      	cmp	r6, r5
  205fe0:	d3e0      	bcc.n	205fa4 <I2C_tx+0x5b4>
  205fe2:	e6e7      	b.n	205db4 <I2C_tx+0x3c4>
  205fe4:	b10a      	cbz	r2, 205fea <I2C_tx+0x5fa>
  205fe6:	e8bd 8ff0 	ldmia.w	sp!, {r4, r5, r6, r7, r8, r9, sl, fp, pc}
  205fea:	2002      	movs	r0, #2
  205fec:	f8cc 0004 	str.w	r0, [ip, #4]
  205ff0:	6819      	ldr	r1, [r3, #0]
  205ff2:	f111 0f10 	cmn.w	r1, #16
  205ff6:	f101 000f 	add.w	r0, r1, #15
  205ffa:	d91b      	bls.n	206034 <I2C_tx+0x644>
  205ffc:	681a      	ldr	r2, [r3, #0]
  205ffe:	428a      	cmp	r2, r1
  206000:	d313      	bcc.n	20602a <I2C_tx+0x63a>
  206002:	681a      	ldr	r2, [r3, #0]
  206004:	428a      	cmp	r2, r1
  206006:	d310      	bcc.n	20602a <I2C_tx+0x63a>
  206008:	681a      	ldr	r2, [r3, #0]
  20600a:	428a      	cmp	r2, r1
  20600c:	d30d      	bcc.n	20602a <I2C_tx+0x63a>
  20600e:	681a      	ldr	r2, [r3, #0]
  206010:	428a      	cmp	r2, r1
  206012:	d2f3      	bcs.n	205ffc <I2C_tx+0x60c>
  206014:	e009      	b.n	20602a <I2C_tx+0x63a>
  206016:	bf00      	nop
  206018:	6819      	ldr	r1, [r3, #0]
  20601a:	4281      	cmp	r1, r0
  20601c:	d222      	bcs.n	206064 <I2C_tx+0x674>
  20601e:	6819      	ldr	r1, [r3, #0]
  206020:	4281      	cmp	r1, r0
  206022:	d21f      	bcs.n	206064 <I2C_tx+0x674>
  206024:	6819      	ldr	r1, [r3, #0]
  206026:	4281      	cmp	r1, r0
  206028:	d21c      	bcs.n	206064 <I2C_tx+0x674>
  20602a:	6819      	ldr	r1, [r3, #0]
  20602c:	4281      	cmp	r1, r0
  20602e:	d3f3      	bcc.n	206018 <I2C_tx+0x628>
  206030:	e018      	b.n	206064 <I2C_tx+0x674>
  206032:	bf00      	nop
  206034:	681a      	ldr	r2, [r3, #0]
  206036:	428a      	cmp	r2, r1
  206038:	d314      	bcc.n	206064 <I2C_tx+0x674>
  20603a:	681a      	ldr	r2, [r3, #0]
  20603c:	4282      	cmp	r2, r0
  20603e:	d211      	bcs.n	206064 <I2C_tx+0x674>
  206040:	681a      	ldr	r2, [r3, #0]
  206042:	428a      	cmp	r2, r1
  206044:	d30e      	bcc.n	206064 <I2C_tx+0x674>
  206046:	681a      	ldr	r2, [r3, #0]
  206048:	4282      	cmp	r2, r0
  20604a:	d20b      	bcs.n	206064 <I2C_tx+0x674>
  20604c:	681a      	ldr	r2, [r3, #0]
  20604e:	428a      	cmp	r2, r1
  206050:	d308      	bcc.n	206064 <I2C_tx+0x674>
  206052:	681a      	ldr	r2, [r3, #0]
  206054:	4282      	cmp	r2, r0
  206056:	d205      	bcs.n	206064 <I2C_tx+0x674>
  206058:	681a      	ldr	r2, [r3, #0]
  20605a:	428a      	cmp	r2, r1
  20605c:	d302      	bcc.n	206064 <I2C_tx+0x674>
  20605e:	681a      	ldr	r2, [r3, #0]
  206060:	4282      	cmp	r2, r0
  206062:	d3e7      	bcc.n	206034 <I2C_tx+0x644>
  206064:	2001      	movs	r0, #1
  206066:	f8cc 0000 	str.w	r0, [ip]
  20606a:	6819      	ldr	r1, [r3, #0]
  20606c:	f111 0f10 	cmn.w	r1, #16
  206070:	f101 000f 	add.w	r0, r1, #15
  206074:	d91c      	bls.n	2060b0 <I2C_tx+0x6c0>
  206076:	bf00      	nop
  206078:	681a      	ldr	r2, [r3, #0]
  20607a:	428a      	cmp	r2, r1
  20607c:	d313      	bcc.n	2060a6 <I2C_tx+0x6b6>
  20607e:	681a      	ldr	r2, [r3, #0]
  206080:	428a      	cmp	r2, r1
  206082:	d310      	bcc.n	2060a6 <I2C_tx+0x6b6>
  206084:	681a      	ldr	r2, [r3, #0]
  206086:	428a      	cmp	r2, r1
  206088:	d30d      	bcc.n	2060a6 <I2C_tx+0x6b6>
  20608a:	681a      	ldr	r2, [r3, #0]
  20608c:	428a      	cmp	r2, r1
  20608e:	d2f3      	bcs.n	206078 <I2C_tx+0x688>
  206090:	e009      	b.n	2060a6 <I2C_tx+0x6b6>
  206092:	bf00      	nop
  206094:	6819      	ldr	r1, [r3, #0]
  206096:	4281      	cmp	r1, r0
  206098:	d222      	bcs.n	2060e0 <I2C_tx+0x6f0>
  20609a:	6819      	ldr	r1, [r3, #0]
  20609c:	4281      	cmp	r1, r0
  20609e:	d21f      	bcs.n	2060e0 <I2C_tx+0x6f0>
  2060a0:	6819      	ldr	r1, [r3, #0]
  2060a2:	4281      	cmp	r1, r0
  2060a4:	d21c      	bcs.n	2060e0 <I2C_tx+0x6f0>
  2060a6:	6819      	ldr	r1, [r3, #0]
  2060a8:	4281      	cmp	r1, r0
  2060aa:	d3f3      	bcc.n	206094 <I2C_tx+0x6a4>
  2060ac:	e018      	b.n	2060e0 <I2C_tx+0x6f0>
  2060ae:	bf00      	nop
  2060b0:	681a      	ldr	r2, [r3, #0]
  2060b2:	428a      	cmp	r2, r1
  2060b4:	d314      	bcc.n	2060e0 <I2C_tx+0x6f0>
  2060b6:	681a      	ldr	r2, [r3, #0]
  2060b8:	4282      	cmp	r2, r0
  2060ba:	d211      	bcs.n	2060e0 <I2C_tx+0x6f0>
  2060bc:	681a      	ldr	r2, [r3, #0]
  2060be:	428a      	cmp	r2, r1
  2060c0:	d30e      	bcc.n	2060e0 <I2C_tx+0x6f0>
  2060c2:	681a      	ldr	r2, [r3, #0]
  2060c4:	4282      	cmp	r2, r0
  2060c6:	d20b      	bcs.n	2060e0 <I2C_tx+0x6f0>
  2060c8:	681a      	ldr	r2, [r3, #0]
  2060ca:	428a      	cmp	r2, r1
  2060cc:	d308      	bcc.n	2060e0 <I2C_tx+0x6f0>
  2060ce:	681a      	ldr	r2, [r3, #0]
  2060d0:	4282      	cmp	r2, r0
  2060d2:	d205      	bcs.n	2060e0 <I2C_tx+0x6f0>
  2060d4:	681a      	ldr	r2, [r3, #0]
  2060d6:	428a      	cmp	r2, r1
  2060d8:	d302      	bcc.n	2060e0 <I2C_tx+0x6f0>
  2060da:	681a      	ldr	r2, [r3, #0]
  2060dc:	4282      	cmp	r2, r0
  2060de:	d3e7      	bcc.n	2060b0 <I2C_tx+0x6c0>
  2060e0:	2002      	movs	r0, #2
  2060e2:	f8cc 0000 	str.w	r0, [ip]
  2060e6:	6819      	ldr	r1, [r3, #0]
  2060e8:	f111 0f10 	cmn.w	r1, #16
  2060ec:	f101 000f 	add.w	r0, r1, #15
  2060f0:	d920      	bls.n	206134 <I2C_tx+0x744>
  2060f2:	bf00      	nop
  2060f4:	681a      	ldr	r2, [r3, #0]
  2060f6:	428a      	cmp	r2, r1
  2060f8:	d313      	bcc.n	206122 <I2C_tx+0x732>
  2060fa:	681a      	ldr	r2, [r3, #0]
  2060fc:	428a      	cmp	r2, r1
  2060fe:	d310      	bcc.n	206122 <I2C_tx+0x732>
  206100:	681a      	ldr	r2, [r3, #0]
  206102:	428a      	cmp	r2, r1
  206104:	d30d      	bcc.n	206122 <I2C_tx+0x732>
  206106:	681a      	ldr	r2, [r3, #0]
  206108:	428a      	cmp	r2, r1
  20610a:	d2f3      	bcs.n	2060f4 <I2C_tx+0x704>
  20610c:	e009      	b.n	206122 <I2C_tx+0x732>
  20610e:	bf00      	nop
  206110:	6819      	ldr	r1, [r3, #0]
  206112:	4281      	cmp	r1, r0
  206114:	bf28      	it	cs
  206116:	e8bd 8ff0 	ldmiacs.w	sp!, {r4, r5, r6, r7, r8, r9, sl, fp, pc}
  20611a:	6819      	ldr	r1, [r3, #0]
  20611c:	4281      	cmp	r1, r0
  20611e:	f4bf af62 	bcs.w	205fe6 <I2C_tx+0x5f6>
  206122:	6819      	ldr	r1, [r3, #0]
  206124:	4281      	cmp	r1, r0
  206126:	f4bf af5e 	bcs.w	205fe6 <I2C_tx+0x5f6>
  20612a:	6819      	ldr	r1, [r3, #0]
  20612c:	4281      	cmp	r1, r0
  20612e:	d3ef      	bcc.n	206110 <I2C_tx+0x720>
  206130:	e759      	b.n	205fe6 <I2C_tx+0x5f6>
  206132:	bf00      	nop
  206134:	681a      	ldr	r2, [r3, #0]
  206136:	428a      	cmp	r2, r1
  206138:	f4ff af55 	bcc.w	205fe6 <I2C_tx+0x5f6>
  20613c:	681a      	ldr	r2, [r3, #0]
  20613e:	4282      	cmp	r2, r0
  206140:	f4bf af51 	bcs.w	205fe6 <I2C_tx+0x5f6>
  206144:	681a      	ldr	r2, [r3, #0]
  206146:	428a      	cmp	r2, r1
  206148:	f4ff af4d 	bcc.w	205fe6 <I2C_tx+0x5f6>
  20614c:	681a      	ldr	r2, [r3, #0]
  20614e:	4282      	cmp	r2, r0
  206150:	f4bf af49 	bcs.w	205fe6 <I2C_tx+0x5f6>
  206154:	681a      	ldr	r2, [r3, #0]
  206156:	428a      	cmp	r2, r1
  206158:	f4ff af45 	bcc.w	205fe6 <I2C_tx+0x5f6>
  20615c:	681a      	ldr	r2, [r3, #0]
  20615e:	4282      	cmp	r2, r0
  206160:	f4bf af41 	bcs.w	205fe6 <I2C_tx+0x5f6>
  206164:	681a      	ldr	r2, [r3, #0]
  206166:	428a      	cmp	r2, r1
  206168:	f4ff af3d 	bcc.w	205fe6 <I2C_tx+0x5f6>
  20616c:	681a      	ldr	r2, [r3, #0]
  20616e:	4282      	cmp	r2, r0
  206170:	d3e0      	bcc.n	206134 <I2C_tx+0x744>
  206172:	e738      	b.n	205fe6 <I2C_tx+0x5f6>

00206174 <Reset_Handler>:
  206174:	f240 0000 	movw	r0, #0
  206178:	f6c2 0040 	movt	r0, #10304	; 0x2840
  20617c:	f380 8809 	msr	PSP, r0
  206180:	f240 0000 	movw	r0, #0
  206184:	f64e 5288 	movw	r2, #60808	; 0xed88
  206188:	f64f 4100 	movw	r1, #64512	; 0xfc00
  20618c:	f2c0 0020 	movt	r0, #32
  206190:	f2ce 0200 	movt	r2, #57344	; 0xe000
  206194:	f6c2 013f 	movt	r1, #10303	; 0x283f
  206198:	f381 880a 	msr	MSPLIM, r1
  20619c:	f381 880b 	msr	PSPLIM, r1
  2061a0:	f842 0c80 	str.w	r0, [r2, #-128]
  2061a4:	6810      	ldr	r0, [r2, #0]
  2061a6:	f440 0070 	orr.w	r0, r0, #15728640	; 0xf00000
  2061aa:	6010      	str	r0, [r2, #0]
  2061ac:	f7fa f928 	bl	200400 <__main>

002061b0 <SysTick_Handler>:
  2061b0:	f240 000c 	movw	r0, #12
  2061b4:	f6c2 0020 	movt	r0, #10272	; 0x2820
  2061b8:	6801      	ldr	r1, [r0, #0]
  2061ba:	1c4a      	adds	r2, r1, #1
  2061bc:	2963      	cmp	r1, #99	; 0x63
  2061be:	6002      	str	r2, [r0, #0]
  2061c0:	d307      	bcc.n	2061d2 <SysTick_Handler+0x22>
  2061c2:	2100      	movs	r1, #0
  2061c4:	6001      	str	r1, [r0, #0]
  2061c6:	f240 0020 	movw	r0, #32
  2061ca:	f6c2 0020 	movt	r0, #10272	; 0x2820
  2061ce:	2101      	movs	r1, #1
  2061d0:	7001      	strb	r1, [r0, #0]
  2061d2:	f240 0008 	movw	r0, #8
  2061d6:	f6c2 0020 	movt	r0, #10272	; 0x2820
  2061da:	6802      	ldr	r2, [r0, #0]
  2061dc:	1c51      	adds	r1, r2, #1
  2061de:	2a2d      	cmp	r2, #45	; 0x2d
  2061e0:	6001      	str	r1, [r0, #0]
  2061e2:	d007      	beq.n	2061f4 <SysTick_Handler+0x44>
  2061e4:	2a28      	cmp	r2, #40	; 0x28
  2061e6:	d008      	beq.n	2061fa <SysTick_Handler+0x4a>
  2061e8:	b972      	cbnz	r2, 206208 <SysTick_Handler+0x58>
  2061ea:	f240 0004 	movw	r0, #4
  2061ee:	f6c2 0020 	movt	r0, #10272	; 0x2820
  2061f2:	e006      	b.n	206202 <SysTick_Handler+0x52>
  2061f4:	2100      	movs	r1, #0
  2061f6:	6001      	str	r1, [r0, #0]
  2061f8:	4770      	bx	lr
  2061fa:	f240 0000 	movw	r0, #0
  2061fe:	f6c2 0020 	movt	r0, #10272	; 0x2820
  206202:	2101      	movs	r1, #1
  206204:	7001      	strb	r1, [r0, #0]
  206206:	4770      	bx	lr
  206208:	2933      	cmp	r1, #51	; 0x33
  20620a:	bf24      	itt	cs
  20620c:	2100      	movcs	r1, #0
  20620e:	6001      	strcs	r1, [r0, #0]
  206210:	4770      	bx	lr
	...

00206214 <UART0RX_Handler>:
  206214:	2008      	movs	r0, #8
  206216:	f2c4 0020 	movt	r0, #16416	; 0x4020
  20621a:	6841      	ldr	r1, [r0, #4]
  20621c:	6802      	ldr	r2, [r0, #0]
  20621e:	f022 0208 	bic.w	r2, r2, #8
  206222:	6002      	str	r2, [r0, #0]
  206224:	6041      	str	r1, [r0, #4]
  206226:	4770      	bx	lr

00206228 <UART0TX_Handler>:
  206228:	200c      	movs	r0, #12
  20622a:	f2c4 0020 	movt	r0, #16416	; 0x4020
  20622e:	6801      	ldr	r1, [r0, #0]
  206230:	6001      	str	r1, [r0, #0]
  206232:	4770      	bx	lr

00206234 <main>:
  206234:	b088      	sub	sp, #32
  206236:	f242 0618 	movw	r6, #8216	; 0x2018
  20623a:	f247 0200 	movw	r2, #28672	; 0x7000
  20623e:	f2c4 0630 	movt	r6, #16432	; 0x4030
  206242:	2000      	movs	r0, #0
  206244:	2102      	movs	r1, #2
  206246:	f2c4 0220 	movt	r2, #16416	; 0x4020
  20624a:	2301      	movs	r3, #1
  20624c:	f846 0c18 	str.w	r0, [r6, #-24]
  206250:	e004      	b.n	20625c <main+0x28>
  206252:	bf00      	nop
  206254:	3001      	adds	r0, #1
  206256:	2805      	cmp	r0, #5
  206258:	f000 80f2 	beq.w	206440 <main+0x20c>
  20625c:	6051      	str	r1, [r2, #4]
  20625e:	6835      	ldr	r5, [r6, #0]
  206260:	f115 0f10 	cmn.w	r5, #16
  206264:	f105 070f 	add.w	r7, r5, #15
  206268:	d91a      	bls.n	2062a0 <main+0x6c>
  20626a:	bf00      	nop
  20626c:	6834      	ldr	r4, [r6, #0]
  20626e:	42ac      	cmp	r4, r5
  206270:	d308      	bcc.n	206284 <main+0x50>
  206272:	6834      	ldr	r4, [r6, #0]
  206274:	42ac      	cmp	r4, r5
  206276:	d305      	bcc.n	206284 <main+0x50>
  206278:	6834      	ldr	r4, [r6, #0]
  20627a:	42ac      	cmp	r4, r5
  20627c:	d302      	bcc.n	206284 <main+0x50>
  20627e:	6834      	ldr	r4, [r6, #0]
  206280:	42ac      	cmp	r4, r5
  206282:	d2f3      	bcs.n	20626c <main+0x38>
  206284:	6835      	ldr	r5, [r6, #0]
  206286:	42bd      	cmp	r5, r7
  206288:	d222      	bcs.n	2062d0 <main+0x9c>
  20628a:	6835      	ldr	r5, [r6, #0]
  20628c:	42bd      	cmp	r5, r7
  20628e:	d21f      	bcs.n	2062d0 <main+0x9c>
  206290:	6835      	ldr	r5, [r6, #0]
  206292:	42bd      	cmp	r5, r7
  206294:	d21c      	bcs.n	2062d0 <main+0x9c>
  206296:	6835      	ldr	r5, [r6, #0]
  206298:	42bd      	cmp	r5, r7
  20629a:	d3f3      	bcc.n	206284 <main+0x50>
  20629c:	e018      	b.n	2062d0 <main+0x9c>
  20629e:	bf00      	nop
  2062a0:	6834      	ldr	r4, [r6, #0]
  2062a2:	42ac      	cmp	r4, r5
  2062a4:	d314      	bcc.n	2062d0 <main+0x9c>
  2062a6:	6834      	ldr	r4, [r6, #0]
  2062a8:	42bc      	cmp	r4, r7
  2062aa:	d211      	bcs.n	2062d0 <main+0x9c>
  2062ac:	6834      	ldr	r4, [r6, #0]
  2062ae:	42ac      	cmp	r4, r5
  2062b0:	d30e      	bcc.n	2062d0 <main+0x9c>
  2062b2:	6834      	ldr	r4, [r6, #0]
  2062b4:	42bc      	cmp	r4, r7
  2062b6:	d20b      	bcs.n	2062d0 <main+0x9c>
  2062b8:	6834      	ldr	r4, [r6, #0]
  2062ba:	42ac      	cmp	r4, r5
  2062bc:	d308      	bcc.n	2062d0 <main+0x9c>
  2062be:	6834      	ldr	r4, [r6, #0]
  2062c0:	42bc      	cmp	r4, r7
  2062c2:	d205      	bcs.n	2062d0 <main+0x9c>
  2062c4:	6834      	ldr	r4, [r6, #0]
  2062c6:	42ac      	cmp	r4, r5
  2062c8:	d302      	bcc.n	2062d0 <main+0x9c>
  2062ca:	6834      	ldr	r4, [r6, #0]
  2062cc:	42bc      	cmp	r4, r7
  2062ce:	d3e7      	bcc.n	2062a0 <main+0x6c>
  2062d0:	6053      	str	r3, [r2, #4]
  2062d2:	6835      	ldr	r5, [r6, #0]
  2062d4:	f115 0f10 	cmn.w	r5, #16
  2062d8:	f105 070f 	add.w	r7, r5, #15
  2062dc:	d91a      	bls.n	206314 <main+0xe0>
  2062de:	bf00      	nop
  2062e0:	6834      	ldr	r4, [r6, #0]
  2062e2:	42ac      	cmp	r4, r5
  2062e4:	d308      	bcc.n	2062f8 <main+0xc4>
  2062e6:	6834      	ldr	r4, [r6, #0]
  2062e8:	42ac      	cmp	r4, r5
  2062ea:	d305      	bcc.n	2062f8 <main+0xc4>
  2062ec:	6834      	ldr	r4, [r6, #0]
  2062ee:	42ac      	cmp	r4, r5
  2062f0:	d302      	bcc.n	2062f8 <main+0xc4>
  2062f2:	6834      	ldr	r4, [r6, #0]
  2062f4:	42ac      	cmp	r4, r5
  2062f6:	d2f3      	bcs.n	2062e0 <main+0xac>
  2062f8:	6835      	ldr	r5, [r6, #0]
  2062fa:	42bd      	cmp	r5, r7
  2062fc:	d222      	bcs.n	206344 <main+0x110>
  2062fe:	6835      	ldr	r5, [r6, #0]
  206300:	42bd      	cmp	r5, r7
  206302:	d21f      	bcs.n	206344 <main+0x110>
  206304:	6835      	ldr	r5, [r6, #0]
  206306:	42bd      	cmp	r5, r7
  206308:	d21c      	bcs.n	206344 <main+0x110>
  20630a:	6835      	ldr	r5, [r6, #0]
  20630c:	42bd      	cmp	r5, r7
  20630e:	d3f3      	bcc.n	2062f8 <main+0xc4>
  206310:	e018      	b.n	206344 <main+0x110>
  206312:	bf00      	nop
  206314:	6834      	ldr	r4, [r6, #0]
  206316:	42ac      	cmp	r4, r5
  206318:	d314      	bcc.n	206344 <main+0x110>
  20631a:	6834      	ldr	r4, [r6, #0]
  20631c:	42bc      	cmp	r4, r7
  20631e:	d211      	bcs.n	206344 <main+0x110>
  206320:	6834      	ldr	r4, [r6, #0]
  206322:	42ac      	cmp	r4, r5
  206324:	d30e      	bcc.n	206344 <main+0x110>
  206326:	6834      	ldr	r4, [r6, #0]
  206328:	42bc      	cmp	r4, r7
  20632a:	d20b      	bcs.n	206344 <main+0x110>
  20632c:	6834      	ldr	r4, [r6, #0]
  20632e:	42ac      	cmp	r4, r5
  206330:	d308      	bcc.n	206344 <main+0x110>
  206332:	6834      	ldr	r4, [r6, #0]
  206334:	42bc      	cmp	r4, r7
  206336:	d205      	bcs.n	206344 <main+0x110>
  206338:	6834      	ldr	r4, [r6, #0]
  20633a:	42ac      	cmp	r4, r5
  20633c:	d302      	bcc.n	206344 <main+0x110>
  20633e:	6834      	ldr	r4, [r6, #0]
  206340:	42bc      	cmp	r4, r7
  206342:	d3e7      	bcc.n	206314 <main+0xe0>
  206344:	6013      	str	r3, [r2, #0]
  206346:	6835      	ldr	r5, [r6, #0]
  206348:	f115 0f10 	cmn.w	r5, #16
  20634c:	f105 070f 	add.w	r7, r5, #15
  206350:	d91a      	bls.n	206388 <main+0x154>
  206352:	bf00      	nop
  206354:	6834      	ldr	r4, [r6, #0]
  206356:	42ac      	cmp	r4, r5
  206358:	d308      	bcc.n	20636c <main+0x138>
  20635a:	6834      	ldr	r4, [r6, #0]
  20635c:	42ac      	cmp	r4, r5
  20635e:	d305      	bcc.n	20636c <main+0x138>
  206360:	6834      	ldr	r4, [r6, #0]
  206362:	42ac      	cmp	r4, r5
  206364:	d302      	bcc.n	20636c <main+0x138>
  206366:	6834      	ldr	r4, [r6, #0]
  206368:	42ac      	cmp	r4, r5
  20636a:	d2f3      	bcs.n	206354 <main+0x120>
  20636c:	6835      	ldr	r5, [r6, #0]
  20636e:	42bd      	cmp	r5, r7
  206370:	d222      	bcs.n	2063b8 <main+0x184>
  206372:	6835      	ldr	r5, [r6, #0]
  206374:	42bd      	cmp	r5, r7
  206376:	d21f      	bcs.n	2063b8 <main+0x184>
  206378:	6835      	ldr	r5, [r6, #0]
  20637a:	42bd      	cmp	r5, r7
  20637c:	d21c      	bcs.n	2063b8 <main+0x184>
  20637e:	6835      	ldr	r5, [r6, #0]
  206380:	42bd      	cmp	r5, r7
  206382:	d3f3      	bcc.n	20636c <main+0x138>
  206384:	e018      	b.n	2063b8 <main+0x184>
  206386:	bf00      	nop
  206388:	6834      	ldr	r4, [r6, #0]
  20638a:	42ac      	cmp	r4, r5
  20638c:	d314      	bcc.n	2063b8 <main+0x184>
  20638e:	6834      	ldr	r4, [r6, #0]
  206390:	42bc      	cmp	r4, r7
  206392:	d211      	bcs.n	2063b8 <main+0x184>
  206394:	6834      	ldr	r4, [r6, #0]
  206396:	42ac      	cmp	r4, r5
  206398:	d30e      	bcc.n	2063b8 <main+0x184>
  20639a:	6834      	ldr	r4, [r6, #0]
  20639c:	42bc      	cmp	r4, r7
  20639e:	d20b      	bcs.n	2063b8 <main+0x184>
  2063a0:	6834      	ldr	r4, [r6, #0]
  2063a2:	42ac      	cmp	r4, r5
  2063a4:	d308      	bcc.n	2063b8 <main+0x184>
  2063a6:	6834      	ldr	r4, [r6, #0]
  2063a8:	42bc      	cmp	r4, r7
  2063aa:	d205      	bcs.n	2063b8 <main+0x184>
  2063ac:	6834      	ldr	r4, [r6, #0]
  2063ae:	42ac      	cmp	r4, r5
  2063b0:	d302      	bcc.n	2063b8 <main+0x184>
  2063b2:	6834      	ldr	r4, [r6, #0]
  2063b4:	42bc      	cmp	r4, r7
  2063b6:	d3e7      	bcc.n	206388 <main+0x154>
  2063b8:	6011      	str	r1, [r2, #0]
  2063ba:	6835      	ldr	r5, [r6, #0]
  2063bc:	f115 0f10 	cmn.w	r5, #16
  2063c0:	f105 070f 	add.w	r7, r5, #15
  2063c4:	d91c      	bls.n	206400 <main+0x1cc>
  2063c6:	bf00      	nop
  2063c8:	6834      	ldr	r4, [r6, #0]
  2063ca:	42ac      	cmp	r4, r5
  2063cc:	d308      	bcc.n	2063e0 <main+0x1ac>
  2063ce:	6834      	ldr	r4, [r6, #0]
  2063d0:	42ac      	cmp	r4, r5
  2063d2:	d305      	bcc.n	2063e0 <main+0x1ac>
  2063d4:	6834      	ldr	r4, [r6, #0]
  2063d6:	42ac      	cmp	r4, r5
  2063d8:	d302      	bcc.n	2063e0 <main+0x1ac>
  2063da:	6834      	ldr	r4, [r6, #0]
  2063dc:	42ac      	cmp	r4, r5
  2063de:	d2f3      	bcs.n	2063c8 <main+0x194>
  2063e0:	6835      	ldr	r5, [r6, #0]
  2063e2:	42bd      	cmp	r5, r7
  2063e4:	f4bf af36 	bcs.w	206254 <main+0x20>
  2063e8:	6835      	ldr	r5, [r6, #0]
  2063ea:	42bd      	cmp	r5, r7
  2063ec:	f4bf af32 	bcs.w	206254 <main+0x20>
  2063f0:	6835      	ldr	r5, [r6, #0]
  2063f2:	42bd      	cmp	r5, r7
  2063f4:	f4bf af2e 	bcs.w	206254 <main+0x20>
  2063f8:	6835      	ldr	r5, [r6, #0]
  2063fa:	42bd      	cmp	r5, r7
  2063fc:	d3f0      	bcc.n	2063e0 <main+0x1ac>
  2063fe:	e729      	b.n	206254 <main+0x20>
  206400:	6834      	ldr	r4, [r6, #0]
  206402:	42ac      	cmp	r4, r5
  206404:	f4ff af26 	bcc.w	206254 <main+0x20>
  206408:	6834      	ldr	r4, [r6, #0]
  20640a:	42bc      	cmp	r4, r7
  20640c:	f4bf af22 	bcs.w	206254 <main+0x20>
  206410:	6834      	ldr	r4, [r6, #0]
  206412:	42ac      	cmp	r4, r5
  206414:	f4ff af1e 	bcc.w	206254 <main+0x20>
  206418:	6834      	ldr	r4, [r6, #0]
  20641a:	42bc      	cmp	r4, r7
  20641c:	f4bf af1a 	bcs.w	206254 <main+0x20>
  206420:	6834      	ldr	r4, [r6, #0]
  206422:	42ac      	cmp	r4, r5
  206424:	f4ff af16 	bcc.w	206254 <main+0x20>
  206428:	6834      	ldr	r4, [r6, #0]
  20642a:	42bc      	cmp	r4, r7
  20642c:	f4bf af12 	bcs.w	206254 <main+0x20>
  206430:	6834      	ldr	r4, [r6, #0]
  206432:	42ac      	cmp	r4, r5
  206434:	f4ff af0e 	bcc.w	206254 <main+0x20>
  206438:	6834      	ldr	r4, [r6, #0]
  20643a:	42bc      	cmp	r4, r7
  20643c:	d3e0      	bcc.n	206400 <main+0x1cc>
  20643e:	e709      	b.n	206254 <main+0x20>
  206440:	2000      	movs	r0, #0
  206442:	f10d 041e 	add.w	r4, sp, #30
  206446:	f642 7570 	movw	r5, #12144	; 0x2f70
  20644a:	f88d 001e 	strb.w	r0, [sp, #30]
  20644e:	4620      	mov	r0, r4
  206450:	2101      	movs	r1, #1
  206452:	2201      	movs	r2, #1
  206454:	f6cf 75fc 	movt	r5, #65532	; 0xfffc
  206458:	f7ff faca 	bl	2059f0 <I2C_tx>
  20645c:	4620      	mov	r0, r4
  20645e:	2102      	movs	r1, #2
  206460:	f7fe fe06 	bl	205070 <I2C_rx>
  206464:	f240 2003 	movw	r0, #515	; 0x203
  206468:	f8ad 0018 	strh.w	r0, [sp, #24]
  20646c:	a806      	add	r0, sp, #24
  20646e:	2102      	movs	r1, #2
  206470:	2200      	movs	r2, #0
  206472:	f7ff fabd 	bl	2059f0 <I2C_tx>
  206476:	4628      	mov	r0, r5
  206478:	bf00      	nop
  20647a:	bf00      	nop
  20647c:	bf00      	nop
  20647e:	bf00      	nop
  206480:	bf00      	nop
  206482:	bf00      	nop
  206484:	bf00      	nop
  206486:	bf00      	nop
  206488:	bf00      	nop
  20648a:	bf00      	nop
  20648c:	bf00      	nop
  20648e:	bf00      	nop
  206490:	bf00      	nop
  206492:	bf00      	nop
  206494:	bf00      	nop
  206496:	bf00      	nop
  206498:	bf00      	nop
  20649a:	bf00      	nop
  20649c:	bf00      	nop
  20649e:	bf00      	nop
  2064a0:	bf00      	nop
  2064a2:	bf00      	nop
  2064a4:	bf00      	nop
  2064a6:	bf00      	nop
  2064a8:	bf00      	nop
  2064aa:	bf00      	nop
  2064ac:	bf00      	nop
  2064ae:	bf00      	nop
  2064b0:	bf00      	nop
  2064b2:	bf00      	nop
  2064b4:	bf00      	nop
  2064b6:	bf00      	nop
  2064b8:	bf00      	nop
  2064ba:	bf00      	nop
  2064bc:	bf00      	nop
  2064be:	bf00      	nop
  2064c0:	bf00      	nop
  2064c2:	bf00      	nop
  2064c4:	bf00      	nop
  2064c6:	bf00      	nop
  2064c8:	bf00      	nop
  2064ca:	bf00      	nop
  2064cc:	bf00      	nop
  2064ce:	bf00      	nop
  2064d0:	bf00      	nop
  2064d2:	bf00      	nop
  2064d4:	bf00      	nop
  2064d6:	bf00      	nop
  2064d8:	bf00      	nop
  2064da:	bf00      	nop
  2064dc:	bf00      	nop
  2064de:	bf00      	nop
  2064e0:	bf00      	nop
  2064e2:	bf00      	nop
  2064e4:	bf00      	nop
  2064e6:	bf00      	nop
  2064e8:	bf00      	nop
  2064ea:	bf00      	nop
  2064ec:	bf00      	nop
  2064ee:	bf00      	nop
  2064f0:	bf00      	nop
  2064f2:	bf00      	nop
  2064f4:	bf00      	nop
  2064f6:	bf00      	nop
  2064f8:	bf00      	nop
  2064fa:	bf00      	nop
  2064fc:	bf00      	nop
  2064fe:	bf00      	nop
  206500:	bf00      	nop
  206502:	bf00      	nop
  206504:	bf00      	nop
  206506:	bf00      	nop
  206508:	bf00      	nop
  20650a:	bf00      	nop
  20650c:	bf00      	nop
  20650e:	bf00      	nop
  206510:	bf00      	nop
  206512:	bf00      	nop
  206514:	bf00      	nop
  206516:	bf00      	nop
  206518:	bf00      	nop
  20651a:	bf00      	nop
  20651c:	bf00      	nop
  20651e:	bf00      	nop
  206520:	bf00      	nop
  206522:	bf00      	nop
  206524:	bf00      	nop
  206526:	bf00      	nop
  206528:	bf00      	nop
  20652a:	bf00      	nop
  20652c:	bf00      	nop
  20652e:	bf00      	nop
  206530:	bf00      	nop
  206532:	bf00      	nop
  206534:	bf00      	nop
  206536:	bf00      	nop
  206538:	bf00      	nop
  20653a:	bf00      	nop
  20653c:	bf00      	nop
  20653e:	bf00      	nop
  206540:	bf00      	nop
  206542:	bf00      	nop
  206544:	bf00      	nop
  206546:	bf00      	nop
  206548:	bf00      	nop
  20654a:	bf00      	nop
  20654c:	bf00      	nop
  20654e:	bf00      	nop
  206550:	bf00      	nop
  206552:	bf00      	nop
  206554:	bf00      	nop
  206556:	bf00      	nop
  206558:	bf00      	nop
  20655a:	bf00      	nop
  20655c:	bf00      	nop
  20655e:	bf00      	nop
  206560:	bf00      	nop
  206562:	bf00      	nop
  206564:	bf00      	nop
  206566:	3014      	adds	r0, #20
  206568:	bf00      	nop
  20656a:	d185      	bne.n	206478 <main+0x244>
  20656c:	f640 4004 	movw	r0, #3076	; 0xc04
  206570:	f8ad 0018 	strh.w	r0, [sp, #24]
  206574:	a806      	add	r0, sp, #24
  206576:	2102      	movs	r1, #2
  206578:	2200      	movs	r2, #0
  20657a:	f7ff fa39 	bl	2059f0 <I2C_tx>
  20657e:	f240 700a 	movw	r0, #1802	; 0x70a
  206582:	f8ad 0018 	strh.w	r0, [sp, #24]
  206586:	a806      	add	r0, sp, #24
  206588:	2102      	movs	r1, #2
  20658a:	2200      	movs	r2, #0
  20658c:	f7ff fa30 	bl	2059f0 <I2C_tx>
  206590:	f646 1020 	movw	r0, #26912	; 0x6920
  206594:	f8ad 0018 	strh.w	r0, [sp, #24]
  206598:	a806      	add	r0, sp, #24
  20659a:	2102      	movs	r1, #2
  20659c:	2200      	movs	r2, #0
  20659e:	f7ff fa27 	bl	2059f0 <I2C_tx>
  2065a2:	bf00      	nop
  2065a4:	bf00      	nop
  2065a6:	bf00      	nop
  2065a8:	bf00      	nop
  2065aa:	bf00      	nop
  2065ac:	bf00      	nop
  2065ae:	bf00      	nop
  2065b0:	bf00      	nop
  2065b2:	bf00      	nop
  2065b4:	bf00      	nop
  2065b6:	bf00      	nop
  2065b8:	bf00      	nop
  2065ba:	bf00      	nop
  2065bc:	bf00      	nop
  2065be:	bf00      	nop
  2065c0:	bf00      	nop
  2065c2:	bf00      	nop
  2065c4:	bf00      	nop
  2065c6:	bf00      	nop
  2065c8:	bf00      	nop
  2065ca:	bf00      	nop
  2065cc:	bf00      	nop
  2065ce:	bf00      	nop
  2065d0:	bf00      	nop
  2065d2:	bf00      	nop
  2065d4:	bf00      	nop
  2065d6:	bf00      	nop
  2065d8:	bf00      	nop
  2065da:	bf00      	nop
  2065dc:	bf00      	nop
  2065de:	bf00      	nop
  2065e0:	bf00      	nop
  2065e2:	bf00      	nop
  2065e4:	bf00      	nop
  2065e6:	bf00      	nop
  2065e8:	bf00      	nop
  2065ea:	bf00      	nop
  2065ec:	bf00      	nop
  2065ee:	bf00      	nop
  2065f0:	bf00      	nop
  2065f2:	bf00      	nop
  2065f4:	bf00      	nop
  2065f6:	bf00      	nop
  2065f8:	bf00      	nop
  2065fa:	bf00      	nop
  2065fc:	bf00      	nop
  2065fe:	bf00      	nop
  206600:	bf00      	nop
  206602:	bf00      	nop
  206604:	bf00      	nop
  206606:	bf00      	nop
  206608:	bf00      	nop
  20660a:	bf00      	nop
  20660c:	bf00      	nop
  20660e:	bf00      	nop
  206610:	bf00      	nop
  206612:	bf00      	nop
  206614:	bf00      	nop
  206616:	bf00      	nop
  206618:	bf00      	nop
  20661a:	bf00      	nop
  20661c:	bf00      	nop
  20661e:	bf00      	nop
  206620:	bf00      	nop
  206622:	bf00      	nop
  206624:	bf00      	nop
  206626:	bf00      	nop
  206628:	bf00      	nop
  20662a:	bf00      	nop
  20662c:	bf00      	nop
  20662e:	bf00      	nop
  206630:	bf00      	nop
  206632:	bf00      	nop
  206634:	bf00      	nop
  206636:	bf00      	nop
  206638:	bf00      	nop
  20663a:	bf00      	nop
  20663c:	bf00      	nop
  20663e:	bf00      	nop
  206640:	bf00      	nop
  206642:	bf00      	nop
  206644:	bf00      	nop
  206646:	bf00      	nop
  206648:	bf00      	nop
  20664a:	bf00      	nop
  20664c:	bf00      	nop
  20664e:	bf00      	nop
  206650:	bf00      	nop
  206652:	bf00      	nop
  206654:	bf00      	nop
  206656:	bf00      	nop
  206658:	bf00      	nop
  20665a:	bf00      	nop
  20665c:	bf00      	nop
  20665e:	bf00      	nop
  206660:	bf00      	nop
  206662:	bf00      	nop
  206664:	bf00      	nop
  206666:	bf00      	nop
  206668:	bf00      	nop
  20666a:	bf00      	nop
  20666c:	bf00      	nop
  20666e:	bf00      	nop
  206670:	bf00      	nop
  206672:	bf00      	nop
  206674:	bf00      	nop
  206676:	bf00      	nop
  206678:	bf00      	nop
  20667a:	bf00      	nop
  20667c:	bf00      	nop
  20667e:	bf00      	nop
  206680:	bf00      	nop
  206682:	bf00      	nop
  206684:	bf00      	nop
  206686:	bf00      	nop
  206688:	bf00      	nop
  20668a:	bf00      	nop
  20668c:	bf00      	nop
  20668e:	bf00      	nop
  206690:	bf00      	nop
  206692:	3514      	adds	r5, #20
  206694:	bf00      	nop
  206696:	d185      	bne.n	2065a4 <main+0x370>
  206698:	f240 1021 	movw	r0, #289	; 0x121
  20669c:	f246 040c 	movw	r4, #24588	; 0x600c
  2066a0:	f8ad 0018 	strh.w	r0, [sp, #24]
  2066a4:	a806      	add	r0, sp, #24
  2066a6:	2102      	movs	r1, #2
  2066a8:	2200      	movs	r2, #0
  2066aa:	f2c4 0420 	movt	r4, #16416	; 0x4020
  2066ae:	2700      	movs	r7, #0
  2066b0:	f7ff f99e 	bl	2059f0 <I2C_tx>
  2066b4:	f24c 2041 	movw	r0, #49729	; 0xc241
  2066b8:	f8ad 0018 	strh.w	r0, [sp, #24]
  2066bc:	a806      	add	r0, sp, #24
  2066be:	2102      	movs	r1, #2
  2066c0:	2200      	movs	r2, #0
  2066c2:	f7ff f995 	bl	2059f0 <I2C_tx>
  2066c6:	f44f 70a5 	mov.w	r0, #330	; 0x14a
  2066ca:	f8ad 0018 	strh.w	r0, [sp, #24]
  2066ce:	a806      	add	r0, sp, #24
  2066d0:	2102      	movs	r1, #2
  2066d2:	2200      	movs	r2, #0
  2066d4:	f7ff f98c 	bl	2059f0 <I2C_tx>
  2066d8:	f240 104b 	movw	r0, #331	; 0x14b
  2066dc:	f8ad 0018 	strh.w	r0, [sp, #24]
  2066e0:	a806      	add	r0, sp, #24
  2066e2:	2102      	movs	r1, #2
  2066e4:	2200      	movs	r2, #0
  2066e6:	f7ff f983 	bl	2059f0 <I2C_tx>
  2066ea:	204b      	movs	r0, #75	; 0x4b
  2066ec:	f8ad 0018 	strh.w	r0, [sp, #24]
  2066f0:	a806      	add	r0, sp, #24
  2066f2:	2102      	movs	r1, #2
  2066f4:	2200      	movs	r2, #0
  2066f6:	f7ff f97b 	bl	2059f0 <I2C_tx>
  2066fa:	f240 7056 	movw	r0, #1878	; 0x756
  2066fe:	f8ad 0018 	strh.w	r0, [sp, #24]
  206702:	a806      	add	r0, sp, #24
  206704:	2102      	movs	r1, #2
  206706:	2200      	movs	r2, #0
  206708:	f7ff f972 	bl	2059f0 <I2C_tx>
  20670c:	f44f 70ac 	mov.w	r0, #344	; 0x158
  206710:	f8ad 0018 	strh.w	r0, [sp, #24]
  206714:	a806      	add	r0, sp, #24
  206716:	2102      	movs	r1, #2
  206718:	2200      	movs	r2, #0
  20671a:	f7ff f969 	bl	2059f0 <I2C_tx>
  20671e:	2017      	movs	r0, #23
  206720:	f8ad 0018 	strh.w	r0, [sp, #24]
  206724:	a806      	add	r0, sp, #24
  206726:	2102      	movs	r1, #2
  206728:	2200      	movs	r2, #0
  20672a:	f7ff f961 	bl	2059f0 <I2C_tx>
  20672e:	f44f 70a0 	mov.w	r0, #320	; 0x140
  206732:	f8ad 0018 	strh.w	r0, [sp, #24]
  206736:	a806      	add	r0, sp, #24
  206738:	2102      	movs	r1, #2
  20673a:	2200      	movs	r2, #0
  20673c:	f7ff f958 	bl	2059f0 <I2C_tx>
  206740:	f64f 700b 	movw	r0, #65291	; 0xff0b
  206744:	f8ad 0018 	strh.w	r0, [sp, #24]
  206748:	a806      	add	r0, sp, #24
  20674a:	2102      	movs	r1, #2
  20674c:	2200      	movs	r2, #0
  20674e:	f7ff f94f 	bl	2059f0 <I2C_tx>
  206752:	f7f9 ffb9 	bl	2006c8 <GLCD_Initialize>
  206756:	f240 0010 	movw	r0, #16
  20675a:	f248 3158 	movw	r1, #33624	; 0x8358
  20675e:	f6c2 0020 	movt	r0, #10272	; 0x2820
  206762:	f2c0 0120 	movt	r1, #32
  206766:	f240 0514 	movw	r5, #20
  20676a:	6001      	str	r1, [r0, #0]
  20676c:	f6c2 0520 	movt	r5, #10272	; 0x2820
  206770:	2000      	movs	r0, #0
  206772:	2100      	movs	r1, #0
  206774:	f44f 72a0 	mov.w	r2, #320	; 0x140
  206778:	23f0      	movs	r3, #240	; 0xf0
  20677a:	702f      	strb	r7, [r5, #0]
  20677c:	f7fe f840 	bl	204800 <GLCD_SetWindow>
  206780:	6b70      	ldr	r0, [r6, #52]	; 0x34
  206782:	f020 0001 	bic.w	r0, r0, #1
  206786:	6370      	str	r0, [r6, #52]	; 0x34
  206788:	2070      	movs	r0, #112	; 0x70
  20678a:	f844 0c04 	str.w	r0, [r4, #-4]
  20678e:	6820      	ldr	r0, [r4, #0]
  206790:	0740      	lsls	r0, r0, #29
  206792:	d409      	bmi.n	2067a8 <main+0x574>
  206794:	6820      	ldr	r0, [r4, #0]
  206796:	0740      	lsls	r0, r0, #29
  206798:	bf5c      	itt	pl
  20679a:	6820      	ldrpl	r0, [r4, #0]
  20679c:	ea5f 7040 	movspl.w	r0, r0, lsl #29
  2067a0:	d402      	bmi.n	2067a8 <main+0x574>
  2067a2:	6820      	ldr	r0, [r4, #0]
  2067a4:	0740      	lsls	r0, r0, #29
  2067a6:	d5f2      	bpl.n	20678e <main+0x55a>
  2067a8:	f854 0c04 	ldr.w	r0, [r4, #-4]
  2067ac:	2000      	movs	r0, #0
  2067ae:	f844 0c04 	str.w	r0, [r4, #-4]
  2067b2:	6820      	ldr	r0, [r4, #0]
  2067b4:	0740      	lsls	r0, r0, #29
  2067b6:	d409      	bmi.n	2067cc <main+0x598>
  2067b8:	6820      	ldr	r0, [r4, #0]
  2067ba:	0740      	lsls	r0, r0, #29
  2067bc:	bf5c      	itt	pl
  2067be:	6820      	ldrpl	r0, [r4, #0]
  2067c0:	ea5f 7040 	movspl.w	r0, r0, lsl #29
  2067c4:	d402      	bmi.n	2067cc <main+0x598>
  2067c6:	6820      	ldr	r0, [r4, #0]
  2067c8:	0740      	lsls	r0, r0, #29
  2067ca:	d5f2      	bpl.n	2067b2 <main+0x57e>
  2067cc:	f854 0c04 	ldr.w	r0, [r4, #-4]
  2067d0:	2022      	movs	r0, #34	; 0x22
  2067d2:	f844 0c04 	str.w	r0, [r4, #-4]
  2067d6:	6820      	ldr	r0, [r4, #0]
  2067d8:	0740      	lsls	r0, r0, #29
  2067da:	d409      	bmi.n	2067f0 <main+0x5bc>
  2067dc:	6820      	ldr	r0, [r4, #0]
  2067de:	0740      	lsls	r0, r0, #29
  2067e0:	bf5c      	itt	pl
  2067e2:	6820      	ldrpl	r0, [r4, #0]
  2067e4:	ea5f 7040 	movspl.w	r0, r0, lsl #29
  2067e8:	d402      	bmi.n	2067f0 <main+0x5bc>
  2067ea:	6820      	ldr	r0, [r4, #0]
  2067ec:	0740      	lsls	r0, r0, #29
  2067ee:	d5f2      	bpl.n	2067d6 <main+0x5a2>
  2067f0:	f854 0c04 	ldr.w	r0, [r4, #-4]
  2067f4:	6b70      	ldr	r0, [r6, #52]	; 0x34
  2067f6:	f040 0001 	orr.w	r0, r0, #1
  2067fa:	6370      	str	r0, [r6, #52]	; 0x34
  2067fc:	6b70      	ldr	r0, [r6, #52]	; 0x34
  2067fe:	f020 0001 	bic.w	r0, r0, #1
  206802:	6370      	str	r0, [r6, #52]	; 0x34
  206804:	2072      	movs	r0, #114	; 0x72
  206806:	f844 0c04 	str.w	r0, [r4, #-4]
  20680a:	6820      	ldr	r0, [r4, #0]
  20680c:	0740      	lsls	r0, r0, #29
  20680e:	d409      	bmi.n	206824 <main+0x5f0>
  206810:	6820      	ldr	r0, [r4, #0]
  206812:	0740      	lsls	r0, r0, #29
  206814:	bf5c      	itt	pl
  206816:	6820      	ldrpl	r0, [r4, #0]
  206818:	ea5f 7040 	movspl.w	r0, r0, lsl #29
  20681c:	d402      	bmi.n	206824 <main+0x5f0>
  20681e:	6820      	ldr	r0, [r4, #0]
  206820:	0740      	lsls	r0, r0, #29
  206822:	d5f2      	bpl.n	20680a <main+0x5d6>
  206824:	f854 0c04 	ldr.w	r0, [r4, #-4]
  206828:	7828      	ldrb	r0, [r5, #0]
  20682a:	f06f 011f 	mvn.w	r1, #31
  20682e:	311f      	adds	r1, #31
  206830:	2800      	cmp	r0, #0
  206832:	bf18      	it	ne
  206834:	211f      	movne	r1, #31
  206836:	b288      	uxth	r0, r1
  206838:	b2c9      	uxtb	r1, r1
  20683a:	0a00      	lsrs	r0, r0, #8
  20683c:	2200      	movs	r2, #0
  20683e:	e005      	b.n	20684c <main+0x618>
  206840:	3203      	adds	r2, #3
  206842:	f854 3c04 	ldr.w	r3, [r4, #-4]
  206846:	f5b2 3f96 	cmp.w	r2, #76800	; 0x12c00
  20684a:	d069      	beq.n	206920 <main+0x6ec>
  20684c:	f844 0c04 	str.w	r0, [r4, #-4]
  206850:	6823      	ldr	r3, [r4, #0]
  206852:	075b      	lsls	r3, r3, #29
  206854:	d40a      	bmi.n	20686c <main+0x638>
  206856:	6823      	ldr	r3, [r4, #0]
  206858:	075b      	lsls	r3, r3, #29
  20685a:	bf5c      	itt	pl
  20685c:	6823      	ldrpl	r3, [r4, #0]
  20685e:	ea5f 7343 	movspl.w	r3, r3, lsl #29
  206862:	d403      	bmi.n	20686c <main+0x638>
  206864:	6823      	ldr	r3, [r4, #0]
  206866:	075b      	lsls	r3, r3, #29
  206868:	d5f2      	bpl.n	206850 <main+0x61c>
  20686a:	bf00      	nop
  20686c:	f854 3c04 	ldr.w	r3, [r4, #-4]
  206870:	f844 1c04 	str.w	r1, [r4, #-4]
  206874:	6823      	ldr	r3, [r4, #0]
  206876:	075b      	lsls	r3, r3, #29
  206878:	d40a      	bmi.n	206890 <main+0x65c>
  20687a:	6823      	ldr	r3, [r4, #0]
  20687c:	075b      	lsls	r3, r3, #29
  20687e:	bf5c      	itt	pl
  206880:	6823      	ldrpl	r3, [r4, #0]
  206882:	ea5f 7343 	movspl.w	r3, r3, lsl #29
  206886:	d403      	bmi.n	206890 <main+0x65c>
  206888:	6823      	ldr	r3, [r4, #0]
  20688a:	075b      	lsls	r3, r3, #29
  20688c:	d5f2      	bpl.n	206874 <main+0x640>
  20688e:	bf00      	nop
  206890:	f854 3c04 	ldr.w	r3, [r4, #-4]
  206894:	f844 0c04 	str.w	r0, [r4, #-4]
  206898:	6823      	ldr	r3, [r4, #0]
  20689a:	075b      	lsls	r3, r3, #29
  20689c:	d40a      	bmi.n	2068b4 <main+0x680>
  20689e:	6823      	ldr	r3, [r4, #0]
  2068a0:	075b      	lsls	r3, r3, #29
  2068a2:	bf5c      	itt	pl
  2068a4:	6823      	ldrpl	r3, [r4, #0]
  2068a6:	ea5f 7343 	movspl.w	r3, r3, lsl #29
  2068aa:	d403      	bmi.n	2068b4 <main+0x680>
  2068ac:	6823      	ldr	r3, [r4, #0]
  2068ae:	075b      	lsls	r3, r3, #29
  2068b0:	d5f2      	bpl.n	206898 <main+0x664>
  2068b2:	bf00      	nop
  2068b4:	f854 3c04 	ldr.w	r3, [r4, #-4]
  2068b8:	f844 1c04 	str.w	r1, [r4, #-4]
  2068bc:	6823      	ldr	r3, [r4, #0]
  2068be:	075b      	lsls	r3, r3, #29
  2068c0:	d40a      	bmi.n	2068d8 <main+0x6a4>
  2068c2:	6823      	ldr	r3, [r4, #0]
  2068c4:	075b      	lsls	r3, r3, #29
  2068c6:	bf5c      	itt	pl
  2068c8:	6823      	ldrpl	r3, [r4, #0]
  2068ca:	ea5f 7343 	movspl.w	r3, r3, lsl #29
  2068ce:	d403      	bmi.n	2068d8 <main+0x6a4>
  2068d0:	6823      	ldr	r3, [r4, #0]
  2068d2:	075b      	lsls	r3, r3, #29
  2068d4:	d5f2      	bpl.n	2068bc <main+0x688>
  2068d6:	bf00      	nop
  2068d8:	f854 3c04 	ldr.w	r3, [r4, #-4]
  2068dc:	f844 0c04 	str.w	r0, [r4, #-4]
  2068e0:	6823      	ldr	r3, [r4, #0]
  2068e2:	075b      	lsls	r3, r3, #29
  2068e4:	d40a      	bmi.n	2068fc <main+0x6c8>
  2068e6:	6823      	ldr	r3, [r4, #0]
  2068e8:	075b      	lsls	r3, r3, #29
  2068ea:	bf5c      	itt	pl
  2068ec:	6823      	ldrpl	r3, [r4, #0]
  2068ee:	ea5f 7343 	movspl.w	r3, r3, lsl #29
  2068f2:	d403      	bmi.n	2068fc <main+0x6c8>
  2068f4:	6823      	ldr	r3, [r4, #0]
  2068f6:	075b      	lsls	r3, r3, #29
  2068f8:	d5f2      	bpl.n	2068e0 <main+0x6ac>
  2068fa:	bf00      	nop
  2068fc:	f854 3c04 	ldr.w	r3, [r4, #-4]
  206900:	f844 1c04 	str.w	r1, [r4, #-4]
  206904:	6823      	ldr	r3, [r4, #0]
  206906:	075b      	lsls	r3, r3, #29
  206908:	d49a      	bmi.n	206840 <main+0x60c>
  20690a:	6823      	ldr	r3, [r4, #0]
  20690c:	075b      	lsls	r3, r3, #29
  20690e:	bf5c      	itt	pl
  206910:	6823      	ldrpl	r3, [r4, #0]
  206912:	ea5f 7343 	movspl.w	r3, r3, lsl #29
  206916:	d493      	bmi.n	206840 <main+0x60c>
  206918:	6823      	ldr	r3, [r4, #0]
  20691a:	075b      	lsls	r3, r3, #29
  20691c:	d5f2      	bpl.n	206904 <main+0x6d0>
  20691e:	e78f      	b.n	206840 <main+0x60c>
  206920:	6b70      	ldr	r0, [r6, #52]	; 0x34
  206922:	f240 0116 	movw	r1, #22
  206926:	f040 0001 	orr.w	r0, r0, #1
  20692a:	6370      	str	r0, [r6, #52]	; 0x34
  20692c:	2001      	movs	r0, #1
  20692e:	7028      	strb	r0, [r5, #0]
  206930:	f6c2 0120 	movt	r1, #10272	; 0x2820
  206934:	f44f 4078 	mov.w	r0, #63488	; 0xf800
  206938:	8008      	strh	r0, [r1, #0]
  20693a:	f248 3092 	movw	r0, #33682	; 0x8392
  20693e:	f2c0 0020 	movt	r0, #32
  206942:	1e47      	subs	r7, r0, #1
  206944:	2400      	movs	r4, #0
  206946:	2220      	movs	r2, #32
  206948:	4620      	mov	r0, r4
  20694a:	2100      	movs	r1, #0
  20694c:	f7f9 fdac 	bl	2004a8 <GLCD_DrawChar>
  206950:	3410      	adds	r4, #16
  206952:	78ba      	ldrb	r2, [r7, #2]
  206954:	f5b4 7fa0 	cmp.w	r4, #320	; 0x140
  206958:	f107 0701 	add.w	r7, r7, #1
  20695c:	d1f4      	bne.n	206948 <main+0x714>
  20695e:	f248 3068 	movw	r0, #33640	; 0x8368
  206962:	f2c0 0020 	movt	r0, #32
  206966:	1e47      	subs	r7, r0, #1
  206968:	2400      	movs	r4, #0
  20696a:	2220      	movs	r2, #32
  20696c:	4620      	mov	r0, r4
  20696e:	2118      	movs	r1, #24
  206970:	f7f9 fd9a 	bl	2004a8 <GLCD_DrawChar>
  206974:	3410      	adds	r4, #16
  206976:	78ba      	ldrb	r2, [r7, #2]
  206978:	f5b4 7fa0 	cmp.w	r4, #320	; 0x140
  20697c:	f107 0701 	add.w	r7, r7, #1
  206980:	d1f4      	bne.n	20696c <main+0x738>
  206982:	f248 307d 	movw	r0, #33661	; 0x837d
  206986:	f2c0 0020 	movt	r0, #32
  20698a:	1e47      	subs	r7, r0, #1
  20698c:	2400      	movs	r4, #0
  20698e:	2220      	movs	r2, #32
  206990:	4620      	mov	r0, r4
  206992:	2130      	movs	r1, #48	; 0x30
  206994:	f7f9 fd88 	bl	2004a8 <GLCD_DrawChar>
  206998:	3410      	adds	r4, #16
  20699a:	78ba      	ldrb	r2, [r7, #2]
  20699c:	f5b4 7fa0 	cmp.w	r4, #320	; 0x140
  2069a0:	f107 0701 	add.w	r7, r7, #1
  2069a4:	d1f4      	bne.n	206990 <main+0x75c>
  2069a6:	2100      	movs	r1, #0
  2069a8:	f240 0016 	movw	r0, #22
  2069ac:	7029      	strb	r1, [r5, #0]
  2069ae:	f24e 0510 	movw	r5, #57360	; 0xe010
  2069b2:	f6c2 0020 	movt	r0, #10272	; 0x2820
  2069b6:	f2ce 0500 	movt	r5, #57344	; 0xe000
  2069ba:	8001      	strh	r1, [r0, #0]
  2069bc:	f8d5 0cf0 	ldr.w	r0, [r5, #3312]	; 0xcf0
  2069c0:	f20f 4240 	addw	r2, pc, #1088	; 0x440
  2069c4:	f3c0 110b 	ubfx	r1, r0, #4, #12
  2069c8:	f20f 4020 	addw	r0, pc, #1056	; 0x420
  2069cc:	f640 5321 	movw	r3, #3361	; 0xd21
  2069d0:	4299      	cmp	r1, r3
  2069d2:	bf08      	it	eq
  2069d4:	4602      	moveq	r2, r0
  2069d6:	f20f 4044 	addw	r0, pc, #1092	; 0x444
  2069da:	f5b1 6f52 	cmp.w	r1, #3360	; 0xd20
  2069de:	bf18      	it	ne
  2069e0:	4610      	movne	r0, r2
  2069e2:	7802      	ldrb	r2, [r0, #0]
  2069e4:	b162      	cbz	r2, 206a00 <main+0x7cc>
  2069e6:	1e47      	subs	r7, r0, #1
  2069e8:	2400      	movs	r4, #0
  2069ea:	bf00      	nop
  2069ec:	4620      	mov	r0, r4
  2069ee:	2160      	movs	r1, #96	; 0x60
  2069f0:	f7f9 fd5a 	bl	2004a8 <GLCD_DrawChar>
  2069f4:	78ba      	ldrb	r2, [r7, #2]
  2069f6:	3410      	adds	r4, #16
  2069f8:	2a00      	cmp	r2, #0
  2069fa:	f107 0701 	add.w	r7, r7, #1
  2069fe:	d1f5      	bne.n	2069ec <main+0x7b8>
  206a00:	2020      	movs	r0, #32
  206a02:	2190      	movs	r1, #144	; 0x90
  206a04:	224c      	movs	r2, #76	; 0x4c
  206a06:	f7f9 fd4f 	bl	2004a8 <GLCD_DrawChar>
  206a0a:	2030      	movs	r0, #48	; 0x30
  206a0c:	2190      	movs	r1, #144	; 0x90
  206a0e:	2245      	movs	r2, #69	; 0x45
  206a10:	f7f9 fd4a 	bl	2004a8 <GLCD_DrawChar>
  206a14:	2040      	movs	r0, #64	; 0x40
  206a16:	2190      	movs	r1, #144	; 0x90
  206a18:	2244      	movs	r2, #68	; 0x44
  206a1a:	f7f9 fd45 	bl	2004a8 <GLCD_DrawChar>
  206a1e:	2050      	movs	r0, #80	; 0x50
  206a20:	2190      	movs	r1, #144	; 0x90
  206a22:	223a      	movs	r2, #58	; 0x3a
  206a24:	f7f9 fd40 	bl	2004a8 <GLCD_DrawChar>
  206a28:	2020      	movs	r0, #32
  206a2a:	21a8      	movs	r1, #168	; 0xa8
  206a2c:	224b      	movs	r2, #75	; 0x4b
  206a2e:	f7f9 fd3b 	bl	2004a8 <GLCD_DrawChar>
  206a32:	2030      	movs	r0, #48	; 0x30
  206a34:	21a8      	movs	r1, #168	; 0xa8
  206a36:	2245      	movs	r2, #69	; 0x45
  206a38:	f7f9 fd36 	bl	2004a8 <GLCD_DrawChar>
  206a3c:	2040      	movs	r0, #64	; 0x40
  206a3e:	21a8      	movs	r1, #168	; 0xa8
  206a40:	2259      	movs	r2, #89	; 0x59
  206a42:	f7f9 fd31 	bl	2004a8 <GLCD_DrawChar>
  206a46:	2050      	movs	r0, #80	; 0x50
  206a48:	21a8      	movs	r1, #168	; 0xa8
  206a4a:	223a      	movs	r2, #58	; 0x3a
  206a4c:	f7f9 fd2c 	bl	2004a8 <GLCD_DrawChar>
  206a50:	2020      	movs	r0, #32
  206a52:	21c0      	movs	r1, #192	; 0xc0
  206a54:	2254      	movs	r2, #84	; 0x54
  206a56:	f7f9 fd27 	bl	2004a8 <GLCD_DrawChar>
  206a5a:	2030      	movs	r0, #48	; 0x30
  206a5c:	21c0      	movs	r1, #192	; 0xc0
  206a5e:	226f      	movs	r2, #111	; 0x6f
  206a60:	f7f9 fd22 	bl	2004a8 <GLCD_DrawChar>
  206a64:	2040      	movs	r0, #64	; 0x40
  206a66:	21c0      	movs	r1, #192	; 0xc0
  206a68:	2275      	movs	r2, #117	; 0x75
  206a6a:	f7f9 fd1d 	bl	2004a8 <GLCD_DrawChar>
  206a6e:	2050      	movs	r0, #80	; 0x50
  206a70:	21c0      	movs	r1, #192	; 0xc0
  206a72:	2263      	movs	r2, #99	; 0x63
  206a74:	f7f9 fd18 	bl	2004a8 <GLCD_DrawChar>
  206a78:	2060      	movs	r0, #96	; 0x60
  206a7a:	21c0      	movs	r1, #192	; 0xc0
  206a7c:	2268      	movs	r2, #104	; 0x68
  206a7e:	f7f9 fd13 	bl	2004a8 <GLCD_DrawChar>
  206a82:	2070      	movs	r0, #112	; 0x70
  206a84:	21c0      	movs	r1, #192	; 0xc0
  206a86:	223a      	movs	r2, #58	; 0x3a
  206a88:	f7f9 fd0e 	bl	2004a8 <GLCD_DrawChar>
  206a8c:	f24c 6018 	movw	r0, #50712	; 0xc618
  206a90:	f240 0116 	movw	r1, #22
  206a94:	f6cf 70ff 	movt	r0, #65535	; 0xffff
  206a98:	f6c2 0120 	movt	r1, #10272	; 0x2820
  206a9c:	8008      	strh	r0, [r1, #0]
  206a9e:	2090      	movs	r0, #144	; 0x90
  206aa0:	2190      	movs	r1, #144	; 0x90
  206aa2:	2280      	movs	r2, #128	; 0x80
  206aa4:	f7f9 fd00 	bl	2004a8 <GLCD_DrawChar>
  206aa8:	20a0      	movs	r0, #160	; 0xa0
  206aaa:	2190      	movs	r1, #144	; 0x90
  206aac:	2280      	movs	r2, #128	; 0x80
  206aae:	f7f9 fcfb 	bl	2004a8 <GLCD_DrawChar>
  206ab2:	2090      	movs	r0, #144	; 0x90
  206ab4:	21a8      	movs	r1, #168	; 0xa8
  206ab6:	2280      	movs	r2, #128	; 0x80
  206ab8:	f7f9 fcf6 	bl	2004a8 <GLCD_DrawChar>
  206abc:	20a0      	movs	r0, #160	; 0xa0
  206abe:	21a8      	movs	r1, #168	; 0xa8
  206ac0:	2280      	movs	r2, #128	; 0x80
  206ac2:	f7f9 fcf1 	bl	2004a8 <GLCD_DrawChar>
  206ac6:	2090      	movs	r0, #144	; 0x90
  206ac8:	21c0      	movs	r1, #192	; 0xc0
  206aca:	2280      	movs	r2, #128	; 0x80
  206acc:	f7f9 fcec 	bl	2004a8 <GLCD_DrawChar>
  206ad0:	f24d 008f 	movw	r0, #53391	; 0xd08f
  206ad4:	f2c0 0003 	movt	r0, #3
  206ad8:	6068      	str	r0, [r5, #4]
  206ada:	f64e 5023 	movw	r0, #60707	; 0xed23
  206ade:	f2ce 0000 	movt	r0, #57344	; 0xe000
  206ae2:	21e0      	movs	r1, #224	; 0xe0
  206ae4:	7001      	strb	r1, [r0, #0]
  206ae6:	2100      	movs	r1, #0
  206ae8:	2007      	movs	r0, #7
  206aea:	f240 0918 	movw	r9, #24
  206aee:	60a9      	str	r1, [r5, #8]
  206af0:	6028      	str	r0, [r5, #0]
  206af2:	f6c2 0920 	movt	r9, #10272	; 0x2820
  206af6:	200a      	movs	r0, #10
  206af8:	e9c9 0100 	strd	r0, r1, [r9]
  206afc:	f04f 30ff 	mov.w	r0, #4294967295
  206b00:	9004      	str	r0, [sp, #16]
  206b02:	f240 0700 	movw	r7, #0
  206b06:	2001      	movs	r0, #1
  206b08:	f10d 0a1d 	add.w	sl, sp, #29
  206b0c:	2500      	movs	r5, #0
  206b0e:	f6c2 0720 	movt	r7, #10272	; 0x2820
  206b12:	9003      	str	r0, [sp, #12]
  206b14:	f04f 34ff 	mov.w	r4, #4294967295
  206b18:	e006      	b.n	206b28 <main+0x8f4>
  206b1a:	bf00      	nop
  206b1c:	e9d9 0100 	ldrd	r0, r1, [r9]
  206b20:	4644      	mov	r4, r8
  206b22:	4308      	orrs	r0, r1
  206b24:	f000 8159 	beq.w	206dda <main+0xba6>
  206b28:	f240 0004 	movw	r0, #4
  206b2c:	f6c2 0020 	movt	r0, #10272	; 0x2820
  206b30:	7800      	ldrb	r0, [r0, #0]
  206b32:	2801      	cmp	r0, #1
  206b34:	d124      	bne.n	206b80 <main+0x94c>
  206b36:	f240 0104 	movw	r1, #4
  206b3a:	2d01      	cmp	r5, #1
  206b3c:	f04f 0000 	mov.w	r0, #0
  206b40:	f6c2 0120 	movt	r1, #10272	; 0x2820
  206b44:	7008      	strb	r0, [r1, #0]
  206b46:	d806      	bhi.n	206b56 <main+0x922>
  206b48:	f856 0c18 	ldr.w	r0, [r6, #-24]
  206b4c:	2101      	movs	r1, #1
  206b4e:	40a9      	lsls	r1, r5
  206b50:	4308      	orrs	r0, r1
  206b52:	f846 0c18 	str.w	r0, [r6, #-24]
  206b56:	2090      	movs	r0, #144	; 0x90
  206b58:	f240 0116 	movw	r1, #22
  206b5c:	eb00 1005 	add.w	r0, r0, r5, lsl #4
  206b60:	f6c2 0120 	movt	r1, #10272	; 0x2820
  206b64:	f44f 62fc 	mov.w	r2, #2016	; 0x7e0
  206b68:	800a      	strh	r2, [r1, #0]
  206b6a:	2190      	movs	r1, #144	; 0x90
  206b6c:	2281      	movs	r2, #129	; 0x81
  206b6e:	f7f9 fc9b 	bl	2004a8 <GLCD_DrawChar>
  206b72:	e9d9 0100 	ldrd	r0, r1, [r9]
  206b76:	3801      	subs	r0, #1
  206b78:	f161 0100 	sbc.w	r1, r1, #0
  206b7c:	e9c9 0100 	strd	r0, r1, [r9]
  206b80:	7838      	ldrb	r0, [r7, #0]
  206b82:	2801      	cmp	r0, #1
  206b84:	d130      	bne.n	206be8 <main+0x9b4>
  206b86:	2d01      	cmp	r5, #1
  206b88:	f04f 0000 	mov.w	r0, #0
  206b8c:	7038      	strb	r0, [r7, #0]
  206b8e:	d806      	bhi.n	206b9e <main+0x96a>
  206b90:	f856 0c18 	ldr.w	r0, [r6, #-24]
  206b94:	2101      	movs	r1, #1
  206b96:	40a9      	lsls	r1, r5
  206b98:	4388      	bics	r0, r1
  206b9a:	f846 0c18 	str.w	r0, [r6, #-24]
  206b9e:	2090      	movs	r0, #144	; 0x90
  206ba0:	f240 0116 	movw	r1, #22
  206ba4:	eb00 1005 	add.w	r0, r0, r5, lsl #4
  206ba8:	f6c2 0120 	movt	r1, #10272	; 0x2820
  206bac:	f24c 6218 	movw	r2, #50712	; 0xc618
  206bb0:	800a      	strh	r2, [r1, #0]
  206bb2:	2190      	movs	r1, #144	; 0x90
  206bb4:	2280      	movs	r2, #128	; 0x80
  206bb6:	f7f9 fc77 	bl	2004a8 <GLCD_DrawChar>
  206bba:	9f03      	ldr	r7, [sp, #12]
  206bbc:	19ed      	adds	r5, r5, r7
  206bbe:	f087 0001 	eor.w	r0, r7, #1
  206bc2:	9505      	str	r5, [sp, #20]
  206bc4:	bf08      	it	eq
  206bc6:	2701      	moveq	r7, #1
  206bc8:	e9d9 2300 	ldrd	r2, r3, [r9]
  206bcc:	f085 0101 	eor.w	r1, r5, #1
  206bd0:	4308      	orrs	r0, r1
  206bd2:	bf08      	it	eq
  206bd4:	f04f 37ff 	moveq.w	r7, #4294967295
  206bd8:	1e50      	subs	r0, r2, #1
  206bda:	f163 0100 	sbc.w	r1, r3, #0
  206bde:	9703      	str	r7, [sp, #12]
  206be0:	e9c9 0100 	strd	r0, r1, [r9]
  206be4:	e001      	b.n	206bea <main+0x9b6>
  206be6:	bf00      	nop
  206be8:	9505      	str	r5, [sp, #20]
  206bea:	f856 5c10 	ldr.w	r5, [r6, #-16]
  206bee:	f005 0803 	and.w	r8, r5, #3
  206bf2:	45a0      	cmp	r8, r4
  206bf4:	d021      	beq.n	206c3a <main+0xa06>
  206bf6:	f015 0001 	ands.w	r0, r5, #1
  206bfa:	f100 0280 	add.w	r2, r0, #128	; 0x80
  206bfe:	f04f 0000 	mov.w	r0, #0
  206c02:	f240 0416 	movw	r4, #22
  206c06:	f24c 6718 	movw	r7, #50712	; 0xc618
  206c0a:	bf08      	it	eq
  206c0c:	4638      	moveq	r0, r7
  206c0e:	f6c2 0420 	movt	r4, #10272	; 0x2820
  206c12:	8020      	strh	r0, [r4, #0]
  206c14:	2090      	movs	r0, #144	; 0x90
  206c16:	21a8      	movs	r1, #168	; 0xa8
  206c18:	f7f9 fc46 	bl	2004a8 <GLCD_DrawChar>
  206c1c:	f015 0002 	ands.w	r0, r5, #2
  206c20:	f04f 0281 	mov.w	r2, #129	; 0x81
  206c24:	f04f 0000 	mov.w	r0, #0
  206c28:	bf08      	it	eq
  206c2a:	2280      	moveq	r2, #128	; 0x80
  206c2c:	bf08      	it	eq
  206c2e:	4638      	moveq	r0, r7
  206c30:	8020      	strh	r0, [r4, #0]
  206c32:	20a0      	movs	r0, #160	; 0xa0
  206c34:	21a8      	movs	r1, #168	; 0xa8
  206c36:	f7f9 fc37 	bl	2004a8 <GLCD_DrawChar>
  206c3a:	2040      	movs	r0, #64	; 0x40
  206c3c:	f10d 051e 	add.w	r5, sp, #30
  206c40:	f88d 001e 	strb.w	r0, [sp, #30]
  206c44:	4628      	mov	r0, r5
  206c46:	2101      	movs	r1, #1
  206c48:	2201      	movs	r2, #1
  206c4a:	f7fe fed1 	bl	2059f0 <I2C_tx>
  206c4e:	4650      	mov	r0, sl
  206c50:	2101      	movs	r1, #1
  206c52:	f7fe fa0d 	bl	205070 <I2C_rx>
  206c56:	f89d 701d 	ldrb.w	r7, [sp, #29]
  206c5a:	fa4f fb87 	sxtb.w	fp, r7
  206c5e:	f1bb 3fff 	cmp.w	fp, #4294967295
  206c62:	dc32      	bgt.n	206cca <main+0xa96>
  206c64:	20d7      	movs	r0, #215	; 0xd7
  206c66:	f88d 001d 	strb.w	r0, [sp, #29]
  206c6a:	204c      	movs	r0, #76	; 0x4c
  206c6c:	f88d 001e 	strb.w	r0, [sp, #30]
  206c70:	4628      	mov	r0, r5
  206c72:	2101      	movs	r1, #1
  206c74:	2201      	movs	r2, #1
  206c76:	f7fe febb 	bl	2059f0 <I2C_tx>
  206c7a:	a807      	add	r0, sp, #28
  206c7c:	2101      	movs	r1, #1
  206c7e:	f7fe f9f7 	bl	205070 <I2C_rx>
  206c82:	f89d 501c 	ldrb.w	r5, [sp, #28]
  206c86:	2d00      	cmp	r5, #0
  206c88:	f000 8093 	beq.w	206db2 <main+0xb7e>
  206c8c:	ac06      	add	r4, sp, #24
  206c8e:	bf00      	nop
  206c90:	4650      	mov	r0, sl
  206c92:	2101      	movs	r1, #1
  206c94:	2201      	movs	r2, #1
  206c96:	3d01      	subs	r5, #1
  206c98:	f7fe feaa 	bl	2059f0 <I2C_tx>
  206c9c:	4620      	mov	r0, r4
  206c9e:	2104      	movs	r1, #4
  206ca0:	f7fe f9e6 	bl	205070 <I2C_rx>
  206ca4:	0628      	lsls	r0, r5, #24
  206ca6:	d1f3      	bne.n	206c90 <main+0xa5c>
  206ca8:	f89d 0018 	ldrb.w	r0, [sp, #24]
  206cac:	f89d 1019 	ldrb.w	r1, [sp, #25]
  206cb0:	0100      	lsls	r0, r0, #4
  206cb2:	ea40 1011 	orr.w	r0, r0, r1, lsr #4
  206cb6:	f89d 201a 	ldrb.w	r2, [sp, #26]
  206cba:	9002      	str	r0, [sp, #8]
  206cbc:	f001 000f 	and.w	r0, r1, #15
  206cc0:	ea42 2000 	orr.w	r0, r2, r0, lsl #8
  206cc4:	f10d 051e 	add.w	r5, sp, #30
  206cc8:	9001      	str	r0, [sp, #4]
  206cca:	f641 700b 	movw	r0, #7947	; 0x1f0b
  206cce:	f8ad 001e 	strh.w	r0, [sp, #30]
  206cd2:	4628      	mov	r0, r5
  206cd4:	2102      	movs	r1, #2
  206cd6:	2200      	movs	r2, #0
  206cd8:	ea4f 19d7 	mov.w	r9, r7, lsr #7
  206cdc:	f7fe fe88 	bl	2059f0 <I2C_tx>
  206ce0:	9804      	ldr	r0, [sp, #16]
  206ce2:	4548      	cmp	r0, r9
  206ce4:	d061      	beq.n	206daa <main+0xb76>
  206ce6:	9902      	ldr	r1, [sp, #8]
  206ce8:	f1bb 0f00 	cmp.w	fp, #0
  206cec:	b209      	sxth	r1, r1
  206cee:	f04f 0000 	mov.w	r0, #0
  206cf2:	bf48      	it	mi
  206cf4:	2001      	movmi	r0, #1
  206cf6:	f5b1 7ffa 	cmp.w	r1, #500	; 0x1f4
  206cfa:	f04f 0200 	mov.w	r2, #0
  206cfe:	bfa8      	it	ge
  206d00:	2201      	movge	r2, #1
  206d02:	f5b1 7f7a 	cmp.w	r1, #1000	; 0x3e8
  206d06:	f04f 0100 	mov.w	r1, #0
  206d0a:	ea00 0002 	and.w	r0, r0, r2
  206d0e:	bfd8      	it	le
  206d10:	2101      	movle	r1, #1
  206d12:	9a01      	ldr	r2, [sp, #4]
  206d14:	4008      	ands	r0, r1
  206d16:	b212      	sxth	r2, r2
  206d18:	f240 2125 	movw	r1, #549	; 0x225
  206d1c:	428a      	cmp	r2, r1
  206d1e:	f04f 0100 	mov.w	r1, #0
  206d22:	bfc8      	it	gt
  206d24:	2101      	movgt	r1, #1
  206d26:	4008      	ands	r0, r1
  206d28:	f240 610f 	movw	r1, #1551	; 0x60f
  206d2c:	428a      	cmp	r2, r1
  206d2e:	f04f 0100 	mov.w	r1, #0
  206d32:	bfb8      	it	lt
  206d34:	2101      	movlt	r1, #1
  206d36:	ea10 0401 	ands.w	r4, r0, r1
  206d3a:	4620      	mov	r0, r4
  206d3c:	f240 0516 	movw	r5, #22
  206d40:	f24c 6118 	movw	r1, #50712	; 0xc618
  206d44:	bf18      	it	ne
  206d46:	4608      	movne	r0, r1
  206d48:	f6c2 0520 	movt	r5, #10272	; 0x2820
  206d4c:	8028      	strh	r0, [r5, #0]
  206d4e:	2020      	movs	r0, #32
  206d50:	21c0      	movs	r1, #192	; 0xc0
  206d52:	2254      	movs	r2, #84	; 0x54
  206d54:	f7f9 fba8 	bl	2004a8 <GLCD_DrawChar>
  206d58:	2030      	movs	r0, #48	; 0x30
  206d5a:	21c0      	movs	r1, #192	; 0xc0
  206d5c:	226f      	movs	r2, #111	; 0x6f
  206d5e:	f7f9 fba3 	bl	2004a8 <GLCD_DrawChar>
  206d62:	2040      	movs	r0, #64	; 0x40
  206d64:	21c0      	movs	r1, #192	; 0xc0
  206d66:	2275      	movs	r2, #117	; 0x75
  206d68:	f7f9 fb9e 	bl	2004a8 <GLCD_DrawChar>
  206d6c:	2050      	movs	r0, #80	; 0x50
  206d6e:	21c0      	movs	r1, #192	; 0xc0
  206d70:	2263      	movs	r2, #99	; 0x63
  206d72:	f7f9 fb99 	bl	2004a8 <GLCD_DrawChar>
  206d76:	2060      	movs	r0, #96	; 0x60
  206d78:	21c0      	movs	r1, #192	; 0xc0
  206d7a:	2268      	movs	r2, #104	; 0x68
  206d7c:	f7f9 fb94 	bl	2004a8 <GLCD_DrawChar>
  206d80:	2070      	movs	r0, #112	; 0x70
  206d82:	21c0      	movs	r1, #192	; 0xc0
  206d84:	223a      	movs	r2, #58	; 0x3a
  206d86:	f7f9 fb8f 	bl	2004a8 <GLCD_DrawChar>
  206d8a:	2280      	movs	r2, #128	; 0x80
  206d8c:	f24c 6018 	movw	r0, #50712	; 0xc618
  206d90:	2c00      	cmp	r4, #0
  206d92:	bf18      	it	ne
  206d94:	2281      	movne	r2, #129	; 0x81
  206d96:	bf18      	it	ne
  206d98:	f64f 70e0 	movwne	r0, #65504	; 0xffe0
  206d9c:	8028      	strh	r0, [r5, #0]
  206d9e:	2090      	movs	r0, #144	; 0x90
  206da0:	21c0      	movs	r1, #192	; 0xc0
  206da2:	f7f9 fb81 	bl	2004a8 <GLCD_DrawChar>
  206da6:	f8cd 9010 	str.w	r9, [sp, #16]
  206daa:	f240 0918 	movw	r9, #24
  206dae:	f6c2 0920 	movt	r9, #10272	; 0x2820
  206db2:	f240 0020 	movw	r0, #32
  206db6:	f6c2 0020 	movt	r0, #10272	; 0x2820
  206dba:	7800      	ldrb	r0, [r0, #0]
  206dbc:	9d05      	ldr	r5, [sp, #20]
  206dbe:	f240 0700 	movw	r7, #0
  206dc2:	f6c2 0720 	movt	r7, #10272	; 0x2820
  206dc6:	2801      	cmp	r0, #1
  206dc8:	f47f aea8 	bne.w	206b1c <main+0x8e8>
  206dcc:	f240 0120 	movw	r1, #32
  206dd0:	2000      	movs	r0, #0
  206dd2:	f6c2 0120 	movt	r1, #10272	; 0x2820
  206dd6:	7008      	strb	r0, [r1, #0]
  206dd8:	e6a0      	b.n	206b1c <main+0x8e8>
  206dda:	f241 0004 	movw	r0, #4100	; 0x1004
  206dde:	f2ce 0000 	movt	r0, #57344	; 0xe000
  206de2:	6800      	ldr	r0, [r0, #0]
  206de4:	f000 f826 	bl	206e34 <main+0xc00>
  206de8:	e7fe      	b.n	206de8 <main+0xbb4>
  206dea:	bf00      	nop
  206dec:	6f432020 	.word	0x6f432020
  206df0:	78657472 	.word	0x78657472
  206df4:	33334d2d 	.word	0x33334d2d
  206df8:	20202020 	.word	0x20202020
  206dfc:	20202020 	.word	0x20202020
  206e00:	00000000 	.word	0x00000000
  206e04:	6e752020 	.word	0x6e752020
  206e08:	776f6e6b 	.word	0x776f6e6b
  206e0c:	6f43206e 	.word	0x6f43206e
  206e10:	78657472 	.word	0x78657472
  206e14:	20204d2d 	.word	0x20204d2d
  206e18:	00000000 	.word	0x00000000
  206e1c:	6f432020 	.word	0x6f432020
  206e20:	78657472 	.word	0x78657472
  206e24:	33324d2d 	.word	0x33324d2d
  206e28:	20202020 	.word	0x20202020
  206e2c:	20202020 	.word	0x20202020
  206e30:	00000000 	.word	0x00000000
  206e34:	f64f 6c21 	movw	ip, #65057	; 0xfe21
  206e38:	f2c1 0c1f 	movt	ip, #4127	; 0x101f
  206e3c:	4760      	bx	ip

00206e3e <_fp_init>:
  206e3e:	eef1 0a10 	vmrs	r0, fpscr
  206e42:	f64f 71ff 	movw	r1, #65535	; 0xffff
  206e46:	f2c0 31c0 	movt	r1, #960	; 0x3c0
  206e4a:	ea20 0001 	bic.w	r0, r0, r1
  206e4e:	f040 7040 	orr.w	r0, r0, #50331648	; 0x3000000
  206e52:	eee1 0a10 	vmsr	fpscr, r0

00206e56 <__fplib_config_fpu_vfp>:
  206e56:	4770      	bx	lr

00206e58 <Font_16x24_h>:
	...
  206e88:	0000 0180 0180 0180 0180 0180 0180 0180     ................
  206e98:	0180 0180 0180 0180 0180 0180 0000 0000     ................
  206ea8:	0180 0180 0000 0000 0000 0000 0000 0000     ................
  206eb8:	0000 0000 00cc 00cc 00cc 00cc 00cc 00cc     ................
	...
  206ef4:	0c60 0c60 0c60 0630 0630 1ffe 1ffe 0630     `.`.`.0.0.....0.
  206f04:	0738 0318 1ffe 1ffe 0318 0318 018c 018c     8...............
  206f14:	018c 0000 0000 0080 03e0 0ff8 0e9c 1c8c     ................
  206f24:	188c 008c 0098 01f8 07e0 0e80 1c80 188c     ................
  206f34:	188c 189c 0cb8 0ff0 03e0 0080 0080 0000     ................
	...
  206f4c:	0000 180e 0c1b 0c11 0611 0611 0311 0311     ................
  206f5c:	019b 018e 38c0 6cc0 4460 4460 4430 4430     .....8.l`D`D0D0D
  206f6c:	4418 6c18 380c 0000 0000 0000 0000 01e0     .D.l.8..........
  206f7c:	03f0 0738 0618 0618 0330 01f0 00f0 00f8     ..8.....0.......
  206f8c:	319c 330e 1e06 1c06 1c06 3f06 73fc 21f0     .1.3.......?.s.!
	...
  206fac:	000c 000c 000c 000c 000c 000c 0000 0000     ................
	...
  206fd8:	0000 0200 0300 0180 00c0 00c0 0060 0060     ............`.`.
  206fe8:	0030 0030 0030 0030 0030 0030 0030 0030     0.0.0.0.0.0.0.0.
  206ff8:	0060 0060 00c0 00c0 0180 0300 0200 0000     `.`.............
  207008:	0000 0020 0060 00c0 0180 0180 0300 0300     .. .`...........
  207018:	0600 0600 0600 0600 0600 0600 0600 0600     ................
  207028:	0300 0300 0180 0180 00c0 0060 0020 0000     ..........`. ...
	...
  207044:	00c0 00c0 06d8 07f8 01e0 0330 0738 0000     ..........0.8...
	...
  207074:	0180 0180 0180 0180 0180 3ffc 3ffc 0180     ...........?.?..
  207084:	0180 0180 0180 0180 0000 0000 0000 0000     ................
	...
  2070b8:	0000 0180 0180 0100 0100 0080 0000 0000     ................
	...
  2070e0:	07e0 07e0 0000 0000 0000 0000 0000 0000     ................
	...
  207118:	0000 00c0 00c0 0000 0000 0000 0000 0000     ................
  207128:	0000 0c00 0c00 0600 0600 0600 0300 0300     ................
  207138:	0300 0380 0180 0180 0180 00c0 00c0 00c0     ................
  207148:	0060 0060 0000 0000 0000 0000 0000 0000     `.`.............
  207158:	0000 03e0 07f0 0e38 0c18 180c 180c 180c     ......8.........
  207168:	180c 180c 180c 180c 180c 180c 0c18 0e38     ..............8.
  207178:	07f0 03e0 0000 0000 0000 0000 0000 0000     ................
  207188:	0000 0100 0180 01c0 01f0 0198 0188 0180     ................
  207198:	0180 0180 0180 0180 0180 0180 0180 0180     ................
  2071a8:	0180 0180 0000 0000 0000 0000 0000 0000     ................
  2071b8:	0000 03e0 0ff8 0c18 180c 180c 1800 1800     ................
  2071c8:	0c00 0600 0300 0180 00c0 0060 0030 0018     ..........`.0...
  2071d8:	1ffc 1ffc 0000 0000 0000 0000 0000 0000     ................
  2071e8:	0000 01e0 07f8 0e18 0c0c 0c0c 0c00 0600     ................
  2071f8:	03c0 07c0 0c00 1800 1800 180c 180c 0c18     ................
  207208:	07f8 03e0 0000 0000 0000 0000 0000 0000     ................
  207218:	0000 0c00 0e00 0f00 0f00 0d80 0cc0 0c60     ..............`.
  207228:	0c60 0c30 0c18 0c0c 3ffc 3ffc 0c00 0c00     `.0......?.?....
  207238:	0c00 0c00 0000 0000 0000 0000 0000 0000     ................
  207248:	0000 0ff8 0ff8 0018 0018 000c 03ec 07fc     ................
  207258:	0e1c 1c00 1800 1800 1800 180c 0c1c 0e18     ................
  207268:	07f8 03e0 0000 0000 0000 0000 0000 0000     ................
  207278:	0000 07c0 0ff0 1c38 1818 0018 000c 03cc     ......8.........
  207288:	0fec 0e3c 1c1c 180c 180c 180c 1c18 0e38     ..<...........8.
  207298:	07f0 03e0 0000 0000 0000 0000 0000 0000     ................
  2072a8:	0000 1ffc 1ffc 0c00 0600 0600 0300 0380     ................
  2072b8:	0180 01c0 00c0 00e0 0060 0060 0070 0030     ........`.`.p.0.
  2072c8:	0030 0030 0000 0000 0000 0000 0000 0000     0.0.............
  2072d8:	0000 03e0 07f0 0e38 0c18 0c18 0c18 0638     ......8.......8.
  2072e8:	07f0 07f0 0c18 180c 180c 180c 180c 0c38     ..............8.
  2072f8:	0ff8 03e0 0000 0000 0000 0000 0000 0000     ................
  207308:	0000 03e0 07f0 0e38 0c1c 180c 180c 180c     ......8.........
  207318:	1c1c 1e38 1bf8 19e0 1800 0c00 0c00 0e1c     ..8.............
  207328:	07f8 01f0 0000 0000 0000 0000 0000 0000     ................
	...
  207344:	0180 0180 0000 0000 0000 0000 0000 0000     ................
  207354:	0000 0000 0180 0180 0000 0000 0000 0000     ................
	...
  207374:	0180 0180 0000 0000 0000 0000 0000 0000     ................
  207384:	0000 0000 0180 0180 0100 0100 0080 0000     ................
	...
  2073a8:	1000 1c00 0f80 03e0 00f8 0018 00f8 03e0     ................
  2073b8:	0f80 1c00 1000 0000 0000 0000 0000 0000     ................
	...
  2073d8:	1ff8 0000 0000 0000 1ff8 0000 0000 0000     ................
	...
  207408:	0008 0038 01f0 07c0 1f00 1800 1f00 07c0     ..8.............
  207418:	01f0 0038 0008 0000 0000 0000 0000 0000     ..8.............
  207428:	0000 03e0 0ff8 0c18 180c 180c 1800 0c00     ................
  207438:	0600 0300 0180 00c0 00c0 00c0 0000 0000     ................
  207448:	00c0 00c0 0000 0000 0000 0000 0000 0000     ................
  207458:	0000 0000 07e0 1818 2004 29c2 4a22 4411     ......... .)"J.D
  207468:	4409 4409 4409 2209 1311 0ce2 4002 2004     .D.D.D.".....@. 
  207478:	1818 07e0 0000 0000 0000 0000 0000 0000     ................
  207488:	0000 0380 0380 06c0 06c0 06c0 0c60 0c60     ............`.`.
  207498:	1830 1830 1830 3ff8 3ff8 701c 600c 600c     0.0.0..?.?.p.`.`
  2074a8:	c006 c006 0000 0000 0000 0000 0000 0000     ................
  2074b8:	0000 03fc 0ffc 0c0c 180c 180c 180c 0c0c     ................
  2074c8:	07fc 0ffc 180c 300c 300c 300c 300c 180c     .......0.0.0.0..
  2074d8:	1ffc 07fc 0000 0000 0000 0000 0000 0000     ................
  2074e8:	0000 07c0 1ff0 3838 301c 700c 6006 0006     ......88.0.p.`..
  2074f8:	0006 0006 0006 0006 0006 6006 700c 301c     ...........`.p.0
  207508:	1ff0 07e0 0000 0000 0000 0000 0000 0000     ................
  207518:	0000 03fe 0ffe 0e06 1806 1806 3006 3006     .............0.0
  207528:	3006 3006 3006 3006 3006 1806 1806 0e06     .0.0.0.0.0......
  207538:	0ffe 03fe 0000 0000 0000 0000 0000 0000     ................
  207548:	0000 3ffc 3ffc 000c 000c 000c 000c 000c     ...?.?..........
  207558:	1ffc 1ffc 000c 000c 000c 000c 000c 000c     ................
  207568:	3ffc 3ffc 0000 0000 0000 0000 0000 0000     .?.?............
  207578:	0000 3ff8 3ff8 0018 0018 0018 0018 0018     ...?.?..........
  207588:	1ff8 1ff8 0018 0018 0018 0018 0018 0018     ................
  207598:	0018 0018 0000 0000 0000 0000 0000 0000     ................
  2075a8:	0000 0fe0 3ff8 783c 600e e006 c007 0003     .....?<x.`......
  2075b8:	0003 fe03 fe03 c003 c007 c006 c00e f03c     ..............<.
  2075c8:	3ff8 0fe0 0000 0000 0000 0000 0000 0000     .?..............
  2075d8:	0000 300c 300c 300c 300c 300c 300c 300c     ...0.0.0.0.0.0.0
  2075e8:	3ffc 3ffc 300c 300c 300c 300c 300c 300c     .?.?.0.0.0.0.0.0
  2075f8:	300c 300c 0000 0000 0000 0000 0000 0000     .0.0............
  207608:	0000 0180 0180 0180 0180 0180 0180 0180     ................
  207618:	0180 0180 0180 0180 0180 0180 0180 0180     ................
  207628:	0180 0180 0000 0000 0000 0000 0000 0000     ................
  207638:	0000 0600 0600 0600 0600 0600 0600 0600     ................
  207648:	0600 0600 0600 0600 0600 0618 0618 0738     ..............8.
  207658:	03f0 01e0 0000 0000 0000 0000 0000 0000     ................
  207668:	0000 3006 1806 0c06 0606 0306 0186 00c6     ...0............
  207678:	0066 0076 00de 018e 0306 0606 0c06 1806     f.v.............
  207688:	3006 6006 0000 0000 0000 0000 0000 0000     .0.`............
  207698:	0000 0018 0018 0018 0018 0018 0018 0018     ................
  2076a8:	0018 0018 0018 0018 0018 0018 0018 0018     ................
  2076b8:	1ff8 1ff8 0000 0000 0000 0000 0000 0000     ................
  2076c8:	0000 e00e f01e f01e f01e d836 d836 d836     ..........6.6.6.
  2076d8:	d836 cc66 cc66 cc66 c6c6 c6c6 c6c6 c6c6     6.f.f.f.........
  2076e8:	c386 c386 0000 0000 0000 0000 0000 0000     ................
  2076f8:	0000 300c 301c 303c 303c 306c 306c 30cc     ...0.0<0<0l0l0.0
  207708:	30cc 318c 330c 330c 360c 360c 3c0c 3c0c     .0.1.3.3.6.6.<.<
  207718:	380c 300c 0000 0000 0000 0000 0000 0000     .8.0............
  207728:	0000 07e0 1ff8 381c 700e 6006 c003 c003     .......8.p.`....
  207738:	c003 c003 c003 c003 c003 6006 700e 381c     ...........`.p.8
  207748:	1ff8 07e0 0000 0000 0000 0000 0000 0000     ................
  207758:	0000 0ffc 1ffc 380c 300c 300c 300c 300c     .......8.0.0.0.0
  207768:	180c 1ffc 07fc 000c 000c 000c 000c 000c     ................
  207778:	000c 000c 0000 0000 0000 0000 0000 0000     ................
  207788:	0000 07e0 1ff8 381c 700e 6006 e003 c003     .......8.p.`....
  207798:	c003 c003 c003 c003 e007 6306 3f0e 3c1c     ...........c.?.<
  2077a8:	3ff8 f7e0 c000 0000 0000 0000 0000 0000     .?..............
  2077b8:	0000 0ffe 1ffe 3806 3006 3006 3006 3806     .......8.0.0.0.8
  2077c8:	1ffe 07fe 0306 0606 0c06 1806 1806 3006     ...............0
  2077d8:	3006 6006 0000 0000 0000 0000 0000 0000     .0.`............
  2077e8:	0000 03e0 0ff8 0c1c 180c 180c 000c 001c     ................
  2077f8:	03f8 0fe0 1e00 3800 3006 3006 300e 1c1c     .......8.0.0.0..
  207808:	0ff8 07e0 0000 0000 0000 0000 0000 0000     ................
  207818:	0000 7ffe 7ffe 0180 0180 0180 0180 0180     ................
  207828:	0180 0180 0180 0180 0180 0180 0180 0180     ................
  207838:	0180 0180 0000 0000 0000 0000 0000 0000     ................
  207848:	0000 300c 300c 300c 300c 300c 300c 300c     ...0.0.0.0.0.0.0
  207858:	300c 300c 300c 300c 300c 300c 300c 1818     .0.0.0.0.0.0.0..
  207868:	1ff8 07e0 0000 0000 0000 0000 0000 0000     ................
  207878:	0000 6003 3006 3006 3006 180c 180c 180c     ...`.0.0.0......
  207888:	0c18 0c18 0e38 0630 0630 0770 0360 0360     ....8.0.0.p.`.`.
  207898:	01c0 01c0 0000 0000 0000 0000 0000 0000     ................
  2078a8:	0000 6003 61c3 61c3 61c3 3366 3366 3366     ...`.a.a.af3f3f3
  2078b8:	3366 3366 3366 1b6c 1b6c 1b6c 1a2c 1e3c     f3f3f3l.l.l.,.<.
  2078c8:	0e38 0e38 0000 0000 0000 0000 0000 0000     8.8.............
  2078d8:	0000 e00f 700c 3018 1830 0c70 0e60 07c0     .....p.00.p.`...
  2078e8:	0380 0380 03c0 06e0 0c70 1c30 1818 300c     ........p.0....0
  2078f8:	600e e007 0000 0000 0000 0000 0000 0000     .`..............
  207908:	0000 c003 6006 300c 381c 1838 0c30 0660     .....`.0.88.0.`.
  207918:	07e0 03c0 0180 0180 0180 0180 0180 0180     ................
  207928:	0180 0180 0000 0000 0000 0000 0000 0000     ................
  207938:	0000 7ffc 7ffc 6000 3000 1800 0c00 0600     .......`.0......
  207948:	0300 0180 00c0 0060 0030 0018 000c 0006     ......`.0.......
  207958:	7ffe 7ffe 0000 0000 0000 0000 0000 0000     ................
  207968:	0000 03e0 03e0 0060 0060 0060 0060 0060     ......`.`.`.`.`.
  207978:	0060 0060 0060 0060 0060 0060 0060 0060     `.`.`.`.`.`.`.`.
  207988:	0060 0060 0060 0060 0060 03e0 03e0 0000     `.`.`.`.`.......
  207998:	0000 0030 0030 0060 0060 0060 00c0 00c0     ..0.0.`.`.`.....
  2079a8:	00c0 01c0 0180 0180 0180 0300 0300 0300     ................
  2079b8:	0600 0600 0000 0000 0000 0000 0000 0000     ................
  2079c8:	0000 03e0 03e0 0300 0300 0300 0300 0300     ................
  2079d8:	0300 0300 0300 0300 0300 0300 0300 0300     ................
  2079e8:	0300 0300 0300 0300 0300 03e0 03e0 0000     ................
  2079f8:	0000 0000 01c0 01c0 0360 0360 0360 0630     ........`.`.`.0.
  207a08:	0630 0c18 0c18 0000 0000 0000 0000 0000     0...............
	...
  207a48:	0000 ffff ffff 0000 0000 0000 0000 0000     ................
  207a58:	0000 000c 000c 000c 000c 000c 000c 0000     ................
	...
  207a94:	03f0 07f8 0c1c 0c0c 0f00 0ff0 0cf8 0c0c     ................
  207aa4:	0c0c 0f1c 0ff8 18f0 0000 0000 0000 0000     ................
  207ab4:	0000 0000 0000 0018 0018 0018 0018 0018     ................
  207ac4:	03d8 0ff8 0c38 1818 1818 1818 1818 1818     ....8...........
  207ad4:	1818 0c38 0ff8 03d8 0000 0000 0000 0000     ..8.............
	...
  207af4:	03c0 07f0 0e30 0c18 0018 0018 0018 0018     ....0...........
  207b04:	0c18 0e30 07f0 03c0 0000 0000 0000 0000     ..0.............
  207b14:	0000 0000 0000 1800 1800 1800 1800 1800     ................
  207b24:	1bc0 1ff0 1c30 1818 1818 1818 1818 1818     ....0...........
  207b34:	1818 1c30 1ff0 1bc0 0000 0000 0000 0000     ..0.............
	...
  207b54:	03c0 0ff0 0c30 1818 1ff8 1ff8 0018 0018     ....0...........
  207b64:	1838 1c30 0ff0 07c0 0000 0000 0000 0000     8.0.............
  207b74:	0000 0000 0000 0f80 0fc0 00c0 00c0 00c0     ................
  207b84:	07f0 07f0 00c0 00c0 00c0 00c0 00c0 00c0     ................
  207b94:	00c0 00c0 00c0 00c0 0000 0000 0000 0000     ................
	...
  207bb4:	0de0 0ff8 0e18 0c0c 0c0c 0c0c 0c0c 0c0c     ................
  207bc4:	0c0c 0e18 0ff8 0de0 0c00 0c0c 061c 07f8     ................
  207bd4:	01f0 0000 0000 0018 0018 0018 0018 0018     ................
  207be4:	07d8 0ff8 1c38 1818 1818 1818 1818 1818     ....8...........
  207bf4:	1818 1818 1818 1818 0000 0000 0000 0000     ................
  207c04:	0000 0000 0000 00c0 00c0 0000 0000 0000     ................
  207c14:	00c0 00c0 00c0 00c0 00c0 00c0 00c0 00c0     ................
  207c24:	00c0 00c0 00c0 00c0 0000 0000 0000 0000     ................
  207c34:	0000 0000 0000 00c0 00c0 0000 0000 0000     ................
  207c44:	00c0 00c0 00c0 00c0 00c0 00c0 00c0 00c0     ................
  207c54:	00c0 00c0 00c0 00c0 00c0 00c0 00c0 00f8     ................
  207c64:	0078 0000 0000 000c 000c 000c 000c 000c     x...............
  207c74:	0c0c 060c 030c 018c 00cc 006c 00fc 019c     ..........l.....
  207c84:	038c 030c 060c 0c0c 0000 0000 0000 0000     ................
  207c94:	0000 0000 0000 00c0 00c0 00c0 00c0 00c0     ................
  207ca4:	00c0 00c0 00c0 00c0 00c0 00c0 00c0 00c0     ................
  207cb4:	00c0 00c0 00c0 00c0 0000 0000 0000 0000     ................
	...
  207cd4:	3c7c 7eff e3c7 c183 c183 c183 c183 c183     |<.~............
  207ce4:	c183 c183 c183 c183 0000 0000 0000 0000     ................
	...
  207d04:	0798 0ff8 1c38 1818 1818 1818 1818 1818     ....8...........
  207d14:	1818 1818 1818 1818 0000 0000 0000 0000     ................
	...
  207d34:	03c0 0ff0 0c30 1818 1818 1818 1818 1818     ....0...........
  207d44:	1818 0c30 0ff0 03c0 0000 0000 0000 0000     ..0.............
	...
  207d64:	03d8 0ff8 0c38 1818 1818 1818 1818 1818     ....8...........
  207d74:	1818 0c38 0ff8 03d8 0018 0018 0018 0018     ..8.............
  207d84:	0018 0000 0000 0000 0000 0000 0000 0000     ................
  207d94:	1bc0 1ff0 1c30 1818 1818 1818 1818 1818     ....0...........
  207da4:	1818 1c30 1ff0 1bc0 1800 1800 1800 1800     ..0.............
  207db4:	1800 0000 0000 0000 0000 0000 0000 0000     ................
  207dc4:	07b0 03f0 0070 0030 0030 0030 0030 0030     ....p.0.0.0.0.0.
  207dd4:	0030 0030 0030 0030 0000 0000 0000 0000     0.0.0.0.........
	...
  207df4:	03e0 03f0 0e38 0c18 0038 03f0 07c0 0c00     ....8...8.......
  207e04:	0c18 0e38 07f0 03e0 0000 0000 0000 0000     ..8.............
	...
  207e1c:	0080 00c0 00c0 00c0 07f0 07f0 00c0 00c0     ................
  207e2c:	00c0 00c0 00c0 00c0 00c0 00c0 07c0 0780     ................
	...
  207e54:	1818 1818 1818 1818 1818 1818 1818 1818     ................
  207e64:	1818 1c38 1ff0 19e0 0000 0000 0000 0000     ..8.............
	...
  207e84:	180c 0c18 0c18 0c18 0630 0630 0630 0360     ........0.0.0.`.
  207e94:	0360 0360 01c0 01c0 0000 0000 0000 0000     `.`.............
	...
  207eb4:	41c1 41c1 61c3 6363 6363 6363 3636 3636     .A.A.acccccc6666
  207ec4:	3636 1c1c 1c1c 1c1c 0000 0000 0000 0000     66..............
	...
  207ee4:	381c 1c38 0c30 0660 03c0 03c0 03c0 03c0     .88.0.`.........
  207ef4:	0660 0c30 1c38 381c 0000 0000 0000 0000     `.0.8..8........
	...
  207f14:	3018 1830 1830 1870 0c60 0c60 0ce0 06c0     .00.0.p.`.`.....
  207f24:	06c0 0380 0380 0380 0180 0180 01c0 00f0     ................
  207f34:	0070 0000 0000 0000 0000 0000 0000 0000     p...............
  207f44:	1ffc 1ffc 0c00 0600 0300 0180 00c0 0060     ..............`.
  207f54:	0030 0018 1ffc 1ffc 0000 0000 0000 0000     0...............
  207f64:	0000 0000 0000 0300 0180 00c0 00c0 00c0     ................
  207f74:	00c0 00c0 00c0 0060 0060 0030 0060 0040     ......`.`.0.`.@.
  207f84:	00c0 00c0 00c0 00c0 00c0 00c0 0180 0300     ................
  207f94:	0000 0000 0000 0180 0180 0180 0180 0180     ................
  207fa4:	0180 0180 0180 0180 0180 0180 0180 0180     ................
  207fb4:	0180 0180 0180 0180 0180 0180 0180 0180     ................
  207fc4:	0180 0000 0000 0060 00c0 01c0 0180 0180     ......`.........
  207fd4:	0180 0180 0180 0300 0300 0600 0300 0100     ................
  207fe4:	0180 0180 0180 0180 0180 0180 00c0 0060     ..............`.
	...
  208008:	10f0 1ff8 0f08 0000 0000 0000 0000 0000     ................
	...
  208060:	0000 03c0 0c30 1008 2004 2004 4002 4002     ....0.... . .@.@
  208070:	4002 4002 4002 2004 2004 1008 0c30 03c0     .@.@.@. . ..0...
	...
  208090:	0000 03c0 0ff0 1ff8 3ffc 3ffc 7ffe 7ffe     .........?.?....
  2080a0:	7ffe 7ffe 7ffe 3ffc 3ffc 1ff8 0ff0 03c0     .......?.?......
	...
  2080c4:	0000 07e0 0ff0 1818 1818 1818 1818 1818     ................
  2080d4:	1818 0ff0 07e0 0000 0000 0000 0000 0000     ................
	...
  2080f4:	0000 07e0 0ff0 1ff8 1ff8 1ff8 1ff8 1ff8     ................
  208104:	1ff8 0ff0 07e0 0000 0000 0000 0000 0000     ................
	...
  208130:	0180 03c0 0660 0c30 1818 1818 1ff8 1ff8     ....`.0.........
	...
  208160:	0180 03c0 07e0 0ff0 1ff8 1ff8 1ff8 1ff8     ................
	...
  208180:	1ff8 1ff8 1818 1818 0c30 0660 03c0 0180     ........0.`.....
	...
  2081b0:	1ff8 1ff8 1ff8 1ff8 0ff0 07e0 03c0 0180     ................
	...
  2081e4:	0000 01e0 01f0 0198 018c 0186 0186 018c     ................
  2081f4:	0198 01f0 01e0 0000 0000 0000 0000 0000     ................
	...
  208214:	0000 01e0 01f0 01f8 01fc 01fe 01fe 01fc     ................
  208224:	01f8 01f0 01e0 0000 0000 0000 0000 0000     ................
	...
  208244:	0000 0780 0f80 1980 3180 6180 6180 3180     .........1.a.a.1
  208254:	1980 0f80 0780 0000 0000 0000 0000 0000     ................
	...
  208274:	0000 0780 0f80 1f80 3f80 7f80 7f80 3f80     .........?.....?
  208284:	1f80 0f80 0780 0000 0000 0000 0000 0000     ................
  208294:	0000 0000 0000 01c0 0220 0220 0140 0630     ........ . .@.0.
  2082a4:	0808 0808 0808 0808 0808 0808 0808 0220     .............. .
  2082b4:	0220 0220 0220 0220 0220 0220 0220 0220      . . . . . . . .
  2082c4:	0220 0000 0000 01c0 03e0 03e0 01c0 07f0      ...............
  2082d4:	0dd8 0dd8 0dd8 0dd8 0dd8 0dd8 0dd8 0360     ..............`.
  2082e4:	0360 0360 0360 0360 0360 0360 0360 0360     `.`.`.`.`.`.`.`.
  2082f4:	0360 0000 0000 01c0 0220 0220 0140 0630     `....... . .@.0.
  208304:	0808 0808 0808 1004 2002 2002 0140 0220     ......... . @. .
  208314:	0220 0410 0808 0808 1004 1004 2004 4004      ............ .@
  208324:	0000 0000 0000 01c0 03e0 03e0 01c0 07f0     ................
  208334:	0dd8 0dd8 0dd8 19cc 31c6 61c2 01c0 0360     .........1.a..`.
  208344:	0360 0670 0c38 0c18 180c 180c 300c 600c     `.p.8........0.`
  208354:	0000 0000                                   ....

00208358 <GLCD_Font_16x24>:
  208358:	0010 0018 0020 0000 0070 0000 6e58 0020     .... ...p...Xn .

00208368 <.L.str.1>:
  208368:	2020 2020 2020 6c42 6e69 796b 2020 2020           Blinky    
  208378:	2020 2020                                        .

0020837d <.L.str.2>:
  20837d:	2020 7720 7777 6b2e 6965 2e6c 6f63 206d        www.keil.com 
  20838d:	2020 2020                                        .

00208392 <.L.str>:
  208392:	2020 5620 4d32 4d2d 5350 2032 6544 6f6d        V2M-MPS2 Demo
  2083a2:	2020 2020 0000                                  ..

002083a8 <Region$$Table$$Base>:
  2083a8:	002083b8 	.word	0x002083b8
  2083ac:	28200000 	.word	0x28200000
  2083b0:	00000024 	.word	0x00000024
  2083b4:	0020043c 	.word	0x0020043c
