
../../Example/out/eval/O3/elf_ns/TeeCFI_Blinky_ns_10ms.axf:     file format elf32-littlearm


Disassembly of section ER_ROM:

00200000 <__Vectors>:
  200000:	00 00 40 28 75 61 20 00 a5 04 20 00 6d 50 20 00     ..@(ua ... .mP .
  200010:	a5 04 20 00 a5 04 20 00 a5 04 20 00 a5 04 20 00     .. ... ... ... .
	...
  20002c:	a5 04 20 00 a5 04 20 00 00 00 00 00 a5 04 20 00     .. ... ....... .
  20003c:	b1 61 20 00 a5 04 20 00 a5 04 20 00 a5 04 20 00     .a ... ... ... .
  20004c:	a5 04 20 00 a5 04 20 00 a5 04 20 00 00 00 00 00     .. ... ... .....
	...
  200064:	a5 04 20 00 a5 04 20 00 a5 04 20 00 a5 04 20 00     .. ... ... ... .
	...
  2000c0:	15 62 20 00 29 62 20 00 a5 04 20 00 a5 04 20 00     .b .)b ... ... .
  2000d0:	a5 04 20 00 a5 04 20 00 a5 04 20 00 a5 04 20 00     .. ... ... ... .
  2000e0:	a5 04 20 00 a5 04 20 00 a5 04 20 00 a5 04 20 00     .. ... ... ... .
  2000f0:	a5 04 20 00 a5 04 20 00 a5 04 20 00 a5 04 20 00     .. ... ... ... .
  200100:	a5 04 20 00 a5 04 20 00 a5 04 20 00 a5 04 20 00     .. ... ... ... .
  200110:	a5 04 20 00 a5 04 20 00 a5 04 20 00 a5 04 20 00     .. ... ... ... .
  200120:	a5 04 20 00 a5 04 20 00 a5 04 20 00 a5 04 20 00     .. ... ... ... .
  200130:	a5 04 20 00 a5 04 20 00 a5 04 20 00 a5 04 20 00     .. ... ... ... .
  200140:	a5 04 20 00 a5 04 20 00 a5 04 20 00 a5 04 20 00     .. ... ... ... .
  200150:	a5 04 20 00 a5 04 20 00 a5 04 20 00 a5 04 20 00     .. ... ... ... .
  200160:	a5 04 20 00 a5 04 20 00 a5 04 20 00 a5 04 20 00     .. ... ... ... .
  200170:	a5 04 20 00 a5 04 20 00 a5 04 20 00 a5 04 20 00     .. ... ... ... .
  200180:	a5 04 20 00 a5 04 20 00 a5 04 20 00 a5 04 20 00     .. ... ... ... .
  200190:	a5 04 20 00 a5 04 20 00 a5 04 20 00 a5 04 20 00     .. ... ... ... .
  2001a0:	a5 04 20 00 a5 04 20 00 a5 04 20 00 a5 04 20 00     .. ... ... ... .
  2001b0:	a5 04 20 00 a5 04 20 00 a5 04 20 00 a5 04 20 00     .. ... ... ... .
  2001c0:	a5 04 20 00 a5 04 20 00 a5 04 20 00 a5 04 20 00     .. ... ... ... .
  2001d0:	a5 04 20 00 a5 04 20 00 a5 04 20 00 a5 04 20 00     .. ... ... ... .
  2001e0:	a5 04 20 00 a5 04 20 00 a5 04 20 00 a5 04 20 00     .. ... ... ... .
  2001f0:	a5 04 20 00 a5 04 20 00 a5 04 20 00 a5 04 20 00     .. ... ... ... .
  200200:	a5 04 20 00 a5 04 20 00 a5 04 20 00 a5 04 20 00     .. ... ... ... .
  200210:	a5 04 20 00 a5 04 20 00 a5 04 20 00 a5 04 20 00     .. ... ... ... .
  200220:	a5 04 20 00 a5 04 20 00 a5 04 20 00 a5 04 20 00     .. ... ... ... .
	...

00200400 <__main>:
  200400:	f000 f802 	bl	200408 <__scatterload_rt2>
  200404:	f000 f82e 	bl	200464 <__rt_entry>

00200408 <__scatterload_rt2>:
  200408:	a00a      	add	r0, pc, #40	; (adr r0, 200434 <__scatterload_null+0x1e>)
  20040a:	e890 0c00 	ldmia.w	r0, {sl, fp}
  20040e:	4482      	add	sl, r0
  200410:	4483      	add	fp, r0
  200412:	f1aa 0701 	sub.w	r7, sl, #1

00200416 <__scatterload_null>:
  200416:	45da      	cmp	sl, fp
  200418:	d101      	bne.n	20041e <__scatterload_null+0x8>
  20041a:	f000 f823 	bl	200464 <__rt_entry>
  20041e:	f2af 0e09 	subw	lr, pc, #9
  200422:	e8ba 000f 	ldmia.w	sl!, {r0, r1, r2, r3}
  200426:	f013 0f01 	tst.w	r3, #1
  20042a:	bf18      	it	ne
  20042c:	1afb      	subne	r3, r7, r3
  20042e:	f043 0301 	orr.w	r3, r3, #1
  200432:	4718      	bx	r3
  200434:	00007f74 	.word	0x00007f74
  200438:	00007f84 	.word	0x00007f84

0020043c <__scatterload_zeroinit>:
  20043c:	2300      	movs	r3, #0
  20043e:	2400      	movs	r4, #0
  200440:	2500      	movs	r5, #0
  200442:	2600      	movs	r6, #0
  200444:	3a10      	subs	r2, #16
  200446:	bf28      	it	cs
  200448:	c178      	stmiacs	r1!, {r3, r4, r5, r6}
  20044a:	d8fb      	bhi.n	200444 <__scatterload_zeroinit+0x8>
  20044c:	0752      	lsls	r2, r2, #29
  20044e:	bf28      	it	cs
  200450:	c130      	stmiacs	r1!, {r4, r5}
  200452:	bf48      	it	mi
  200454:	600b      	strmi	r3, [r1, #0]
  200456:	4770      	bx	lr

00200458 <__rt_lib_init>:
  200458:	b51f      	push	{r0, r1, r2, r3, r4, lr}

0020045a <__rt_lib_init_fp_1>:
  20045a:	f006 fcf0 	bl	206e3e <_fp_init>

0020045e <__rt_lib_init_alloca_1>:
  20045e:	bd1f      	pop	{r0, r1, r2, r3, r4, pc}

00200460 <__rt_lib_shutdown>:
  200460:	b510      	push	{r4, lr}

00200462 <__rt_lib_shutdown_cpp_1>:
  200462:	bd10      	pop	{r4, pc}

00200464 <__rt_entry>:
  200464:	f8df d00c 	ldr.w	sp, [pc, #12]	; 200474 <__lit__00000000>

00200468 <__rt_entry_li>:
  200468:	f7ff fff6 	bl	200458 <__rt_lib_init>

0020046c <__rt_entry_main>:
  20046c:	f005 fee2 	bl	206234 <main>
  200470:	f000 f808 	bl	200484 <exit>

00200474 <__lit__00000000>:
  200474:	0000 2840                                   ..@(

00200478 <__rt_exit>:
  200478:	b403      	push	{r0, r1}

0020047a <__rt_exit_ls>:
  20047a:	f7ff fff1 	bl	200460 <__rt_lib_shutdown>

0020047e <__rt_exit_exit>:
  20047e:	bc03      	pop	{r0, r1}
  200480:	f000 f80a 	bl	200498 <_sys_exit>

00200484 <exit>:
  200484:	b510      	push	{r4, lr}
  200486:	4604      	mov	r4, r0
  200488:	f3af 8000 	nop.w
  20048c:	4620      	mov	r0, r4
  20048e:	e8bd 4010 	ldmia.w	sp!, {r4, lr}
  200492:	f7ff bff1 	b.w	200478 <__rt_exit>

00200496 <__use_no_semihosting_swi>:
  200496:	4770      	bx	lr

00200498 <_sys_exit>:
  200498:	4901      	ldr	r1, [pc, #4]	; (2004a0 <_sys_exit+0x8>)
  20049a:	2018      	movs	r0, #24
  20049c:	beab      	bkpt	0x00ab
  20049e:	e7fe      	b.n	20049e <_sys_exit+0x6>
  2004a0:	00020026 	.word	0x00020026

002004a4 <Default_Handler>:
  2004a4:	e7fe      	b.n	2004a4 <Default_Handler>
	...

002004a8 <GLCD_DrawChar>:
  2004a8:	e92d 41f0 	stmdb	sp!, {r4, r5, r6, r7, r8, lr}
  2004ac:	f240 0310 	movw	r3, #16
  2004b0:	f6c2 0320 	movt	r3, #10272	; 0x2820
  2004b4:	681b      	ldr	r3, [r3, #0]
  2004b6:	2b00      	cmp	r3, #0
  2004b8:	bf08      	it	eq
  2004ba:	e8bd 81f0 	ldmiaeq.w	sp!, {r4, r5, r6, r7, r8, pc}
  2004be:	eb02 0242 	add.w	r2, r2, r2, lsl #1
  2004c2:	f64f 2300 	movw	r3, #64000	; 0xfa00
  2004c6:	f6cf 73ff 	movt	r3, #65535	; 0xffff
  2004ca:	eb03 1402 	add.w	r4, r3, r2, lsl #4
  2004ce:	f242 084c 	movw	r8, #8268	; 0x204c
  2004d2:	f246 050c 	movw	r5, #24588	; 0x600c
  2004d6:	2210      	movs	r2, #16
  2004d8:	2318      	movs	r3, #24
  2004da:	f2c4 0830 	movt	r8, #16432	; 0x4030
  2004de:	f2c4 0520 	movt	r5, #16416	; 0x4020
  2004e2:	f004 f98d 	bl	204800 <GLCD_SetWindow>
  2004e6:	f8d8 0000 	ldr.w	r0, [r8]
  2004ea:	f020 0001 	bic.w	r0, r0, #1
  2004ee:	f8c8 0000 	str.w	r0, [r8]
  2004f2:	2070      	movs	r0, #112	; 0x70
  2004f4:	f845 0c04 	str.w	r0, [r5, #-4]
  2004f8:	6828      	ldr	r0, [r5, #0]
  2004fa:	0740      	lsls	r0, r0, #29
  2004fc:	d409      	bmi.n	200512 <GLCD_DrawChar+0x6a>
  2004fe:	6828      	ldr	r0, [r5, #0]
  200500:	0740      	lsls	r0, r0, #29
  200502:	bf5c      	itt	pl
  200504:	6828      	ldrpl	r0, [r5, #0]
  200506:	ea5f 7040 	movspl.w	r0, r0, lsl #29
  20050a:	d402      	bmi.n	200512 <GLCD_DrawChar+0x6a>
  20050c:	6828      	ldr	r0, [r5, #0]
  20050e:	0740      	lsls	r0, r0, #29
  200510:	d5f2      	bpl.n	2004f8 <GLCD_DrawChar+0x50>
  200512:	f855 0c04 	ldr.w	r0, [r5, #-4]
  200516:	2000      	movs	r0, #0
  200518:	f845 0c04 	str.w	r0, [r5, #-4]
  20051c:	6828      	ldr	r0, [r5, #0]
  20051e:	0740      	lsls	r0, r0, #29
  200520:	d409      	bmi.n	200536 <GLCD_DrawChar+0x8e>
  200522:	6828      	ldr	r0, [r5, #0]
  200524:	0740      	lsls	r0, r0, #29
  200526:	bf5c      	itt	pl
  200528:	6828      	ldrpl	r0, [r5, #0]
  20052a:	ea5f 7040 	movspl.w	r0, r0, lsl #29
  20052e:	d402      	bmi.n	200536 <GLCD_DrawChar+0x8e>
  200530:	6828      	ldr	r0, [r5, #0]
  200532:	0740      	lsls	r0, r0, #29
  200534:	d5f2      	bpl.n	20051c <GLCD_DrawChar+0x74>
  200536:	f855 0c04 	ldr.w	r0, [r5, #-4]
  20053a:	2022      	movs	r0, #34	; 0x22
  20053c:	f845 0c04 	str.w	r0, [r5, #-4]
  200540:	6828      	ldr	r0, [r5, #0]
  200542:	0740      	lsls	r0, r0, #29
  200544:	d409      	bmi.n	20055a <GLCD_DrawChar+0xb2>
  200546:	6828      	ldr	r0, [r5, #0]
  200548:	0740      	lsls	r0, r0, #29
  20054a:	bf5c      	itt	pl
  20054c:	6828      	ldrpl	r0, [r5, #0]
  20054e:	ea5f 7040 	movspl.w	r0, r0, lsl #29
  200552:	d402      	bmi.n	20055a <GLCD_DrawChar+0xb2>
  200554:	6828      	ldr	r0, [r5, #0]
  200556:	0740      	lsls	r0, r0, #29
  200558:	d5f2      	bpl.n	200540 <GLCD_DrawChar+0x98>
  20055a:	f855 0c04 	ldr.w	r0, [r5, #-4]
  20055e:	f8d8 0000 	ldr.w	r0, [r8]
  200562:	f040 0001 	orr.w	r0, r0, #1
  200566:	f8c8 0000 	str.w	r0, [r8]
  20056a:	f8d8 0000 	ldr.w	r0, [r8]
  20056e:	f020 0001 	bic.w	r0, r0, #1
  200572:	f8c8 0000 	str.w	r0, [r8]
  200576:	2072      	movs	r0, #114	; 0x72
  200578:	f845 0c04 	str.w	r0, [r5, #-4]
  20057c:	6828      	ldr	r0, [r5, #0]
  20057e:	0740      	lsls	r0, r0, #29
  200580:	d409      	bmi.n	200596 <GLCD_DrawChar+0xee>
  200582:	6828      	ldr	r0, [r5, #0]
  200584:	0740      	lsls	r0, r0, #29
  200586:	bf5c      	itt	pl
  200588:	6828      	ldrpl	r0, [r5, #0]
  20058a:	ea5f 7040 	movspl.w	r0, r0, lsl #29
  20058e:	d402      	bmi.n	200596 <GLCD_DrawChar+0xee>
  200590:	6828      	ldr	r0, [r5, #0]
  200592:	0740      	lsls	r0, r0, #29
  200594:	d5f2      	bpl.n	20057c <GLCD_DrawChar+0xd4>
  200596:	f855 0c04 	ldr.w	r0, [r5, #-4]
  20059a:	f240 0016 	movw	r0, #22
  20059e:	f6c2 0020 	movt	r0, #10272	; 0x2820
  2005a2:	f8b0 e000 	ldrh.w	lr, [r0]
  2005a6:	f240 0014 	movw	r0, #20
  2005aa:	f6c2 0020 	movt	r0, #10272	; 0x2820
  2005ae:	7800      	ldrb	r0, [r0, #0]
  2005b0:	f04f 31ff 	mov.w	r1, #4294967295
  2005b4:	2800      	cmp	r0, #0
  2005b6:	bf18      	it	ne
  2005b8:	211f      	movne	r1, #31
  2005ba:	f646 6058 	movw	r0, #28248	; 0x6e58
  2005be:	f2c0 0020 	movt	r0, #32
  2005c2:	1902      	adds	r2, r0, r4
  2005c4:	f04f 0c00 	mov.w	ip, #0
  2005c8:	e007      	b.n	2005da <GLCD_DrawChar+0x132>
  2005ca:	bf00      	nop
  2005cc:	f10c 0c01 	add.w	ip, ip, #1
  2005d0:	f1bc 0f18 	cmp.w	ip, #24
  2005d4:	f102 0201 	add.w	r2, r2, #1
  2005d8:	d06d      	beq.n	2006b6 <GLCD_DrawChar+0x20e>
  2005da:	2400      	movs	r4, #0
  2005dc:	e00f      	b.n	2005fe <GLCD_DrawChar+0x156>
  2005de:	bf00      	nop
  2005e0:	f855 0c04 	ldr.w	r0, [r5, #-4]
  2005e4:	1ff8      	subs	r0, r7, #7
  2005e6:	fab0 f080 	clz	r0, r0
  2005ea:	0940      	lsrs	r0, r0, #5
  2005ec:	f1b6 030f 	subs.w	r3, r6, #15
  2005f0:	bf18      	it	ne
  2005f2:	2301      	movne	r3, #1
  2005f4:	4018      	ands	r0, r3
  2005f6:	3402      	adds	r4, #2
  2005f8:	2c10      	cmp	r4, #16
  2005fa:	4402      	add	r2, r0
  2005fc:	d0e6      	beq.n	2005cc <GLCD_DrawChar+0x124>
  2005fe:	7810      	ldrb	r0, [r2, #0]
  200600:	f004 0706 	and.w	r7, r4, #6
  200604:	40f8      	lsrs	r0, r7
  200606:	07c0      	lsls	r0, r0, #31
  200608:	4670      	mov	r0, lr
  20060a:	bf08      	it	eq
  20060c:	4608      	moveq	r0, r1
  20060e:	b287      	uxth	r7, r0
  200610:	0a3f      	lsrs	r7, r7, #8
  200612:	f845 7c04 	str.w	r7, [r5, #-4]
  200616:	682f      	ldr	r7, [r5, #0]
  200618:	077f      	lsls	r7, r7, #29
  20061a:	d409      	bmi.n	200630 <GLCD_DrawChar+0x188>
  20061c:	682f      	ldr	r7, [r5, #0]
  20061e:	077f      	lsls	r7, r7, #29
  200620:	bf5c      	itt	pl
  200622:	682f      	ldrpl	r7, [r5, #0]
  200624:	ea5f 7747 	movspl.w	r7, r7, lsl #29
  200628:	d402      	bmi.n	200630 <GLCD_DrawChar+0x188>
  20062a:	682f      	ldr	r7, [r5, #0]
  20062c:	077f      	lsls	r7, r7, #29
  20062e:	d5f2      	bpl.n	200616 <GLCD_DrawChar+0x16e>
  200630:	f855 7c04 	ldr.w	r7, [r5, #-4]
  200634:	b2c0      	uxtb	r0, r0
  200636:	f845 0c04 	str.w	r0, [r5, #-4]
  20063a:	6828      	ldr	r0, [r5, #0]
  20063c:	0740      	lsls	r0, r0, #29
  20063e:	d409      	bmi.n	200654 <GLCD_DrawChar+0x1ac>
  200640:	6828      	ldr	r0, [r5, #0]
  200642:	0740      	lsls	r0, r0, #29
  200644:	bf5c      	itt	pl
  200646:	6828      	ldrpl	r0, [r5, #0]
  200648:	ea5f 7040 	movspl.w	r0, r0, lsl #29
  20064c:	d402      	bmi.n	200654 <GLCD_DrawChar+0x1ac>
  20064e:	6828      	ldr	r0, [r5, #0]
  200650:	0740      	lsls	r0, r0, #29
  200652:	d5f2      	bpl.n	20063a <GLCD_DrawChar+0x192>
  200654:	f855 0c04 	ldr.w	r0, [r5, #-4]
  200658:	f044 0601 	orr.w	r6, r4, #1
  20065c:	7810      	ldrb	r0, [r2, #0]
  20065e:	f006 0707 	and.w	r7, r6, #7
  200662:	40f8      	lsrs	r0, r7
  200664:	07c0      	lsls	r0, r0, #31
  200666:	4670      	mov	r0, lr
  200668:	bf08      	it	eq
  20066a:	4608      	moveq	r0, r1
  20066c:	b283      	uxth	r3, r0
  20066e:	0a1b      	lsrs	r3, r3, #8
  200670:	f845 3c04 	str.w	r3, [r5, #-4]
  200674:	682b      	ldr	r3, [r5, #0]
  200676:	075b      	lsls	r3, r3, #29
  200678:	d40a      	bmi.n	200690 <GLCD_DrawChar+0x1e8>
  20067a:	682b      	ldr	r3, [r5, #0]
  20067c:	075b      	lsls	r3, r3, #29
  20067e:	bf5c      	itt	pl
  200680:	682b      	ldrpl	r3, [r5, #0]
  200682:	ea5f 7343 	movspl.w	r3, r3, lsl #29
  200686:	d403      	bmi.n	200690 <GLCD_DrawChar+0x1e8>
  200688:	682b      	ldr	r3, [r5, #0]
  20068a:	075b      	lsls	r3, r3, #29
  20068c:	d5f2      	bpl.n	200674 <GLCD_DrawChar+0x1cc>
  20068e:	bf00      	nop
  200690:	f855 3c04 	ldr.w	r3, [r5, #-4]
  200694:	b2c0      	uxtb	r0, r0
  200696:	f845 0c04 	str.w	r0, [r5, #-4]
  20069a:	6828      	ldr	r0, [r5, #0]
  20069c:	0740      	lsls	r0, r0, #29
  20069e:	d49f      	bmi.n	2005e0 <GLCD_DrawChar+0x138>
  2006a0:	6828      	ldr	r0, [r5, #0]
  2006a2:	0740      	lsls	r0, r0, #29
  2006a4:	bf5c      	itt	pl
  2006a6:	6828      	ldrpl	r0, [r5, #0]
  2006a8:	ea5f 7040 	movspl.w	r0, r0, lsl #29
  2006ac:	d498      	bmi.n	2005e0 <GLCD_DrawChar+0x138>
  2006ae:	6828      	ldr	r0, [r5, #0]
  2006b0:	0740      	lsls	r0, r0, #29
  2006b2:	d5f2      	bpl.n	20069a <GLCD_DrawChar+0x1f2>
  2006b4:	e794      	b.n	2005e0 <GLCD_DrawChar+0x138>
  2006b6:	f8d8 0000 	ldr.w	r0, [r8]
  2006ba:	f040 0001 	orr.w	r0, r0, #1
  2006be:	f8c8 0000 	str.w	r0, [r8]
  2006c2:	e8bd 81f0 	ldmia.w	sp!, {r4, r5, r6, r7, r8, pc}
	...

002006c8 <GLCD_Initialize>:
  2006c8:	f246 000c 	movw	r0, #24588	; 0x600c
  2006cc:	f2c4 0020 	movt	r0, #16416	; 0x4020
  2006d0:	2100      	movs	r1, #0
  2006d2:	f840 1c08 	str.w	r1, [r0, #-8]
  2006d6:	6181      	str	r1, [r0, #24]
  2006d8:	6081      	str	r1, [r0, #8]
  2006da:	2103      	movs	r1, #3
  2006dc:	6141      	str	r1, [r0, #20]
  2006de:	f240 1107 	movw	r1, #263	; 0x107
  2006e2:	f840 1c0c 	str.w	r1, [r0, #-12]
  2006e6:	2202      	movs	r2, #2
  2006e8:	f242 014c 	movw	r1, #8268	; 0x204c
  2006ec:	6042      	str	r2, [r0, #4]
  2006ee:	f2c4 0130 	movt	r1, #16432	; 0x4030
  2006f2:	f840 2c08 	str.w	r2, [r0, #-8]
  2006f6:	680a      	ldr	r2, [r1, #0]
  2006f8:	f042 0209 	orr.w	r2, r2, #9
  2006fc:	600a      	str	r2, [r1, #0]
  2006fe:	680a      	ldr	r2, [r1, #0]
  200700:	f022 0270 	bic.w	r2, r2, #112	; 0x70
  200704:	600a      	str	r2, [r1, #0]
  200706:	680a      	ldr	r2, [r1, #0]
  200708:	f022 0208 	bic.w	r2, r2, #8
  20070c:	600a      	str	r2, [r1, #0]
  20070e:	f649 6258 	movw	r2, #40536	; 0x9e58
  200712:	f6cf 72ff 	movt	r2, #65535	; 0xffff
  200716:	bf00      	nop
  200718:	bf00      	nop
  20071a:	bf00      	nop
  20071c:	bf00      	nop
  20071e:	bf00      	nop
  200720:	bf00      	nop
  200722:	bf00      	nop
  200724:	bf00      	nop
  200726:	bf00      	nop
  200728:	bf00      	nop
  20072a:	bf00      	nop
  20072c:	bf00      	nop
  20072e:	bf00      	nop
  200730:	bf00      	nop
  200732:	bf00      	nop
  200734:	bf00      	nop
  200736:	bf00      	nop
  200738:	bf00      	nop
  20073a:	bf00      	nop
  20073c:	bf00      	nop
  20073e:	bf00      	nop
  200740:	bf00      	nop
  200742:	bf00      	nop
  200744:	bf00      	nop
  200746:	bf00      	nop
  200748:	bf00      	nop
  20074a:	bf00      	nop
  20074c:	bf00      	nop
  20074e:	bf00      	nop
  200750:	bf00      	nop
  200752:	bf00      	nop
  200754:	bf00      	nop
  200756:	bf00      	nop
  200758:	bf00      	nop
  20075a:	bf00      	nop
  20075c:	bf00      	nop
  20075e:	bf00      	nop
  200760:	bf00      	nop
  200762:	bf00      	nop
  200764:	bf00      	nop
  200766:	bf00      	nop
  200768:	bf00      	nop
  20076a:	bf00      	nop
  20076c:	bf00      	nop
  20076e:	bf00      	nop
  200770:	bf00      	nop
  200772:	bf00      	nop
  200774:	bf00      	nop
  200776:	bf00      	nop
  200778:	bf00      	nop
  20077a:	bf00      	nop
  20077c:	bf00      	nop
  20077e:	bf00      	nop
  200780:	bf00      	nop
  200782:	bf00      	nop
  200784:	bf00      	nop
  200786:	bf00      	nop
  200788:	bf00      	nop
  20078a:	bf00      	nop
  20078c:	bf00      	nop
  20078e:	bf00      	nop
  200790:	bf00      	nop
  200792:	bf00      	nop
  200794:	bf00      	nop
  200796:	bf00      	nop
  200798:	bf00      	nop
  20079a:	bf00      	nop
  20079c:	bf00      	nop
  20079e:	bf00      	nop
  2007a0:	bf00      	nop
  2007a2:	bf00      	nop
  2007a4:	bf00      	nop
  2007a6:	bf00      	nop
  2007a8:	bf00      	nop
  2007aa:	bf00      	nop
  2007ac:	bf00      	nop
  2007ae:	bf00      	nop
  2007b0:	bf00      	nop
  2007b2:	bf00      	nop
  2007b4:	bf00      	nop
  2007b6:	bf00      	nop
  2007b8:	bf00      	nop
  2007ba:	bf00      	nop
  2007bc:	bf00      	nop
  2007be:	bf00      	nop
  2007c0:	bf00      	nop
  2007c2:	bf00      	nop
  2007c4:	bf00      	nop
  2007c6:	bf00      	nop
  2007c8:	bf00      	nop
  2007ca:	bf00      	nop
  2007cc:	bf00      	nop
  2007ce:	bf00      	nop
  2007d0:	bf00      	nop
  2007d2:	bf00      	nop
  2007d4:	bf00      	nop
  2007d6:	bf00      	nop
  2007d8:	bf00      	nop
  2007da:	bf00      	nop
  2007dc:	bf00      	nop
  2007de:	3264      	adds	r2, #100	; 0x64
  2007e0:	bf00      	nop
  2007e2:	d199      	bne.n	200718 <GLCD_Initialize+0x50>
  2007e4:	680a      	ldr	r2, [r1, #0]
  2007e6:	f042 0208 	orr.w	r2, r2, #8
  2007ea:	600a      	str	r2, [r1, #0]
  2007ec:	f241 72b8 	movw	r2, #6072	; 0x17b8
  2007f0:	f6cf 72fe 	movt	r2, #65534	; 0xfffe
  2007f4:	bf00      	nop
  2007f6:	bf00      	nop
  2007f8:	bf00      	nop
  2007fa:	bf00      	nop
  2007fc:	bf00      	nop
  2007fe:	bf00      	nop
  200800:	bf00      	nop
  200802:	bf00      	nop
  200804:	bf00      	nop
  200806:	bf00      	nop
  200808:	bf00      	nop
  20080a:	bf00      	nop
  20080c:	bf00      	nop
  20080e:	bf00      	nop
  200810:	bf00      	nop
  200812:	bf00      	nop
  200814:	bf00      	nop
  200816:	bf00      	nop
  200818:	bf00      	nop
  20081a:	bf00      	nop
  20081c:	bf00      	nop
  20081e:	bf00      	nop
  200820:	bf00      	nop
  200822:	bf00      	nop
  200824:	bf00      	nop
  200826:	bf00      	nop
  200828:	bf00      	nop
  20082a:	bf00      	nop
  20082c:	bf00      	nop
  20082e:	bf00      	nop
  200830:	bf00      	nop
  200832:	bf00      	nop
  200834:	bf00      	nop
  200836:	bf00      	nop
  200838:	bf00      	nop
  20083a:	bf00      	nop
  20083c:	bf00      	nop
  20083e:	bf00      	nop
  200840:	bf00      	nop
  200842:	bf00      	nop
  200844:	bf00      	nop
  200846:	bf00      	nop
  200848:	bf00      	nop
  20084a:	bf00      	nop
  20084c:	bf00      	nop
  20084e:	bf00      	nop
  200850:	bf00      	nop
  200852:	bf00      	nop
  200854:	bf00      	nop
  200856:	bf00      	nop
  200858:	bf00      	nop
  20085a:	bf00      	nop
  20085c:	bf00      	nop
  20085e:	bf00      	nop
  200860:	bf00      	nop
  200862:	bf00      	nop
  200864:	bf00      	nop
  200866:	bf00      	nop
  200868:	bf00      	nop
  20086a:	bf00      	nop
  20086c:	bf00      	nop
  20086e:	bf00      	nop
  200870:	bf00      	nop
  200872:	bf00      	nop
  200874:	bf00      	nop
  200876:	bf00      	nop
  200878:	bf00      	nop
  20087a:	bf00      	nop
  20087c:	bf00      	nop
  20087e:	bf00      	nop
  200880:	bf00      	nop
  200882:	bf00      	nop
  200884:	bf00      	nop
  200886:	bf00      	nop
  200888:	bf00      	nop
  20088a:	bf00      	nop
  20088c:	bf00      	nop
  20088e:	bf00      	nop
  200890:	bf00      	nop
  200892:	bf00      	nop
  200894:	bf00      	nop
  200896:	bf00      	nop
  200898:	bf00      	nop
  20089a:	bf00      	nop
  20089c:	bf00      	nop
  20089e:	bf00      	nop
  2008a0:	bf00      	nop
  2008a2:	bf00      	nop
  2008a4:	bf00      	nop
  2008a6:	bf00      	nop
  2008a8:	bf00      	nop
  2008aa:	bf00      	nop
  2008ac:	bf00      	nop
  2008ae:	bf00      	nop
  2008b0:	bf00      	nop
  2008b2:	bf00      	nop
  2008b4:	bf00      	nop
  2008b6:	bf00      	nop
  2008b8:	bf00      	nop
  2008ba:	3264      	adds	r2, #100	; 0x64
  2008bc:	bf00      	nop
  2008be:	d199      	bne.n	2007f4 <GLCD_Initialize+0x12c>
  2008c0:	680a      	ldr	r2, [r1, #0]
  2008c2:	f022 0201 	bic.w	r2, r2, #1
  2008c6:	600a      	str	r2, [r1, #0]
  2008c8:	2270      	movs	r2, #112	; 0x70
  2008ca:	f840 2c04 	str.w	r2, [r0, #-4]
  2008ce:	6802      	ldr	r2, [r0, #0]
  2008d0:	0752      	lsls	r2, r2, #29
  2008d2:	d409      	bmi.n	2008e8 <GLCD_Initialize+0x220>
  2008d4:	6802      	ldr	r2, [r0, #0]
  2008d6:	0752      	lsls	r2, r2, #29
  2008d8:	bf5c      	itt	pl
  2008da:	6802      	ldrpl	r2, [r0, #0]
  2008dc:	ea5f 7242 	movspl.w	r2, r2, lsl #29
  2008e0:	d402      	bmi.n	2008e8 <GLCD_Initialize+0x220>
  2008e2:	6802      	ldr	r2, [r0, #0]
  2008e4:	0752      	lsls	r2, r2, #29
  2008e6:	d5f2      	bpl.n	2008ce <GLCD_Initialize+0x206>
  2008e8:	f850 2c04 	ldr.w	r2, [r0, #-4]
  2008ec:	2200      	movs	r2, #0
  2008ee:	f840 2c04 	str.w	r2, [r0, #-4]
  2008f2:	6802      	ldr	r2, [r0, #0]
  2008f4:	0752      	lsls	r2, r2, #29
  2008f6:	d409      	bmi.n	20090c <GLCD_Initialize+0x244>
  2008f8:	6802      	ldr	r2, [r0, #0]
  2008fa:	0752      	lsls	r2, r2, #29
  2008fc:	bf5c      	itt	pl
  2008fe:	6802      	ldrpl	r2, [r0, #0]
  200900:	ea5f 7242 	movspl.w	r2, r2, lsl #29
  200904:	d402      	bmi.n	20090c <GLCD_Initialize+0x244>
  200906:	6802      	ldr	r2, [r0, #0]
  200908:	0752      	lsls	r2, r2, #29
  20090a:	d5f2      	bpl.n	2008f2 <GLCD_Initialize+0x22a>
  20090c:	f850 2c04 	ldr.w	r2, [r0, #-4]
  200910:	22ea      	movs	r2, #234	; 0xea
  200912:	f840 2c04 	str.w	r2, [r0, #-4]
  200916:	6802      	ldr	r2, [r0, #0]
  200918:	0752      	lsls	r2, r2, #29
  20091a:	d409      	bmi.n	200930 <GLCD_Initialize+0x268>
  20091c:	6802      	ldr	r2, [r0, #0]
  20091e:	0752      	lsls	r2, r2, #29
  200920:	bf5c      	itt	pl
  200922:	6802      	ldrpl	r2, [r0, #0]
  200924:	ea5f 7242 	movspl.w	r2, r2, lsl #29
  200928:	d402      	bmi.n	200930 <GLCD_Initialize+0x268>
  20092a:	6802      	ldr	r2, [r0, #0]
  20092c:	0752      	lsls	r2, r2, #29
  20092e:	d5f2      	bpl.n	200916 <GLCD_Initialize+0x24e>
  200930:	f850 2c04 	ldr.w	r2, [r0, #-4]
  200934:	680a      	ldr	r2, [r1, #0]
  200936:	f042 0201 	orr.w	r2, r2, #1
  20093a:	600a      	str	r2, [r1, #0]
  20093c:	680a      	ldr	r2, [r1, #0]
  20093e:	f022 0201 	bic.w	r2, r2, #1
  200942:	600a      	str	r2, [r1, #0]
  200944:	2272      	movs	r2, #114	; 0x72
  200946:	f840 2c04 	str.w	r2, [r0, #-4]
  20094a:	6802      	ldr	r2, [r0, #0]
  20094c:	0752      	lsls	r2, r2, #29
  20094e:	d409      	bmi.n	200964 <GLCD_Initialize+0x29c>
  200950:	6802      	ldr	r2, [r0, #0]
  200952:	0752      	lsls	r2, r2, #29
  200954:	bf5c      	itt	pl
  200956:	6802      	ldrpl	r2, [r0, #0]
  200958:	ea5f 7242 	movspl.w	r2, r2, lsl #29
  20095c:	d402      	bmi.n	200964 <GLCD_Initialize+0x29c>
  20095e:	6802      	ldr	r2, [r0, #0]
  200960:	0752      	lsls	r2, r2, #29
  200962:	d5f2      	bpl.n	20094a <GLCD_Initialize+0x282>
  200964:	f850 2c04 	ldr.w	r2, [r0, #-4]
  200968:	2200      	movs	r2, #0
  20096a:	f840 2c04 	str.w	r2, [r0, #-4]
  20096e:	6802      	ldr	r2, [r0, #0]
  200970:	0752      	lsls	r2, r2, #29
  200972:	d409      	bmi.n	200988 <GLCD_Initialize+0x2c0>
  200974:	6802      	ldr	r2, [r0, #0]
  200976:	0752      	lsls	r2, r2, #29
  200978:	bf5c      	itt	pl
  20097a:	6802      	ldrpl	r2, [r0, #0]
  20097c:	ea5f 7242 	movspl.w	r2, r2, lsl #29
  200980:	d402      	bmi.n	200988 <GLCD_Initialize+0x2c0>
  200982:	6802      	ldr	r2, [r0, #0]
  200984:	0752      	lsls	r2, r2, #29
  200986:	d5f2      	bpl.n	20096e <GLCD_Initialize+0x2a6>
  200988:	f850 2c04 	ldr.w	r2, [r0, #-4]
  20098c:	2200      	movs	r2, #0
  20098e:	f840 2c04 	str.w	r2, [r0, #-4]
  200992:	6802      	ldr	r2, [r0, #0]
  200994:	0752      	lsls	r2, r2, #29
  200996:	d409      	bmi.n	2009ac <GLCD_Initialize+0x2e4>
  200998:	6802      	ldr	r2, [r0, #0]
  20099a:	0752      	lsls	r2, r2, #29
  20099c:	bf5c      	itt	pl
  20099e:	6802      	ldrpl	r2, [r0, #0]
  2009a0:	ea5f 7242 	movspl.w	r2, r2, lsl #29
  2009a4:	d402      	bmi.n	2009ac <GLCD_Initialize+0x2e4>
  2009a6:	6802      	ldr	r2, [r0, #0]
  2009a8:	0752      	lsls	r2, r2, #29
  2009aa:	d5f2      	bpl.n	200992 <GLCD_Initialize+0x2ca>
  2009ac:	f850 2c04 	ldr.w	r2, [r0, #-4]
  2009b0:	680a      	ldr	r2, [r1, #0]
  2009b2:	f042 0201 	orr.w	r2, r2, #1
  2009b6:	600a      	str	r2, [r1, #0]
  2009b8:	680a      	ldr	r2, [r1, #0]
  2009ba:	f022 0201 	bic.w	r2, r2, #1
  2009be:	600a      	str	r2, [r1, #0]
  2009c0:	2270      	movs	r2, #112	; 0x70
  2009c2:	f840 2c04 	str.w	r2, [r0, #-4]
  2009c6:	6802      	ldr	r2, [r0, #0]
  2009c8:	0752      	lsls	r2, r2, #29
  2009ca:	d409      	bmi.n	2009e0 <GLCD_Initialize+0x318>
  2009cc:	6802      	ldr	r2, [r0, #0]
  2009ce:	0752      	lsls	r2, r2, #29
  2009d0:	bf5c      	itt	pl
  2009d2:	6802      	ldrpl	r2, [r0, #0]
  2009d4:	ea5f 7242 	movspl.w	r2, r2, lsl #29
  2009d8:	d402      	bmi.n	2009e0 <GLCD_Initialize+0x318>
  2009da:	6802      	ldr	r2, [r0, #0]
  2009dc:	0752      	lsls	r2, r2, #29
  2009de:	d5f2      	bpl.n	2009c6 <GLCD_Initialize+0x2fe>
  2009e0:	f850 2c04 	ldr.w	r2, [r0, #-4]
  2009e4:	2200      	movs	r2, #0
  2009e6:	f840 2c04 	str.w	r2, [r0, #-4]
  2009ea:	6802      	ldr	r2, [r0, #0]
  2009ec:	0752      	lsls	r2, r2, #29
  2009ee:	d409      	bmi.n	200a04 <GLCD_Initialize+0x33c>
  2009f0:	6802      	ldr	r2, [r0, #0]
  2009f2:	0752      	lsls	r2, r2, #29
  2009f4:	bf5c      	itt	pl
  2009f6:	6802      	ldrpl	r2, [r0, #0]
  2009f8:	ea5f 7242 	movspl.w	r2, r2, lsl #29
  2009fc:	d402      	bmi.n	200a04 <GLCD_Initialize+0x33c>
  2009fe:	6802      	ldr	r2, [r0, #0]
  200a00:	0752      	lsls	r2, r2, #29
  200a02:	d5f2      	bpl.n	2009ea <GLCD_Initialize+0x322>
  200a04:	f850 2c04 	ldr.w	r2, [r0, #-4]
  200a08:	22eb      	movs	r2, #235	; 0xeb
  200a0a:	f840 2c04 	str.w	r2, [r0, #-4]
  200a0e:	6802      	ldr	r2, [r0, #0]
  200a10:	0752      	lsls	r2, r2, #29
  200a12:	d409      	bmi.n	200a28 <GLCD_Initialize+0x360>
  200a14:	6802      	ldr	r2, [r0, #0]
  200a16:	0752      	lsls	r2, r2, #29
  200a18:	bf5c      	itt	pl
  200a1a:	6802      	ldrpl	r2, [r0, #0]
  200a1c:	ea5f 7242 	movspl.w	r2, r2, lsl #29
  200a20:	d402      	bmi.n	200a28 <GLCD_Initialize+0x360>
  200a22:	6802      	ldr	r2, [r0, #0]
  200a24:	0752      	lsls	r2, r2, #29
  200a26:	d5f2      	bpl.n	200a0e <GLCD_Initialize+0x346>
  200a28:	f850 2c04 	ldr.w	r2, [r0, #-4]
  200a2c:	680a      	ldr	r2, [r1, #0]
  200a2e:	f042 0201 	orr.w	r2, r2, #1
  200a32:	600a      	str	r2, [r1, #0]
  200a34:	680a      	ldr	r2, [r1, #0]
  200a36:	f022 0201 	bic.w	r2, r2, #1
  200a3a:	600a      	str	r2, [r1, #0]
  200a3c:	2272      	movs	r2, #114	; 0x72
  200a3e:	f840 2c04 	str.w	r2, [r0, #-4]
  200a42:	6802      	ldr	r2, [r0, #0]
  200a44:	0752      	lsls	r2, r2, #29
  200a46:	d409      	bmi.n	200a5c <GLCD_Initialize+0x394>
  200a48:	6802      	ldr	r2, [r0, #0]
  200a4a:	0752      	lsls	r2, r2, #29
  200a4c:	bf5c      	itt	pl
  200a4e:	6802      	ldrpl	r2, [r0, #0]
  200a50:	ea5f 7242 	movspl.w	r2, r2, lsl #29
  200a54:	d402      	bmi.n	200a5c <GLCD_Initialize+0x394>
  200a56:	6802      	ldr	r2, [r0, #0]
  200a58:	0752      	lsls	r2, r2, #29
  200a5a:	d5f2      	bpl.n	200a42 <GLCD_Initialize+0x37a>
  200a5c:	f850 2c04 	ldr.w	r2, [r0, #-4]
  200a60:	2200      	movs	r2, #0
  200a62:	f840 2c04 	str.w	r2, [r0, #-4]
  200a66:	6802      	ldr	r2, [r0, #0]
  200a68:	0752      	lsls	r2, r2, #29
  200a6a:	d409      	bmi.n	200a80 <GLCD_Initialize+0x3b8>
  200a6c:	6802      	ldr	r2, [r0, #0]
  200a6e:	0752      	lsls	r2, r2, #29
  200a70:	bf5c      	itt	pl
  200a72:	6802      	ldrpl	r2, [r0, #0]
  200a74:	ea5f 7242 	movspl.w	r2, r2, lsl #29
  200a78:	d402      	bmi.n	200a80 <GLCD_Initialize+0x3b8>
  200a7a:	6802      	ldr	r2, [r0, #0]
  200a7c:	0752      	lsls	r2, r2, #29
  200a7e:	d5f2      	bpl.n	200a66 <GLCD_Initialize+0x39e>
  200a80:	f850 2c04 	ldr.w	r2, [r0, #-4]
  200a84:	2220      	movs	r2, #32
  200a86:	f840 2c04 	str.w	r2, [r0, #-4]
  200a8a:	6802      	ldr	r2, [r0, #0]
  200a8c:	0752      	lsls	r2, r2, #29
  200a8e:	d409      	bmi.n	200aa4 <GLCD_Initialize+0x3dc>
  200a90:	6802      	ldr	r2, [r0, #0]
  200a92:	0752      	lsls	r2, r2, #29
  200a94:	bf5c      	itt	pl
  200a96:	6802      	ldrpl	r2, [r0, #0]
  200a98:	ea5f 7242 	movspl.w	r2, r2, lsl #29
  200a9c:	d402      	bmi.n	200aa4 <GLCD_Initialize+0x3dc>
  200a9e:	6802      	ldr	r2, [r0, #0]
  200aa0:	0752      	lsls	r2, r2, #29
  200aa2:	d5f2      	bpl.n	200a8a <GLCD_Initialize+0x3c2>
  200aa4:	f850 2c04 	ldr.w	r2, [r0, #-4]
  200aa8:	680a      	ldr	r2, [r1, #0]
  200aaa:	f042 0201 	orr.w	r2, r2, #1
  200aae:	600a      	str	r2, [r1, #0]
  200ab0:	680a      	ldr	r2, [r1, #0]
  200ab2:	f022 0201 	bic.w	r2, r2, #1
  200ab6:	600a      	str	r2, [r1, #0]
  200ab8:	2270      	movs	r2, #112	; 0x70
  200aba:	f840 2c04 	str.w	r2, [r0, #-4]
  200abe:	6802      	ldr	r2, [r0, #0]
  200ac0:	0752      	lsls	r2, r2, #29
  200ac2:	d409      	bmi.n	200ad8 <GLCD_Initialize+0x410>
  200ac4:	6802      	ldr	r2, [r0, #0]
  200ac6:	0752      	lsls	r2, r2, #29
  200ac8:	bf5c      	itt	pl
  200aca:	6802      	ldrpl	r2, [r0, #0]
  200acc:	ea5f 7242 	movspl.w	r2, r2, lsl #29
  200ad0:	d402      	bmi.n	200ad8 <GLCD_Initialize+0x410>
  200ad2:	6802      	ldr	r2, [r0, #0]
  200ad4:	0752      	lsls	r2, r2, #29
  200ad6:	d5f2      	bpl.n	200abe <GLCD_Initialize+0x3f6>
  200ad8:	f850 2c04 	ldr.w	r2, [r0, #-4]
  200adc:	2200      	movs	r2, #0
  200ade:	f840 2c04 	str.w	r2, [r0, #-4]
  200ae2:	6802      	ldr	r2, [r0, #0]
  200ae4:	0752      	lsls	r2, r2, #29
  200ae6:	d409      	bmi.n	200afc <GLCD_Initialize+0x434>
  200ae8:	6802      	ldr	r2, [r0, #0]
  200aea:	0752      	lsls	r2, r2, #29
  200aec:	bf5c      	itt	pl
  200aee:	6802      	ldrpl	r2, [r0, #0]
  200af0:	ea5f 7242 	movspl.w	r2, r2, lsl #29
  200af4:	d402      	bmi.n	200afc <GLCD_Initialize+0x434>
  200af6:	6802      	ldr	r2, [r0, #0]
  200af8:	0752      	lsls	r2, r2, #29
  200afa:	d5f2      	bpl.n	200ae2 <GLCD_Initialize+0x41a>
  200afc:	f850 2c04 	ldr.w	r2, [r0, #-4]
  200b00:	22ec      	movs	r2, #236	; 0xec
  200b02:	f840 2c04 	str.w	r2, [r0, #-4]
  200b06:	6802      	ldr	r2, [r0, #0]
  200b08:	0752      	lsls	r2, r2, #29
  200b0a:	d409      	bmi.n	200b20 <GLCD_Initialize+0x458>
  200b0c:	6802      	ldr	r2, [r0, #0]
  200b0e:	0752      	lsls	r2, r2, #29
  200b10:	bf5c      	itt	pl
  200b12:	6802      	ldrpl	r2, [r0, #0]
  200b14:	ea5f 7242 	movspl.w	r2, r2, lsl #29
  200b18:	d402      	bmi.n	200b20 <GLCD_Initialize+0x458>
  200b1a:	6802      	ldr	r2, [r0, #0]
  200b1c:	0752      	lsls	r2, r2, #29
  200b1e:	d5f2      	bpl.n	200b06 <GLCD_Initialize+0x43e>
  200b20:	f850 2c04 	ldr.w	r2, [r0, #-4]
  200b24:	680a      	ldr	r2, [r1, #0]
  200b26:	f042 0201 	orr.w	r2, r2, #1
  200b2a:	600a      	str	r2, [r1, #0]
  200b2c:	680a      	ldr	r2, [r1, #0]
  200b2e:	f022 0201 	bic.w	r2, r2, #1
  200b32:	600a      	str	r2, [r1, #0]
  200b34:	2272      	movs	r2, #114	; 0x72
  200b36:	f840 2c04 	str.w	r2, [r0, #-4]
  200b3a:	6802      	ldr	r2, [r0, #0]
  200b3c:	0752      	lsls	r2, r2, #29
  200b3e:	d409      	bmi.n	200b54 <GLCD_Initialize+0x48c>
  200b40:	6802      	ldr	r2, [r0, #0]
  200b42:	0752      	lsls	r2, r2, #29
  200b44:	bf5c      	itt	pl
  200b46:	6802      	ldrpl	r2, [r0, #0]
  200b48:	ea5f 7242 	movspl.w	r2, r2, lsl #29
  200b4c:	d402      	bmi.n	200b54 <GLCD_Initialize+0x48c>
  200b4e:	6802      	ldr	r2, [r0, #0]
  200b50:	0752      	lsls	r2, r2, #29
  200b52:	d5f2      	bpl.n	200b3a <GLCD_Initialize+0x472>
  200b54:	f850 2c04 	ldr.w	r2, [r0, #-4]
  200b58:	2200      	movs	r2, #0
  200b5a:	f840 2c04 	str.w	r2, [r0, #-4]
  200b5e:	6802      	ldr	r2, [r0, #0]
  200b60:	0752      	lsls	r2, r2, #29
  200b62:	d409      	bmi.n	200b78 <GLCD_Initialize+0x4b0>
  200b64:	6802      	ldr	r2, [r0, #0]
  200b66:	0752      	lsls	r2, r2, #29
  200b68:	bf5c      	itt	pl
  200b6a:	6802      	ldrpl	r2, [r0, #0]
  200b6c:	ea5f 7242 	movspl.w	r2, r2, lsl #29
  200b70:	d402      	bmi.n	200b78 <GLCD_Initialize+0x4b0>
  200b72:	6802      	ldr	r2, [r0, #0]
  200b74:	0752      	lsls	r2, r2, #29
  200b76:	d5f2      	bpl.n	200b5e <GLCD_Initialize+0x496>
  200b78:	f850 2c04 	ldr.w	r2, [r0, #-4]
  200b7c:	220c      	movs	r2, #12
  200b7e:	f840 2c04 	str.w	r2, [r0, #-4]
  200b82:	6802      	ldr	r2, [r0, #0]
  200b84:	0752      	lsls	r2, r2, #29
  200b86:	d409      	bmi.n	200b9c <GLCD_Initialize+0x4d4>
  200b88:	6802      	ldr	r2, [r0, #0]
  200b8a:	0752      	lsls	r2, r2, #29
  200b8c:	bf5c      	itt	pl
  200b8e:	6802      	ldrpl	r2, [r0, #0]
  200b90:	ea5f 7242 	movspl.w	r2, r2, lsl #29
  200b94:	d402      	bmi.n	200b9c <GLCD_Initialize+0x4d4>
  200b96:	6802      	ldr	r2, [r0, #0]
  200b98:	0752      	lsls	r2, r2, #29
  200b9a:	d5f2      	bpl.n	200b82 <GLCD_Initialize+0x4ba>
  200b9c:	f850 2c04 	ldr.w	r2, [r0, #-4]
  200ba0:	680a      	ldr	r2, [r1, #0]
  200ba2:	f042 0201 	orr.w	r2, r2, #1
  200ba6:	600a      	str	r2, [r1, #0]
  200ba8:	680a      	ldr	r2, [r1, #0]
  200baa:	f022 0201 	bic.w	r2, r2, #1
  200bae:	600a      	str	r2, [r1, #0]
  200bb0:	2270      	movs	r2, #112	; 0x70
  200bb2:	f840 2c04 	str.w	r2, [r0, #-4]
  200bb6:	6802      	ldr	r2, [r0, #0]
  200bb8:	0752      	lsls	r2, r2, #29
  200bba:	d409      	bmi.n	200bd0 <GLCD_Initialize+0x508>
  200bbc:	6802      	ldr	r2, [r0, #0]
  200bbe:	0752      	lsls	r2, r2, #29
  200bc0:	bf5c      	itt	pl
  200bc2:	6802      	ldrpl	r2, [r0, #0]
  200bc4:	ea5f 7242 	movspl.w	r2, r2, lsl #29
  200bc8:	d402      	bmi.n	200bd0 <GLCD_Initialize+0x508>
  200bca:	6802      	ldr	r2, [r0, #0]
  200bcc:	0752      	lsls	r2, r2, #29
  200bce:	d5f2      	bpl.n	200bb6 <GLCD_Initialize+0x4ee>
  200bd0:	f850 2c04 	ldr.w	r2, [r0, #-4]
  200bd4:	2200      	movs	r2, #0
  200bd6:	f840 2c04 	str.w	r2, [r0, #-4]
  200bda:	6802      	ldr	r2, [r0, #0]
  200bdc:	0752      	lsls	r2, r2, #29
  200bde:	d409      	bmi.n	200bf4 <GLCD_Initialize+0x52c>
  200be0:	6802      	ldr	r2, [r0, #0]
  200be2:	0752      	lsls	r2, r2, #29
  200be4:	bf5c      	itt	pl
  200be6:	6802      	ldrpl	r2, [r0, #0]
  200be8:	ea5f 7242 	movspl.w	r2, r2, lsl #29
  200bec:	d402      	bmi.n	200bf4 <GLCD_Initialize+0x52c>
  200bee:	6802      	ldr	r2, [r0, #0]
  200bf0:	0752      	lsls	r2, r2, #29
  200bf2:	d5f2      	bpl.n	200bda <GLCD_Initialize+0x512>
  200bf4:	f850 2c04 	ldr.w	r2, [r0, #-4]
  200bf8:	22ed      	movs	r2, #237	; 0xed
  200bfa:	f840 2c04 	str.w	r2, [r0, #-4]
  200bfe:	6802      	ldr	r2, [r0, #0]
  200c00:	0752      	lsls	r2, r2, #29
  200c02:	d409      	bmi.n	200c18 <GLCD_Initialize+0x550>
  200c04:	6802      	ldr	r2, [r0, #0]
  200c06:	0752      	lsls	r2, r2, #29
  200c08:	bf5c      	itt	pl
  200c0a:	6802      	ldrpl	r2, [r0, #0]
  200c0c:	ea5f 7242 	movspl.w	r2, r2, lsl #29
  200c10:	d402      	bmi.n	200c18 <GLCD_Initialize+0x550>
  200c12:	6802      	ldr	r2, [r0, #0]
  200c14:	0752      	lsls	r2, r2, #29
  200c16:	d5f2      	bpl.n	200bfe <GLCD_Initialize+0x536>
  200c18:	f850 2c04 	ldr.w	r2, [r0, #-4]
  200c1c:	680a      	ldr	r2, [r1, #0]
  200c1e:	f042 0201 	orr.w	r2, r2, #1
  200c22:	600a      	str	r2, [r1, #0]
  200c24:	680a      	ldr	r2, [r1, #0]
  200c26:	f022 0201 	bic.w	r2, r2, #1
  200c2a:	600a      	str	r2, [r1, #0]
  200c2c:	2272      	movs	r2, #114	; 0x72
  200c2e:	f840 2c04 	str.w	r2, [r0, #-4]
  200c32:	6802      	ldr	r2, [r0, #0]
  200c34:	0752      	lsls	r2, r2, #29
  200c36:	d409      	bmi.n	200c4c <GLCD_Initialize+0x584>
  200c38:	6802      	ldr	r2, [r0, #0]
  200c3a:	0752      	lsls	r2, r2, #29
  200c3c:	bf5c      	itt	pl
  200c3e:	6802      	ldrpl	r2, [r0, #0]
  200c40:	ea5f 7242 	movspl.w	r2, r2, lsl #29
  200c44:	d402      	bmi.n	200c4c <GLCD_Initialize+0x584>
  200c46:	6802      	ldr	r2, [r0, #0]
  200c48:	0752      	lsls	r2, r2, #29
  200c4a:	d5f2      	bpl.n	200c32 <GLCD_Initialize+0x56a>
  200c4c:	f850 2c04 	ldr.w	r2, [r0, #-4]
  200c50:	2200      	movs	r2, #0
  200c52:	f840 2c04 	str.w	r2, [r0, #-4]
  200c56:	6802      	ldr	r2, [r0, #0]
  200c58:	0752      	lsls	r2, r2, #29
  200c5a:	d409      	bmi.n	200c70 <GLCD_Initialize+0x5a8>
  200c5c:	6802      	ldr	r2, [r0, #0]
  200c5e:	0752      	lsls	r2, r2, #29
  200c60:	bf5c      	itt	pl
  200c62:	6802      	ldrpl	r2, [r0, #0]
  200c64:	ea5f 7242 	movspl.w	r2, r2, lsl #29
  200c68:	d402      	bmi.n	200c70 <GLCD_Initialize+0x5a8>
  200c6a:	6802      	ldr	r2, [r0, #0]
  200c6c:	0752      	lsls	r2, r2, #29
  200c6e:	d5f2      	bpl.n	200c56 <GLCD_Initialize+0x58e>
  200c70:	f850 2c04 	ldr.w	r2, [r0, #-4]
  200c74:	22c7      	movs	r2, #199	; 0xc7
  200c76:	f840 2c04 	str.w	r2, [r0, #-4]
  200c7a:	6802      	ldr	r2, [r0, #0]
  200c7c:	0752      	lsls	r2, r2, #29
  200c7e:	d409      	bmi.n	200c94 <GLCD_Initialize+0x5cc>
  200c80:	6802      	ldr	r2, [r0, #0]
  200c82:	0752      	lsls	r2, r2, #29
  200c84:	bf5c      	itt	pl
  200c86:	6802      	ldrpl	r2, [r0, #0]
  200c88:	ea5f 7242 	movspl.w	r2, r2, lsl #29
  200c8c:	d402      	bmi.n	200c94 <GLCD_Initialize+0x5cc>
  200c8e:	6802      	ldr	r2, [r0, #0]
  200c90:	0752      	lsls	r2, r2, #29
  200c92:	d5f2      	bpl.n	200c7a <GLCD_Initialize+0x5b2>
  200c94:	f850 2c04 	ldr.w	r2, [r0, #-4]
  200c98:	680a      	ldr	r2, [r1, #0]
  200c9a:	f042 0201 	orr.w	r2, r2, #1
  200c9e:	600a      	str	r2, [r1, #0]
  200ca0:	680a      	ldr	r2, [r1, #0]
  200ca2:	f022 0201 	bic.w	r2, r2, #1
  200ca6:	600a      	str	r2, [r1, #0]
  200ca8:	2270      	movs	r2, #112	; 0x70
  200caa:	f840 2c04 	str.w	r2, [r0, #-4]
  200cae:	6802      	ldr	r2, [r0, #0]
  200cb0:	0752      	lsls	r2, r2, #29
  200cb2:	d409      	bmi.n	200cc8 <GLCD_Initialize+0x600>
  200cb4:	6802      	ldr	r2, [r0, #0]
  200cb6:	0752      	lsls	r2, r2, #29
  200cb8:	bf5c      	itt	pl
  200cba:	6802      	ldrpl	r2, [r0, #0]
  200cbc:	ea5f 7242 	movspl.w	r2, r2, lsl #29
  200cc0:	d402      	bmi.n	200cc8 <GLCD_Initialize+0x600>
  200cc2:	6802      	ldr	r2, [r0, #0]
  200cc4:	0752      	lsls	r2, r2, #29
  200cc6:	d5f2      	bpl.n	200cae <GLCD_Initialize+0x5e6>
  200cc8:	f850 2c04 	ldr.w	r2, [r0, #-4]
  200ccc:	2200      	movs	r2, #0
  200cce:	f840 2c04 	str.w	r2, [r0, #-4]
  200cd2:	6802      	ldr	r2, [r0, #0]
  200cd4:	0752      	lsls	r2, r2, #29
  200cd6:	d409      	bmi.n	200cec <GLCD_Initialize+0x624>
  200cd8:	6802      	ldr	r2, [r0, #0]
  200cda:	0752      	lsls	r2, r2, #29
  200cdc:	bf5c      	itt	pl
  200cde:	6802      	ldrpl	r2, [r0, #0]
  200ce0:	ea5f 7242 	movspl.w	r2, r2, lsl #29
  200ce4:	d402      	bmi.n	200cec <GLCD_Initialize+0x624>
  200ce6:	6802      	ldr	r2, [r0, #0]
  200ce8:	0752      	lsls	r2, r2, #29
  200cea:	d5f2      	bpl.n	200cd2 <GLCD_Initialize+0x60a>
  200cec:	f850 2c04 	ldr.w	r2, [r0, #-4]
  200cf0:	22e8      	movs	r2, #232	; 0xe8
  200cf2:	f840 2c04 	str.w	r2, [r0, #-4]
  200cf6:	6802      	ldr	r2, [r0, #0]
  200cf8:	0752      	lsls	r2, r2, #29
  200cfa:	d409      	bmi.n	200d10 <GLCD_Initialize+0x648>
  200cfc:	6802      	ldr	r2, [r0, #0]
  200cfe:	0752      	lsls	r2, r2, #29
  200d00:	bf5c      	itt	pl
  200d02:	6802      	ldrpl	r2, [r0, #0]
  200d04:	ea5f 7242 	movspl.w	r2, r2, lsl #29
  200d08:	d402      	bmi.n	200d10 <GLCD_Initialize+0x648>
  200d0a:	6802      	ldr	r2, [r0, #0]
  200d0c:	0752      	lsls	r2, r2, #29
  200d0e:	d5f2      	bpl.n	200cf6 <GLCD_Initialize+0x62e>
  200d10:	f850 2c04 	ldr.w	r2, [r0, #-4]
  200d14:	680a      	ldr	r2, [r1, #0]
  200d16:	f042 0201 	orr.w	r2, r2, #1
  200d1a:	600a      	str	r2, [r1, #0]
  200d1c:	680a      	ldr	r2, [r1, #0]
  200d1e:	f022 0201 	bic.w	r2, r2, #1
  200d22:	600a      	str	r2, [r1, #0]
  200d24:	2272      	movs	r2, #114	; 0x72
  200d26:	f840 2c04 	str.w	r2, [r0, #-4]
  200d2a:	6802      	ldr	r2, [r0, #0]
  200d2c:	0752      	lsls	r2, r2, #29
  200d2e:	d409      	bmi.n	200d44 <GLCD_Initialize+0x67c>
  200d30:	6802      	ldr	r2, [r0, #0]
  200d32:	0752      	lsls	r2, r2, #29
  200d34:	bf5c      	itt	pl
  200d36:	6802      	ldrpl	r2, [r0, #0]
  200d38:	ea5f 7242 	movspl.w	r2, r2, lsl #29
  200d3c:	d402      	bmi.n	200d44 <GLCD_Initialize+0x67c>
  200d3e:	6802      	ldr	r2, [r0, #0]
  200d40:	0752      	lsls	r2, r2, #29
  200d42:	d5f2      	bpl.n	200d2a <GLCD_Initialize+0x662>
  200d44:	f850 2c04 	ldr.w	r2, [r0, #-4]
  200d48:	2200      	movs	r2, #0
  200d4a:	f840 2c04 	str.w	r2, [r0, #-4]
  200d4e:	6802      	ldr	r2, [r0, #0]
  200d50:	0752      	lsls	r2, r2, #29
  200d52:	d409      	bmi.n	200d68 <GLCD_Initialize+0x6a0>
  200d54:	6802      	ldr	r2, [r0, #0]
  200d56:	0752      	lsls	r2, r2, #29
  200d58:	bf5c      	itt	pl
  200d5a:	6802      	ldrpl	r2, [r0, #0]
  200d5c:	ea5f 7242 	movspl.w	r2, r2, lsl #29
  200d60:	d402      	bmi.n	200d68 <GLCD_Initialize+0x6a0>
  200d62:	6802      	ldr	r2, [r0, #0]
  200d64:	0752      	lsls	r2, r2, #29
  200d66:	d5f2      	bpl.n	200d4e <GLCD_Initialize+0x686>
  200d68:	f850 2c04 	ldr.w	r2, [r0, #-4]
  200d6c:	2238      	movs	r2, #56	; 0x38
  200d6e:	f840 2c04 	str.w	r2, [r0, #-4]
  200d72:	6802      	ldr	r2, [r0, #0]
  200d74:	0752      	lsls	r2, r2, #29
  200d76:	d409      	bmi.n	200d8c <GLCD_Initialize+0x6c4>
  200d78:	6802      	ldr	r2, [r0, #0]
  200d7a:	0752      	lsls	r2, r2, #29
  200d7c:	bf5c      	itt	pl
  200d7e:	6802      	ldrpl	r2, [r0, #0]
  200d80:	ea5f 7242 	movspl.w	r2, r2, lsl #29
  200d84:	d402      	bmi.n	200d8c <GLCD_Initialize+0x6c4>
  200d86:	6802      	ldr	r2, [r0, #0]
  200d88:	0752      	lsls	r2, r2, #29
  200d8a:	d5f2      	bpl.n	200d72 <GLCD_Initialize+0x6aa>
  200d8c:	f850 2c04 	ldr.w	r2, [r0, #-4]
  200d90:	680a      	ldr	r2, [r1, #0]
  200d92:	f042 0201 	orr.w	r2, r2, #1
  200d96:	600a      	str	r2, [r1, #0]
  200d98:	680a      	ldr	r2, [r1, #0]
  200d9a:	f022 0201 	bic.w	r2, r2, #1
  200d9e:	600a      	str	r2, [r1, #0]
  200da0:	2270      	movs	r2, #112	; 0x70
  200da2:	f840 2c04 	str.w	r2, [r0, #-4]
  200da6:	6802      	ldr	r2, [r0, #0]
  200da8:	0752      	lsls	r2, r2, #29
  200daa:	d409      	bmi.n	200dc0 <GLCD_Initialize+0x6f8>
  200dac:	6802      	ldr	r2, [r0, #0]
  200dae:	0752      	lsls	r2, r2, #29
  200db0:	bf5c      	itt	pl
  200db2:	6802      	ldrpl	r2, [r0, #0]
  200db4:	ea5f 7242 	movspl.w	r2, r2, lsl #29
  200db8:	d402      	bmi.n	200dc0 <GLCD_Initialize+0x6f8>
  200dba:	6802      	ldr	r2, [r0, #0]
  200dbc:	0752      	lsls	r2, r2, #29
  200dbe:	d5f2      	bpl.n	200da6 <GLCD_Initialize+0x6de>
  200dc0:	f850 2c04 	ldr.w	r2, [r0, #-4]
  200dc4:	2200      	movs	r2, #0
  200dc6:	f840 2c04 	str.w	r2, [r0, #-4]
  200dca:	6802      	ldr	r2, [r0, #0]
  200dcc:	0752      	lsls	r2, r2, #29
  200dce:	d409      	bmi.n	200de4 <GLCD_Initialize+0x71c>
  200dd0:	6802      	ldr	r2, [r0, #0]
  200dd2:	0752      	lsls	r2, r2, #29
  200dd4:	bf5c      	itt	pl
  200dd6:	6802      	ldrpl	r2, [r0, #0]
  200dd8:	ea5f 7242 	movspl.w	r2, r2, lsl #29
  200ddc:	d402      	bmi.n	200de4 <GLCD_Initialize+0x71c>
  200dde:	6802      	ldr	r2, [r0, #0]
  200de0:	0752      	lsls	r2, r2, #29
  200de2:	d5f2      	bpl.n	200dca <GLCD_Initialize+0x702>
  200de4:	f850 2c04 	ldr.w	r2, [r0, #-4]
  200de8:	22e9      	movs	r2, #233	; 0xe9
  200dea:	f840 2c04 	str.w	r2, [r0, #-4]
  200dee:	6802      	ldr	r2, [r0, #0]
  200df0:	0752      	lsls	r2, r2, #29
  200df2:	d409      	bmi.n	200e08 <GLCD_Initialize+0x740>
  200df4:	6802      	ldr	r2, [r0, #0]
  200df6:	0752      	lsls	r2, r2, #29
  200df8:	bf5c      	itt	pl
  200dfa:	6802      	ldrpl	r2, [r0, #0]
  200dfc:	ea5f 7242 	movspl.w	r2, r2, lsl #29
  200e00:	d402      	bmi.n	200e08 <GLCD_Initialize+0x740>
  200e02:	6802      	ldr	r2, [r0, #0]
  200e04:	0752      	lsls	r2, r2, #29
  200e06:	d5f2      	bpl.n	200dee <GLCD_Initialize+0x726>
  200e08:	f850 2c04 	ldr.w	r2, [r0, #-4]
  200e0c:	680a      	ldr	r2, [r1, #0]
  200e0e:	f042 0201 	orr.w	r2, r2, #1
  200e12:	600a      	str	r2, [r1, #0]
  200e14:	680a      	ldr	r2, [r1, #0]
  200e16:	f022 0201 	bic.w	r2, r2, #1
  200e1a:	600a      	str	r2, [r1, #0]
  200e1c:	2272      	movs	r2, #114	; 0x72
  200e1e:	f840 2c04 	str.w	r2, [r0, #-4]
  200e22:	6802      	ldr	r2, [r0, #0]
  200e24:	0752      	lsls	r2, r2, #29
  200e26:	d409      	bmi.n	200e3c <GLCD_Initialize+0x774>
  200e28:	6802      	ldr	r2, [r0, #0]
  200e2a:	0752      	lsls	r2, r2, #29
  200e2c:	bf5c      	itt	pl
  200e2e:	6802      	ldrpl	r2, [r0, #0]
  200e30:	ea5f 7242 	movspl.w	r2, r2, lsl #29
  200e34:	d402      	bmi.n	200e3c <GLCD_Initialize+0x774>
  200e36:	6802      	ldr	r2, [r0, #0]
  200e38:	0752      	lsls	r2, r2, #29
  200e3a:	d5f2      	bpl.n	200e22 <GLCD_Initialize+0x75a>
  200e3c:	f850 2c04 	ldr.w	r2, [r0, #-4]
  200e40:	2200      	movs	r2, #0
  200e42:	f840 2c04 	str.w	r2, [r0, #-4]
  200e46:	6802      	ldr	r2, [r0, #0]
  200e48:	0752      	lsls	r2, r2, #29
  200e4a:	d409      	bmi.n	200e60 <GLCD_Initialize+0x798>
  200e4c:	6802      	ldr	r2, [r0, #0]
  200e4e:	0752      	lsls	r2, r2, #29
  200e50:	bf5c      	itt	pl
  200e52:	6802      	ldrpl	r2, [r0, #0]
  200e54:	ea5f 7242 	movspl.w	r2, r2, lsl #29
  200e58:	d402      	bmi.n	200e60 <GLCD_Initialize+0x798>
  200e5a:	6802      	ldr	r2, [r0, #0]
  200e5c:	0752      	lsls	r2, r2, #29
  200e5e:	d5f2      	bpl.n	200e46 <GLCD_Initialize+0x77e>
  200e60:	f850 2c04 	ldr.w	r2, [r0, #-4]
  200e64:	2210      	movs	r2, #16
  200e66:	f840 2c04 	str.w	r2, [r0, #-4]
  200e6a:	6802      	ldr	r2, [r0, #0]
  200e6c:	0752      	lsls	r2, r2, #29
  200e6e:	d409      	bmi.n	200e84 <GLCD_Initialize+0x7bc>
  200e70:	6802      	ldr	r2, [r0, #0]
  200e72:	0752      	lsls	r2, r2, #29
  200e74:	bf5c      	itt	pl
  200e76:	6802      	ldrpl	r2, [r0, #0]
  200e78:	ea5f 7242 	movspl.w	r2, r2, lsl #29
  200e7c:	d402      	bmi.n	200e84 <GLCD_Initialize+0x7bc>
  200e7e:	6802      	ldr	r2, [r0, #0]
  200e80:	0752      	lsls	r2, r2, #29
  200e82:	d5f2      	bpl.n	200e6a <GLCD_Initialize+0x7a2>
  200e84:	f850 2c04 	ldr.w	r2, [r0, #-4]
  200e88:	680a      	ldr	r2, [r1, #0]
  200e8a:	f042 0201 	orr.w	r2, r2, #1
  200e8e:	600a      	str	r2, [r1, #0]
  200e90:	680a      	ldr	r2, [r1, #0]
  200e92:	f022 0201 	bic.w	r2, r2, #1
  200e96:	600a      	str	r2, [r1, #0]
  200e98:	2270      	movs	r2, #112	; 0x70
  200e9a:	f840 2c04 	str.w	r2, [r0, #-4]
  200e9e:	6802      	ldr	r2, [r0, #0]
  200ea0:	0752      	lsls	r2, r2, #29
  200ea2:	d409      	bmi.n	200eb8 <GLCD_Initialize+0x7f0>
  200ea4:	6802      	ldr	r2, [r0, #0]
  200ea6:	0752      	lsls	r2, r2, #29
  200ea8:	bf5c      	itt	pl
  200eaa:	6802      	ldrpl	r2, [r0, #0]
  200eac:	ea5f 7242 	movspl.w	r2, r2, lsl #29
  200eb0:	d402      	bmi.n	200eb8 <GLCD_Initialize+0x7f0>
  200eb2:	6802      	ldr	r2, [r0, #0]
  200eb4:	0752      	lsls	r2, r2, #29
  200eb6:	d5f2      	bpl.n	200e9e <GLCD_Initialize+0x7d6>
  200eb8:	f850 2c04 	ldr.w	r2, [r0, #-4]
  200ebc:	2200      	movs	r2, #0
  200ebe:	f840 2c04 	str.w	r2, [r0, #-4]
  200ec2:	6802      	ldr	r2, [r0, #0]
  200ec4:	0752      	lsls	r2, r2, #29
  200ec6:	d409      	bmi.n	200edc <GLCD_Initialize+0x814>
  200ec8:	6802      	ldr	r2, [r0, #0]
  200eca:	0752      	lsls	r2, r2, #29
  200ecc:	bf5c      	itt	pl
  200ece:	6802      	ldrpl	r2, [r0, #0]
  200ed0:	ea5f 7242 	movspl.w	r2, r2, lsl #29
  200ed4:	d402      	bmi.n	200edc <GLCD_Initialize+0x814>
  200ed6:	6802      	ldr	r2, [r0, #0]
  200ed8:	0752      	lsls	r2, r2, #29
  200eda:	d5f2      	bpl.n	200ec2 <GLCD_Initialize+0x7fa>
  200edc:	f850 2c04 	ldr.w	r2, [r0, #-4]
  200ee0:	22f1      	movs	r2, #241	; 0xf1
  200ee2:	f840 2c04 	str.w	r2, [r0, #-4]
  200ee6:	6802      	ldr	r2, [r0, #0]
  200ee8:	0752      	lsls	r2, r2, #29
  200eea:	d409      	bmi.n	200f00 <GLCD_Initialize+0x838>
  200eec:	6802      	ldr	r2, [r0, #0]
  200eee:	0752      	lsls	r2, r2, #29
  200ef0:	bf5c      	itt	pl
  200ef2:	6802      	ldrpl	r2, [r0, #0]
  200ef4:	ea5f 7242 	movspl.w	r2, r2, lsl #29
  200ef8:	d402      	bmi.n	200f00 <GLCD_Initialize+0x838>
  200efa:	6802      	ldr	r2, [r0, #0]
  200efc:	0752      	lsls	r2, r2, #29
  200efe:	d5f2      	bpl.n	200ee6 <GLCD_Initialize+0x81e>
  200f00:	f850 2c04 	ldr.w	r2, [r0, #-4]
  200f04:	680a      	ldr	r2, [r1, #0]
  200f06:	f042 0201 	orr.w	r2, r2, #1
  200f0a:	600a      	str	r2, [r1, #0]
  200f0c:	680a      	ldr	r2, [r1, #0]
  200f0e:	f022 0201 	bic.w	r2, r2, #1
  200f12:	600a      	str	r2, [r1, #0]
  200f14:	2272      	movs	r2, #114	; 0x72
  200f16:	f840 2c04 	str.w	r2, [r0, #-4]
  200f1a:	6802      	ldr	r2, [r0, #0]
  200f1c:	0752      	lsls	r2, r2, #29
  200f1e:	d409      	bmi.n	200f34 <GLCD_Initialize+0x86c>
  200f20:	6802      	ldr	r2, [r0, #0]
  200f22:	0752      	lsls	r2, r2, #29
  200f24:	bf5c      	itt	pl
  200f26:	6802      	ldrpl	r2, [r0, #0]
  200f28:	ea5f 7242 	movspl.w	r2, r2, lsl #29
  200f2c:	d402      	bmi.n	200f34 <GLCD_Initialize+0x86c>
  200f2e:	6802      	ldr	r2, [r0, #0]
  200f30:	0752      	lsls	r2, r2, #29
  200f32:	d5f2      	bpl.n	200f1a <GLCD_Initialize+0x852>
  200f34:	f850 2c04 	ldr.w	r2, [r0, #-4]
  200f38:	2200      	movs	r2, #0
  200f3a:	f840 2c04 	str.w	r2, [r0, #-4]
  200f3e:	6802      	ldr	r2, [r0, #0]
  200f40:	0752      	lsls	r2, r2, #29
  200f42:	d409      	bmi.n	200f58 <GLCD_Initialize+0x890>
  200f44:	6802      	ldr	r2, [r0, #0]
  200f46:	0752      	lsls	r2, r2, #29
  200f48:	bf5c      	itt	pl
  200f4a:	6802      	ldrpl	r2, [r0, #0]
  200f4c:	ea5f 7242 	movspl.w	r2, r2, lsl #29
  200f50:	d402      	bmi.n	200f58 <GLCD_Initialize+0x890>
  200f52:	6802      	ldr	r2, [r0, #0]
  200f54:	0752      	lsls	r2, r2, #29
  200f56:	d5f2      	bpl.n	200f3e <GLCD_Initialize+0x876>
  200f58:	f850 2c04 	ldr.w	r2, [r0, #-4]
  200f5c:	2201      	movs	r2, #1
  200f5e:	f840 2c04 	str.w	r2, [r0, #-4]
  200f62:	6802      	ldr	r2, [r0, #0]
  200f64:	0752      	lsls	r2, r2, #29
  200f66:	d409      	bmi.n	200f7c <GLCD_Initialize+0x8b4>
  200f68:	6802      	ldr	r2, [r0, #0]
  200f6a:	0752      	lsls	r2, r2, #29
  200f6c:	bf5c      	itt	pl
  200f6e:	6802      	ldrpl	r2, [r0, #0]
  200f70:	ea5f 7242 	movspl.w	r2, r2, lsl #29
  200f74:	d402      	bmi.n	200f7c <GLCD_Initialize+0x8b4>
  200f76:	6802      	ldr	r2, [r0, #0]
  200f78:	0752      	lsls	r2, r2, #29
  200f7a:	d5f2      	bpl.n	200f62 <GLCD_Initialize+0x89a>
  200f7c:	f850 2c04 	ldr.w	r2, [r0, #-4]
  200f80:	680a      	ldr	r2, [r1, #0]
  200f82:	f042 0201 	orr.w	r2, r2, #1
  200f86:	600a      	str	r2, [r1, #0]
  200f88:	680a      	ldr	r2, [r1, #0]
  200f8a:	f022 0201 	bic.w	r2, r2, #1
  200f8e:	600a      	str	r2, [r1, #0]
  200f90:	2270      	movs	r2, #112	; 0x70
  200f92:	f840 2c04 	str.w	r2, [r0, #-4]
  200f96:	6802      	ldr	r2, [r0, #0]
  200f98:	0752      	lsls	r2, r2, #29
  200f9a:	d409      	bmi.n	200fb0 <GLCD_Initialize+0x8e8>
  200f9c:	6802      	ldr	r2, [r0, #0]
  200f9e:	0752      	lsls	r2, r2, #29
  200fa0:	bf5c      	itt	pl
  200fa2:	6802      	ldrpl	r2, [r0, #0]
  200fa4:	ea5f 7242 	movspl.w	r2, r2, lsl #29
  200fa8:	d402      	bmi.n	200fb0 <GLCD_Initialize+0x8e8>
  200faa:	6802      	ldr	r2, [r0, #0]
  200fac:	0752      	lsls	r2, r2, #29
  200fae:	d5f2      	bpl.n	200f96 <GLCD_Initialize+0x8ce>
  200fb0:	f850 2c04 	ldr.w	r2, [r0, #-4]
  200fb4:	2200      	movs	r2, #0
  200fb6:	f840 2c04 	str.w	r2, [r0, #-4]
  200fba:	6802      	ldr	r2, [r0, #0]
  200fbc:	0752      	lsls	r2, r2, #29
  200fbe:	d409      	bmi.n	200fd4 <GLCD_Initialize+0x90c>
  200fc0:	6802      	ldr	r2, [r0, #0]
  200fc2:	0752      	lsls	r2, r2, #29
  200fc4:	bf5c      	itt	pl
  200fc6:	6802      	ldrpl	r2, [r0, #0]
  200fc8:	ea5f 7242 	movspl.w	r2, r2, lsl #29
  200fcc:	d402      	bmi.n	200fd4 <GLCD_Initialize+0x90c>
  200fce:	6802      	ldr	r2, [r0, #0]
  200fd0:	0752      	lsls	r2, r2, #29
  200fd2:	d5f2      	bpl.n	200fba <GLCD_Initialize+0x8f2>
  200fd4:	f850 2c04 	ldr.w	r2, [r0, #-4]
  200fd8:	22f2      	movs	r2, #242	; 0xf2
  200fda:	f840 2c04 	str.w	r2, [r0, #-4]
  200fde:	6802      	ldr	r2, [r0, #0]
  200fe0:	0752      	lsls	r2, r2, #29
  200fe2:	d409      	bmi.n	200ff8 <GLCD_Initialize+0x930>
  200fe4:	6802      	ldr	r2, [r0, #0]
  200fe6:	0752      	lsls	r2, r2, #29
  200fe8:	bf5c      	itt	pl
  200fea:	6802      	ldrpl	r2, [r0, #0]
  200fec:	ea5f 7242 	movspl.w	r2, r2, lsl #29
  200ff0:	d402      	bmi.n	200ff8 <GLCD_Initialize+0x930>
  200ff2:	6802      	ldr	r2, [r0, #0]
  200ff4:	0752      	lsls	r2, r2, #29
  200ff6:	d5f2      	bpl.n	200fde <GLCD_Initialize+0x916>
  200ff8:	f850 2c04 	ldr.w	r2, [r0, #-4]
  200ffc:	680a      	ldr	r2, [r1, #0]
  200ffe:	f042 0201 	orr.w	r2, r2, #1
  201002:	600a      	str	r2, [r1, #0]
  201004:	680a      	ldr	r2, [r1, #0]
  201006:	f022 0201 	bic.w	r2, r2, #1
  20100a:	600a      	str	r2, [r1, #0]
  20100c:	2272      	movs	r2, #114	; 0x72
  20100e:	f840 2c04 	str.w	r2, [r0, #-4]
  201012:	6802      	ldr	r2, [r0, #0]
  201014:	0752      	lsls	r2, r2, #29
  201016:	d409      	bmi.n	20102c <GLCD_Initialize+0x964>
  201018:	6802      	ldr	r2, [r0, #0]
  20101a:	0752      	lsls	r2, r2, #29
  20101c:	bf5c      	itt	pl
  20101e:	6802      	ldrpl	r2, [r0, #0]
  201020:	ea5f 7242 	movspl.w	r2, r2, lsl #29
  201024:	d402      	bmi.n	20102c <GLCD_Initialize+0x964>
  201026:	6802      	ldr	r2, [r0, #0]
  201028:	0752      	lsls	r2, r2, #29
  20102a:	d5f2      	bpl.n	201012 <GLCD_Initialize+0x94a>
  20102c:	f850 2c04 	ldr.w	r2, [r0, #-4]
  201030:	2200      	movs	r2, #0
  201032:	f840 2c04 	str.w	r2, [r0, #-4]
  201036:	6802      	ldr	r2, [r0, #0]
  201038:	0752      	lsls	r2, r2, #29
  20103a:	d409      	bmi.n	201050 <GLCD_Initialize+0x988>
  20103c:	6802      	ldr	r2, [r0, #0]
  20103e:	0752      	lsls	r2, r2, #29
  201040:	bf5c      	itt	pl
  201042:	6802      	ldrpl	r2, [r0, #0]
  201044:	ea5f 7242 	movspl.w	r2, r2, lsl #29
  201048:	d402      	bmi.n	201050 <GLCD_Initialize+0x988>
  20104a:	6802      	ldr	r2, [r0, #0]
  20104c:	0752      	lsls	r2, r2, #29
  20104e:	d5f2      	bpl.n	201036 <GLCD_Initialize+0x96e>
  201050:	f850 2c04 	ldr.w	r2, [r0, #-4]
  201054:	2210      	movs	r2, #16
  201056:	f840 2c04 	str.w	r2, [r0, #-4]
  20105a:	6802      	ldr	r2, [r0, #0]
  20105c:	0752      	lsls	r2, r2, #29
  20105e:	d409      	bmi.n	201074 <GLCD_Initialize+0x9ac>
  201060:	6802      	ldr	r2, [r0, #0]
  201062:	0752      	lsls	r2, r2, #29
  201064:	bf5c      	itt	pl
  201066:	6802      	ldrpl	r2, [r0, #0]
  201068:	ea5f 7242 	movspl.w	r2, r2, lsl #29
  20106c:	d402      	bmi.n	201074 <GLCD_Initialize+0x9ac>
  20106e:	6802      	ldr	r2, [r0, #0]
  201070:	0752      	lsls	r2, r2, #29
  201072:	d5f2      	bpl.n	20105a <GLCD_Initialize+0x992>
  201074:	f850 2c04 	ldr.w	r2, [r0, #-4]
  201078:	680a      	ldr	r2, [r1, #0]
  20107a:	f042 0201 	orr.w	r2, r2, #1
  20107e:	600a      	str	r2, [r1, #0]
  201080:	680a      	ldr	r2, [r1, #0]
  201082:	f022 0201 	bic.w	r2, r2, #1
  201086:	600a      	str	r2, [r1, #0]
  201088:	2270      	movs	r2, #112	; 0x70
  20108a:	f840 2c04 	str.w	r2, [r0, #-4]
  20108e:	6802      	ldr	r2, [r0, #0]
  201090:	0752      	lsls	r2, r2, #29
  201092:	d409      	bmi.n	2010a8 <GLCD_Initialize+0x9e0>
  201094:	6802      	ldr	r2, [r0, #0]
  201096:	0752      	lsls	r2, r2, #29
  201098:	bf5c      	itt	pl
  20109a:	6802      	ldrpl	r2, [r0, #0]
  20109c:	ea5f 7242 	movspl.w	r2, r2, lsl #29
  2010a0:	d402      	bmi.n	2010a8 <GLCD_Initialize+0x9e0>
  2010a2:	6802      	ldr	r2, [r0, #0]
  2010a4:	0752      	lsls	r2, r2, #29
  2010a6:	d5f2      	bpl.n	20108e <GLCD_Initialize+0x9c6>
  2010a8:	f850 2c04 	ldr.w	r2, [r0, #-4]
  2010ac:	2200      	movs	r2, #0
  2010ae:	f840 2c04 	str.w	r2, [r0, #-4]
  2010b2:	6802      	ldr	r2, [r0, #0]
  2010b4:	0752      	lsls	r2, r2, #29
  2010b6:	d409      	bmi.n	2010cc <GLCD_Initialize+0xa04>
  2010b8:	6802      	ldr	r2, [r0, #0]
  2010ba:	0752      	lsls	r2, r2, #29
  2010bc:	bf5c      	itt	pl
  2010be:	6802      	ldrpl	r2, [r0, #0]
  2010c0:	ea5f 7242 	movspl.w	r2, r2, lsl #29
  2010c4:	d402      	bmi.n	2010cc <GLCD_Initialize+0xa04>
  2010c6:	6802      	ldr	r2, [r0, #0]
  2010c8:	0752      	lsls	r2, r2, #29
  2010ca:	d5f2      	bpl.n	2010b2 <GLCD_Initialize+0x9ea>
  2010cc:	f850 2c04 	ldr.w	r2, [r0, #-4]
  2010d0:	2240      	movs	r2, #64	; 0x40
  2010d2:	f840 2c04 	str.w	r2, [r0, #-4]
  2010d6:	6802      	ldr	r2, [r0, #0]
  2010d8:	0752      	lsls	r2, r2, #29
  2010da:	d409      	bmi.n	2010f0 <GLCD_Initialize+0xa28>
  2010dc:	6802      	ldr	r2, [r0, #0]
  2010de:	0752      	lsls	r2, r2, #29
  2010e0:	bf5c      	itt	pl
  2010e2:	6802      	ldrpl	r2, [r0, #0]
  2010e4:	ea5f 7242 	movspl.w	r2, r2, lsl #29
  2010e8:	d402      	bmi.n	2010f0 <GLCD_Initialize+0xa28>
  2010ea:	6802      	ldr	r2, [r0, #0]
  2010ec:	0752      	lsls	r2, r2, #29
  2010ee:	d5f2      	bpl.n	2010d6 <GLCD_Initialize+0xa0e>
  2010f0:	f850 2c04 	ldr.w	r2, [r0, #-4]
  2010f4:	680a      	ldr	r2, [r1, #0]
  2010f6:	f042 0201 	orr.w	r2, r2, #1
  2010fa:	600a      	str	r2, [r1, #0]
  2010fc:	680a      	ldr	r2, [r1, #0]
  2010fe:	f022 0201 	bic.w	r2, r2, #1
  201102:	600a      	str	r2, [r1, #0]
  201104:	2272      	movs	r2, #114	; 0x72
  201106:	f840 2c04 	str.w	r2, [r0, #-4]
  20110a:	6802      	ldr	r2, [r0, #0]
  20110c:	0752      	lsls	r2, r2, #29
  20110e:	d409      	bmi.n	201124 <GLCD_Initialize+0xa5c>
  201110:	6802      	ldr	r2, [r0, #0]
  201112:	0752      	lsls	r2, r2, #29
  201114:	bf5c      	itt	pl
  201116:	6802      	ldrpl	r2, [r0, #0]
  201118:	ea5f 7242 	movspl.w	r2, r2, lsl #29
  20111c:	d402      	bmi.n	201124 <GLCD_Initialize+0xa5c>
  20111e:	6802      	ldr	r2, [r0, #0]
  201120:	0752      	lsls	r2, r2, #29
  201122:	d5f2      	bpl.n	20110a <GLCD_Initialize+0xa42>
  201124:	f850 2c04 	ldr.w	r2, [r0, #-4]
  201128:	2200      	movs	r2, #0
  20112a:	f840 2c04 	str.w	r2, [r0, #-4]
  20112e:	6802      	ldr	r2, [r0, #0]
  201130:	0752      	lsls	r2, r2, #29
  201132:	d409      	bmi.n	201148 <GLCD_Initialize+0xa80>
  201134:	6802      	ldr	r2, [r0, #0]
  201136:	0752      	lsls	r2, r2, #29
  201138:	bf5c      	itt	pl
  20113a:	6802      	ldrpl	r2, [r0, #0]
  20113c:	ea5f 7242 	movspl.w	r2, r2, lsl #29
  201140:	d402      	bmi.n	201148 <GLCD_Initialize+0xa80>
  201142:	6802      	ldr	r2, [r0, #0]
  201144:	0752      	lsls	r2, r2, #29
  201146:	d5f2      	bpl.n	20112e <GLCD_Initialize+0xa66>
  201148:	f850 2c04 	ldr.w	r2, [r0, #-4]
  20114c:	2201      	movs	r2, #1
  20114e:	f840 2c04 	str.w	r2, [r0, #-4]
  201152:	6802      	ldr	r2, [r0, #0]
  201154:	0752      	lsls	r2, r2, #29
  201156:	d409      	bmi.n	20116c <GLCD_Initialize+0xaa4>
  201158:	6802      	ldr	r2, [r0, #0]
  20115a:	0752      	lsls	r2, r2, #29
  20115c:	bf5c      	itt	pl
  20115e:	6802      	ldrpl	r2, [r0, #0]
  201160:	ea5f 7242 	movspl.w	r2, r2, lsl #29
  201164:	d402      	bmi.n	20116c <GLCD_Initialize+0xaa4>
  201166:	6802      	ldr	r2, [r0, #0]
  201168:	0752      	lsls	r2, r2, #29
  20116a:	d5f2      	bpl.n	201152 <GLCD_Initialize+0xa8a>
  20116c:	f850 2c04 	ldr.w	r2, [r0, #-4]
  201170:	680a      	ldr	r2, [r1, #0]
  201172:	f042 0201 	orr.w	r2, r2, #1
  201176:	600a      	str	r2, [r1, #0]
  201178:	680a      	ldr	r2, [r1, #0]
  20117a:	f022 0201 	bic.w	r2, r2, #1
  20117e:	600a      	str	r2, [r1, #0]
  201180:	2270      	movs	r2, #112	; 0x70
  201182:	f840 2c04 	str.w	r2, [r0, #-4]
  201186:	6802      	ldr	r2, [r0, #0]
  201188:	0752      	lsls	r2, r2, #29
  20118a:	d409      	bmi.n	2011a0 <GLCD_Initialize+0xad8>
  20118c:	6802      	ldr	r2, [r0, #0]
  20118e:	0752      	lsls	r2, r2, #29
  201190:	bf5c      	itt	pl
  201192:	6802      	ldrpl	r2, [r0, #0]
  201194:	ea5f 7242 	movspl.w	r2, r2, lsl #29
  201198:	d402      	bmi.n	2011a0 <GLCD_Initialize+0xad8>
  20119a:	6802      	ldr	r2, [r0, #0]
  20119c:	0752      	lsls	r2, r2, #29
  20119e:	d5f2      	bpl.n	201186 <GLCD_Initialize+0xabe>
  2011a0:	f850 2c04 	ldr.w	r2, [r0, #-4]
  2011a4:	2200      	movs	r2, #0
  2011a6:	f840 2c04 	str.w	r2, [r0, #-4]
  2011aa:	6802      	ldr	r2, [r0, #0]
  2011ac:	0752      	lsls	r2, r2, #29
  2011ae:	d409      	bmi.n	2011c4 <GLCD_Initialize+0xafc>
  2011b0:	6802      	ldr	r2, [r0, #0]
  2011b2:	0752      	lsls	r2, r2, #29
  2011b4:	bf5c      	itt	pl
  2011b6:	6802      	ldrpl	r2, [r0, #0]
  2011b8:	ea5f 7242 	movspl.w	r2, r2, lsl #29
  2011bc:	d402      	bmi.n	2011c4 <GLCD_Initialize+0xafc>
  2011be:	6802      	ldr	r2, [r0, #0]
  2011c0:	0752      	lsls	r2, r2, #29
  2011c2:	d5f2      	bpl.n	2011aa <GLCD_Initialize+0xae2>
  2011c4:	f850 2c04 	ldr.w	r2, [r0, #-4]
  2011c8:	2241      	movs	r2, #65	; 0x41
  2011ca:	f840 2c04 	str.w	r2, [r0, #-4]
  2011ce:	6802      	ldr	r2, [r0, #0]
  2011d0:	0752      	lsls	r2, r2, #29
  2011d2:	d409      	bmi.n	2011e8 <GLCD_Initialize+0xb20>
  2011d4:	6802      	ldr	r2, [r0, #0]
  2011d6:	0752      	lsls	r2, r2, #29
  2011d8:	bf5c      	itt	pl
  2011da:	6802      	ldrpl	r2, [r0, #0]
  2011dc:	ea5f 7242 	movspl.w	r2, r2, lsl #29
  2011e0:	d402      	bmi.n	2011e8 <GLCD_Initialize+0xb20>
  2011e2:	6802      	ldr	r2, [r0, #0]
  2011e4:	0752      	lsls	r2, r2, #29
  2011e6:	d5f2      	bpl.n	2011ce <GLCD_Initialize+0xb06>
  2011e8:	f850 2c04 	ldr.w	r2, [r0, #-4]
  2011ec:	680a      	ldr	r2, [r1, #0]
  2011ee:	f042 0201 	orr.w	r2, r2, #1
  2011f2:	600a      	str	r2, [r1, #0]
  2011f4:	680a      	ldr	r2, [r1, #0]
  2011f6:	f022 0201 	bic.w	r2, r2, #1
  2011fa:	600a      	str	r2, [r1, #0]
  2011fc:	2272      	movs	r2, #114	; 0x72
  2011fe:	f840 2c04 	str.w	r2, [r0, #-4]
  201202:	6802      	ldr	r2, [r0, #0]
  201204:	0752      	lsls	r2, r2, #29
  201206:	d409      	bmi.n	20121c <GLCD_Initialize+0xb54>
  201208:	6802      	ldr	r2, [r0, #0]
  20120a:	0752      	lsls	r2, r2, #29
  20120c:	bf5c      	itt	pl
  20120e:	6802      	ldrpl	r2, [r0, #0]
  201210:	ea5f 7242 	movspl.w	r2, r2, lsl #29
  201214:	d402      	bmi.n	20121c <GLCD_Initialize+0xb54>
  201216:	6802      	ldr	r2, [r0, #0]
  201218:	0752      	lsls	r2, r2, #29
  20121a:	d5f2      	bpl.n	201202 <GLCD_Initialize+0xb3a>
  20121c:	f850 2c04 	ldr.w	r2, [r0, #-4]
  201220:	2200      	movs	r2, #0
  201222:	f840 2c04 	str.w	r2, [r0, #-4]
  201226:	6802      	ldr	r2, [r0, #0]
  201228:	0752      	lsls	r2, r2, #29
  20122a:	d409      	bmi.n	201240 <GLCD_Initialize+0xb78>
  20122c:	6802      	ldr	r2, [r0, #0]
  20122e:	0752      	lsls	r2, r2, #29
  201230:	bf5c      	itt	pl
  201232:	6802      	ldrpl	r2, [r0, #0]
  201234:	ea5f 7242 	movspl.w	r2, r2, lsl #29
  201238:	d402      	bmi.n	201240 <GLCD_Initialize+0xb78>
  20123a:	6802      	ldr	r2, [r0, #0]
  20123c:	0752      	lsls	r2, r2, #29
  20123e:	d5f2      	bpl.n	201226 <GLCD_Initialize+0xb5e>
  201240:	f850 2c04 	ldr.w	r2, [r0, #-4]
  201244:	2200      	movs	r2, #0
  201246:	f840 2c04 	str.w	r2, [r0, #-4]
  20124a:	6802      	ldr	r2, [r0, #0]
  20124c:	0752      	lsls	r2, r2, #29
  20124e:	d409      	bmi.n	201264 <GLCD_Initialize+0xb9c>
  201250:	6802      	ldr	r2, [r0, #0]
  201252:	0752      	lsls	r2, r2, #29
  201254:	bf5c      	itt	pl
  201256:	6802      	ldrpl	r2, [r0, #0]
  201258:	ea5f 7242 	movspl.w	r2, r2, lsl #29
  20125c:	d402      	bmi.n	201264 <GLCD_Initialize+0xb9c>
  20125e:	6802      	ldr	r2, [r0, #0]
  201260:	0752      	lsls	r2, r2, #29
  201262:	d5f2      	bpl.n	20124a <GLCD_Initialize+0xb82>
  201264:	f850 2c04 	ldr.w	r2, [r0, #-4]
  201268:	680a      	ldr	r2, [r1, #0]
  20126a:	f042 0201 	orr.w	r2, r2, #1
  20126e:	600a      	str	r2, [r1, #0]
  201270:	680a      	ldr	r2, [r1, #0]
  201272:	f022 0201 	bic.w	r2, r2, #1
  201276:	600a      	str	r2, [r1, #0]
  201278:	2270      	movs	r2, #112	; 0x70
  20127a:	f840 2c04 	str.w	r2, [r0, #-4]
  20127e:	6802      	ldr	r2, [r0, #0]
  201280:	0752      	lsls	r2, r2, #29
  201282:	d409      	bmi.n	201298 <GLCD_Initialize+0xbd0>
  201284:	6802      	ldr	r2, [r0, #0]
  201286:	0752      	lsls	r2, r2, #29
  201288:	bf5c      	itt	pl
  20128a:	6802      	ldrpl	r2, [r0, #0]
  20128c:	ea5f 7242 	movspl.w	r2, r2, lsl #29
  201290:	d402      	bmi.n	201298 <GLCD_Initialize+0xbd0>
  201292:	6802      	ldr	r2, [r0, #0]
  201294:	0752      	lsls	r2, r2, #29
  201296:	d5f2      	bpl.n	20127e <GLCD_Initialize+0xbb6>
  201298:	f850 2c04 	ldr.w	r2, [r0, #-4]
  20129c:	2200      	movs	r2, #0
  20129e:	f840 2c04 	str.w	r2, [r0, #-4]
  2012a2:	6802      	ldr	r2, [r0, #0]
  2012a4:	0752      	lsls	r2, r2, #29
  2012a6:	d409      	bmi.n	2012bc <GLCD_Initialize+0xbf4>
  2012a8:	6802      	ldr	r2, [r0, #0]
  2012aa:	0752      	lsls	r2, r2, #29
  2012ac:	bf5c      	itt	pl
  2012ae:	6802      	ldrpl	r2, [r0, #0]
  2012b0:	ea5f 7242 	movspl.w	r2, r2, lsl #29
  2012b4:	d402      	bmi.n	2012bc <GLCD_Initialize+0xbf4>
  2012b6:	6802      	ldr	r2, [r0, #0]
  2012b8:	0752      	lsls	r2, r2, #29
  2012ba:	d5f2      	bpl.n	2012a2 <GLCD_Initialize+0xbda>
  2012bc:	f850 2c04 	ldr.w	r2, [r0, #-4]
  2012c0:	2242      	movs	r2, #66	; 0x42
  2012c2:	f840 2c04 	str.w	r2, [r0, #-4]
  2012c6:	6802      	ldr	r2, [r0, #0]
  2012c8:	0752      	lsls	r2, r2, #29
  2012ca:	d409      	bmi.n	2012e0 <GLCD_Initialize+0xc18>
  2012cc:	6802      	ldr	r2, [r0, #0]
  2012ce:	0752      	lsls	r2, r2, #29
  2012d0:	bf5c      	itt	pl
  2012d2:	6802      	ldrpl	r2, [r0, #0]
  2012d4:	ea5f 7242 	movspl.w	r2, r2, lsl #29
  2012d8:	d402      	bmi.n	2012e0 <GLCD_Initialize+0xc18>
  2012da:	6802      	ldr	r2, [r0, #0]
  2012dc:	0752      	lsls	r2, r2, #29
  2012de:	d5f2      	bpl.n	2012c6 <GLCD_Initialize+0xbfe>
  2012e0:	f850 2c04 	ldr.w	r2, [r0, #-4]
  2012e4:	680a      	ldr	r2, [r1, #0]
  2012e6:	f042 0201 	orr.w	r2, r2, #1
  2012ea:	600a      	str	r2, [r1, #0]
  2012ec:	680a      	ldr	r2, [r1, #0]
  2012ee:	f022 0201 	bic.w	r2, r2, #1
  2012f2:	600a      	str	r2, [r1, #0]
  2012f4:	2272      	movs	r2, #114	; 0x72
  2012f6:	f840 2c04 	str.w	r2, [r0, #-4]
  2012fa:	6802      	ldr	r2, [r0, #0]
  2012fc:	0752      	lsls	r2, r2, #29
  2012fe:	d409      	bmi.n	201314 <GLCD_Initialize+0xc4c>
  201300:	6802      	ldr	r2, [r0, #0]
  201302:	0752      	lsls	r2, r2, #29
  201304:	bf5c      	itt	pl
  201306:	6802      	ldrpl	r2, [r0, #0]
  201308:	ea5f 7242 	movspl.w	r2, r2, lsl #29
  20130c:	d402      	bmi.n	201314 <GLCD_Initialize+0xc4c>
  20130e:	6802      	ldr	r2, [r0, #0]
  201310:	0752      	lsls	r2, r2, #29
  201312:	d5f2      	bpl.n	2012fa <GLCD_Initialize+0xc32>
  201314:	f850 2c04 	ldr.w	r2, [r0, #-4]
  201318:	2200      	movs	r2, #0
  20131a:	f840 2c04 	str.w	r2, [r0, #-4]
  20131e:	6802      	ldr	r2, [r0, #0]
  201320:	0752      	lsls	r2, r2, #29
  201322:	d409      	bmi.n	201338 <GLCD_Initialize+0xc70>
  201324:	6802      	ldr	r2, [r0, #0]
  201326:	0752      	lsls	r2, r2, #29
  201328:	bf5c      	itt	pl
  20132a:	6802      	ldrpl	r2, [r0, #0]
  20132c:	ea5f 7242 	movspl.w	r2, r2, lsl #29
  201330:	d402      	bmi.n	201338 <GLCD_Initialize+0xc70>
  201332:	6802      	ldr	r2, [r0, #0]
  201334:	0752      	lsls	r2, r2, #29
  201336:	d5f2      	bpl.n	20131e <GLCD_Initialize+0xc56>
  201338:	f850 2c04 	ldr.w	r2, [r0, #-4]
  20133c:	2200      	movs	r2, #0
  20133e:	f840 2c04 	str.w	r2, [r0, #-4]
  201342:	6802      	ldr	r2, [r0, #0]
  201344:	0752      	lsls	r2, r2, #29
  201346:	d409      	bmi.n	20135c <GLCD_Initialize+0xc94>
  201348:	6802      	ldr	r2, [r0, #0]
  20134a:	0752      	lsls	r2, r2, #29
  20134c:	bf5c      	itt	pl
  20134e:	6802      	ldrpl	r2, [r0, #0]
  201350:	ea5f 7242 	movspl.w	r2, r2, lsl #29
  201354:	d402      	bmi.n	20135c <GLCD_Initialize+0xc94>
  201356:	6802      	ldr	r2, [r0, #0]
  201358:	0752      	lsls	r2, r2, #29
  20135a:	d5f2      	bpl.n	201342 <GLCD_Initialize+0xc7a>
  20135c:	f850 2c04 	ldr.w	r2, [r0, #-4]
  201360:	680a      	ldr	r2, [r1, #0]
  201362:	f042 0201 	orr.w	r2, r2, #1
  201366:	600a      	str	r2, [r1, #0]
  201368:	680a      	ldr	r2, [r1, #0]
  20136a:	f022 0201 	bic.w	r2, r2, #1
  20136e:	600a      	str	r2, [r1, #0]
  201370:	2270      	movs	r2, #112	; 0x70
  201372:	f840 2c04 	str.w	r2, [r0, #-4]
  201376:	6802      	ldr	r2, [r0, #0]
  201378:	0752      	lsls	r2, r2, #29
  20137a:	d409      	bmi.n	201390 <GLCD_Initialize+0xcc8>
  20137c:	6802      	ldr	r2, [r0, #0]
  20137e:	0752      	lsls	r2, r2, #29
  201380:	bf5c      	itt	pl
  201382:	6802      	ldrpl	r2, [r0, #0]
  201384:	ea5f 7242 	movspl.w	r2, r2, lsl #29
  201388:	d402      	bmi.n	201390 <GLCD_Initialize+0xcc8>
  20138a:	6802      	ldr	r2, [r0, #0]
  20138c:	0752      	lsls	r2, r2, #29
  20138e:	d5f2      	bpl.n	201376 <GLCD_Initialize+0xcae>
  201390:	f850 2c04 	ldr.w	r2, [r0, #-4]
  201394:	2200      	movs	r2, #0
  201396:	f840 2c04 	str.w	r2, [r0, #-4]
  20139a:	6802      	ldr	r2, [r0, #0]
  20139c:	0752      	lsls	r2, r2, #29
  20139e:	d409      	bmi.n	2013b4 <GLCD_Initialize+0xcec>
  2013a0:	6802      	ldr	r2, [r0, #0]
  2013a2:	0752      	lsls	r2, r2, #29
  2013a4:	bf5c      	itt	pl
  2013a6:	6802      	ldrpl	r2, [r0, #0]
  2013a8:	ea5f 7242 	movspl.w	r2, r2, lsl #29
  2013ac:	d402      	bmi.n	2013b4 <GLCD_Initialize+0xcec>
  2013ae:	6802      	ldr	r2, [r0, #0]
  2013b0:	0752      	lsls	r2, r2, #29
  2013b2:	d5f2      	bpl.n	20139a <GLCD_Initialize+0xcd2>
  2013b4:	f850 2c04 	ldr.w	r2, [r0, #-4]
  2013b8:	2243      	movs	r2, #67	; 0x43
  2013ba:	f840 2c04 	str.w	r2, [r0, #-4]
  2013be:	6802      	ldr	r2, [r0, #0]
  2013c0:	0752      	lsls	r2, r2, #29
  2013c2:	d409      	bmi.n	2013d8 <GLCD_Initialize+0xd10>
  2013c4:	6802      	ldr	r2, [r0, #0]
  2013c6:	0752      	lsls	r2, r2, #29
  2013c8:	bf5c      	itt	pl
  2013ca:	6802      	ldrpl	r2, [r0, #0]
  2013cc:	ea5f 7242 	movspl.w	r2, r2, lsl #29
  2013d0:	d402      	bmi.n	2013d8 <GLCD_Initialize+0xd10>
  2013d2:	6802      	ldr	r2, [r0, #0]
  2013d4:	0752      	lsls	r2, r2, #29
  2013d6:	d5f2      	bpl.n	2013be <GLCD_Initialize+0xcf6>
  2013d8:	f850 2c04 	ldr.w	r2, [r0, #-4]
  2013dc:	680a      	ldr	r2, [r1, #0]
  2013de:	f042 0201 	orr.w	r2, r2, #1
  2013e2:	600a      	str	r2, [r1, #0]
  2013e4:	680a      	ldr	r2, [r1, #0]
  2013e6:	f022 0201 	bic.w	r2, r2, #1
  2013ea:	600a      	str	r2, [r1, #0]
  2013ec:	2272      	movs	r2, #114	; 0x72
  2013ee:	f840 2c04 	str.w	r2, [r0, #-4]
  2013f2:	6802      	ldr	r2, [r0, #0]
  2013f4:	0752      	lsls	r2, r2, #29
  2013f6:	d409      	bmi.n	20140c <GLCD_Initialize+0xd44>
  2013f8:	6802      	ldr	r2, [r0, #0]
  2013fa:	0752      	lsls	r2, r2, #29
  2013fc:	bf5c      	itt	pl
  2013fe:	6802      	ldrpl	r2, [r0, #0]
  201400:	ea5f 7242 	movspl.w	r2, r2, lsl #29
  201404:	d402      	bmi.n	20140c <GLCD_Initialize+0xd44>
  201406:	6802      	ldr	r2, [r0, #0]
  201408:	0752      	lsls	r2, r2, #29
  20140a:	d5f2      	bpl.n	2013f2 <GLCD_Initialize+0xd2a>
  20140c:	f850 2c04 	ldr.w	r2, [r0, #-4]
  201410:	2200      	movs	r2, #0
  201412:	f840 2c04 	str.w	r2, [r0, #-4]
  201416:	6802      	ldr	r2, [r0, #0]
  201418:	0752      	lsls	r2, r2, #29
  20141a:	d409      	bmi.n	201430 <GLCD_Initialize+0xd68>
  20141c:	6802      	ldr	r2, [r0, #0]
  20141e:	0752      	lsls	r2, r2, #29
  201420:	bf5c      	itt	pl
  201422:	6802      	ldrpl	r2, [r0, #0]
  201424:	ea5f 7242 	movspl.w	r2, r2, lsl #29
  201428:	d402      	bmi.n	201430 <GLCD_Initialize+0xd68>
  20142a:	6802      	ldr	r2, [r0, #0]
  20142c:	0752      	lsls	r2, r2, #29
  20142e:	d5f2      	bpl.n	201416 <GLCD_Initialize+0xd4e>
  201430:	f850 2c04 	ldr.w	r2, [r0, #-4]
  201434:	2210      	movs	r2, #16
  201436:	f840 2c04 	str.w	r2, [r0, #-4]
  20143a:	6802      	ldr	r2, [r0, #0]
  20143c:	0752      	lsls	r2, r2, #29
  20143e:	d409      	bmi.n	201454 <GLCD_Initialize+0xd8c>
  201440:	6802      	ldr	r2, [r0, #0]
  201442:	0752      	lsls	r2, r2, #29
  201444:	bf5c      	itt	pl
  201446:	6802      	ldrpl	r2, [r0, #0]
  201448:	ea5f 7242 	movspl.w	r2, r2, lsl #29
  20144c:	d402      	bmi.n	201454 <GLCD_Initialize+0xd8c>
  20144e:	6802      	ldr	r2, [r0, #0]
  201450:	0752      	lsls	r2, r2, #29
  201452:	d5f2      	bpl.n	20143a <GLCD_Initialize+0xd72>
  201454:	f850 2c04 	ldr.w	r2, [r0, #-4]
  201458:	680a      	ldr	r2, [r1, #0]
  20145a:	f042 0201 	orr.w	r2, r2, #1
  20145e:	600a      	str	r2, [r1, #0]
  201460:	680a      	ldr	r2, [r1, #0]
  201462:	f022 0201 	bic.w	r2, r2, #1
  201466:	600a      	str	r2, [r1, #0]
  201468:	2270      	movs	r2, #112	; 0x70
  20146a:	f840 2c04 	str.w	r2, [r0, #-4]
  20146e:	6802      	ldr	r2, [r0, #0]
  201470:	0752      	lsls	r2, r2, #29
  201472:	d409      	bmi.n	201488 <GLCD_Initialize+0xdc0>
  201474:	6802      	ldr	r2, [r0, #0]
  201476:	0752      	lsls	r2, r2, #29
  201478:	bf5c      	itt	pl
  20147a:	6802      	ldrpl	r2, [r0, #0]
  20147c:	ea5f 7242 	movspl.w	r2, r2, lsl #29
  201480:	d402      	bmi.n	201488 <GLCD_Initialize+0xdc0>
  201482:	6802      	ldr	r2, [r0, #0]
  201484:	0752      	lsls	r2, r2, #29
  201486:	d5f2      	bpl.n	20146e <GLCD_Initialize+0xda6>
  201488:	f850 2c04 	ldr.w	r2, [r0, #-4]
  20148c:	2200      	movs	r2, #0
  20148e:	f840 2c04 	str.w	r2, [r0, #-4]
  201492:	6802      	ldr	r2, [r0, #0]
  201494:	0752      	lsls	r2, r2, #29
  201496:	d409      	bmi.n	2014ac <GLCD_Initialize+0xde4>
  201498:	6802      	ldr	r2, [r0, #0]
  20149a:	0752      	lsls	r2, r2, #29
  20149c:	bf5c      	itt	pl
  20149e:	6802      	ldrpl	r2, [r0, #0]
  2014a0:	ea5f 7242 	movspl.w	r2, r2, lsl #29
  2014a4:	d402      	bmi.n	2014ac <GLCD_Initialize+0xde4>
  2014a6:	6802      	ldr	r2, [r0, #0]
  2014a8:	0752      	lsls	r2, r2, #29
  2014aa:	d5f2      	bpl.n	201492 <GLCD_Initialize+0xdca>
  2014ac:	f850 2c04 	ldr.w	r2, [r0, #-4]
  2014b0:	2244      	movs	r2, #68	; 0x44
  2014b2:	f840 2c04 	str.w	r2, [r0, #-4]
  2014b6:	6802      	ldr	r2, [r0, #0]
  2014b8:	0752      	lsls	r2, r2, #29
  2014ba:	d409      	bmi.n	2014d0 <GLCD_Initialize+0xe08>
  2014bc:	6802      	ldr	r2, [r0, #0]
  2014be:	0752      	lsls	r2, r2, #29
  2014c0:	bf5c      	itt	pl
  2014c2:	6802      	ldrpl	r2, [r0, #0]
  2014c4:	ea5f 7242 	movspl.w	r2, r2, lsl #29
  2014c8:	d402      	bmi.n	2014d0 <GLCD_Initialize+0xe08>
  2014ca:	6802      	ldr	r2, [r0, #0]
  2014cc:	0752      	lsls	r2, r2, #29
  2014ce:	d5f2      	bpl.n	2014b6 <GLCD_Initialize+0xdee>
  2014d0:	f850 2c04 	ldr.w	r2, [r0, #-4]
  2014d4:	680a      	ldr	r2, [r1, #0]
  2014d6:	f042 0201 	orr.w	r2, r2, #1
  2014da:	600a      	str	r2, [r1, #0]
  2014dc:	680a      	ldr	r2, [r1, #0]
  2014de:	f022 0201 	bic.w	r2, r2, #1
  2014e2:	600a      	str	r2, [r1, #0]
  2014e4:	2272      	movs	r2, #114	; 0x72
  2014e6:	f840 2c04 	str.w	r2, [r0, #-4]
  2014ea:	6802      	ldr	r2, [r0, #0]
  2014ec:	0752      	lsls	r2, r2, #29
  2014ee:	d409      	bmi.n	201504 <GLCD_Initialize+0xe3c>
  2014f0:	6802      	ldr	r2, [r0, #0]
  2014f2:	0752      	lsls	r2, r2, #29
  2014f4:	bf5c      	itt	pl
  2014f6:	6802      	ldrpl	r2, [r0, #0]
  2014f8:	ea5f 7242 	movspl.w	r2, r2, lsl #29
  2014fc:	d402      	bmi.n	201504 <GLCD_Initialize+0xe3c>
  2014fe:	6802      	ldr	r2, [r0, #0]
  201500:	0752      	lsls	r2, r2, #29
  201502:	d5f2      	bpl.n	2014ea <GLCD_Initialize+0xe22>
  201504:	f850 2c04 	ldr.w	r2, [r0, #-4]
  201508:	2200      	movs	r2, #0
  20150a:	f840 2c04 	str.w	r2, [r0, #-4]
  20150e:	6802      	ldr	r2, [r0, #0]
  201510:	0752      	lsls	r2, r2, #29
  201512:	d409      	bmi.n	201528 <GLCD_Initialize+0xe60>
  201514:	6802      	ldr	r2, [r0, #0]
  201516:	0752      	lsls	r2, r2, #29
  201518:	bf5c      	itt	pl
  20151a:	6802      	ldrpl	r2, [r0, #0]
  20151c:	ea5f 7242 	movspl.w	r2, r2, lsl #29
  201520:	d402      	bmi.n	201528 <GLCD_Initialize+0xe60>
  201522:	6802      	ldr	r2, [r0, #0]
  201524:	0752      	lsls	r2, r2, #29
  201526:	d5f2      	bpl.n	20150e <GLCD_Initialize+0xe46>
  201528:	f850 2c04 	ldr.w	r2, [r0, #-4]
  20152c:	220e      	movs	r2, #14
  20152e:	f840 2c04 	str.w	r2, [r0, #-4]
  201532:	6802      	ldr	r2, [r0, #0]
  201534:	0752      	lsls	r2, r2, #29
  201536:	d409      	bmi.n	20154c <GLCD_Initialize+0xe84>
  201538:	6802      	ldr	r2, [r0, #0]
  20153a:	0752      	lsls	r2, r2, #29
  20153c:	bf5c      	itt	pl
  20153e:	6802      	ldrpl	r2, [r0, #0]
  201540:	ea5f 7242 	movspl.w	r2, r2, lsl #29
  201544:	d402      	bmi.n	20154c <GLCD_Initialize+0xe84>
  201546:	6802      	ldr	r2, [r0, #0]
  201548:	0752      	lsls	r2, r2, #29
  20154a:	d5f2      	bpl.n	201532 <GLCD_Initialize+0xe6a>
  20154c:	f850 2c04 	ldr.w	r2, [r0, #-4]
  201550:	680a      	ldr	r2, [r1, #0]
  201552:	f042 0201 	orr.w	r2, r2, #1
  201556:	600a      	str	r2, [r1, #0]
  201558:	680a      	ldr	r2, [r1, #0]
  20155a:	f022 0201 	bic.w	r2, r2, #1
  20155e:	600a      	str	r2, [r1, #0]
  201560:	2270      	movs	r2, #112	; 0x70
  201562:	f840 2c04 	str.w	r2, [r0, #-4]
  201566:	6802      	ldr	r2, [r0, #0]
  201568:	0752      	lsls	r2, r2, #29
  20156a:	d409      	bmi.n	201580 <GLCD_Initialize+0xeb8>
  20156c:	6802      	ldr	r2, [r0, #0]
  20156e:	0752      	lsls	r2, r2, #29
  201570:	bf5c      	itt	pl
  201572:	6802      	ldrpl	r2, [r0, #0]
  201574:	ea5f 7242 	movspl.w	r2, r2, lsl #29
  201578:	d402      	bmi.n	201580 <GLCD_Initialize+0xeb8>
  20157a:	6802      	ldr	r2, [r0, #0]
  20157c:	0752      	lsls	r2, r2, #29
  20157e:	d5f2      	bpl.n	201566 <GLCD_Initialize+0xe9e>
  201580:	f850 2c04 	ldr.w	r2, [r0, #-4]
  201584:	2200      	movs	r2, #0
  201586:	f840 2c04 	str.w	r2, [r0, #-4]
  20158a:	6802      	ldr	r2, [r0, #0]
  20158c:	0752      	lsls	r2, r2, #29
  20158e:	d409      	bmi.n	2015a4 <GLCD_Initialize+0xedc>
  201590:	6802      	ldr	r2, [r0, #0]
  201592:	0752      	lsls	r2, r2, #29
  201594:	bf5c      	itt	pl
  201596:	6802      	ldrpl	r2, [r0, #0]
  201598:	ea5f 7242 	movspl.w	r2, r2, lsl #29
  20159c:	d402      	bmi.n	2015a4 <GLCD_Initialize+0xedc>
  20159e:	6802      	ldr	r2, [r0, #0]
  2015a0:	0752      	lsls	r2, r2, #29
  2015a2:	d5f2      	bpl.n	20158a <GLCD_Initialize+0xec2>
  2015a4:	f850 2c04 	ldr.w	r2, [r0, #-4]
  2015a8:	2245      	movs	r2, #69	; 0x45
  2015aa:	f840 2c04 	str.w	r2, [r0, #-4]
  2015ae:	6802      	ldr	r2, [r0, #0]
  2015b0:	0752      	lsls	r2, r2, #29
  2015b2:	d409      	bmi.n	2015c8 <GLCD_Initialize+0xf00>
  2015b4:	6802      	ldr	r2, [r0, #0]
  2015b6:	0752      	lsls	r2, r2, #29
  2015b8:	bf5c      	itt	pl
  2015ba:	6802      	ldrpl	r2, [r0, #0]
  2015bc:	ea5f 7242 	movspl.w	r2, r2, lsl #29
  2015c0:	d402      	bmi.n	2015c8 <GLCD_Initialize+0xf00>
  2015c2:	6802      	ldr	r2, [r0, #0]
  2015c4:	0752      	lsls	r2, r2, #29
  2015c6:	d5f2      	bpl.n	2015ae <GLCD_Initialize+0xee6>
  2015c8:	f850 2c04 	ldr.w	r2, [r0, #-4]
  2015cc:	680a      	ldr	r2, [r1, #0]
  2015ce:	f042 0201 	orr.w	r2, r2, #1
  2015d2:	600a      	str	r2, [r1, #0]
  2015d4:	680a      	ldr	r2, [r1, #0]
  2015d6:	f022 0201 	bic.w	r2, r2, #1
  2015da:	600a      	str	r2, [r1, #0]
  2015dc:	2272      	movs	r2, #114	; 0x72
  2015de:	f840 2c04 	str.w	r2, [r0, #-4]
  2015e2:	6802      	ldr	r2, [r0, #0]
  2015e4:	0752      	lsls	r2, r2, #29
  2015e6:	d409      	bmi.n	2015fc <GLCD_Initialize+0xf34>
  2015e8:	6802      	ldr	r2, [r0, #0]
  2015ea:	0752      	lsls	r2, r2, #29
  2015ec:	bf5c      	itt	pl
  2015ee:	6802      	ldrpl	r2, [r0, #0]
  2015f0:	ea5f 7242 	movspl.w	r2, r2, lsl #29
  2015f4:	d402      	bmi.n	2015fc <GLCD_Initialize+0xf34>
  2015f6:	6802      	ldr	r2, [r0, #0]
  2015f8:	0752      	lsls	r2, r2, #29
  2015fa:	d5f2      	bpl.n	2015e2 <GLCD_Initialize+0xf1a>
  2015fc:	f850 2c04 	ldr.w	r2, [r0, #-4]
  201600:	2200      	movs	r2, #0
  201602:	f840 2c04 	str.w	r2, [r0, #-4]
  201606:	6802      	ldr	r2, [r0, #0]
  201608:	0752      	lsls	r2, r2, #29
  20160a:	d409      	bmi.n	201620 <GLCD_Initialize+0xf58>
  20160c:	6802      	ldr	r2, [r0, #0]
  20160e:	0752      	lsls	r2, r2, #29
  201610:	bf5c      	itt	pl
  201612:	6802      	ldrpl	r2, [r0, #0]
  201614:	ea5f 7242 	movspl.w	r2, r2, lsl #29
  201618:	d402      	bmi.n	201620 <GLCD_Initialize+0xf58>
  20161a:	6802      	ldr	r2, [r0, #0]
  20161c:	0752      	lsls	r2, r2, #29
  20161e:	d5f2      	bpl.n	201606 <GLCD_Initialize+0xf3e>
  201620:	f850 2c04 	ldr.w	r2, [r0, #-4]
  201624:	2224      	movs	r2, #36	; 0x24
  201626:	f840 2c04 	str.w	r2, [r0, #-4]
  20162a:	6802      	ldr	r2, [r0, #0]
  20162c:	0752      	lsls	r2, r2, #29
  20162e:	d409      	bmi.n	201644 <GLCD_Initialize+0xf7c>
  201630:	6802      	ldr	r2, [r0, #0]
  201632:	0752      	lsls	r2, r2, #29
  201634:	bf5c      	itt	pl
  201636:	6802      	ldrpl	r2, [r0, #0]
  201638:	ea5f 7242 	movspl.w	r2, r2, lsl #29
  20163c:	d402      	bmi.n	201644 <GLCD_Initialize+0xf7c>
  20163e:	6802      	ldr	r2, [r0, #0]
  201640:	0752      	lsls	r2, r2, #29
  201642:	d5f2      	bpl.n	20162a <GLCD_Initialize+0xf62>
  201644:	f850 2c04 	ldr.w	r2, [r0, #-4]
  201648:	680a      	ldr	r2, [r1, #0]
  20164a:	f042 0201 	orr.w	r2, r2, #1
  20164e:	600a      	str	r2, [r1, #0]
  201650:	680a      	ldr	r2, [r1, #0]
  201652:	f022 0201 	bic.w	r2, r2, #1
  201656:	600a      	str	r2, [r1, #0]
  201658:	2270      	movs	r2, #112	; 0x70
  20165a:	f840 2c04 	str.w	r2, [r0, #-4]
  20165e:	6802      	ldr	r2, [r0, #0]
  201660:	0752      	lsls	r2, r2, #29
  201662:	d409      	bmi.n	201678 <GLCD_Initialize+0xfb0>
  201664:	6802      	ldr	r2, [r0, #0]
  201666:	0752      	lsls	r2, r2, #29
  201668:	bf5c      	itt	pl
  20166a:	6802      	ldrpl	r2, [r0, #0]
  20166c:	ea5f 7242 	movspl.w	r2, r2, lsl #29
  201670:	d402      	bmi.n	201678 <GLCD_Initialize+0xfb0>
  201672:	6802      	ldr	r2, [r0, #0]
  201674:	0752      	lsls	r2, r2, #29
  201676:	d5f2      	bpl.n	20165e <GLCD_Initialize+0xf96>
  201678:	f850 2c04 	ldr.w	r2, [r0, #-4]
  20167c:	2200      	movs	r2, #0
  20167e:	f840 2c04 	str.w	r2, [r0, #-4]
  201682:	6802      	ldr	r2, [r0, #0]
  201684:	0752      	lsls	r2, r2, #29
  201686:	d409      	bmi.n	20169c <GLCD_Initialize+0xfd4>
  201688:	6802      	ldr	r2, [r0, #0]
  20168a:	0752      	lsls	r2, r2, #29
  20168c:	bf5c      	itt	pl
  20168e:	6802      	ldrpl	r2, [r0, #0]
  201690:	ea5f 7242 	movspl.w	r2, r2, lsl #29
  201694:	d402      	bmi.n	20169c <GLCD_Initialize+0xfd4>
  201696:	6802      	ldr	r2, [r0, #0]
  201698:	0752      	lsls	r2, r2, #29
  20169a:	d5f2      	bpl.n	201682 <GLCD_Initialize+0xfba>
  20169c:	f850 2c04 	ldr.w	r2, [r0, #-4]
  2016a0:	2246      	movs	r2, #70	; 0x46
  2016a2:	f840 2c04 	str.w	r2, [r0, #-4]
  2016a6:	6802      	ldr	r2, [r0, #0]
  2016a8:	0752      	lsls	r2, r2, #29
  2016aa:	d409      	bmi.n	2016c0 <GLCD_Initialize+0xff8>
  2016ac:	6802      	ldr	r2, [r0, #0]
  2016ae:	0752      	lsls	r2, r2, #29
  2016b0:	bf5c      	itt	pl
  2016b2:	6802      	ldrpl	r2, [r0, #0]
  2016b4:	ea5f 7242 	movspl.w	r2, r2, lsl #29
  2016b8:	d402      	bmi.n	2016c0 <GLCD_Initialize+0xff8>
  2016ba:	6802      	ldr	r2, [r0, #0]
  2016bc:	0752      	lsls	r2, r2, #29
  2016be:	d5f2      	bpl.n	2016a6 <GLCD_Initialize+0xfde>
  2016c0:	f850 2c04 	ldr.w	r2, [r0, #-4]
  2016c4:	680a      	ldr	r2, [r1, #0]
  2016c6:	f042 0201 	orr.w	r2, r2, #1
  2016ca:	600a      	str	r2, [r1, #0]
  2016cc:	680a      	ldr	r2, [r1, #0]
  2016ce:	f022 0201 	bic.w	r2, r2, #1
  2016d2:	600a      	str	r2, [r1, #0]
  2016d4:	2272      	movs	r2, #114	; 0x72
  2016d6:	f840 2c04 	str.w	r2, [r0, #-4]
  2016da:	6802      	ldr	r2, [r0, #0]
  2016dc:	0752      	lsls	r2, r2, #29
  2016de:	d409      	bmi.n	2016f4 <GLCD_Initialize+0x102c>
  2016e0:	6802      	ldr	r2, [r0, #0]
  2016e2:	0752      	lsls	r2, r2, #29
  2016e4:	bf5c      	itt	pl
  2016e6:	6802      	ldrpl	r2, [r0, #0]
  2016e8:	ea5f 7242 	movspl.w	r2, r2, lsl #29
  2016ec:	d402      	bmi.n	2016f4 <GLCD_Initialize+0x102c>
  2016ee:	6802      	ldr	r2, [r0, #0]
  2016f0:	0752      	lsls	r2, r2, #29
  2016f2:	d5f2      	bpl.n	2016da <GLCD_Initialize+0x1012>
  2016f4:	f850 2c04 	ldr.w	r2, [r0, #-4]
  2016f8:	2200      	movs	r2, #0
  2016fa:	f840 2c04 	str.w	r2, [r0, #-4]
  2016fe:	6802      	ldr	r2, [r0, #0]
  201700:	0752      	lsls	r2, r2, #29
  201702:	d409      	bmi.n	201718 <GLCD_Initialize+0x1050>
  201704:	6802      	ldr	r2, [r0, #0]
  201706:	0752      	lsls	r2, r2, #29
  201708:	bf5c      	itt	pl
  20170a:	6802      	ldrpl	r2, [r0, #0]
  20170c:	ea5f 7242 	movspl.w	r2, r2, lsl #29
  201710:	d402      	bmi.n	201718 <GLCD_Initialize+0x1050>
  201712:	6802      	ldr	r2, [r0, #0]
  201714:	0752      	lsls	r2, r2, #29
  201716:	d5f2      	bpl.n	2016fe <GLCD_Initialize+0x1036>
  201718:	f850 2c04 	ldr.w	r2, [r0, #-4]
  20171c:	2204      	movs	r2, #4
  20171e:	f840 2c04 	str.w	r2, [r0, #-4]
  201722:	6802      	ldr	r2, [r0, #0]
  201724:	0752      	lsls	r2, r2, #29
  201726:	d409      	bmi.n	20173c <GLCD_Initialize+0x1074>
  201728:	6802      	ldr	r2, [r0, #0]
  20172a:	0752      	lsls	r2, r2, #29
  20172c:	bf5c      	itt	pl
  20172e:	6802      	ldrpl	r2, [r0, #0]
  201730:	ea5f 7242 	movspl.w	r2, r2, lsl #29
  201734:	d402      	bmi.n	20173c <GLCD_Initialize+0x1074>
  201736:	6802      	ldr	r2, [r0, #0]
  201738:	0752      	lsls	r2, r2, #29
  20173a:	d5f2      	bpl.n	201722 <GLCD_Initialize+0x105a>
  20173c:	f850 2c04 	ldr.w	r2, [r0, #-4]
  201740:	680a      	ldr	r2, [r1, #0]
  201742:	f042 0201 	orr.w	r2, r2, #1
  201746:	600a      	str	r2, [r1, #0]
  201748:	680a      	ldr	r2, [r1, #0]
  20174a:	f022 0201 	bic.w	r2, r2, #1
  20174e:	600a      	str	r2, [r1, #0]
  201750:	2270      	movs	r2, #112	; 0x70
  201752:	f840 2c04 	str.w	r2, [r0, #-4]
  201756:	6802      	ldr	r2, [r0, #0]
  201758:	0752      	lsls	r2, r2, #29
  20175a:	d409      	bmi.n	201770 <GLCD_Initialize+0x10a8>
  20175c:	6802      	ldr	r2, [r0, #0]
  20175e:	0752      	lsls	r2, r2, #29
  201760:	bf5c      	itt	pl
  201762:	6802      	ldrpl	r2, [r0, #0]
  201764:	ea5f 7242 	movspl.w	r2, r2, lsl #29
  201768:	d402      	bmi.n	201770 <GLCD_Initialize+0x10a8>
  20176a:	6802      	ldr	r2, [r0, #0]
  20176c:	0752      	lsls	r2, r2, #29
  20176e:	d5f2      	bpl.n	201756 <GLCD_Initialize+0x108e>
  201770:	f850 2c04 	ldr.w	r2, [r0, #-4]
  201774:	2200      	movs	r2, #0
  201776:	f840 2c04 	str.w	r2, [r0, #-4]
  20177a:	6802      	ldr	r2, [r0, #0]
  20177c:	0752      	lsls	r2, r2, #29
  20177e:	d409      	bmi.n	201794 <GLCD_Initialize+0x10cc>
  201780:	6802      	ldr	r2, [r0, #0]
  201782:	0752      	lsls	r2, r2, #29
  201784:	bf5c      	itt	pl
  201786:	6802      	ldrpl	r2, [r0, #0]
  201788:	ea5f 7242 	movspl.w	r2, r2, lsl #29
  20178c:	d402      	bmi.n	201794 <GLCD_Initialize+0x10cc>
  20178e:	6802      	ldr	r2, [r0, #0]
  201790:	0752      	lsls	r2, r2, #29
  201792:	d5f2      	bpl.n	20177a <GLCD_Initialize+0x10b2>
  201794:	f850 2c04 	ldr.w	r2, [r0, #-4]
  201798:	2247      	movs	r2, #71	; 0x47
  20179a:	f840 2c04 	str.w	r2, [r0, #-4]
  20179e:	6802      	ldr	r2, [r0, #0]
  2017a0:	0752      	lsls	r2, r2, #29
  2017a2:	d409      	bmi.n	2017b8 <GLCD_Initialize+0x10f0>
  2017a4:	6802      	ldr	r2, [r0, #0]
  2017a6:	0752      	lsls	r2, r2, #29
  2017a8:	bf5c      	itt	pl
  2017aa:	6802      	ldrpl	r2, [r0, #0]
  2017ac:	ea5f 7242 	movspl.w	r2, r2, lsl #29
  2017b0:	d402      	bmi.n	2017b8 <GLCD_Initialize+0x10f0>
  2017b2:	6802      	ldr	r2, [r0, #0]
  2017b4:	0752      	lsls	r2, r2, #29
  2017b6:	d5f2      	bpl.n	20179e <GLCD_Initialize+0x10d6>
  2017b8:	f850 2c04 	ldr.w	r2, [r0, #-4]
  2017bc:	680a      	ldr	r2, [r1, #0]
  2017be:	f042 0201 	orr.w	r2, r2, #1
  2017c2:	600a      	str	r2, [r1, #0]
  2017c4:	680a      	ldr	r2, [r1, #0]
  2017c6:	f022 0201 	bic.w	r2, r2, #1
  2017ca:	600a      	str	r2, [r1, #0]
  2017cc:	2272      	movs	r2, #114	; 0x72
  2017ce:	f840 2c04 	str.w	r2, [r0, #-4]
  2017d2:	6802      	ldr	r2, [r0, #0]
  2017d4:	0752      	lsls	r2, r2, #29
  2017d6:	d409      	bmi.n	2017ec <GLCD_Initialize+0x1124>
  2017d8:	6802      	ldr	r2, [r0, #0]
  2017da:	0752      	lsls	r2, r2, #29
  2017dc:	bf5c      	itt	pl
  2017de:	6802      	ldrpl	r2, [r0, #0]
  2017e0:	ea5f 7242 	movspl.w	r2, r2, lsl #29
  2017e4:	d402      	bmi.n	2017ec <GLCD_Initialize+0x1124>
  2017e6:	6802      	ldr	r2, [r0, #0]
  2017e8:	0752      	lsls	r2, r2, #29
  2017ea:	d5f2      	bpl.n	2017d2 <GLCD_Initialize+0x110a>
  2017ec:	f850 2c04 	ldr.w	r2, [r0, #-4]
  2017f0:	2200      	movs	r2, #0
  2017f2:	f840 2c04 	str.w	r2, [r0, #-4]
  2017f6:	6802      	ldr	r2, [r0, #0]
  2017f8:	0752      	lsls	r2, r2, #29
  2017fa:	d409      	bmi.n	201810 <GLCD_Initialize+0x1148>
  2017fc:	6802      	ldr	r2, [r0, #0]
  2017fe:	0752      	lsls	r2, r2, #29
  201800:	bf5c      	itt	pl
  201802:	6802      	ldrpl	r2, [r0, #0]
  201804:	ea5f 7242 	movspl.w	r2, r2, lsl #29
  201808:	d402      	bmi.n	201810 <GLCD_Initialize+0x1148>
  20180a:	6802      	ldr	r2, [r0, #0]
  20180c:	0752      	lsls	r2, r2, #29
  20180e:	d5f2      	bpl.n	2017f6 <GLCD_Initialize+0x112e>
  201810:	f850 2c04 	ldr.w	r2, [r0, #-4]
  201814:	2250      	movs	r2, #80	; 0x50
  201816:	f840 2c04 	str.w	r2, [r0, #-4]
  20181a:	6802      	ldr	r2, [r0, #0]
  20181c:	0752      	lsls	r2, r2, #29
  20181e:	d409      	bmi.n	201834 <GLCD_Initialize+0x116c>
  201820:	6802      	ldr	r2, [r0, #0]
  201822:	0752      	lsls	r2, r2, #29
  201824:	bf5c      	itt	pl
  201826:	6802      	ldrpl	r2, [r0, #0]
  201828:	ea5f 7242 	movspl.w	r2, r2, lsl #29
  20182c:	d402      	bmi.n	201834 <GLCD_Initialize+0x116c>
  20182e:	6802      	ldr	r2, [r0, #0]
  201830:	0752      	lsls	r2, r2, #29
  201832:	d5f2      	bpl.n	20181a <GLCD_Initialize+0x1152>
  201834:	f850 2c04 	ldr.w	r2, [r0, #-4]
  201838:	680a      	ldr	r2, [r1, #0]
  20183a:	f042 0201 	orr.w	r2, r2, #1
  20183e:	600a      	str	r2, [r1, #0]
  201840:	680a      	ldr	r2, [r1, #0]
  201842:	f022 0201 	bic.w	r2, r2, #1
  201846:	600a      	str	r2, [r1, #0]
  201848:	2270      	movs	r2, #112	; 0x70
  20184a:	f840 2c04 	str.w	r2, [r0, #-4]
  20184e:	6802      	ldr	r2, [r0, #0]
  201850:	0752      	lsls	r2, r2, #29
  201852:	d409      	bmi.n	201868 <GLCD_Initialize+0x11a0>
  201854:	6802      	ldr	r2, [r0, #0]
  201856:	0752      	lsls	r2, r2, #29
  201858:	bf5c      	itt	pl
  20185a:	6802      	ldrpl	r2, [r0, #0]
  20185c:	ea5f 7242 	movspl.w	r2, r2, lsl #29
  201860:	d402      	bmi.n	201868 <GLCD_Initialize+0x11a0>
  201862:	6802      	ldr	r2, [r0, #0]
  201864:	0752      	lsls	r2, r2, #29
  201866:	d5f2      	bpl.n	20184e <GLCD_Initialize+0x1186>
  201868:	f850 2c04 	ldr.w	r2, [r0, #-4]
  20186c:	2200      	movs	r2, #0
  20186e:	f840 2c04 	str.w	r2, [r0, #-4]
  201872:	6802      	ldr	r2, [r0, #0]
  201874:	0752      	lsls	r2, r2, #29
  201876:	d409      	bmi.n	20188c <GLCD_Initialize+0x11c4>
  201878:	6802      	ldr	r2, [r0, #0]
  20187a:	0752      	lsls	r2, r2, #29
  20187c:	bf5c      	itt	pl
  20187e:	6802      	ldrpl	r2, [r0, #0]
  201880:	ea5f 7242 	movspl.w	r2, r2, lsl #29
  201884:	d402      	bmi.n	20188c <GLCD_Initialize+0x11c4>
  201886:	6802      	ldr	r2, [r0, #0]
  201888:	0752      	lsls	r2, r2, #29
  20188a:	d5f2      	bpl.n	201872 <GLCD_Initialize+0x11aa>
  20188c:	f850 2c04 	ldr.w	r2, [r0, #-4]
  201890:	2248      	movs	r2, #72	; 0x48
  201892:	f840 2c04 	str.w	r2, [r0, #-4]
  201896:	6802      	ldr	r2, [r0, #0]
  201898:	0752      	lsls	r2, r2, #29
  20189a:	d409      	bmi.n	2018b0 <GLCD_Initialize+0x11e8>
  20189c:	6802      	ldr	r2, [r0, #0]
  20189e:	0752      	lsls	r2, r2, #29
  2018a0:	bf5c      	itt	pl
  2018a2:	6802      	ldrpl	r2, [r0, #0]
  2018a4:	ea5f 7242 	movspl.w	r2, r2, lsl #29
  2018a8:	d402      	bmi.n	2018b0 <GLCD_Initialize+0x11e8>
  2018aa:	6802      	ldr	r2, [r0, #0]
  2018ac:	0752      	lsls	r2, r2, #29
  2018ae:	d5f2      	bpl.n	201896 <GLCD_Initialize+0x11ce>
  2018b0:	f850 2c04 	ldr.w	r2, [r0, #-4]
  2018b4:	680a      	ldr	r2, [r1, #0]
  2018b6:	f042 0201 	orr.w	r2, r2, #1
  2018ba:	600a      	str	r2, [r1, #0]
  2018bc:	680a      	ldr	r2, [r1, #0]
  2018be:	f022 0201 	bic.w	r2, r2, #1
  2018c2:	600a      	str	r2, [r1, #0]
  2018c4:	2272      	movs	r2, #114	; 0x72
  2018c6:	f840 2c04 	str.w	r2, [r0, #-4]
  2018ca:	6802      	ldr	r2, [r0, #0]
  2018cc:	0752      	lsls	r2, r2, #29
  2018ce:	d409      	bmi.n	2018e4 <GLCD_Initialize+0x121c>
  2018d0:	6802      	ldr	r2, [r0, #0]
  2018d2:	0752      	lsls	r2, r2, #29
  2018d4:	bf5c      	itt	pl
  2018d6:	6802      	ldrpl	r2, [r0, #0]
  2018d8:	ea5f 7242 	movspl.w	r2, r2, lsl #29
  2018dc:	d402      	bmi.n	2018e4 <GLCD_Initialize+0x121c>
  2018de:	6802      	ldr	r2, [r0, #0]
  2018e0:	0752      	lsls	r2, r2, #29
  2018e2:	d5f2      	bpl.n	2018ca <GLCD_Initialize+0x1202>
  2018e4:	f850 2c04 	ldr.w	r2, [r0, #-4]
  2018e8:	2200      	movs	r2, #0
  2018ea:	f840 2c04 	str.w	r2, [r0, #-4]
  2018ee:	6802      	ldr	r2, [r0, #0]
  2018f0:	0752      	lsls	r2, r2, #29
  2018f2:	d409      	bmi.n	201908 <GLCD_Initialize+0x1240>
  2018f4:	6802      	ldr	r2, [r0, #0]
  2018f6:	0752      	lsls	r2, r2, #29
  2018f8:	bf5c      	itt	pl
  2018fa:	6802      	ldrpl	r2, [r0, #0]
  2018fc:	ea5f 7242 	movspl.w	r2, r2, lsl #29
  201900:	d402      	bmi.n	201908 <GLCD_Initialize+0x1240>
  201902:	6802      	ldr	r2, [r0, #0]
  201904:	0752      	lsls	r2, r2, #29
  201906:	d5f2      	bpl.n	2018ee <GLCD_Initialize+0x1226>
  201908:	f850 2c04 	ldr.w	r2, [r0, #-4]
  20190c:	2202      	movs	r2, #2
  20190e:	f840 2c04 	str.w	r2, [r0, #-4]
  201912:	6802      	ldr	r2, [r0, #0]
  201914:	0752      	lsls	r2, r2, #29
  201916:	d409      	bmi.n	20192c <GLCD_Initialize+0x1264>
  201918:	6802      	ldr	r2, [r0, #0]
  20191a:	0752      	lsls	r2, r2, #29
  20191c:	bf5c      	itt	pl
  20191e:	6802      	ldrpl	r2, [r0, #0]
  201920:	ea5f 7242 	movspl.w	r2, r2, lsl #29
  201924:	d402      	bmi.n	20192c <GLCD_Initialize+0x1264>
  201926:	6802      	ldr	r2, [r0, #0]
  201928:	0752      	lsls	r2, r2, #29
  20192a:	d5f2      	bpl.n	201912 <GLCD_Initialize+0x124a>
  20192c:	f850 2c04 	ldr.w	r2, [r0, #-4]
  201930:	680a      	ldr	r2, [r1, #0]
  201932:	f042 0201 	orr.w	r2, r2, #1
  201936:	600a      	str	r2, [r1, #0]
  201938:	680a      	ldr	r2, [r1, #0]
  20193a:	f022 0201 	bic.w	r2, r2, #1
  20193e:	600a      	str	r2, [r1, #0]
  201940:	2270      	movs	r2, #112	; 0x70
  201942:	f840 2c04 	str.w	r2, [r0, #-4]
  201946:	6802      	ldr	r2, [r0, #0]
  201948:	0752      	lsls	r2, r2, #29
  20194a:	d409      	bmi.n	201960 <GLCD_Initialize+0x1298>
  20194c:	6802      	ldr	r2, [r0, #0]
  20194e:	0752      	lsls	r2, r2, #29
  201950:	bf5c      	itt	pl
  201952:	6802      	ldrpl	r2, [r0, #0]
  201954:	ea5f 7242 	movspl.w	r2, r2, lsl #29
  201958:	d402      	bmi.n	201960 <GLCD_Initialize+0x1298>
  20195a:	6802      	ldr	r2, [r0, #0]
  20195c:	0752      	lsls	r2, r2, #29
  20195e:	d5f2      	bpl.n	201946 <GLCD_Initialize+0x127e>
  201960:	f850 2c04 	ldr.w	r2, [r0, #-4]
  201964:	2200      	movs	r2, #0
  201966:	f840 2c04 	str.w	r2, [r0, #-4]
  20196a:	6802      	ldr	r2, [r0, #0]
  20196c:	0752      	lsls	r2, r2, #29
  20196e:	d409      	bmi.n	201984 <GLCD_Initialize+0x12bc>
  201970:	6802      	ldr	r2, [r0, #0]
  201972:	0752      	lsls	r2, r2, #29
  201974:	bf5c      	itt	pl
  201976:	6802      	ldrpl	r2, [r0, #0]
  201978:	ea5f 7242 	movspl.w	r2, r2, lsl #29
  20197c:	d402      	bmi.n	201984 <GLCD_Initialize+0x12bc>
  20197e:	6802      	ldr	r2, [r0, #0]
  201980:	0752      	lsls	r2, r2, #29
  201982:	d5f2      	bpl.n	20196a <GLCD_Initialize+0x12a2>
  201984:	f850 2c04 	ldr.w	r2, [r0, #-4]
  201988:	2249      	movs	r2, #73	; 0x49
  20198a:	f840 2c04 	str.w	r2, [r0, #-4]
  20198e:	6802      	ldr	r2, [r0, #0]
  201990:	0752      	lsls	r2, r2, #29
  201992:	d409      	bmi.n	2019a8 <GLCD_Initialize+0x12e0>
  201994:	6802      	ldr	r2, [r0, #0]
  201996:	0752      	lsls	r2, r2, #29
  201998:	bf5c      	itt	pl
  20199a:	6802      	ldrpl	r2, [r0, #0]
  20199c:	ea5f 7242 	movspl.w	r2, r2, lsl #29
  2019a0:	d402      	bmi.n	2019a8 <GLCD_Initialize+0x12e0>
  2019a2:	6802      	ldr	r2, [r0, #0]
  2019a4:	0752      	lsls	r2, r2, #29
  2019a6:	d5f2      	bpl.n	20198e <GLCD_Initialize+0x12c6>
  2019a8:	f850 2c04 	ldr.w	r2, [r0, #-4]
  2019ac:	680a      	ldr	r2, [r1, #0]
  2019ae:	f042 0201 	orr.w	r2, r2, #1
  2019b2:	600a      	str	r2, [r1, #0]
  2019b4:	680a      	ldr	r2, [r1, #0]
  2019b6:	f022 0201 	bic.w	r2, r2, #1
  2019ba:	600a      	str	r2, [r1, #0]
  2019bc:	2272      	movs	r2, #114	; 0x72
  2019be:	f840 2c04 	str.w	r2, [r0, #-4]
  2019c2:	6802      	ldr	r2, [r0, #0]
  2019c4:	0752      	lsls	r2, r2, #29
  2019c6:	d409      	bmi.n	2019dc <GLCD_Initialize+0x1314>
  2019c8:	6802      	ldr	r2, [r0, #0]
  2019ca:	0752      	lsls	r2, r2, #29
  2019cc:	bf5c      	itt	pl
  2019ce:	6802      	ldrpl	r2, [r0, #0]
  2019d0:	ea5f 7242 	movspl.w	r2, r2, lsl #29
  2019d4:	d402      	bmi.n	2019dc <GLCD_Initialize+0x1314>
  2019d6:	6802      	ldr	r2, [r0, #0]
  2019d8:	0752      	lsls	r2, r2, #29
  2019da:	d5f2      	bpl.n	2019c2 <GLCD_Initialize+0x12fa>
  2019dc:	f850 2c04 	ldr.w	r2, [r0, #-4]
  2019e0:	2200      	movs	r2, #0
  2019e2:	f840 2c04 	str.w	r2, [r0, #-4]
  2019e6:	6802      	ldr	r2, [r0, #0]
  2019e8:	0752      	lsls	r2, r2, #29
  2019ea:	d409      	bmi.n	201a00 <GLCD_Initialize+0x1338>
  2019ec:	6802      	ldr	r2, [r0, #0]
  2019ee:	0752      	lsls	r2, r2, #29
  2019f0:	bf5c      	itt	pl
  2019f2:	6802      	ldrpl	r2, [r0, #0]
  2019f4:	ea5f 7242 	movspl.w	r2, r2, lsl #29
  2019f8:	d402      	bmi.n	201a00 <GLCD_Initialize+0x1338>
  2019fa:	6802      	ldr	r2, [r0, #0]
  2019fc:	0752      	lsls	r2, r2, #29
  2019fe:	d5f2      	bpl.n	2019e6 <GLCD_Initialize+0x131e>
  201a00:	f850 2c04 	ldr.w	r2, [r0, #-4]
  201a04:	2213      	movs	r2, #19
  201a06:	f840 2c04 	str.w	r2, [r0, #-4]
  201a0a:	6802      	ldr	r2, [r0, #0]
  201a0c:	0752      	lsls	r2, r2, #29
  201a0e:	d409      	bmi.n	201a24 <GLCD_Initialize+0x135c>
  201a10:	6802      	ldr	r2, [r0, #0]
  201a12:	0752      	lsls	r2, r2, #29
  201a14:	bf5c      	itt	pl
  201a16:	6802      	ldrpl	r2, [r0, #0]
  201a18:	ea5f 7242 	movspl.w	r2, r2, lsl #29
  201a1c:	d402      	bmi.n	201a24 <GLCD_Initialize+0x135c>
  201a1e:	6802      	ldr	r2, [r0, #0]
  201a20:	0752      	lsls	r2, r2, #29
  201a22:	d5f2      	bpl.n	201a0a <GLCD_Initialize+0x1342>
  201a24:	f850 2c04 	ldr.w	r2, [r0, #-4]
  201a28:	680a      	ldr	r2, [r1, #0]
  201a2a:	f042 0201 	orr.w	r2, r2, #1
  201a2e:	600a      	str	r2, [r1, #0]
  201a30:	680a      	ldr	r2, [r1, #0]
  201a32:	f022 0201 	bic.w	r2, r2, #1
  201a36:	600a      	str	r2, [r1, #0]
  201a38:	2270      	movs	r2, #112	; 0x70
  201a3a:	f840 2c04 	str.w	r2, [r0, #-4]
  201a3e:	6802      	ldr	r2, [r0, #0]
  201a40:	0752      	lsls	r2, r2, #29
  201a42:	d409      	bmi.n	201a58 <GLCD_Initialize+0x1390>
  201a44:	6802      	ldr	r2, [r0, #0]
  201a46:	0752      	lsls	r2, r2, #29
  201a48:	bf5c      	itt	pl
  201a4a:	6802      	ldrpl	r2, [r0, #0]
  201a4c:	ea5f 7242 	movspl.w	r2, r2, lsl #29
  201a50:	d402      	bmi.n	201a58 <GLCD_Initialize+0x1390>
  201a52:	6802      	ldr	r2, [r0, #0]
  201a54:	0752      	lsls	r2, r2, #29
  201a56:	d5f2      	bpl.n	201a3e <GLCD_Initialize+0x1376>
  201a58:	f850 2c04 	ldr.w	r2, [r0, #-4]
  201a5c:	2200      	movs	r2, #0
  201a5e:	f840 2c04 	str.w	r2, [r0, #-4]
  201a62:	6802      	ldr	r2, [r0, #0]
  201a64:	0752      	lsls	r2, r2, #29
  201a66:	d409      	bmi.n	201a7c <GLCD_Initialize+0x13b4>
  201a68:	6802      	ldr	r2, [r0, #0]
  201a6a:	0752      	lsls	r2, r2, #29
  201a6c:	bf5c      	itt	pl
  201a6e:	6802      	ldrpl	r2, [r0, #0]
  201a70:	ea5f 7242 	movspl.w	r2, r2, lsl #29
  201a74:	d402      	bmi.n	201a7c <GLCD_Initialize+0x13b4>
  201a76:	6802      	ldr	r2, [r0, #0]
  201a78:	0752      	lsls	r2, r2, #29
  201a7a:	d5f2      	bpl.n	201a62 <GLCD_Initialize+0x139a>
  201a7c:	f850 2c04 	ldr.w	r2, [r0, #-4]
  201a80:	224a      	movs	r2, #74	; 0x4a
  201a82:	f840 2c04 	str.w	r2, [r0, #-4]
  201a86:	6802      	ldr	r2, [r0, #0]
  201a88:	0752      	lsls	r2, r2, #29
  201a8a:	d409      	bmi.n	201aa0 <GLCD_Initialize+0x13d8>
  201a8c:	6802      	ldr	r2, [r0, #0]
  201a8e:	0752      	lsls	r2, r2, #29
  201a90:	bf5c      	itt	pl
  201a92:	6802      	ldrpl	r2, [r0, #0]
  201a94:	ea5f 7242 	movspl.w	r2, r2, lsl #29
  201a98:	d402      	bmi.n	201aa0 <GLCD_Initialize+0x13d8>
  201a9a:	6802      	ldr	r2, [r0, #0]
  201a9c:	0752      	lsls	r2, r2, #29
  201a9e:	d5f2      	bpl.n	201a86 <GLCD_Initialize+0x13be>
  201aa0:	f850 2c04 	ldr.w	r2, [r0, #-4]
  201aa4:	680a      	ldr	r2, [r1, #0]
  201aa6:	f042 0201 	orr.w	r2, r2, #1
  201aaa:	600a      	str	r2, [r1, #0]
  201aac:	680a      	ldr	r2, [r1, #0]
  201aae:	f022 0201 	bic.w	r2, r2, #1
  201ab2:	600a      	str	r2, [r1, #0]
  201ab4:	2272      	movs	r2, #114	; 0x72
  201ab6:	f840 2c04 	str.w	r2, [r0, #-4]
  201aba:	6802      	ldr	r2, [r0, #0]
  201abc:	0752      	lsls	r2, r2, #29
  201abe:	d409      	bmi.n	201ad4 <GLCD_Initialize+0x140c>
  201ac0:	6802      	ldr	r2, [r0, #0]
  201ac2:	0752      	lsls	r2, r2, #29
  201ac4:	bf5c      	itt	pl
  201ac6:	6802      	ldrpl	r2, [r0, #0]
  201ac8:	ea5f 7242 	movspl.w	r2, r2, lsl #29
  201acc:	d402      	bmi.n	201ad4 <GLCD_Initialize+0x140c>
  201ace:	6802      	ldr	r2, [r0, #0]
  201ad0:	0752      	lsls	r2, r2, #29
  201ad2:	d5f2      	bpl.n	201aba <GLCD_Initialize+0x13f2>
  201ad4:	f850 2c04 	ldr.w	r2, [r0, #-4]
  201ad8:	2200      	movs	r2, #0
  201ada:	f840 2c04 	str.w	r2, [r0, #-4]
  201ade:	6802      	ldr	r2, [r0, #0]
  201ae0:	0752      	lsls	r2, r2, #29
  201ae2:	d409      	bmi.n	201af8 <GLCD_Initialize+0x1430>
  201ae4:	6802      	ldr	r2, [r0, #0]
  201ae6:	0752      	lsls	r2, r2, #29
  201ae8:	bf5c      	itt	pl
  201aea:	6802      	ldrpl	r2, [r0, #0]
  201aec:	ea5f 7242 	movspl.w	r2, r2, lsl #29
  201af0:	d402      	bmi.n	201af8 <GLCD_Initialize+0x1430>
  201af2:	6802      	ldr	r2, [r0, #0]
  201af4:	0752      	lsls	r2, r2, #29
  201af6:	d5f2      	bpl.n	201ade <GLCD_Initialize+0x1416>
  201af8:	f850 2c04 	ldr.w	r2, [r0, #-4]
  201afc:	2219      	movs	r2, #25
  201afe:	f840 2c04 	str.w	r2, [r0, #-4]
  201b02:	6802      	ldr	r2, [r0, #0]
  201b04:	0752      	lsls	r2, r2, #29
  201b06:	d409      	bmi.n	201b1c <GLCD_Initialize+0x1454>
  201b08:	6802      	ldr	r2, [r0, #0]
  201b0a:	0752      	lsls	r2, r2, #29
  201b0c:	bf5c      	itt	pl
  201b0e:	6802      	ldrpl	r2, [r0, #0]
  201b10:	ea5f 7242 	movspl.w	r2, r2, lsl #29
  201b14:	d402      	bmi.n	201b1c <GLCD_Initialize+0x1454>
  201b16:	6802      	ldr	r2, [r0, #0]
  201b18:	0752      	lsls	r2, r2, #29
  201b1a:	d5f2      	bpl.n	201b02 <GLCD_Initialize+0x143a>
  201b1c:	f850 2c04 	ldr.w	r2, [r0, #-4]
  201b20:	680a      	ldr	r2, [r1, #0]
  201b22:	f042 0201 	orr.w	r2, r2, #1
  201b26:	600a      	str	r2, [r1, #0]
  201b28:	680a      	ldr	r2, [r1, #0]
  201b2a:	f022 0201 	bic.w	r2, r2, #1
  201b2e:	600a      	str	r2, [r1, #0]
  201b30:	2270      	movs	r2, #112	; 0x70
  201b32:	f840 2c04 	str.w	r2, [r0, #-4]
  201b36:	6802      	ldr	r2, [r0, #0]
  201b38:	0752      	lsls	r2, r2, #29
  201b3a:	d409      	bmi.n	201b50 <GLCD_Initialize+0x1488>
  201b3c:	6802      	ldr	r2, [r0, #0]
  201b3e:	0752      	lsls	r2, r2, #29
  201b40:	bf5c      	itt	pl
  201b42:	6802      	ldrpl	r2, [r0, #0]
  201b44:	ea5f 7242 	movspl.w	r2, r2, lsl #29
  201b48:	d402      	bmi.n	201b50 <GLCD_Initialize+0x1488>
  201b4a:	6802      	ldr	r2, [r0, #0]
  201b4c:	0752      	lsls	r2, r2, #29
  201b4e:	d5f2      	bpl.n	201b36 <GLCD_Initialize+0x146e>
  201b50:	f850 2c04 	ldr.w	r2, [r0, #-4]
  201b54:	2200      	movs	r2, #0
  201b56:	f840 2c04 	str.w	r2, [r0, #-4]
  201b5a:	6802      	ldr	r2, [r0, #0]
  201b5c:	0752      	lsls	r2, r2, #29
  201b5e:	d409      	bmi.n	201b74 <GLCD_Initialize+0x14ac>
  201b60:	6802      	ldr	r2, [r0, #0]
  201b62:	0752      	lsls	r2, r2, #29
  201b64:	bf5c      	itt	pl
  201b66:	6802      	ldrpl	r2, [r0, #0]
  201b68:	ea5f 7242 	movspl.w	r2, r2, lsl #29
  201b6c:	d402      	bmi.n	201b74 <GLCD_Initialize+0x14ac>
  201b6e:	6802      	ldr	r2, [r0, #0]
  201b70:	0752      	lsls	r2, r2, #29
  201b72:	d5f2      	bpl.n	201b5a <GLCD_Initialize+0x1492>
  201b74:	f850 2c04 	ldr.w	r2, [r0, #-4]
  201b78:	224b      	movs	r2, #75	; 0x4b
  201b7a:	f840 2c04 	str.w	r2, [r0, #-4]
  201b7e:	6802      	ldr	r2, [r0, #0]
  201b80:	0752      	lsls	r2, r2, #29
  201b82:	d409      	bmi.n	201b98 <GLCD_Initialize+0x14d0>
  201b84:	6802      	ldr	r2, [r0, #0]
  201b86:	0752      	lsls	r2, r2, #29
  201b88:	bf5c      	itt	pl
  201b8a:	6802      	ldrpl	r2, [r0, #0]
  201b8c:	ea5f 7242 	movspl.w	r2, r2, lsl #29
  201b90:	d402      	bmi.n	201b98 <GLCD_Initialize+0x14d0>
  201b92:	6802      	ldr	r2, [r0, #0]
  201b94:	0752      	lsls	r2, r2, #29
  201b96:	d5f2      	bpl.n	201b7e <GLCD_Initialize+0x14b6>
  201b98:	f850 2c04 	ldr.w	r2, [r0, #-4]
  201b9c:	680a      	ldr	r2, [r1, #0]
  201b9e:	f042 0201 	orr.w	r2, r2, #1
  201ba2:	600a      	str	r2, [r1, #0]
  201ba4:	680a      	ldr	r2, [r1, #0]
  201ba6:	f022 0201 	bic.w	r2, r2, #1
  201baa:	600a      	str	r2, [r1, #0]
  201bac:	2272      	movs	r2, #114	; 0x72
  201bae:	f840 2c04 	str.w	r2, [r0, #-4]
  201bb2:	6802      	ldr	r2, [r0, #0]
  201bb4:	0752      	lsls	r2, r2, #29
  201bb6:	d409      	bmi.n	201bcc <GLCD_Initialize+0x1504>
  201bb8:	6802      	ldr	r2, [r0, #0]
  201bba:	0752      	lsls	r2, r2, #29
  201bbc:	bf5c      	itt	pl
  201bbe:	6802      	ldrpl	r2, [r0, #0]
  201bc0:	ea5f 7242 	movspl.w	r2, r2, lsl #29
  201bc4:	d402      	bmi.n	201bcc <GLCD_Initialize+0x1504>
  201bc6:	6802      	ldr	r2, [r0, #0]
  201bc8:	0752      	lsls	r2, r2, #29
  201bca:	d5f2      	bpl.n	201bb2 <GLCD_Initialize+0x14ea>
  201bcc:	f850 2c04 	ldr.w	r2, [r0, #-4]
  201bd0:	2200      	movs	r2, #0
  201bd2:	f840 2c04 	str.w	r2, [r0, #-4]
  201bd6:	6802      	ldr	r2, [r0, #0]
  201bd8:	0752      	lsls	r2, r2, #29
  201bda:	d409      	bmi.n	201bf0 <GLCD_Initialize+0x1528>
  201bdc:	6802      	ldr	r2, [r0, #0]
  201bde:	0752      	lsls	r2, r2, #29
  201be0:	bf5c      	itt	pl
  201be2:	6802      	ldrpl	r2, [r0, #0]
  201be4:	ea5f 7242 	movspl.w	r2, r2, lsl #29
  201be8:	d402      	bmi.n	201bf0 <GLCD_Initialize+0x1528>
  201bea:	6802      	ldr	r2, [r0, #0]
  201bec:	0752      	lsls	r2, r2, #29
  201bee:	d5f2      	bpl.n	201bd6 <GLCD_Initialize+0x150e>
  201bf0:	f850 2c04 	ldr.w	r2, [r0, #-4]
  201bf4:	2219      	movs	r2, #25
  201bf6:	f840 2c04 	str.w	r2, [r0, #-4]
  201bfa:	6802      	ldr	r2, [r0, #0]
  201bfc:	0752      	lsls	r2, r2, #29
  201bfe:	d409      	bmi.n	201c14 <GLCD_Initialize+0x154c>
  201c00:	6802      	ldr	r2, [r0, #0]
  201c02:	0752      	lsls	r2, r2, #29
  201c04:	bf5c      	itt	pl
  201c06:	6802      	ldrpl	r2, [r0, #0]
  201c08:	ea5f 7242 	movspl.w	r2, r2, lsl #29
  201c0c:	d402      	bmi.n	201c14 <GLCD_Initialize+0x154c>
  201c0e:	6802      	ldr	r2, [r0, #0]
  201c10:	0752      	lsls	r2, r2, #29
  201c12:	d5f2      	bpl.n	201bfa <GLCD_Initialize+0x1532>
  201c14:	f850 2c04 	ldr.w	r2, [r0, #-4]
  201c18:	680a      	ldr	r2, [r1, #0]
  201c1a:	f042 0201 	orr.w	r2, r2, #1
  201c1e:	600a      	str	r2, [r1, #0]
  201c20:	680a      	ldr	r2, [r1, #0]
  201c22:	f022 0201 	bic.w	r2, r2, #1
  201c26:	600a      	str	r2, [r1, #0]
  201c28:	2270      	movs	r2, #112	; 0x70
  201c2a:	f840 2c04 	str.w	r2, [r0, #-4]
  201c2e:	6802      	ldr	r2, [r0, #0]
  201c30:	0752      	lsls	r2, r2, #29
  201c32:	d409      	bmi.n	201c48 <GLCD_Initialize+0x1580>
  201c34:	6802      	ldr	r2, [r0, #0]
  201c36:	0752      	lsls	r2, r2, #29
  201c38:	bf5c      	itt	pl
  201c3a:	6802      	ldrpl	r2, [r0, #0]
  201c3c:	ea5f 7242 	movspl.w	r2, r2, lsl #29
  201c40:	d402      	bmi.n	201c48 <GLCD_Initialize+0x1580>
  201c42:	6802      	ldr	r2, [r0, #0]
  201c44:	0752      	lsls	r2, r2, #29
  201c46:	d5f2      	bpl.n	201c2e <GLCD_Initialize+0x1566>
  201c48:	f850 2c04 	ldr.w	r2, [r0, #-4]
  201c4c:	2200      	movs	r2, #0
  201c4e:	f840 2c04 	str.w	r2, [r0, #-4]
  201c52:	6802      	ldr	r2, [r0, #0]
  201c54:	0752      	lsls	r2, r2, #29
  201c56:	d409      	bmi.n	201c6c <GLCD_Initialize+0x15a4>
  201c58:	6802      	ldr	r2, [r0, #0]
  201c5a:	0752      	lsls	r2, r2, #29
  201c5c:	bf5c      	itt	pl
  201c5e:	6802      	ldrpl	r2, [r0, #0]
  201c60:	ea5f 7242 	movspl.w	r2, r2, lsl #29
  201c64:	d402      	bmi.n	201c6c <GLCD_Initialize+0x15a4>
  201c66:	6802      	ldr	r2, [r0, #0]
  201c68:	0752      	lsls	r2, r2, #29
  201c6a:	d5f2      	bpl.n	201c52 <GLCD_Initialize+0x158a>
  201c6c:	f850 2c04 	ldr.w	r2, [r0, #-4]
  201c70:	224c      	movs	r2, #76	; 0x4c
  201c72:	f840 2c04 	str.w	r2, [r0, #-4]
  201c76:	6802      	ldr	r2, [r0, #0]
  201c78:	0752      	lsls	r2, r2, #29
  201c7a:	d409      	bmi.n	201c90 <GLCD_Initialize+0x15c8>
  201c7c:	6802      	ldr	r2, [r0, #0]
  201c7e:	0752      	lsls	r2, r2, #29
  201c80:	bf5c      	itt	pl
  201c82:	6802      	ldrpl	r2, [r0, #0]
  201c84:	ea5f 7242 	movspl.w	r2, r2, lsl #29
  201c88:	d402      	bmi.n	201c90 <GLCD_Initialize+0x15c8>
  201c8a:	6802      	ldr	r2, [r0, #0]
  201c8c:	0752      	lsls	r2, r2, #29
  201c8e:	d5f2      	bpl.n	201c76 <GLCD_Initialize+0x15ae>
  201c90:	f850 2c04 	ldr.w	r2, [r0, #-4]
  201c94:	680a      	ldr	r2, [r1, #0]
  201c96:	f042 0201 	orr.w	r2, r2, #1
  201c9a:	600a      	str	r2, [r1, #0]
  201c9c:	680a      	ldr	r2, [r1, #0]
  201c9e:	f022 0201 	bic.w	r2, r2, #1
  201ca2:	600a      	str	r2, [r1, #0]
  201ca4:	2272      	movs	r2, #114	; 0x72
  201ca6:	f840 2c04 	str.w	r2, [r0, #-4]
  201caa:	6802      	ldr	r2, [r0, #0]
  201cac:	0752      	lsls	r2, r2, #29
  201cae:	d409      	bmi.n	201cc4 <GLCD_Initialize+0x15fc>
  201cb0:	6802      	ldr	r2, [r0, #0]
  201cb2:	0752      	lsls	r2, r2, #29
  201cb4:	bf5c      	itt	pl
  201cb6:	6802      	ldrpl	r2, [r0, #0]
  201cb8:	ea5f 7242 	movspl.w	r2, r2, lsl #29
  201cbc:	d402      	bmi.n	201cc4 <GLCD_Initialize+0x15fc>
  201cbe:	6802      	ldr	r2, [r0, #0]
  201cc0:	0752      	lsls	r2, r2, #29
  201cc2:	d5f2      	bpl.n	201caa <GLCD_Initialize+0x15e2>
  201cc4:	f850 2c04 	ldr.w	r2, [r0, #-4]
  201cc8:	2200      	movs	r2, #0
  201cca:	f840 2c04 	str.w	r2, [r0, #-4]
  201cce:	6802      	ldr	r2, [r0, #0]
  201cd0:	0752      	lsls	r2, r2, #29
  201cd2:	d409      	bmi.n	201ce8 <GLCD_Initialize+0x1620>
  201cd4:	6802      	ldr	r2, [r0, #0]
  201cd6:	0752      	lsls	r2, r2, #29
  201cd8:	bf5c      	itt	pl
  201cda:	6802      	ldrpl	r2, [r0, #0]
  201cdc:	ea5f 7242 	movspl.w	r2, r2, lsl #29
  201ce0:	d402      	bmi.n	201ce8 <GLCD_Initialize+0x1620>
  201ce2:	6802      	ldr	r2, [r0, #0]
  201ce4:	0752      	lsls	r2, r2, #29
  201ce6:	d5f2      	bpl.n	201cce <GLCD_Initialize+0x1606>
  201ce8:	f850 2c04 	ldr.w	r2, [r0, #-4]
  201cec:	2216      	movs	r2, #22
  201cee:	f840 2c04 	str.w	r2, [r0, #-4]
  201cf2:	6802      	ldr	r2, [r0, #0]
  201cf4:	0752      	lsls	r2, r2, #29
  201cf6:	d409      	bmi.n	201d0c <GLCD_Initialize+0x1644>
  201cf8:	6802      	ldr	r2, [r0, #0]
  201cfa:	0752      	lsls	r2, r2, #29
  201cfc:	bf5c      	itt	pl
  201cfe:	6802      	ldrpl	r2, [r0, #0]
  201d00:	ea5f 7242 	movspl.w	r2, r2, lsl #29
  201d04:	d402      	bmi.n	201d0c <GLCD_Initialize+0x1644>
  201d06:	6802      	ldr	r2, [r0, #0]
  201d08:	0752      	lsls	r2, r2, #29
  201d0a:	d5f2      	bpl.n	201cf2 <GLCD_Initialize+0x162a>
  201d0c:	f850 2c04 	ldr.w	r2, [r0, #-4]
  201d10:	680a      	ldr	r2, [r1, #0]
  201d12:	f042 0201 	orr.w	r2, r2, #1
  201d16:	600a      	str	r2, [r1, #0]
  201d18:	680a      	ldr	r2, [r1, #0]
  201d1a:	f022 0201 	bic.w	r2, r2, #1
  201d1e:	600a      	str	r2, [r1, #0]
  201d20:	2270      	movs	r2, #112	; 0x70
  201d22:	f840 2c04 	str.w	r2, [r0, #-4]
  201d26:	6802      	ldr	r2, [r0, #0]
  201d28:	0752      	lsls	r2, r2, #29
  201d2a:	d409      	bmi.n	201d40 <GLCD_Initialize+0x1678>
  201d2c:	6802      	ldr	r2, [r0, #0]
  201d2e:	0752      	lsls	r2, r2, #29
  201d30:	bf5c      	itt	pl
  201d32:	6802      	ldrpl	r2, [r0, #0]
  201d34:	ea5f 7242 	movspl.w	r2, r2, lsl #29
  201d38:	d402      	bmi.n	201d40 <GLCD_Initialize+0x1678>
  201d3a:	6802      	ldr	r2, [r0, #0]
  201d3c:	0752      	lsls	r2, r2, #29
  201d3e:	d5f2      	bpl.n	201d26 <GLCD_Initialize+0x165e>
  201d40:	f850 2c04 	ldr.w	r2, [r0, #-4]
  201d44:	2200      	movs	r2, #0
  201d46:	f840 2c04 	str.w	r2, [r0, #-4]
  201d4a:	6802      	ldr	r2, [r0, #0]
  201d4c:	0752      	lsls	r2, r2, #29
  201d4e:	d409      	bmi.n	201d64 <GLCD_Initialize+0x169c>
  201d50:	6802      	ldr	r2, [r0, #0]
  201d52:	0752      	lsls	r2, r2, #29
  201d54:	bf5c      	itt	pl
  201d56:	6802      	ldrpl	r2, [r0, #0]
  201d58:	ea5f 7242 	movspl.w	r2, r2, lsl #29
  201d5c:	d402      	bmi.n	201d64 <GLCD_Initialize+0x169c>
  201d5e:	6802      	ldr	r2, [r0, #0]
  201d60:	0752      	lsls	r2, r2, #29
  201d62:	d5f2      	bpl.n	201d4a <GLCD_Initialize+0x1682>
  201d64:	f850 2c04 	ldr.w	r2, [r0, #-4]
  201d68:	2250      	movs	r2, #80	; 0x50
  201d6a:	f840 2c04 	str.w	r2, [r0, #-4]
  201d6e:	6802      	ldr	r2, [r0, #0]
  201d70:	0752      	lsls	r2, r2, #29
  201d72:	d409      	bmi.n	201d88 <GLCD_Initialize+0x16c0>
  201d74:	6802      	ldr	r2, [r0, #0]
  201d76:	0752      	lsls	r2, r2, #29
  201d78:	bf5c      	itt	pl
  201d7a:	6802      	ldrpl	r2, [r0, #0]
  201d7c:	ea5f 7242 	movspl.w	r2, r2, lsl #29
  201d80:	d402      	bmi.n	201d88 <GLCD_Initialize+0x16c0>
  201d82:	6802      	ldr	r2, [r0, #0]
  201d84:	0752      	lsls	r2, r2, #29
  201d86:	d5f2      	bpl.n	201d6e <GLCD_Initialize+0x16a6>
  201d88:	f850 2c04 	ldr.w	r2, [r0, #-4]
  201d8c:	680a      	ldr	r2, [r1, #0]
  201d8e:	f042 0201 	orr.w	r2, r2, #1
  201d92:	600a      	str	r2, [r1, #0]
  201d94:	680a      	ldr	r2, [r1, #0]
  201d96:	f022 0201 	bic.w	r2, r2, #1
  201d9a:	600a      	str	r2, [r1, #0]
  201d9c:	2272      	movs	r2, #114	; 0x72
  201d9e:	f840 2c04 	str.w	r2, [r0, #-4]
  201da2:	6802      	ldr	r2, [r0, #0]
  201da4:	0752      	lsls	r2, r2, #29
  201da6:	d409      	bmi.n	201dbc <GLCD_Initialize+0x16f4>
  201da8:	6802      	ldr	r2, [r0, #0]
  201daa:	0752      	lsls	r2, r2, #29
  201dac:	bf5c      	itt	pl
  201dae:	6802      	ldrpl	r2, [r0, #0]
  201db0:	ea5f 7242 	movspl.w	r2, r2, lsl #29
  201db4:	d402      	bmi.n	201dbc <GLCD_Initialize+0x16f4>
  201db6:	6802      	ldr	r2, [r0, #0]
  201db8:	0752      	lsls	r2, r2, #29
  201dba:	d5f2      	bpl.n	201da2 <GLCD_Initialize+0x16da>
  201dbc:	f850 2c04 	ldr.w	r2, [r0, #-4]
  201dc0:	2200      	movs	r2, #0
  201dc2:	f840 2c04 	str.w	r2, [r0, #-4]
  201dc6:	6802      	ldr	r2, [r0, #0]
  201dc8:	0752      	lsls	r2, r2, #29
  201dca:	d409      	bmi.n	201de0 <GLCD_Initialize+0x1718>
  201dcc:	6802      	ldr	r2, [r0, #0]
  201dce:	0752      	lsls	r2, r2, #29
  201dd0:	bf5c      	itt	pl
  201dd2:	6802      	ldrpl	r2, [r0, #0]
  201dd4:	ea5f 7242 	movspl.w	r2, r2, lsl #29
  201dd8:	d402      	bmi.n	201de0 <GLCD_Initialize+0x1718>
  201dda:	6802      	ldr	r2, [r0, #0]
  201ddc:	0752      	lsls	r2, r2, #29
  201dde:	d5f2      	bpl.n	201dc6 <GLCD_Initialize+0x16fe>
  201de0:	f850 2c04 	ldr.w	r2, [r0, #-4]
  201de4:	221b      	movs	r2, #27
  201de6:	f840 2c04 	str.w	r2, [r0, #-4]
  201dea:	6802      	ldr	r2, [r0, #0]
  201dec:	0752      	lsls	r2, r2, #29
  201dee:	d409      	bmi.n	201e04 <GLCD_Initialize+0x173c>
  201df0:	6802      	ldr	r2, [r0, #0]
  201df2:	0752      	lsls	r2, r2, #29
  201df4:	bf5c      	itt	pl
  201df6:	6802      	ldrpl	r2, [r0, #0]
  201df8:	ea5f 7242 	movspl.w	r2, r2, lsl #29
  201dfc:	d402      	bmi.n	201e04 <GLCD_Initialize+0x173c>
  201dfe:	6802      	ldr	r2, [r0, #0]
  201e00:	0752      	lsls	r2, r2, #29
  201e02:	d5f2      	bpl.n	201dea <GLCD_Initialize+0x1722>
  201e04:	f850 2c04 	ldr.w	r2, [r0, #-4]
  201e08:	680a      	ldr	r2, [r1, #0]
  201e0a:	f042 0201 	orr.w	r2, r2, #1
  201e0e:	600a      	str	r2, [r1, #0]
  201e10:	680a      	ldr	r2, [r1, #0]
  201e12:	f022 0201 	bic.w	r2, r2, #1
  201e16:	600a      	str	r2, [r1, #0]
  201e18:	2270      	movs	r2, #112	; 0x70
  201e1a:	f840 2c04 	str.w	r2, [r0, #-4]
  201e1e:	6802      	ldr	r2, [r0, #0]
  201e20:	0752      	lsls	r2, r2, #29
  201e22:	d409      	bmi.n	201e38 <GLCD_Initialize+0x1770>
  201e24:	6802      	ldr	r2, [r0, #0]
  201e26:	0752      	lsls	r2, r2, #29
  201e28:	bf5c      	itt	pl
  201e2a:	6802      	ldrpl	r2, [r0, #0]
  201e2c:	ea5f 7242 	movspl.w	r2, r2, lsl #29
  201e30:	d402      	bmi.n	201e38 <GLCD_Initialize+0x1770>
  201e32:	6802      	ldr	r2, [r0, #0]
  201e34:	0752      	lsls	r2, r2, #29
  201e36:	d5f2      	bpl.n	201e1e <GLCD_Initialize+0x1756>
  201e38:	f850 2c04 	ldr.w	r2, [r0, #-4]
  201e3c:	2200      	movs	r2, #0
  201e3e:	f840 2c04 	str.w	r2, [r0, #-4]
  201e42:	6802      	ldr	r2, [r0, #0]
  201e44:	0752      	lsls	r2, r2, #29
  201e46:	d409      	bmi.n	201e5c <GLCD_Initialize+0x1794>
  201e48:	6802      	ldr	r2, [r0, #0]
  201e4a:	0752      	lsls	r2, r2, #29
  201e4c:	bf5c      	itt	pl
  201e4e:	6802      	ldrpl	r2, [r0, #0]
  201e50:	ea5f 7242 	movspl.w	r2, r2, lsl #29
  201e54:	d402      	bmi.n	201e5c <GLCD_Initialize+0x1794>
  201e56:	6802      	ldr	r2, [r0, #0]
  201e58:	0752      	lsls	r2, r2, #29
  201e5a:	d5f2      	bpl.n	201e42 <GLCD_Initialize+0x177a>
  201e5c:	f850 2c04 	ldr.w	r2, [r0, #-4]
  201e60:	2251      	movs	r2, #81	; 0x51
  201e62:	f840 2c04 	str.w	r2, [r0, #-4]
  201e66:	6802      	ldr	r2, [r0, #0]
  201e68:	0752      	lsls	r2, r2, #29
  201e6a:	d409      	bmi.n	201e80 <GLCD_Initialize+0x17b8>
  201e6c:	6802      	ldr	r2, [r0, #0]
  201e6e:	0752      	lsls	r2, r2, #29
  201e70:	bf5c      	itt	pl
  201e72:	6802      	ldrpl	r2, [r0, #0]
  201e74:	ea5f 7242 	movspl.w	r2, r2, lsl #29
  201e78:	d402      	bmi.n	201e80 <GLCD_Initialize+0x17b8>
  201e7a:	6802      	ldr	r2, [r0, #0]
  201e7c:	0752      	lsls	r2, r2, #29
  201e7e:	d5f2      	bpl.n	201e66 <GLCD_Initialize+0x179e>
  201e80:	f850 2c04 	ldr.w	r2, [r0, #-4]
  201e84:	680a      	ldr	r2, [r1, #0]
  201e86:	f042 0201 	orr.w	r2, r2, #1
  201e8a:	600a      	str	r2, [r1, #0]
  201e8c:	680a      	ldr	r2, [r1, #0]
  201e8e:	f022 0201 	bic.w	r2, r2, #1
  201e92:	600a      	str	r2, [r1, #0]
  201e94:	2272      	movs	r2, #114	; 0x72
  201e96:	f840 2c04 	str.w	r2, [r0, #-4]
  201e9a:	6802      	ldr	r2, [r0, #0]
  201e9c:	0752      	lsls	r2, r2, #29
  201e9e:	d409      	bmi.n	201eb4 <GLCD_Initialize+0x17ec>
  201ea0:	6802      	ldr	r2, [r0, #0]
  201ea2:	0752      	lsls	r2, r2, #29
  201ea4:	bf5c      	itt	pl
  201ea6:	6802      	ldrpl	r2, [r0, #0]
  201ea8:	ea5f 7242 	movspl.w	r2, r2, lsl #29
  201eac:	d402      	bmi.n	201eb4 <GLCD_Initialize+0x17ec>
  201eae:	6802      	ldr	r2, [r0, #0]
  201eb0:	0752      	lsls	r2, r2, #29
  201eb2:	d5f2      	bpl.n	201e9a <GLCD_Initialize+0x17d2>
  201eb4:	f850 2c04 	ldr.w	r2, [r0, #-4]
  201eb8:	2200      	movs	r2, #0
  201eba:	f840 2c04 	str.w	r2, [r0, #-4]
  201ebe:	6802      	ldr	r2, [r0, #0]
  201ec0:	0752      	lsls	r2, r2, #29
  201ec2:	d409      	bmi.n	201ed8 <GLCD_Initialize+0x1810>
  201ec4:	6802      	ldr	r2, [r0, #0]
  201ec6:	0752      	lsls	r2, r2, #29
  201ec8:	bf5c      	itt	pl
  201eca:	6802      	ldrpl	r2, [r0, #0]
  201ecc:	ea5f 7242 	movspl.w	r2, r2, lsl #29
  201ed0:	d402      	bmi.n	201ed8 <GLCD_Initialize+0x1810>
  201ed2:	6802      	ldr	r2, [r0, #0]
  201ed4:	0752      	lsls	r2, r2, #29
  201ed6:	d5f2      	bpl.n	201ebe <GLCD_Initialize+0x17f6>
  201ed8:	f850 2c04 	ldr.w	r2, [r0, #-4]
  201edc:	2231      	movs	r2, #49	; 0x31
  201ede:	f840 2c04 	str.w	r2, [r0, #-4]
  201ee2:	6802      	ldr	r2, [r0, #0]
  201ee4:	0752      	lsls	r2, r2, #29
  201ee6:	d409      	bmi.n	201efc <GLCD_Initialize+0x1834>
  201ee8:	6802      	ldr	r2, [r0, #0]
  201eea:	0752      	lsls	r2, r2, #29
  201eec:	bf5c      	itt	pl
  201eee:	6802      	ldrpl	r2, [r0, #0]
  201ef0:	ea5f 7242 	movspl.w	r2, r2, lsl #29
  201ef4:	d402      	bmi.n	201efc <GLCD_Initialize+0x1834>
  201ef6:	6802      	ldr	r2, [r0, #0]
  201ef8:	0752      	lsls	r2, r2, #29
  201efa:	d5f2      	bpl.n	201ee2 <GLCD_Initialize+0x181a>
  201efc:	f850 2c04 	ldr.w	r2, [r0, #-4]
  201f00:	680a      	ldr	r2, [r1, #0]
  201f02:	f042 0201 	orr.w	r2, r2, #1
  201f06:	600a      	str	r2, [r1, #0]
  201f08:	680a      	ldr	r2, [r1, #0]
  201f0a:	f022 0201 	bic.w	r2, r2, #1
  201f0e:	600a      	str	r2, [r1, #0]
  201f10:	2270      	movs	r2, #112	; 0x70
  201f12:	f840 2c04 	str.w	r2, [r0, #-4]
  201f16:	6802      	ldr	r2, [r0, #0]
  201f18:	0752      	lsls	r2, r2, #29
  201f1a:	d409      	bmi.n	201f30 <GLCD_Initialize+0x1868>
  201f1c:	6802      	ldr	r2, [r0, #0]
  201f1e:	0752      	lsls	r2, r2, #29
  201f20:	bf5c      	itt	pl
  201f22:	6802      	ldrpl	r2, [r0, #0]
  201f24:	ea5f 7242 	movspl.w	r2, r2, lsl #29
  201f28:	d402      	bmi.n	201f30 <GLCD_Initialize+0x1868>
  201f2a:	6802      	ldr	r2, [r0, #0]
  201f2c:	0752      	lsls	r2, r2, #29
  201f2e:	d5f2      	bpl.n	201f16 <GLCD_Initialize+0x184e>
  201f30:	f850 2c04 	ldr.w	r2, [r0, #-4]
  201f34:	2200      	movs	r2, #0
  201f36:	f840 2c04 	str.w	r2, [r0, #-4]
  201f3a:	6802      	ldr	r2, [r0, #0]
  201f3c:	0752      	lsls	r2, r2, #29
  201f3e:	d409      	bmi.n	201f54 <GLCD_Initialize+0x188c>
  201f40:	6802      	ldr	r2, [r0, #0]
  201f42:	0752      	lsls	r2, r2, #29
  201f44:	bf5c      	itt	pl
  201f46:	6802      	ldrpl	r2, [r0, #0]
  201f48:	ea5f 7242 	movspl.w	r2, r2, lsl #29
  201f4c:	d402      	bmi.n	201f54 <GLCD_Initialize+0x188c>
  201f4e:	6802      	ldr	r2, [r0, #0]
  201f50:	0752      	lsls	r2, r2, #29
  201f52:	d5f2      	bpl.n	201f3a <GLCD_Initialize+0x1872>
  201f54:	f850 2c04 	ldr.w	r2, [r0, #-4]
  201f58:	2252      	movs	r2, #82	; 0x52
  201f5a:	f840 2c04 	str.w	r2, [r0, #-4]
  201f5e:	6802      	ldr	r2, [r0, #0]
  201f60:	0752      	lsls	r2, r2, #29
  201f62:	d409      	bmi.n	201f78 <GLCD_Initialize+0x18b0>
  201f64:	6802      	ldr	r2, [r0, #0]
  201f66:	0752      	lsls	r2, r2, #29
  201f68:	bf5c      	itt	pl
  201f6a:	6802      	ldrpl	r2, [r0, #0]
  201f6c:	ea5f 7242 	movspl.w	r2, r2, lsl #29
  201f70:	d402      	bmi.n	201f78 <GLCD_Initialize+0x18b0>
  201f72:	6802      	ldr	r2, [r0, #0]
  201f74:	0752      	lsls	r2, r2, #29
  201f76:	d5f2      	bpl.n	201f5e <GLCD_Initialize+0x1896>
  201f78:	f850 2c04 	ldr.w	r2, [r0, #-4]
  201f7c:	680a      	ldr	r2, [r1, #0]
  201f7e:	f042 0201 	orr.w	r2, r2, #1
  201f82:	600a      	str	r2, [r1, #0]
  201f84:	680a      	ldr	r2, [r1, #0]
  201f86:	f022 0201 	bic.w	r2, r2, #1
  201f8a:	600a      	str	r2, [r1, #0]
  201f8c:	2272      	movs	r2, #114	; 0x72
  201f8e:	f840 2c04 	str.w	r2, [r0, #-4]
  201f92:	6802      	ldr	r2, [r0, #0]
  201f94:	0752      	lsls	r2, r2, #29
  201f96:	d409      	bmi.n	201fac <GLCD_Initialize+0x18e4>
  201f98:	6802      	ldr	r2, [r0, #0]
  201f9a:	0752      	lsls	r2, r2, #29
  201f9c:	bf5c      	itt	pl
  201f9e:	6802      	ldrpl	r2, [r0, #0]
  201fa0:	ea5f 7242 	movspl.w	r2, r2, lsl #29
  201fa4:	d402      	bmi.n	201fac <GLCD_Initialize+0x18e4>
  201fa6:	6802      	ldr	r2, [r0, #0]
  201fa8:	0752      	lsls	r2, r2, #29
  201faa:	d5f2      	bpl.n	201f92 <GLCD_Initialize+0x18ca>
  201fac:	f850 2c04 	ldr.w	r2, [r0, #-4]
  201fb0:	2200      	movs	r2, #0
  201fb2:	f840 2c04 	str.w	r2, [r0, #-4]
  201fb6:	6802      	ldr	r2, [r0, #0]
  201fb8:	0752      	lsls	r2, r2, #29
  201fba:	d409      	bmi.n	201fd0 <GLCD_Initialize+0x1908>
  201fbc:	6802      	ldr	r2, [r0, #0]
  201fbe:	0752      	lsls	r2, r2, #29
  201fc0:	bf5c      	itt	pl
  201fc2:	6802      	ldrpl	r2, [r0, #0]
  201fc4:	ea5f 7242 	movspl.w	r2, r2, lsl #29
  201fc8:	d402      	bmi.n	201fd0 <GLCD_Initialize+0x1908>
  201fca:	6802      	ldr	r2, [r0, #0]
  201fcc:	0752      	lsls	r2, r2, #29
  201fce:	d5f2      	bpl.n	201fb6 <GLCD_Initialize+0x18ee>
  201fd0:	f850 2c04 	ldr.w	r2, [r0, #-4]
  201fd4:	222f      	movs	r2, #47	; 0x2f
  201fd6:	f840 2c04 	str.w	r2, [r0, #-4]
  201fda:	6802      	ldr	r2, [r0, #0]
  201fdc:	0752      	lsls	r2, r2, #29
  201fde:	d409      	bmi.n	201ff4 <GLCD_Initialize+0x192c>
  201fe0:	6802      	ldr	r2, [r0, #0]
  201fe2:	0752      	lsls	r2, r2, #29
  201fe4:	bf5c      	itt	pl
  201fe6:	6802      	ldrpl	r2, [r0, #0]
  201fe8:	ea5f 7242 	movspl.w	r2, r2, lsl #29
  201fec:	d402      	bmi.n	201ff4 <GLCD_Initialize+0x192c>
  201fee:	6802      	ldr	r2, [r0, #0]
  201ff0:	0752      	lsls	r2, r2, #29
  201ff2:	d5f2      	bpl.n	201fda <GLCD_Initialize+0x1912>
  201ff4:	f850 2c04 	ldr.w	r2, [r0, #-4]
  201ff8:	680a      	ldr	r2, [r1, #0]
  201ffa:	f042 0201 	orr.w	r2, r2, #1
  201ffe:	600a      	str	r2, [r1, #0]
  202000:	680a      	ldr	r2, [r1, #0]
  202002:	f022 0201 	bic.w	r2, r2, #1
  202006:	600a      	str	r2, [r1, #0]
  202008:	2270      	movs	r2, #112	; 0x70
  20200a:	f840 2c04 	str.w	r2, [r0, #-4]
  20200e:	6802      	ldr	r2, [r0, #0]
  202010:	0752      	lsls	r2, r2, #29
  202012:	d409      	bmi.n	202028 <GLCD_Initialize+0x1960>
  202014:	6802      	ldr	r2, [r0, #0]
  202016:	0752      	lsls	r2, r2, #29
  202018:	bf5c      	itt	pl
  20201a:	6802      	ldrpl	r2, [r0, #0]
  20201c:	ea5f 7242 	movspl.w	r2, r2, lsl #29
  202020:	d402      	bmi.n	202028 <GLCD_Initialize+0x1960>
  202022:	6802      	ldr	r2, [r0, #0]
  202024:	0752      	lsls	r2, r2, #29
  202026:	d5f2      	bpl.n	20200e <GLCD_Initialize+0x1946>
  202028:	f850 2c04 	ldr.w	r2, [r0, #-4]
  20202c:	2200      	movs	r2, #0
  20202e:	f840 2c04 	str.w	r2, [r0, #-4]
  202032:	6802      	ldr	r2, [r0, #0]
  202034:	0752      	lsls	r2, r2, #29
  202036:	d409      	bmi.n	20204c <GLCD_Initialize+0x1984>
  202038:	6802      	ldr	r2, [r0, #0]
  20203a:	0752      	lsls	r2, r2, #29
  20203c:	bf5c      	itt	pl
  20203e:	6802      	ldrpl	r2, [r0, #0]
  202040:	ea5f 7242 	movspl.w	r2, r2, lsl #29
  202044:	d402      	bmi.n	20204c <GLCD_Initialize+0x1984>
  202046:	6802      	ldr	r2, [r0, #0]
  202048:	0752      	lsls	r2, r2, #29
  20204a:	d5f2      	bpl.n	202032 <GLCD_Initialize+0x196a>
  20204c:	f850 2c04 	ldr.w	r2, [r0, #-4]
  202050:	2253      	movs	r2, #83	; 0x53
  202052:	f840 2c04 	str.w	r2, [r0, #-4]
  202056:	6802      	ldr	r2, [r0, #0]
  202058:	0752      	lsls	r2, r2, #29
  20205a:	d409      	bmi.n	202070 <GLCD_Initialize+0x19a8>
  20205c:	6802      	ldr	r2, [r0, #0]
  20205e:	0752      	lsls	r2, r2, #29
  202060:	bf5c      	itt	pl
  202062:	6802      	ldrpl	r2, [r0, #0]
  202064:	ea5f 7242 	movspl.w	r2, r2, lsl #29
  202068:	d402      	bmi.n	202070 <GLCD_Initialize+0x19a8>
  20206a:	6802      	ldr	r2, [r0, #0]
  20206c:	0752      	lsls	r2, r2, #29
  20206e:	d5f2      	bpl.n	202056 <GLCD_Initialize+0x198e>
  202070:	f850 2c04 	ldr.w	r2, [r0, #-4]
  202074:	680a      	ldr	r2, [r1, #0]
  202076:	f042 0201 	orr.w	r2, r2, #1
  20207a:	600a      	str	r2, [r1, #0]
  20207c:	680a      	ldr	r2, [r1, #0]
  20207e:	f022 0201 	bic.w	r2, r2, #1
  202082:	600a      	str	r2, [r1, #0]
  202084:	2272      	movs	r2, #114	; 0x72
  202086:	f840 2c04 	str.w	r2, [r0, #-4]
  20208a:	6802      	ldr	r2, [r0, #0]
  20208c:	0752      	lsls	r2, r2, #29
  20208e:	d409      	bmi.n	2020a4 <GLCD_Initialize+0x19dc>
  202090:	6802      	ldr	r2, [r0, #0]
  202092:	0752      	lsls	r2, r2, #29
  202094:	bf5c      	itt	pl
  202096:	6802      	ldrpl	r2, [r0, #0]
  202098:	ea5f 7242 	movspl.w	r2, r2, lsl #29
  20209c:	d402      	bmi.n	2020a4 <GLCD_Initialize+0x19dc>
  20209e:	6802      	ldr	r2, [r0, #0]
  2020a0:	0752      	lsls	r2, r2, #29
  2020a2:	d5f2      	bpl.n	20208a <GLCD_Initialize+0x19c2>
  2020a4:	f850 2c04 	ldr.w	r2, [r0, #-4]
  2020a8:	2200      	movs	r2, #0
  2020aa:	f840 2c04 	str.w	r2, [r0, #-4]
  2020ae:	6802      	ldr	r2, [r0, #0]
  2020b0:	0752      	lsls	r2, r2, #29
  2020b2:	d409      	bmi.n	2020c8 <GLCD_Initialize+0x1a00>
  2020b4:	6802      	ldr	r2, [r0, #0]
  2020b6:	0752      	lsls	r2, r2, #29
  2020b8:	bf5c      	itt	pl
  2020ba:	6802      	ldrpl	r2, [r0, #0]
  2020bc:	ea5f 7242 	movspl.w	r2, r2, lsl #29
  2020c0:	d402      	bmi.n	2020c8 <GLCD_Initialize+0x1a00>
  2020c2:	6802      	ldr	r2, [r0, #0]
  2020c4:	0752      	lsls	r2, r2, #29
  2020c6:	d5f2      	bpl.n	2020ae <GLCD_Initialize+0x19e6>
  2020c8:	f850 2c04 	ldr.w	r2, [r0, #-4]
  2020cc:	223f      	movs	r2, #63	; 0x3f
  2020ce:	f840 2c04 	str.w	r2, [r0, #-4]
  2020d2:	6802      	ldr	r2, [r0, #0]
  2020d4:	0752      	lsls	r2, r2, #29
  2020d6:	d409      	bmi.n	2020ec <GLCD_Initialize+0x1a24>
  2020d8:	6802      	ldr	r2, [r0, #0]
  2020da:	0752      	lsls	r2, r2, #29
  2020dc:	bf5c      	itt	pl
  2020de:	6802      	ldrpl	r2, [r0, #0]
  2020e0:	ea5f 7242 	movspl.w	r2, r2, lsl #29
  2020e4:	d402      	bmi.n	2020ec <GLCD_Initialize+0x1a24>
  2020e6:	6802      	ldr	r2, [r0, #0]
  2020e8:	0752      	lsls	r2, r2, #29
  2020ea:	d5f2      	bpl.n	2020d2 <GLCD_Initialize+0x1a0a>
  2020ec:	f850 2c04 	ldr.w	r2, [r0, #-4]
  2020f0:	680a      	ldr	r2, [r1, #0]
  2020f2:	f042 0201 	orr.w	r2, r2, #1
  2020f6:	600a      	str	r2, [r1, #0]
  2020f8:	680a      	ldr	r2, [r1, #0]
  2020fa:	f022 0201 	bic.w	r2, r2, #1
  2020fe:	600a      	str	r2, [r1, #0]
  202100:	2270      	movs	r2, #112	; 0x70
  202102:	f840 2c04 	str.w	r2, [r0, #-4]
  202106:	6802      	ldr	r2, [r0, #0]
  202108:	0752      	lsls	r2, r2, #29
  20210a:	d409      	bmi.n	202120 <GLCD_Initialize+0x1a58>
  20210c:	6802      	ldr	r2, [r0, #0]
  20210e:	0752      	lsls	r2, r2, #29
  202110:	bf5c      	itt	pl
  202112:	6802      	ldrpl	r2, [r0, #0]
  202114:	ea5f 7242 	movspl.w	r2, r2, lsl #29
  202118:	d402      	bmi.n	202120 <GLCD_Initialize+0x1a58>
  20211a:	6802      	ldr	r2, [r0, #0]
  20211c:	0752      	lsls	r2, r2, #29
  20211e:	d5f2      	bpl.n	202106 <GLCD_Initialize+0x1a3e>
  202120:	f850 2c04 	ldr.w	r2, [r0, #-4]
  202124:	2200      	movs	r2, #0
  202126:	f840 2c04 	str.w	r2, [r0, #-4]
  20212a:	6802      	ldr	r2, [r0, #0]
  20212c:	0752      	lsls	r2, r2, #29
  20212e:	d409      	bmi.n	202144 <GLCD_Initialize+0x1a7c>
  202130:	6802      	ldr	r2, [r0, #0]
  202132:	0752      	lsls	r2, r2, #29
  202134:	bf5c      	itt	pl
  202136:	6802      	ldrpl	r2, [r0, #0]
  202138:	ea5f 7242 	movspl.w	r2, r2, lsl #29
  20213c:	d402      	bmi.n	202144 <GLCD_Initialize+0x1a7c>
  20213e:	6802      	ldr	r2, [r0, #0]
  202140:	0752      	lsls	r2, r2, #29
  202142:	d5f2      	bpl.n	20212a <GLCD_Initialize+0x1a62>
  202144:	f850 2c04 	ldr.w	r2, [r0, #-4]
  202148:	2254      	movs	r2, #84	; 0x54
  20214a:	f840 2c04 	str.w	r2, [r0, #-4]
  20214e:	6802      	ldr	r2, [r0, #0]
  202150:	0752      	lsls	r2, r2, #29
  202152:	d409      	bmi.n	202168 <GLCD_Initialize+0x1aa0>
  202154:	6802      	ldr	r2, [r0, #0]
  202156:	0752      	lsls	r2, r2, #29
  202158:	bf5c      	itt	pl
  20215a:	6802      	ldrpl	r2, [r0, #0]
  20215c:	ea5f 7242 	movspl.w	r2, r2, lsl #29
  202160:	d402      	bmi.n	202168 <GLCD_Initialize+0x1aa0>
  202162:	6802      	ldr	r2, [r0, #0]
  202164:	0752      	lsls	r2, r2, #29
  202166:	d5f2      	bpl.n	20214e <GLCD_Initialize+0x1a86>
  202168:	f850 2c04 	ldr.w	r2, [r0, #-4]
  20216c:	680a      	ldr	r2, [r1, #0]
  20216e:	f042 0201 	orr.w	r2, r2, #1
  202172:	600a      	str	r2, [r1, #0]
  202174:	680a      	ldr	r2, [r1, #0]
  202176:	f022 0201 	bic.w	r2, r2, #1
  20217a:	600a      	str	r2, [r1, #0]
  20217c:	2272      	movs	r2, #114	; 0x72
  20217e:	f840 2c04 	str.w	r2, [r0, #-4]
  202182:	6802      	ldr	r2, [r0, #0]
  202184:	0752      	lsls	r2, r2, #29
  202186:	d409      	bmi.n	20219c <GLCD_Initialize+0x1ad4>
  202188:	6802      	ldr	r2, [r0, #0]
  20218a:	0752      	lsls	r2, r2, #29
  20218c:	bf5c      	itt	pl
  20218e:	6802      	ldrpl	r2, [r0, #0]
  202190:	ea5f 7242 	movspl.w	r2, r2, lsl #29
  202194:	d402      	bmi.n	20219c <GLCD_Initialize+0x1ad4>
  202196:	6802      	ldr	r2, [r0, #0]
  202198:	0752      	lsls	r2, r2, #29
  20219a:	d5f2      	bpl.n	202182 <GLCD_Initialize+0x1aba>
  20219c:	f850 2c04 	ldr.w	r2, [r0, #-4]
  2021a0:	2200      	movs	r2, #0
  2021a2:	f840 2c04 	str.w	r2, [r0, #-4]
  2021a6:	6802      	ldr	r2, [r0, #0]
  2021a8:	0752      	lsls	r2, r2, #29
  2021aa:	d409      	bmi.n	2021c0 <GLCD_Initialize+0x1af8>
  2021ac:	6802      	ldr	r2, [r0, #0]
  2021ae:	0752      	lsls	r2, r2, #29
  2021b0:	bf5c      	itt	pl
  2021b2:	6802      	ldrpl	r2, [r0, #0]
  2021b4:	ea5f 7242 	movspl.w	r2, r2, lsl #29
  2021b8:	d402      	bmi.n	2021c0 <GLCD_Initialize+0x1af8>
  2021ba:	6802      	ldr	r2, [r0, #0]
  2021bc:	0752      	lsls	r2, r2, #29
  2021be:	d5f2      	bpl.n	2021a6 <GLCD_Initialize+0x1ade>
  2021c0:	f850 2c04 	ldr.w	r2, [r0, #-4]
  2021c4:	223f      	movs	r2, #63	; 0x3f
  2021c6:	f840 2c04 	str.w	r2, [r0, #-4]
  2021ca:	6802      	ldr	r2, [r0, #0]
  2021cc:	0752      	lsls	r2, r2, #29
  2021ce:	d409      	bmi.n	2021e4 <GLCD_Initialize+0x1b1c>
  2021d0:	6802      	ldr	r2, [r0, #0]
  2021d2:	0752      	lsls	r2, r2, #29
  2021d4:	bf5c      	itt	pl
  2021d6:	6802      	ldrpl	r2, [r0, #0]
  2021d8:	ea5f 7242 	movspl.w	r2, r2, lsl #29
  2021dc:	d402      	bmi.n	2021e4 <GLCD_Initialize+0x1b1c>
  2021de:	6802      	ldr	r2, [r0, #0]
  2021e0:	0752      	lsls	r2, r2, #29
  2021e2:	d5f2      	bpl.n	2021ca <GLCD_Initialize+0x1b02>
  2021e4:	f850 2c04 	ldr.w	r2, [r0, #-4]
  2021e8:	680a      	ldr	r2, [r1, #0]
  2021ea:	f042 0201 	orr.w	r2, r2, #1
  2021ee:	600a      	str	r2, [r1, #0]
  2021f0:	680a      	ldr	r2, [r1, #0]
  2021f2:	f022 0201 	bic.w	r2, r2, #1
  2021f6:	600a      	str	r2, [r1, #0]
  2021f8:	2270      	movs	r2, #112	; 0x70
  2021fa:	f840 2c04 	str.w	r2, [r0, #-4]
  2021fe:	6802      	ldr	r2, [r0, #0]
  202200:	0752      	lsls	r2, r2, #29
  202202:	d409      	bmi.n	202218 <GLCD_Initialize+0x1b50>
  202204:	6802      	ldr	r2, [r0, #0]
  202206:	0752      	lsls	r2, r2, #29
  202208:	bf5c      	itt	pl
  20220a:	6802      	ldrpl	r2, [r0, #0]
  20220c:	ea5f 7242 	movspl.w	r2, r2, lsl #29
  202210:	d402      	bmi.n	202218 <GLCD_Initialize+0x1b50>
  202212:	6802      	ldr	r2, [r0, #0]
  202214:	0752      	lsls	r2, r2, #29
  202216:	d5f2      	bpl.n	2021fe <GLCD_Initialize+0x1b36>
  202218:	f850 2c04 	ldr.w	r2, [r0, #-4]
  20221c:	2200      	movs	r2, #0
  20221e:	f840 2c04 	str.w	r2, [r0, #-4]
  202222:	6802      	ldr	r2, [r0, #0]
  202224:	0752      	lsls	r2, r2, #29
  202226:	d409      	bmi.n	20223c <GLCD_Initialize+0x1b74>
  202228:	6802      	ldr	r2, [r0, #0]
  20222a:	0752      	lsls	r2, r2, #29
  20222c:	bf5c      	itt	pl
  20222e:	6802      	ldrpl	r2, [r0, #0]
  202230:	ea5f 7242 	movspl.w	r2, r2, lsl #29
  202234:	d402      	bmi.n	20223c <GLCD_Initialize+0x1b74>
  202236:	6802      	ldr	r2, [r0, #0]
  202238:	0752      	lsls	r2, r2, #29
  20223a:	d5f2      	bpl.n	202222 <GLCD_Initialize+0x1b5a>
  20223c:	f850 2c04 	ldr.w	r2, [r0, #-4]
  202240:	2255      	movs	r2, #85	; 0x55
  202242:	f840 2c04 	str.w	r2, [r0, #-4]
  202246:	6802      	ldr	r2, [r0, #0]
  202248:	0752      	lsls	r2, r2, #29
  20224a:	d409      	bmi.n	202260 <GLCD_Initialize+0x1b98>
  20224c:	6802      	ldr	r2, [r0, #0]
  20224e:	0752      	lsls	r2, r2, #29
  202250:	bf5c      	itt	pl
  202252:	6802      	ldrpl	r2, [r0, #0]
  202254:	ea5f 7242 	movspl.w	r2, r2, lsl #29
  202258:	d402      	bmi.n	202260 <GLCD_Initialize+0x1b98>
  20225a:	6802      	ldr	r2, [r0, #0]
  20225c:	0752      	lsls	r2, r2, #29
  20225e:	d5f2      	bpl.n	202246 <GLCD_Initialize+0x1b7e>
  202260:	f850 2c04 	ldr.w	r2, [r0, #-4]
  202264:	680a      	ldr	r2, [r1, #0]
  202266:	f042 0201 	orr.w	r2, r2, #1
  20226a:	600a      	str	r2, [r1, #0]
  20226c:	680a      	ldr	r2, [r1, #0]
  20226e:	f022 0201 	bic.w	r2, r2, #1
  202272:	600a      	str	r2, [r1, #0]
  202274:	2272      	movs	r2, #114	; 0x72
  202276:	f840 2c04 	str.w	r2, [r0, #-4]
  20227a:	6802      	ldr	r2, [r0, #0]
  20227c:	0752      	lsls	r2, r2, #29
  20227e:	d409      	bmi.n	202294 <GLCD_Initialize+0x1bcc>
  202280:	6802      	ldr	r2, [r0, #0]
  202282:	0752      	lsls	r2, r2, #29
  202284:	bf5c      	itt	pl
  202286:	6802      	ldrpl	r2, [r0, #0]
  202288:	ea5f 7242 	movspl.w	r2, r2, lsl #29
  20228c:	d402      	bmi.n	202294 <GLCD_Initialize+0x1bcc>
  20228e:	6802      	ldr	r2, [r0, #0]
  202290:	0752      	lsls	r2, r2, #29
  202292:	d5f2      	bpl.n	20227a <GLCD_Initialize+0x1bb2>
  202294:	f850 2c04 	ldr.w	r2, [r0, #-4]
  202298:	2200      	movs	r2, #0
  20229a:	f840 2c04 	str.w	r2, [r0, #-4]
  20229e:	6802      	ldr	r2, [r0, #0]
  2022a0:	0752      	lsls	r2, r2, #29
  2022a2:	d409      	bmi.n	2022b8 <GLCD_Initialize+0x1bf0>
  2022a4:	6802      	ldr	r2, [r0, #0]
  2022a6:	0752      	lsls	r2, r2, #29
  2022a8:	bf5c      	itt	pl
  2022aa:	6802      	ldrpl	r2, [r0, #0]
  2022ac:	ea5f 7242 	movspl.w	r2, r2, lsl #29
  2022b0:	d402      	bmi.n	2022b8 <GLCD_Initialize+0x1bf0>
  2022b2:	6802      	ldr	r2, [r0, #0]
  2022b4:	0752      	lsls	r2, r2, #29
  2022b6:	d5f2      	bpl.n	20229e <GLCD_Initialize+0x1bd6>
  2022b8:	f850 2c04 	ldr.w	r2, [r0, #-4]
  2022bc:	223e      	movs	r2, #62	; 0x3e
  2022be:	f840 2c04 	str.w	r2, [r0, #-4]
  2022c2:	6802      	ldr	r2, [r0, #0]
  2022c4:	0752      	lsls	r2, r2, #29
  2022c6:	d409      	bmi.n	2022dc <GLCD_Initialize+0x1c14>
  2022c8:	6802      	ldr	r2, [r0, #0]
  2022ca:	0752      	lsls	r2, r2, #29
  2022cc:	bf5c      	itt	pl
  2022ce:	6802      	ldrpl	r2, [r0, #0]
  2022d0:	ea5f 7242 	movspl.w	r2, r2, lsl #29
  2022d4:	d402      	bmi.n	2022dc <GLCD_Initialize+0x1c14>
  2022d6:	6802      	ldr	r2, [r0, #0]
  2022d8:	0752      	lsls	r2, r2, #29
  2022da:	d5f2      	bpl.n	2022c2 <GLCD_Initialize+0x1bfa>
  2022dc:	f850 2c04 	ldr.w	r2, [r0, #-4]
  2022e0:	680a      	ldr	r2, [r1, #0]
  2022e2:	f042 0201 	orr.w	r2, r2, #1
  2022e6:	600a      	str	r2, [r1, #0]
  2022e8:	680a      	ldr	r2, [r1, #0]
  2022ea:	f022 0201 	bic.w	r2, r2, #1
  2022ee:	600a      	str	r2, [r1, #0]
  2022f0:	2270      	movs	r2, #112	; 0x70
  2022f2:	f840 2c04 	str.w	r2, [r0, #-4]
  2022f6:	6802      	ldr	r2, [r0, #0]
  2022f8:	0752      	lsls	r2, r2, #29
  2022fa:	d409      	bmi.n	202310 <GLCD_Initialize+0x1c48>
  2022fc:	6802      	ldr	r2, [r0, #0]
  2022fe:	0752      	lsls	r2, r2, #29
  202300:	bf5c      	itt	pl
  202302:	6802      	ldrpl	r2, [r0, #0]
  202304:	ea5f 7242 	movspl.w	r2, r2, lsl #29
  202308:	d402      	bmi.n	202310 <GLCD_Initialize+0x1c48>
  20230a:	6802      	ldr	r2, [r0, #0]
  20230c:	0752      	lsls	r2, r2, #29
  20230e:	d5f2      	bpl.n	2022f6 <GLCD_Initialize+0x1c2e>
  202310:	f850 2c04 	ldr.w	r2, [r0, #-4]
  202314:	2200      	movs	r2, #0
  202316:	f840 2c04 	str.w	r2, [r0, #-4]
  20231a:	6802      	ldr	r2, [r0, #0]
  20231c:	0752      	lsls	r2, r2, #29
  20231e:	d409      	bmi.n	202334 <GLCD_Initialize+0x1c6c>
  202320:	6802      	ldr	r2, [r0, #0]
  202322:	0752      	lsls	r2, r2, #29
  202324:	bf5c      	itt	pl
  202326:	6802      	ldrpl	r2, [r0, #0]
  202328:	ea5f 7242 	movspl.w	r2, r2, lsl #29
  20232c:	d402      	bmi.n	202334 <GLCD_Initialize+0x1c6c>
  20232e:	6802      	ldr	r2, [r0, #0]
  202330:	0752      	lsls	r2, r2, #29
  202332:	d5f2      	bpl.n	20231a <GLCD_Initialize+0x1c52>
  202334:	f850 2c04 	ldr.w	r2, [r0, #-4]
  202338:	2256      	movs	r2, #86	; 0x56
  20233a:	f840 2c04 	str.w	r2, [r0, #-4]
  20233e:	6802      	ldr	r2, [r0, #0]
  202340:	0752      	lsls	r2, r2, #29
  202342:	d409      	bmi.n	202358 <GLCD_Initialize+0x1c90>
  202344:	6802      	ldr	r2, [r0, #0]
  202346:	0752      	lsls	r2, r2, #29
  202348:	bf5c      	itt	pl
  20234a:	6802      	ldrpl	r2, [r0, #0]
  20234c:	ea5f 7242 	movspl.w	r2, r2, lsl #29
  202350:	d402      	bmi.n	202358 <GLCD_Initialize+0x1c90>
  202352:	6802      	ldr	r2, [r0, #0]
  202354:	0752      	lsls	r2, r2, #29
  202356:	d5f2      	bpl.n	20233e <GLCD_Initialize+0x1c76>
  202358:	f850 2c04 	ldr.w	r2, [r0, #-4]
  20235c:	680a      	ldr	r2, [r1, #0]
  20235e:	f042 0201 	orr.w	r2, r2, #1
  202362:	600a      	str	r2, [r1, #0]
  202364:	680a      	ldr	r2, [r1, #0]
  202366:	f022 0201 	bic.w	r2, r2, #1
  20236a:	600a      	str	r2, [r1, #0]
  20236c:	2272      	movs	r2, #114	; 0x72
  20236e:	f840 2c04 	str.w	r2, [r0, #-4]
  202372:	6802      	ldr	r2, [r0, #0]
  202374:	0752      	lsls	r2, r2, #29
  202376:	d409      	bmi.n	20238c <GLCD_Initialize+0x1cc4>
  202378:	6802      	ldr	r2, [r0, #0]
  20237a:	0752      	lsls	r2, r2, #29
  20237c:	bf5c      	itt	pl
  20237e:	6802      	ldrpl	r2, [r0, #0]
  202380:	ea5f 7242 	movspl.w	r2, r2, lsl #29
  202384:	d402      	bmi.n	20238c <GLCD_Initialize+0x1cc4>
  202386:	6802      	ldr	r2, [r0, #0]
  202388:	0752      	lsls	r2, r2, #29
  20238a:	d5f2      	bpl.n	202372 <GLCD_Initialize+0x1caa>
  20238c:	f850 2c04 	ldr.w	r2, [r0, #-4]
  202390:	2200      	movs	r2, #0
  202392:	f840 2c04 	str.w	r2, [r0, #-4]
  202396:	6802      	ldr	r2, [r0, #0]
  202398:	0752      	lsls	r2, r2, #29
  20239a:	d409      	bmi.n	2023b0 <GLCD_Initialize+0x1ce8>
  20239c:	6802      	ldr	r2, [r0, #0]
  20239e:	0752      	lsls	r2, r2, #29
  2023a0:	bf5c      	itt	pl
  2023a2:	6802      	ldrpl	r2, [r0, #0]
  2023a4:	ea5f 7242 	movspl.w	r2, r2, lsl #29
  2023a8:	d402      	bmi.n	2023b0 <GLCD_Initialize+0x1ce8>
  2023aa:	6802      	ldr	r2, [r0, #0]
  2023ac:	0752      	lsls	r2, r2, #29
  2023ae:	d5f2      	bpl.n	202396 <GLCD_Initialize+0x1cce>
  2023b0:	f850 2c04 	ldr.w	r2, [r0, #-4]
  2023b4:	222f      	movs	r2, #47	; 0x2f
  2023b6:	f840 2c04 	str.w	r2, [r0, #-4]
  2023ba:	6802      	ldr	r2, [r0, #0]
  2023bc:	0752      	lsls	r2, r2, #29
  2023be:	d409      	bmi.n	2023d4 <GLCD_Initialize+0x1d0c>
  2023c0:	6802      	ldr	r2, [r0, #0]
  2023c2:	0752      	lsls	r2, r2, #29
  2023c4:	bf5c      	itt	pl
  2023c6:	6802      	ldrpl	r2, [r0, #0]
  2023c8:	ea5f 7242 	movspl.w	r2, r2, lsl #29
  2023cc:	d402      	bmi.n	2023d4 <GLCD_Initialize+0x1d0c>
  2023ce:	6802      	ldr	r2, [r0, #0]
  2023d0:	0752      	lsls	r2, r2, #29
  2023d2:	d5f2      	bpl.n	2023ba <GLCD_Initialize+0x1cf2>
  2023d4:	f850 2c04 	ldr.w	r2, [r0, #-4]
  2023d8:	680a      	ldr	r2, [r1, #0]
  2023da:	f042 0201 	orr.w	r2, r2, #1
  2023de:	600a      	str	r2, [r1, #0]
  2023e0:	680a      	ldr	r2, [r1, #0]
  2023e2:	f022 0201 	bic.w	r2, r2, #1
  2023e6:	600a      	str	r2, [r1, #0]
  2023e8:	2270      	movs	r2, #112	; 0x70
  2023ea:	f840 2c04 	str.w	r2, [r0, #-4]
  2023ee:	6802      	ldr	r2, [r0, #0]
  2023f0:	0752      	lsls	r2, r2, #29
  2023f2:	d409      	bmi.n	202408 <GLCD_Initialize+0x1d40>
  2023f4:	6802      	ldr	r2, [r0, #0]
  2023f6:	0752      	lsls	r2, r2, #29
  2023f8:	bf5c      	itt	pl
  2023fa:	6802      	ldrpl	r2, [r0, #0]
  2023fc:	ea5f 7242 	movspl.w	r2, r2, lsl #29
  202400:	d402      	bmi.n	202408 <GLCD_Initialize+0x1d40>
  202402:	6802      	ldr	r2, [r0, #0]
  202404:	0752      	lsls	r2, r2, #29
  202406:	d5f2      	bpl.n	2023ee <GLCD_Initialize+0x1d26>
  202408:	f850 2c04 	ldr.w	r2, [r0, #-4]
  20240c:	2200      	movs	r2, #0
  20240e:	f840 2c04 	str.w	r2, [r0, #-4]
  202412:	6802      	ldr	r2, [r0, #0]
  202414:	0752      	lsls	r2, r2, #29
  202416:	d409      	bmi.n	20242c <GLCD_Initialize+0x1d64>
  202418:	6802      	ldr	r2, [r0, #0]
  20241a:	0752      	lsls	r2, r2, #29
  20241c:	bf5c      	itt	pl
  20241e:	6802      	ldrpl	r2, [r0, #0]
  202420:	ea5f 7242 	movspl.w	r2, r2, lsl #29
  202424:	d402      	bmi.n	20242c <GLCD_Initialize+0x1d64>
  202426:	6802      	ldr	r2, [r0, #0]
  202428:	0752      	lsls	r2, r2, #29
  20242a:	d5f2      	bpl.n	202412 <GLCD_Initialize+0x1d4a>
  20242c:	f850 2c04 	ldr.w	r2, [r0, #-4]
  202430:	2257      	movs	r2, #87	; 0x57
  202432:	f840 2c04 	str.w	r2, [r0, #-4]
  202436:	6802      	ldr	r2, [r0, #0]
  202438:	0752      	lsls	r2, r2, #29
  20243a:	d409      	bmi.n	202450 <GLCD_Initialize+0x1d88>
  20243c:	6802      	ldr	r2, [r0, #0]
  20243e:	0752      	lsls	r2, r2, #29
  202440:	bf5c      	itt	pl
  202442:	6802      	ldrpl	r2, [r0, #0]
  202444:	ea5f 7242 	movspl.w	r2, r2, lsl #29
  202448:	d402      	bmi.n	202450 <GLCD_Initialize+0x1d88>
  20244a:	6802      	ldr	r2, [r0, #0]
  20244c:	0752      	lsls	r2, r2, #29
  20244e:	d5f2      	bpl.n	202436 <GLCD_Initialize+0x1d6e>
  202450:	f850 2c04 	ldr.w	r2, [r0, #-4]
  202454:	680a      	ldr	r2, [r1, #0]
  202456:	f042 0201 	orr.w	r2, r2, #1
  20245a:	600a      	str	r2, [r1, #0]
  20245c:	680a      	ldr	r2, [r1, #0]
  20245e:	f022 0201 	bic.w	r2, r2, #1
  202462:	600a      	str	r2, [r1, #0]
  202464:	2272      	movs	r2, #114	; 0x72
  202466:	f840 2c04 	str.w	r2, [r0, #-4]
  20246a:	6802      	ldr	r2, [r0, #0]
  20246c:	0752      	lsls	r2, r2, #29
  20246e:	d409      	bmi.n	202484 <GLCD_Initialize+0x1dbc>
  202470:	6802      	ldr	r2, [r0, #0]
  202472:	0752      	lsls	r2, r2, #29
  202474:	bf5c      	itt	pl
  202476:	6802      	ldrpl	r2, [r0, #0]
  202478:	ea5f 7242 	movspl.w	r2, r2, lsl #29
  20247c:	d402      	bmi.n	202484 <GLCD_Initialize+0x1dbc>
  20247e:	6802      	ldr	r2, [r0, #0]
  202480:	0752      	lsls	r2, r2, #29
  202482:	d5f2      	bpl.n	20246a <GLCD_Initialize+0x1da2>
  202484:	f850 2c04 	ldr.w	r2, [r0, #-4]
  202488:	2200      	movs	r2, #0
  20248a:	f840 2c04 	str.w	r2, [r0, #-4]
  20248e:	6802      	ldr	r2, [r0, #0]
  202490:	0752      	lsls	r2, r2, #29
  202492:	d409      	bmi.n	2024a8 <GLCD_Initialize+0x1de0>
  202494:	6802      	ldr	r2, [r0, #0]
  202496:	0752      	lsls	r2, r2, #29
  202498:	bf5c      	itt	pl
  20249a:	6802      	ldrpl	r2, [r0, #0]
  20249c:	ea5f 7242 	movspl.w	r2, r2, lsl #29
  2024a0:	d402      	bmi.n	2024a8 <GLCD_Initialize+0x1de0>
  2024a2:	6802      	ldr	r2, [r0, #0]
  2024a4:	0752      	lsls	r2, r2, #29
  2024a6:	d5f2      	bpl.n	20248e <GLCD_Initialize+0x1dc6>
  2024a8:	f850 2c04 	ldr.w	r2, [r0, #-4]
  2024ac:	227b      	movs	r2, #123	; 0x7b
  2024ae:	f840 2c04 	str.w	r2, [r0, #-4]
  2024b2:	6802      	ldr	r2, [r0, #0]
  2024b4:	0752      	lsls	r2, r2, #29
  2024b6:	d409      	bmi.n	2024cc <GLCD_Initialize+0x1e04>
  2024b8:	6802      	ldr	r2, [r0, #0]
  2024ba:	0752      	lsls	r2, r2, #29
  2024bc:	bf5c      	itt	pl
  2024be:	6802      	ldrpl	r2, [r0, #0]
  2024c0:	ea5f 7242 	movspl.w	r2, r2, lsl #29
  2024c4:	d402      	bmi.n	2024cc <GLCD_Initialize+0x1e04>
  2024c6:	6802      	ldr	r2, [r0, #0]
  2024c8:	0752      	lsls	r2, r2, #29
  2024ca:	d5f2      	bpl.n	2024b2 <GLCD_Initialize+0x1dea>
  2024cc:	f850 2c04 	ldr.w	r2, [r0, #-4]
  2024d0:	680a      	ldr	r2, [r1, #0]
  2024d2:	f042 0201 	orr.w	r2, r2, #1
  2024d6:	600a      	str	r2, [r1, #0]
  2024d8:	680a      	ldr	r2, [r1, #0]
  2024da:	f022 0201 	bic.w	r2, r2, #1
  2024de:	600a      	str	r2, [r1, #0]
  2024e0:	2270      	movs	r2, #112	; 0x70
  2024e2:	f840 2c04 	str.w	r2, [r0, #-4]
  2024e6:	6802      	ldr	r2, [r0, #0]
  2024e8:	0752      	lsls	r2, r2, #29
  2024ea:	d409      	bmi.n	202500 <GLCD_Initialize+0x1e38>
  2024ec:	6802      	ldr	r2, [r0, #0]
  2024ee:	0752      	lsls	r2, r2, #29
  2024f0:	bf5c      	itt	pl
  2024f2:	6802      	ldrpl	r2, [r0, #0]
  2024f4:	ea5f 7242 	movspl.w	r2, r2, lsl #29
  2024f8:	d402      	bmi.n	202500 <GLCD_Initialize+0x1e38>
  2024fa:	6802      	ldr	r2, [r0, #0]
  2024fc:	0752      	lsls	r2, r2, #29
  2024fe:	d5f2      	bpl.n	2024e6 <GLCD_Initialize+0x1e1e>
  202500:	f850 2c04 	ldr.w	r2, [r0, #-4]
  202504:	2200      	movs	r2, #0
  202506:	f840 2c04 	str.w	r2, [r0, #-4]
  20250a:	6802      	ldr	r2, [r0, #0]
  20250c:	0752      	lsls	r2, r2, #29
  20250e:	d409      	bmi.n	202524 <GLCD_Initialize+0x1e5c>
  202510:	6802      	ldr	r2, [r0, #0]
  202512:	0752      	lsls	r2, r2, #29
  202514:	bf5c      	itt	pl
  202516:	6802      	ldrpl	r2, [r0, #0]
  202518:	ea5f 7242 	movspl.w	r2, r2, lsl #29
  20251c:	d402      	bmi.n	202524 <GLCD_Initialize+0x1e5c>
  20251e:	6802      	ldr	r2, [r0, #0]
  202520:	0752      	lsls	r2, r2, #29
  202522:	d5f2      	bpl.n	20250a <GLCD_Initialize+0x1e42>
  202524:	f850 2c04 	ldr.w	r2, [r0, #-4]
  202528:	2258      	movs	r2, #88	; 0x58
  20252a:	f840 2c04 	str.w	r2, [r0, #-4]
  20252e:	6802      	ldr	r2, [r0, #0]
  202530:	0752      	lsls	r2, r2, #29
  202532:	d409      	bmi.n	202548 <GLCD_Initialize+0x1e80>
  202534:	6802      	ldr	r2, [r0, #0]
  202536:	0752      	lsls	r2, r2, #29
  202538:	bf5c      	itt	pl
  20253a:	6802      	ldrpl	r2, [r0, #0]
  20253c:	ea5f 7242 	movspl.w	r2, r2, lsl #29
  202540:	d402      	bmi.n	202548 <GLCD_Initialize+0x1e80>
  202542:	6802      	ldr	r2, [r0, #0]
  202544:	0752      	lsls	r2, r2, #29
  202546:	d5f2      	bpl.n	20252e <GLCD_Initialize+0x1e66>
  202548:	f850 2c04 	ldr.w	r2, [r0, #-4]
  20254c:	680a      	ldr	r2, [r1, #0]
  20254e:	f042 0201 	orr.w	r2, r2, #1
  202552:	600a      	str	r2, [r1, #0]
  202554:	680a      	ldr	r2, [r1, #0]
  202556:	f022 0201 	bic.w	r2, r2, #1
  20255a:	600a      	str	r2, [r1, #0]
  20255c:	2272      	movs	r2, #114	; 0x72
  20255e:	f840 2c04 	str.w	r2, [r0, #-4]
  202562:	6802      	ldr	r2, [r0, #0]
  202564:	0752      	lsls	r2, r2, #29
  202566:	d409      	bmi.n	20257c <GLCD_Initialize+0x1eb4>
  202568:	6802      	ldr	r2, [r0, #0]
  20256a:	0752      	lsls	r2, r2, #29
  20256c:	bf5c      	itt	pl
  20256e:	6802      	ldrpl	r2, [r0, #0]
  202570:	ea5f 7242 	movspl.w	r2, r2, lsl #29
  202574:	d402      	bmi.n	20257c <GLCD_Initialize+0x1eb4>
  202576:	6802      	ldr	r2, [r0, #0]
  202578:	0752      	lsls	r2, r2, #29
  20257a:	d5f2      	bpl.n	202562 <GLCD_Initialize+0x1e9a>
  20257c:	f850 2c04 	ldr.w	r2, [r0, #-4]
  202580:	2200      	movs	r2, #0
  202582:	f840 2c04 	str.w	r2, [r0, #-4]
  202586:	6802      	ldr	r2, [r0, #0]
  202588:	0752      	lsls	r2, r2, #29
  20258a:	d409      	bmi.n	2025a0 <GLCD_Initialize+0x1ed8>
  20258c:	6802      	ldr	r2, [r0, #0]
  20258e:	0752      	lsls	r2, r2, #29
  202590:	bf5c      	itt	pl
  202592:	6802      	ldrpl	r2, [r0, #0]
  202594:	ea5f 7242 	movspl.w	r2, r2, lsl #29
  202598:	d402      	bmi.n	2025a0 <GLCD_Initialize+0x1ed8>
  20259a:	6802      	ldr	r2, [r0, #0]
  20259c:	0752      	lsls	r2, r2, #29
  20259e:	d5f2      	bpl.n	202586 <GLCD_Initialize+0x1ebe>
  2025a0:	f850 2c04 	ldr.w	r2, [r0, #-4]
  2025a4:	2209      	movs	r2, #9
  2025a6:	f840 2c04 	str.w	r2, [r0, #-4]
  2025aa:	6802      	ldr	r2, [r0, #0]
  2025ac:	0752      	lsls	r2, r2, #29
  2025ae:	d409      	bmi.n	2025c4 <GLCD_Initialize+0x1efc>
  2025b0:	6802      	ldr	r2, [r0, #0]
  2025b2:	0752      	lsls	r2, r2, #29
  2025b4:	bf5c      	itt	pl
  2025b6:	6802      	ldrpl	r2, [r0, #0]
  2025b8:	ea5f 7242 	movspl.w	r2, r2, lsl #29
  2025bc:	d402      	bmi.n	2025c4 <GLCD_Initialize+0x1efc>
  2025be:	6802      	ldr	r2, [r0, #0]
  2025c0:	0752      	lsls	r2, r2, #29
  2025c2:	d5f2      	bpl.n	2025aa <GLCD_Initialize+0x1ee2>
  2025c4:	f850 2c04 	ldr.w	r2, [r0, #-4]
  2025c8:	680a      	ldr	r2, [r1, #0]
  2025ca:	f042 0201 	orr.w	r2, r2, #1
  2025ce:	600a      	str	r2, [r1, #0]
  2025d0:	680a      	ldr	r2, [r1, #0]
  2025d2:	f022 0201 	bic.w	r2, r2, #1
  2025d6:	600a      	str	r2, [r1, #0]
  2025d8:	2270      	movs	r2, #112	; 0x70
  2025da:	f840 2c04 	str.w	r2, [r0, #-4]
  2025de:	6802      	ldr	r2, [r0, #0]
  2025e0:	0752      	lsls	r2, r2, #29
  2025e2:	d409      	bmi.n	2025f8 <GLCD_Initialize+0x1f30>
  2025e4:	6802      	ldr	r2, [r0, #0]
  2025e6:	0752      	lsls	r2, r2, #29
  2025e8:	bf5c      	itt	pl
  2025ea:	6802      	ldrpl	r2, [r0, #0]
  2025ec:	ea5f 7242 	movspl.w	r2, r2, lsl #29
  2025f0:	d402      	bmi.n	2025f8 <GLCD_Initialize+0x1f30>
  2025f2:	6802      	ldr	r2, [r0, #0]
  2025f4:	0752      	lsls	r2, r2, #29
  2025f6:	d5f2      	bpl.n	2025de <GLCD_Initialize+0x1f16>
  2025f8:	f850 2c04 	ldr.w	r2, [r0, #-4]
  2025fc:	2200      	movs	r2, #0
  2025fe:	f840 2c04 	str.w	r2, [r0, #-4]
  202602:	6802      	ldr	r2, [r0, #0]
  202604:	0752      	lsls	r2, r2, #29
  202606:	d409      	bmi.n	20261c <GLCD_Initialize+0x1f54>
  202608:	6802      	ldr	r2, [r0, #0]
  20260a:	0752      	lsls	r2, r2, #29
  20260c:	bf5c      	itt	pl
  20260e:	6802      	ldrpl	r2, [r0, #0]
  202610:	ea5f 7242 	movspl.w	r2, r2, lsl #29
  202614:	d402      	bmi.n	20261c <GLCD_Initialize+0x1f54>
  202616:	6802      	ldr	r2, [r0, #0]
  202618:	0752      	lsls	r2, r2, #29
  20261a:	d5f2      	bpl.n	202602 <GLCD_Initialize+0x1f3a>
  20261c:	f850 2c04 	ldr.w	r2, [r0, #-4]
  202620:	2259      	movs	r2, #89	; 0x59
  202622:	f840 2c04 	str.w	r2, [r0, #-4]
  202626:	6802      	ldr	r2, [r0, #0]
  202628:	0752      	lsls	r2, r2, #29
  20262a:	d409      	bmi.n	202640 <GLCD_Initialize+0x1f78>
  20262c:	6802      	ldr	r2, [r0, #0]
  20262e:	0752      	lsls	r2, r2, #29
  202630:	bf5c      	itt	pl
  202632:	6802      	ldrpl	r2, [r0, #0]
  202634:	ea5f 7242 	movspl.w	r2, r2, lsl #29
  202638:	d402      	bmi.n	202640 <GLCD_Initialize+0x1f78>
  20263a:	6802      	ldr	r2, [r0, #0]
  20263c:	0752      	lsls	r2, r2, #29
  20263e:	d5f2      	bpl.n	202626 <GLCD_Initialize+0x1f5e>
  202640:	f850 2c04 	ldr.w	r2, [r0, #-4]
  202644:	680a      	ldr	r2, [r1, #0]
  202646:	f042 0201 	orr.w	r2, r2, #1
  20264a:	600a      	str	r2, [r1, #0]
  20264c:	680a      	ldr	r2, [r1, #0]
  20264e:	f022 0201 	bic.w	r2, r2, #1
  202652:	600a      	str	r2, [r1, #0]
  202654:	2272      	movs	r2, #114	; 0x72
  202656:	f840 2c04 	str.w	r2, [r0, #-4]
  20265a:	6802      	ldr	r2, [r0, #0]
  20265c:	0752      	lsls	r2, r2, #29
  20265e:	d409      	bmi.n	202674 <GLCD_Initialize+0x1fac>
  202660:	6802      	ldr	r2, [r0, #0]
  202662:	0752      	lsls	r2, r2, #29
  202664:	bf5c      	itt	pl
  202666:	6802      	ldrpl	r2, [r0, #0]
  202668:	ea5f 7242 	movspl.w	r2, r2, lsl #29
  20266c:	d402      	bmi.n	202674 <GLCD_Initialize+0x1fac>
  20266e:	6802      	ldr	r2, [r0, #0]
  202670:	0752      	lsls	r2, r2, #29
  202672:	d5f2      	bpl.n	20265a <GLCD_Initialize+0x1f92>
  202674:	f850 2c04 	ldr.w	r2, [r0, #-4]
  202678:	2200      	movs	r2, #0
  20267a:	f840 2c04 	str.w	r2, [r0, #-4]
  20267e:	6802      	ldr	r2, [r0, #0]
  202680:	0752      	lsls	r2, r2, #29
  202682:	d409      	bmi.n	202698 <GLCD_Initialize+0x1fd0>
  202684:	6802      	ldr	r2, [r0, #0]
  202686:	0752      	lsls	r2, r2, #29
  202688:	bf5c      	itt	pl
  20268a:	6802      	ldrpl	r2, [r0, #0]
  20268c:	ea5f 7242 	movspl.w	r2, r2, lsl #29
  202690:	d402      	bmi.n	202698 <GLCD_Initialize+0x1fd0>
  202692:	6802      	ldr	r2, [r0, #0]
  202694:	0752      	lsls	r2, r2, #29
  202696:	d5f2      	bpl.n	20267e <GLCD_Initialize+0x1fb6>
  202698:	f850 2c04 	ldr.w	r2, [r0, #-4]
  20269c:	2206      	movs	r2, #6
  20269e:	f840 2c04 	str.w	r2, [r0, #-4]
  2026a2:	6802      	ldr	r2, [r0, #0]
  2026a4:	0752      	lsls	r2, r2, #29
  2026a6:	d409      	bmi.n	2026bc <GLCD_Initialize+0x1ff4>
  2026a8:	6802      	ldr	r2, [r0, #0]
  2026aa:	0752      	lsls	r2, r2, #29
  2026ac:	bf5c      	itt	pl
  2026ae:	6802      	ldrpl	r2, [r0, #0]
  2026b0:	ea5f 7242 	movspl.w	r2, r2, lsl #29
  2026b4:	d402      	bmi.n	2026bc <GLCD_Initialize+0x1ff4>
  2026b6:	6802      	ldr	r2, [r0, #0]
  2026b8:	0752      	lsls	r2, r2, #29
  2026ba:	d5f2      	bpl.n	2026a2 <GLCD_Initialize+0x1fda>
  2026bc:	f850 2c04 	ldr.w	r2, [r0, #-4]
  2026c0:	680a      	ldr	r2, [r1, #0]
  2026c2:	f042 0201 	orr.w	r2, r2, #1
  2026c6:	600a      	str	r2, [r1, #0]
  2026c8:	680a      	ldr	r2, [r1, #0]
  2026ca:	f022 0201 	bic.w	r2, r2, #1
  2026ce:	600a      	str	r2, [r1, #0]
  2026d0:	2270      	movs	r2, #112	; 0x70
  2026d2:	f840 2c04 	str.w	r2, [r0, #-4]
  2026d6:	6802      	ldr	r2, [r0, #0]
  2026d8:	0752      	lsls	r2, r2, #29
  2026da:	d409      	bmi.n	2026f0 <GLCD_Initialize+0x2028>
  2026dc:	6802      	ldr	r2, [r0, #0]
  2026de:	0752      	lsls	r2, r2, #29
  2026e0:	bf5c      	itt	pl
  2026e2:	6802      	ldrpl	r2, [r0, #0]
  2026e4:	ea5f 7242 	movspl.w	r2, r2, lsl #29
  2026e8:	d402      	bmi.n	2026f0 <GLCD_Initialize+0x2028>
  2026ea:	6802      	ldr	r2, [r0, #0]
  2026ec:	0752      	lsls	r2, r2, #29
  2026ee:	d5f2      	bpl.n	2026d6 <GLCD_Initialize+0x200e>
  2026f0:	f850 2c04 	ldr.w	r2, [r0, #-4]
  2026f4:	2200      	movs	r2, #0
  2026f6:	f840 2c04 	str.w	r2, [r0, #-4]
  2026fa:	6802      	ldr	r2, [r0, #0]
  2026fc:	0752      	lsls	r2, r2, #29
  2026fe:	d409      	bmi.n	202714 <GLCD_Initialize+0x204c>
  202700:	6802      	ldr	r2, [r0, #0]
  202702:	0752      	lsls	r2, r2, #29
  202704:	bf5c      	itt	pl
  202706:	6802      	ldrpl	r2, [r0, #0]
  202708:	ea5f 7242 	movspl.w	r2, r2, lsl #29
  20270c:	d402      	bmi.n	202714 <GLCD_Initialize+0x204c>
  20270e:	6802      	ldr	r2, [r0, #0]
  202710:	0752      	lsls	r2, r2, #29
  202712:	d5f2      	bpl.n	2026fa <GLCD_Initialize+0x2032>
  202714:	f850 2c04 	ldr.w	r2, [r0, #-4]
  202718:	225a      	movs	r2, #90	; 0x5a
  20271a:	f840 2c04 	str.w	r2, [r0, #-4]
  20271e:	6802      	ldr	r2, [r0, #0]
  202720:	0752      	lsls	r2, r2, #29
  202722:	d409      	bmi.n	202738 <GLCD_Initialize+0x2070>
  202724:	6802      	ldr	r2, [r0, #0]
  202726:	0752      	lsls	r2, r2, #29
  202728:	bf5c      	itt	pl
  20272a:	6802      	ldrpl	r2, [r0, #0]
  20272c:	ea5f 7242 	movspl.w	r2, r2, lsl #29
  202730:	d402      	bmi.n	202738 <GLCD_Initialize+0x2070>
  202732:	6802      	ldr	r2, [r0, #0]
  202734:	0752      	lsls	r2, r2, #29
  202736:	d5f2      	bpl.n	20271e <GLCD_Initialize+0x2056>
  202738:	f850 2c04 	ldr.w	r2, [r0, #-4]
  20273c:	680a      	ldr	r2, [r1, #0]
  20273e:	f042 0201 	orr.w	r2, r2, #1
  202742:	600a      	str	r2, [r1, #0]
  202744:	680a      	ldr	r2, [r1, #0]
  202746:	f022 0201 	bic.w	r2, r2, #1
  20274a:	600a      	str	r2, [r1, #0]
  20274c:	2272      	movs	r2, #114	; 0x72
  20274e:	f840 2c04 	str.w	r2, [r0, #-4]
  202752:	6802      	ldr	r2, [r0, #0]
  202754:	0752      	lsls	r2, r2, #29
  202756:	d409      	bmi.n	20276c <GLCD_Initialize+0x20a4>
  202758:	6802      	ldr	r2, [r0, #0]
  20275a:	0752      	lsls	r2, r2, #29
  20275c:	bf5c      	itt	pl
  20275e:	6802      	ldrpl	r2, [r0, #0]
  202760:	ea5f 7242 	movspl.w	r2, r2, lsl #29
  202764:	d402      	bmi.n	20276c <GLCD_Initialize+0x20a4>
  202766:	6802      	ldr	r2, [r0, #0]
  202768:	0752      	lsls	r2, r2, #29
  20276a:	d5f2      	bpl.n	202752 <GLCD_Initialize+0x208a>
  20276c:	f850 2c04 	ldr.w	r2, [r0, #-4]
  202770:	2200      	movs	r2, #0
  202772:	f840 2c04 	str.w	r2, [r0, #-4]
  202776:	6802      	ldr	r2, [r0, #0]
  202778:	0752      	lsls	r2, r2, #29
  20277a:	d409      	bmi.n	202790 <GLCD_Initialize+0x20c8>
  20277c:	6802      	ldr	r2, [r0, #0]
  20277e:	0752      	lsls	r2, r2, #29
  202780:	bf5c      	itt	pl
  202782:	6802      	ldrpl	r2, [r0, #0]
  202784:	ea5f 7242 	movspl.w	r2, r2, lsl #29
  202788:	d402      	bmi.n	202790 <GLCD_Initialize+0x20c8>
  20278a:	6802      	ldr	r2, [r0, #0]
  20278c:	0752      	lsls	r2, r2, #29
  20278e:	d5f2      	bpl.n	202776 <GLCD_Initialize+0x20ae>
  202790:	f850 2c04 	ldr.w	r2, [r0, #-4]
  202794:	2206      	movs	r2, #6
  202796:	f840 2c04 	str.w	r2, [r0, #-4]
  20279a:	6802      	ldr	r2, [r0, #0]
  20279c:	0752      	lsls	r2, r2, #29
  20279e:	d409      	bmi.n	2027b4 <GLCD_Initialize+0x20ec>
  2027a0:	6802      	ldr	r2, [r0, #0]
  2027a2:	0752      	lsls	r2, r2, #29
  2027a4:	bf5c      	itt	pl
  2027a6:	6802      	ldrpl	r2, [r0, #0]
  2027a8:	ea5f 7242 	movspl.w	r2, r2, lsl #29
  2027ac:	d402      	bmi.n	2027b4 <GLCD_Initialize+0x20ec>
  2027ae:	6802      	ldr	r2, [r0, #0]
  2027b0:	0752      	lsls	r2, r2, #29
  2027b2:	d5f2      	bpl.n	20279a <GLCD_Initialize+0x20d2>
  2027b4:	f850 2c04 	ldr.w	r2, [r0, #-4]
  2027b8:	680a      	ldr	r2, [r1, #0]
  2027ba:	f042 0201 	orr.w	r2, r2, #1
  2027be:	600a      	str	r2, [r1, #0]
  2027c0:	680a      	ldr	r2, [r1, #0]
  2027c2:	f022 0201 	bic.w	r2, r2, #1
  2027c6:	600a      	str	r2, [r1, #0]
  2027c8:	2270      	movs	r2, #112	; 0x70
  2027ca:	f840 2c04 	str.w	r2, [r0, #-4]
  2027ce:	6802      	ldr	r2, [r0, #0]
  2027d0:	0752      	lsls	r2, r2, #29
  2027d2:	d409      	bmi.n	2027e8 <GLCD_Initialize+0x2120>
  2027d4:	6802      	ldr	r2, [r0, #0]
  2027d6:	0752      	lsls	r2, r2, #29
  2027d8:	bf5c      	itt	pl
  2027da:	6802      	ldrpl	r2, [r0, #0]
  2027dc:	ea5f 7242 	movspl.w	r2, r2, lsl #29
  2027e0:	d402      	bmi.n	2027e8 <GLCD_Initialize+0x2120>
  2027e2:	6802      	ldr	r2, [r0, #0]
  2027e4:	0752      	lsls	r2, r2, #29
  2027e6:	d5f2      	bpl.n	2027ce <GLCD_Initialize+0x2106>
  2027e8:	f850 2c04 	ldr.w	r2, [r0, #-4]
  2027ec:	2200      	movs	r2, #0
  2027ee:	f840 2c04 	str.w	r2, [r0, #-4]
  2027f2:	6802      	ldr	r2, [r0, #0]
  2027f4:	0752      	lsls	r2, r2, #29
  2027f6:	d409      	bmi.n	20280c <GLCD_Initialize+0x2144>
  2027f8:	6802      	ldr	r2, [r0, #0]
  2027fa:	0752      	lsls	r2, r2, #29
  2027fc:	bf5c      	itt	pl
  2027fe:	6802      	ldrpl	r2, [r0, #0]
  202800:	ea5f 7242 	movspl.w	r2, r2, lsl #29
  202804:	d402      	bmi.n	20280c <GLCD_Initialize+0x2144>
  202806:	6802      	ldr	r2, [r0, #0]
  202808:	0752      	lsls	r2, r2, #29
  20280a:	d5f2      	bpl.n	2027f2 <GLCD_Initialize+0x212a>
  20280c:	f850 2c04 	ldr.w	r2, [r0, #-4]
  202810:	225b      	movs	r2, #91	; 0x5b
  202812:	f840 2c04 	str.w	r2, [r0, #-4]
  202816:	6802      	ldr	r2, [r0, #0]
  202818:	0752      	lsls	r2, r2, #29
  20281a:	d409      	bmi.n	202830 <GLCD_Initialize+0x2168>
  20281c:	6802      	ldr	r2, [r0, #0]
  20281e:	0752      	lsls	r2, r2, #29
  202820:	bf5c      	itt	pl
  202822:	6802      	ldrpl	r2, [r0, #0]
  202824:	ea5f 7242 	movspl.w	r2, r2, lsl #29
  202828:	d402      	bmi.n	202830 <GLCD_Initialize+0x2168>
  20282a:	6802      	ldr	r2, [r0, #0]
  20282c:	0752      	lsls	r2, r2, #29
  20282e:	d5f2      	bpl.n	202816 <GLCD_Initialize+0x214e>
  202830:	f850 2c04 	ldr.w	r2, [r0, #-4]
  202834:	680a      	ldr	r2, [r1, #0]
  202836:	f042 0201 	orr.w	r2, r2, #1
  20283a:	600a      	str	r2, [r1, #0]
  20283c:	680a      	ldr	r2, [r1, #0]
  20283e:	f022 0201 	bic.w	r2, r2, #1
  202842:	600a      	str	r2, [r1, #0]
  202844:	2272      	movs	r2, #114	; 0x72
  202846:	f840 2c04 	str.w	r2, [r0, #-4]
  20284a:	6802      	ldr	r2, [r0, #0]
  20284c:	0752      	lsls	r2, r2, #29
  20284e:	d409      	bmi.n	202864 <GLCD_Initialize+0x219c>
  202850:	6802      	ldr	r2, [r0, #0]
  202852:	0752      	lsls	r2, r2, #29
  202854:	bf5c      	itt	pl
  202856:	6802      	ldrpl	r2, [r0, #0]
  202858:	ea5f 7242 	movspl.w	r2, r2, lsl #29
  20285c:	d402      	bmi.n	202864 <GLCD_Initialize+0x219c>
  20285e:	6802      	ldr	r2, [r0, #0]
  202860:	0752      	lsls	r2, r2, #29
  202862:	d5f2      	bpl.n	20284a <GLCD_Initialize+0x2182>
  202864:	f850 2c04 	ldr.w	r2, [r0, #-4]
  202868:	2200      	movs	r2, #0
  20286a:	f840 2c04 	str.w	r2, [r0, #-4]
  20286e:	6802      	ldr	r2, [r0, #0]
  202870:	0752      	lsls	r2, r2, #29
  202872:	d409      	bmi.n	202888 <GLCD_Initialize+0x21c0>
  202874:	6802      	ldr	r2, [r0, #0]
  202876:	0752      	lsls	r2, r2, #29
  202878:	bf5c      	itt	pl
  20287a:	6802      	ldrpl	r2, [r0, #0]
  20287c:	ea5f 7242 	movspl.w	r2, r2, lsl #29
  202880:	d402      	bmi.n	202888 <GLCD_Initialize+0x21c0>
  202882:	6802      	ldr	r2, [r0, #0]
  202884:	0752      	lsls	r2, r2, #29
  202886:	d5f2      	bpl.n	20286e <GLCD_Initialize+0x21a6>
  202888:	f850 2c04 	ldr.w	r2, [r0, #-4]
  20288c:	220c      	movs	r2, #12
  20288e:	f840 2c04 	str.w	r2, [r0, #-4]
  202892:	6802      	ldr	r2, [r0, #0]
  202894:	0752      	lsls	r2, r2, #29
  202896:	d409      	bmi.n	2028ac <GLCD_Initialize+0x21e4>
  202898:	6802      	ldr	r2, [r0, #0]
  20289a:	0752      	lsls	r2, r2, #29
  20289c:	bf5c      	itt	pl
  20289e:	6802      	ldrpl	r2, [r0, #0]
  2028a0:	ea5f 7242 	movspl.w	r2, r2, lsl #29
  2028a4:	d402      	bmi.n	2028ac <GLCD_Initialize+0x21e4>
  2028a6:	6802      	ldr	r2, [r0, #0]
  2028a8:	0752      	lsls	r2, r2, #29
  2028aa:	d5f2      	bpl.n	202892 <GLCD_Initialize+0x21ca>
  2028ac:	f850 2c04 	ldr.w	r2, [r0, #-4]
  2028b0:	680a      	ldr	r2, [r1, #0]
  2028b2:	f042 0201 	orr.w	r2, r2, #1
  2028b6:	600a      	str	r2, [r1, #0]
  2028b8:	680a      	ldr	r2, [r1, #0]
  2028ba:	f022 0201 	bic.w	r2, r2, #1
  2028be:	600a      	str	r2, [r1, #0]
  2028c0:	2270      	movs	r2, #112	; 0x70
  2028c2:	f840 2c04 	str.w	r2, [r0, #-4]
  2028c6:	6802      	ldr	r2, [r0, #0]
  2028c8:	0752      	lsls	r2, r2, #29
  2028ca:	d409      	bmi.n	2028e0 <GLCD_Initialize+0x2218>
  2028cc:	6802      	ldr	r2, [r0, #0]
  2028ce:	0752      	lsls	r2, r2, #29
  2028d0:	bf5c      	itt	pl
  2028d2:	6802      	ldrpl	r2, [r0, #0]
  2028d4:	ea5f 7242 	movspl.w	r2, r2, lsl #29
  2028d8:	d402      	bmi.n	2028e0 <GLCD_Initialize+0x2218>
  2028da:	6802      	ldr	r2, [r0, #0]
  2028dc:	0752      	lsls	r2, r2, #29
  2028de:	d5f2      	bpl.n	2028c6 <GLCD_Initialize+0x21fe>
  2028e0:	f850 2c04 	ldr.w	r2, [r0, #-4]
  2028e4:	2200      	movs	r2, #0
  2028e6:	f840 2c04 	str.w	r2, [r0, #-4]
  2028ea:	6802      	ldr	r2, [r0, #0]
  2028ec:	0752      	lsls	r2, r2, #29
  2028ee:	d409      	bmi.n	202904 <GLCD_Initialize+0x223c>
  2028f0:	6802      	ldr	r2, [r0, #0]
  2028f2:	0752      	lsls	r2, r2, #29
  2028f4:	bf5c      	itt	pl
  2028f6:	6802      	ldrpl	r2, [r0, #0]
  2028f8:	ea5f 7242 	movspl.w	r2, r2, lsl #29
  2028fc:	d402      	bmi.n	202904 <GLCD_Initialize+0x223c>
  2028fe:	6802      	ldr	r2, [r0, #0]
  202900:	0752      	lsls	r2, r2, #29
  202902:	d5f2      	bpl.n	2028ea <GLCD_Initialize+0x2222>
  202904:	f850 2c04 	ldr.w	r2, [r0, #-4]
  202908:	225c      	movs	r2, #92	; 0x5c
  20290a:	f840 2c04 	str.w	r2, [r0, #-4]
  20290e:	6802      	ldr	r2, [r0, #0]
  202910:	0752      	lsls	r2, r2, #29
  202912:	d409      	bmi.n	202928 <GLCD_Initialize+0x2260>
  202914:	6802      	ldr	r2, [r0, #0]
  202916:	0752      	lsls	r2, r2, #29
  202918:	bf5c      	itt	pl
  20291a:	6802      	ldrpl	r2, [r0, #0]
  20291c:	ea5f 7242 	movspl.w	r2, r2, lsl #29
  202920:	d402      	bmi.n	202928 <GLCD_Initialize+0x2260>
  202922:	6802      	ldr	r2, [r0, #0]
  202924:	0752      	lsls	r2, r2, #29
  202926:	d5f2      	bpl.n	20290e <GLCD_Initialize+0x2246>
  202928:	f850 2c04 	ldr.w	r2, [r0, #-4]
  20292c:	680a      	ldr	r2, [r1, #0]
  20292e:	f042 0201 	orr.w	r2, r2, #1
  202932:	600a      	str	r2, [r1, #0]
  202934:	680a      	ldr	r2, [r1, #0]
  202936:	f022 0201 	bic.w	r2, r2, #1
  20293a:	600a      	str	r2, [r1, #0]
  20293c:	2272      	movs	r2, #114	; 0x72
  20293e:	f840 2c04 	str.w	r2, [r0, #-4]
  202942:	6802      	ldr	r2, [r0, #0]
  202944:	0752      	lsls	r2, r2, #29
  202946:	d409      	bmi.n	20295c <GLCD_Initialize+0x2294>
  202948:	6802      	ldr	r2, [r0, #0]
  20294a:	0752      	lsls	r2, r2, #29
  20294c:	bf5c      	itt	pl
  20294e:	6802      	ldrpl	r2, [r0, #0]
  202950:	ea5f 7242 	movspl.w	r2, r2, lsl #29
  202954:	d402      	bmi.n	20295c <GLCD_Initialize+0x2294>
  202956:	6802      	ldr	r2, [r0, #0]
  202958:	0752      	lsls	r2, r2, #29
  20295a:	d5f2      	bpl.n	202942 <GLCD_Initialize+0x227a>
  20295c:	f850 2c04 	ldr.w	r2, [r0, #-4]
  202960:	2200      	movs	r2, #0
  202962:	f840 2c04 	str.w	r2, [r0, #-4]
  202966:	6802      	ldr	r2, [r0, #0]
  202968:	0752      	lsls	r2, r2, #29
  20296a:	d409      	bmi.n	202980 <GLCD_Initialize+0x22b8>
  20296c:	6802      	ldr	r2, [r0, #0]
  20296e:	0752      	lsls	r2, r2, #29
  202970:	bf5c      	itt	pl
  202972:	6802      	ldrpl	r2, [r0, #0]
  202974:	ea5f 7242 	movspl.w	r2, r2, lsl #29
  202978:	d402      	bmi.n	202980 <GLCD_Initialize+0x22b8>
  20297a:	6802      	ldr	r2, [r0, #0]
  20297c:	0752      	lsls	r2, r2, #29
  20297e:	d5f2      	bpl.n	202966 <GLCD_Initialize+0x229e>
  202980:	f850 2c04 	ldr.w	r2, [r0, #-4]
  202984:	221d      	movs	r2, #29
  202986:	f840 2c04 	str.w	r2, [r0, #-4]
  20298a:	6802      	ldr	r2, [r0, #0]
  20298c:	0752      	lsls	r2, r2, #29
  20298e:	d409      	bmi.n	2029a4 <GLCD_Initialize+0x22dc>
  202990:	6802      	ldr	r2, [r0, #0]
  202992:	0752      	lsls	r2, r2, #29
  202994:	bf5c      	itt	pl
  202996:	6802      	ldrpl	r2, [r0, #0]
  202998:	ea5f 7242 	movspl.w	r2, r2, lsl #29
  20299c:	d402      	bmi.n	2029a4 <GLCD_Initialize+0x22dc>
  20299e:	6802      	ldr	r2, [r0, #0]
  2029a0:	0752      	lsls	r2, r2, #29
  2029a2:	d5f2      	bpl.n	20298a <GLCD_Initialize+0x22c2>
  2029a4:	f850 2c04 	ldr.w	r2, [r0, #-4]
  2029a8:	680a      	ldr	r2, [r1, #0]
  2029aa:	f042 0201 	orr.w	r2, r2, #1
  2029ae:	600a      	str	r2, [r1, #0]
  2029b0:	680a      	ldr	r2, [r1, #0]
  2029b2:	f022 0201 	bic.w	r2, r2, #1
  2029b6:	600a      	str	r2, [r1, #0]
  2029b8:	2270      	movs	r2, #112	; 0x70
  2029ba:	f840 2c04 	str.w	r2, [r0, #-4]
  2029be:	6802      	ldr	r2, [r0, #0]
  2029c0:	0752      	lsls	r2, r2, #29
  2029c2:	d409      	bmi.n	2029d8 <GLCD_Initialize+0x2310>
  2029c4:	6802      	ldr	r2, [r0, #0]
  2029c6:	0752      	lsls	r2, r2, #29
  2029c8:	bf5c      	itt	pl
  2029ca:	6802      	ldrpl	r2, [r0, #0]
  2029cc:	ea5f 7242 	movspl.w	r2, r2, lsl #29
  2029d0:	d402      	bmi.n	2029d8 <GLCD_Initialize+0x2310>
  2029d2:	6802      	ldr	r2, [r0, #0]
  2029d4:	0752      	lsls	r2, r2, #29
  2029d6:	d5f2      	bpl.n	2029be <GLCD_Initialize+0x22f6>
  2029d8:	f850 2c04 	ldr.w	r2, [r0, #-4]
  2029dc:	2200      	movs	r2, #0
  2029de:	f840 2c04 	str.w	r2, [r0, #-4]
  2029e2:	6802      	ldr	r2, [r0, #0]
  2029e4:	0752      	lsls	r2, r2, #29
  2029e6:	d409      	bmi.n	2029fc <GLCD_Initialize+0x2334>
  2029e8:	6802      	ldr	r2, [r0, #0]
  2029ea:	0752      	lsls	r2, r2, #29
  2029ec:	bf5c      	itt	pl
  2029ee:	6802      	ldrpl	r2, [r0, #0]
  2029f0:	ea5f 7242 	movspl.w	r2, r2, lsl #29
  2029f4:	d402      	bmi.n	2029fc <GLCD_Initialize+0x2334>
  2029f6:	6802      	ldr	r2, [r0, #0]
  2029f8:	0752      	lsls	r2, r2, #29
  2029fa:	d5f2      	bpl.n	2029e2 <GLCD_Initialize+0x231a>
  2029fc:	f850 2c04 	ldr.w	r2, [r0, #-4]
  202a00:	225d      	movs	r2, #93	; 0x5d
  202a02:	f840 2c04 	str.w	r2, [r0, #-4]
  202a06:	6802      	ldr	r2, [r0, #0]
  202a08:	0752      	lsls	r2, r2, #29
  202a0a:	d409      	bmi.n	202a20 <GLCD_Initialize+0x2358>
  202a0c:	6802      	ldr	r2, [r0, #0]
  202a0e:	0752      	lsls	r2, r2, #29
  202a10:	bf5c      	itt	pl
  202a12:	6802      	ldrpl	r2, [r0, #0]
  202a14:	ea5f 7242 	movspl.w	r2, r2, lsl #29
  202a18:	d402      	bmi.n	202a20 <GLCD_Initialize+0x2358>
  202a1a:	6802      	ldr	r2, [r0, #0]
  202a1c:	0752      	lsls	r2, r2, #29
  202a1e:	d5f2      	bpl.n	202a06 <GLCD_Initialize+0x233e>
  202a20:	f850 2c04 	ldr.w	r2, [r0, #-4]
  202a24:	680a      	ldr	r2, [r1, #0]
  202a26:	f042 0201 	orr.w	r2, r2, #1
  202a2a:	600a      	str	r2, [r1, #0]
  202a2c:	680a      	ldr	r2, [r1, #0]
  202a2e:	f022 0201 	bic.w	r2, r2, #1
  202a32:	600a      	str	r2, [r1, #0]
  202a34:	2272      	movs	r2, #114	; 0x72
  202a36:	f840 2c04 	str.w	r2, [r0, #-4]
  202a3a:	6802      	ldr	r2, [r0, #0]
  202a3c:	0752      	lsls	r2, r2, #29
  202a3e:	d409      	bmi.n	202a54 <GLCD_Initialize+0x238c>
  202a40:	6802      	ldr	r2, [r0, #0]
  202a42:	0752      	lsls	r2, r2, #29
  202a44:	bf5c      	itt	pl
  202a46:	6802      	ldrpl	r2, [r0, #0]
  202a48:	ea5f 7242 	movspl.w	r2, r2, lsl #29
  202a4c:	d402      	bmi.n	202a54 <GLCD_Initialize+0x238c>
  202a4e:	6802      	ldr	r2, [r0, #0]
  202a50:	0752      	lsls	r2, r2, #29
  202a52:	d5f2      	bpl.n	202a3a <GLCD_Initialize+0x2372>
  202a54:	f850 2c04 	ldr.w	r2, [r0, #-4]
  202a58:	2200      	movs	r2, #0
  202a5a:	f840 2c04 	str.w	r2, [r0, #-4]
  202a5e:	6802      	ldr	r2, [r0, #0]
  202a60:	0752      	lsls	r2, r2, #29
  202a62:	d409      	bmi.n	202a78 <GLCD_Initialize+0x23b0>
  202a64:	6802      	ldr	r2, [r0, #0]
  202a66:	0752      	lsls	r2, r2, #29
  202a68:	bf5c      	itt	pl
  202a6a:	6802      	ldrpl	r2, [r0, #0]
  202a6c:	ea5f 7242 	movspl.w	r2, r2, lsl #29
  202a70:	d402      	bmi.n	202a78 <GLCD_Initialize+0x23b0>
  202a72:	6802      	ldr	r2, [r0, #0]
  202a74:	0752      	lsls	r2, r2, #29
  202a76:	d5f2      	bpl.n	202a5e <GLCD_Initialize+0x2396>
  202a78:	f850 2c04 	ldr.w	r2, [r0, #-4]
  202a7c:	22cc      	movs	r2, #204	; 0xcc
  202a7e:	f840 2c04 	str.w	r2, [r0, #-4]
  202a82:	6802      	ldr	r2, [r0, #0]
  202a84:	0752      	lsls	r2, r2, #29
  202a86:	d409      	bmi.n	202a9c <GLCD_Initialize+0x23d4>
  202a88:	6802      	ldr	r2, [r0, #0]
  202a8a:	0752      	lsls	r2, r2, #29
  202a8c:	bf5c      	itt	pl
  202a8e:	6802      	ldrpl	r2, [r0, #0]
  202a90:	ea5f 7242 	movspl.w	r2, r2, lsl #29
  202a94:	d402      	bmi.n	202a9c <GLCD_Initialize+0x23d4>
  202a96:	6802      	ldr	r2, [r0, #0]
  202a98:	0752      	lsls	r2, r2, #29
  202a9a:	d5f2      	bpl.n	202a82 <GLCD_Initialize+0x23ba>
  202a9c:	f850 2c04 	ldr.w	r2, [r0, #-4]
  202aa0:	680a      	ldr	r2, [r1, #0]
  202aa2:	f042 0201 	orr.w	r2, r2, #1
  202aa6:	600a      	str	r2, [r1, #0]
  202aa8:	680a      	ldr	r2, [r1, #0]
  202aaa:	f022 0201 	bic.w	r2, r2, #1
  202aae:	600a      	str	r2, [r1, #0]
  202ab0:	2270      	movs	r2, #112	; 0x70
  202ab2:	f840 2c04 	str.w	r2, [r0, #-4]
  202ab6:	6802      	ldr	r2, [r0, #0]
  202ab8:	0752      	lsls	r2, r2, #29
  202aba:	d409      	bmi.n	202ad0 <GLCD_Initialize+0x2408>
  202abc:	6802      	ldr	r2, [r0, #0]
  202abe:	0752      	lsls	r2, r2, #29
  202ac0:	bf5c      	itt	pl
  202ac2:	6802      	ldrpl	r2, [r0, #0]
  202ac4:	ea5f 7242 	movspl.w	r2, r2, lsl #29
  202ac8:	d402      	bmi.n	202ad0 <GLCD_Initialize+0x2408>
  202aca:	6802      	ldr	r2, [r0, #0]
  202acc:	0752      	lsls	r2, r2, #29
  202ace:	d5f2      	bpl.n	202ab6 <GLCD_Initialize+0x23ee>
  202ad0:	f850 2c04 	ldr.w	r2, [r0, #-4]
  202ad4:	2200      	movs	r2, #0
  202ad6:	f840 2c04 	str.w	r2, [r0, #-4]
  202ada:	6802      	ldr	r2, [r0, #0]
  202adc:	0752      	lsls	r2, r2, #29
  202ade:	d409      	bmi.n	202af4 <GLCD_Initialize+0x242c>
  202ae0:	6802      	ldr	r2, [r0, #0]
  202ae2:	0752      	lsls	r2, r2, #29
  202ae4:	bf5c      	itt	pl
  202ae6:	6802      	ldrpl	r2, [r0, #0]
  202ae8:	ea5f 7242 	movspl.w	r2, r2, lsl #29
  202aec:	d402      	bmi.n	202af4 <GLCD_Initialize+0x242c>
  202aee:	6802      	ldr	r2, [r0, #0]
  202af0:	0752      	lsls	r2, r2, #29
  202af2:	d5f2      	bpl.n	202ada <GLCD_Initialize+0x2412>
  202af4:	f850 2c04 	ldr.w	r2, [r0, #-4]
  202af8:	221b      	movs	r2, #27
  202afa:	f840 2c04 	str.w	r2, [r0, #-4]
  202afe:	6802      	ldr	r2, [r0, #0]
  202b00:	0752      	lsls	r2, r2, #29
  202b02:	d409      	bmi.n	202b18 <GLCD_Initialize+0x2450>
  202b04:	6802      	ldr	r2, [r0, #0]
  202b06:	0752      	lsls	r2, r2, #29
  202b08:	bf5c      	itt	pl
  202b0a:	6802      	ldrpl	r2, [r0, #0]
  202b0c:	ea5f 7242 	movspl.w	r2, r2, lsl #29
  202b10:	d402      	bmi.n	202b18 <GLCD_Initialize+0x2450>
  202b12:	6802      	ldr	r2, [r0, #0]
  202b14:	0752      	lsls	r2, r2, #29
  202b16:	d5f2      	bpl.n	202afe <GLCD_Initialize+0x2436>
  202b18:	f850 2c04 	ldr.w	r2, [r0, #-4]
  202b1c:	680a      	ldr	r2, [r1, #0]
  202b1e:	f042 0201 	orr.w	r2, r2, #1
  202b22:	600a      	str	r2, [r1, #0]
  202b24:	680a      	ldr	r2, [r1, #0]
  202b26:	f022 0201 	bic.w	r2, r2, #1
  202b2a:	600a      	str	r2, [r1, #0]
  202b2c:	2272      	movs	r2, #114	; 0x72
  202b2e:	f840 2c04 	str.w	r2, [r0, #-4]
  202b32:	6802      	ldr	r2, [r0, #0]
  202b34:	0752      	lsls	r2, r2, #29
  202b36:	d409      	bmi.n	202b4c <GLCD_Initialize+0x2484>
  202b38:	6802      	ldr	r2, [r0, #0]
  202b3a:	0752      	lsls	r2, r2, #29
  202b3c:	bf5c      	itt	pl
  202b3e:	6802      	ldrpl	r2, [r0, #0]
  202b40:	ea5f 7242 	movspl.w	r2, r2, lsl #29
  202b44:	d402      	bmi.n	202b4c <GLCD_Initialize+0x2484>
  202b46:	6802      	ldr	r2, [r0, #0]
  202b48:	0752      	lsls	r2, r2, #29
  202b4a:	d5f2      	bpl.n	202b32 <GLCD_Initialize+0x246a>
  202b4c:	f850 2c04 	ldr.w	r2, [r0, #-4]
  202b50:	2200      	movs	r2, #0
  202b52:	f840 2c04 	str.w	r2, [r0, #-4]
  202b56:	6802      	ldr	r2, [r0, #0]
  202b58:	0752      	lsls	r2, r2, #29
  202b5a:	d409      	bmi.n	202b70 <GLCD_Initialize+0x24a8>
  202b5c:	6802      	ldr	r2, [r0, #0]
  202b5e:	0752      	lsls	r2, r2, #29
  202b60:	bf5c      	itt	pl
  202b62:	6802      	ldrpl	r2, [r0, #0]
  202b64:	ea5f 7242 	movspl.w	r2, r2, lsl #29
  202b68:	d402      	bmi.n	202b70 <GLCD_Initialize+0x24a8>
  202b6a:	6802      	ldr	r2, [r0, #0]
  202b6c:	0752      	lsls	r2, r2, #29
  202b6e:	d5f2      	bpl.n	202b56 <GLCD_Initialize+0x248e>
  202b70:	f850 2c04 	ldr.w	r2, [r0, #-4]
  202b74:	221b      	movs	r2, #27
  202b76:	f840 2c04 	str.w	r2, [r0, #-4]
  202b7a:	6802      	ldr	r2, [r0, #0]
  202b7c:	0752      	lsls	r2, r2, #29
  202b7e:	d409      	bmi.n	202b94 <GLCD_Initialize+0x24cc>
  202b80:	6802      	ldr	r2, [r0, #0]
  202b82:	0752      	lsls	r2, r2, #29
  202b84:	bf5c      	itt	pl
  202b86:	6802      	ldrpl	r2, [r0, #0]
  202b88:	ea5f 7242 	movspl.w	r2, r2, lsl #29
  202b8c:	d402      	bmi.n	202b94 <GLCD_Initialize+0x24cc>
  202b8e:	6802      	ldr	r2, [r0, #0]
  202b90:	0752      	lsls	r2, r2, #29
  202b92:	d5f2      	bpl.n	202b7a <GLCD_Initialize+0x24b2>
  202b94:	f850 2c04 	ldr.w	r2, [r0, #-4]
  202b98:	680a      	ldr	r2, [r1, #0]
  202b9a:	f042 0201 	orr.w	r2, r2, #1
  202b9e:	600a      	str	r2, [r1, #0]
  202ba0:	680a      	ldr	r2, [r1, #0]
  202ba2:	f022 0201 	bic.w	r2, r2, #1
  202ba6:	600a      	str	r2, [r1, #0]
  202ba8:	2270      	movs	r2, #112	; 0x70
  202baa:	f840 2c04 	str.w	r2, [r0, #-4]
  202bae:	6802      	ldr	r2, [r0, #0]
  202bb0:	0752      	lsls	r2, r2, #29
  202bb2:	d409      	bmi.n	202bc8 <GLCD_Initialize+0x2500>
  202bb4:	6802      	ldr	r2, [r0, #0]
  202bb6:	0752      	lsls	r2, r2, #29
  202bb8:	bf5c      	itt	pl
  202bba:	6802      	ldrpl	r2, [r0, #0]
  202bbc:	ea5f 7242 	movspl.w	r2, r2, lsl #29
  202bc0:	d402      	bmi.n	202bc8 <GLCD_Initialize+0x2500>
  202bc2:	6802      	ldr	r2, [r0, #0]
  202bc4:	0752      	lsls	r2, r2, #29
  202bc6:	d5f2      	bpl.n	202bae <GLCD_Initialize+0x24e6>
  202bc8:	f850 2c04 	ldr.w	r2, [r0, #-4]
  202bcc:	2200      	movs	r2, #0
  202bce:	f840 2c04 	str.w	r2, [r0, #-4]
  202bd2:	6802      	ldr	r2, [r0, #0]
  202bd4:	0752      	lsls	r2, r2, #29
  202bd6:	d409      	bmi.n	202bec <GLCD_Initialize+0x2524>
  202bd8:	6802      	ldr	r2, [r0, #0]
  202bda:	0752      	lsls	r2, r2, #29
  202bdc:	bf5c      	itt	pl
  202bde:	6802      	ldrpl	r2, [r0, #0]
  202be0:	ea5f 7242 	movspl.w	r2, r2, lsl #29
  202be4:	d402      	bmi.n	202bec <GLCD_Initialize+0x2524>
  202be6:	6802      	ldr	r2, [r0, #0]
  202be8:	0752      	lsls	r2, r2, #29
  202bea:	d5f2      	bpl.n	202bd2 <GLCD_Initialize+0x250a>
  202bec:	f850 2c04 	ldr.w	r2, [r0, #-4]
  202bf0:	221a      	movs	r2, #26
  202bf2:	f840 2c04 	str.w	r2, [r0, #-4]
  202bf6:	6802      	ldr	r2, [r0, #0]
  202bf8:	0752      	lsls	r2, r2, #29
  202bfa:	d409      	bmi.n	202c10 <GLCD_Initialize+0x2548>
  202bfc:	6802      	ldr	r2, [r0, #0]
  202bfe:	0752      	lsls	r2, r2, #29
  202c00:	bf5c      	itt	pl
  202c02:	6802      	ldrpl	r2, [r0, #0]
  202c04:	ea5f 7242 	movspl.w	r2, r2, lsl #29
  202c08:	d402      	bmi.n	202c10 <GLCD_Initialize+0x2548>
  202c0a:	6802      	ldr	r2, [r0, #0]
  202c0c:	0752      	lsls	r2, r2, #29
  202c0e:	d5f2      	bpl.n	202bf6 <GLCD_Initialize+0x252e>
  202c10:	f850 2c04 	ldr.w	r2, [r0, #-4]
  202c14:	680a      	ldr	r2, [r1, #0]
  202c16:	f042 0201 	orr.w	r2, r2, #1
  202c1a:	600a      	str	r2, [r1, #0]
  202c1c:	680a      	ldr	r2, [r1, #0]
  202c1e:	f022 0201 	bic.w	r2, r2, #1
  202c22:	600a      	str	r2, [r1, #0]
  202c24:	2272      	movs	r2, #114	; 0x72
  202c26:	f840 2c04 	str.w	r2, [r0, #-4]
  202c2a:	6802      	ldr	r2, [r0, #0]
  202c2c:	0752      	lsls	r2, r2, #29
  202c2e:	d409      	bmi.n	202c44 <GLCD_Initialize+0x257c>
  202c30:	6802      	ldr	r2, [r0, #0]
  202c32:	0752      	lsls	r2, r2, #29
  202c34:	bf5c      	itt	pl
  202c36:	6802      	ldrpl	r2, [r0, #0]
  202c38:	ea5f 7242 	movspl.w	r2, r2, lsl #29
  202c3c:	d402      	bmi.n	202c44 <GLCD_Initialize+0x257c>
  202c3e:	6802      	ldr	r2, [r0, #0]
  202c40:	0752      	lsls	r2, r2, #29
  202c42:	d5f2      	bpl.n	202c2a <GLCD_Initialize+0x2562>
  202c44:	f850 2c04 	ldr.w	r2, [r0, #-4]
  202c48:	2200      	movs	r2, #0
  202c4a:	f840 2c04 	str.w	r2, [r0, #-4]
  202c4e:	6802      	ldr	r2, [r0, #0]
  202c50:	0752      	lsls	r2, r2, #29
  202c52:	d409      	bmi.n	202c68 <GLCD_Initialize+0x25a0>
  202c54:	6802      	ldr	r2, [r0, #0]
  202c56:	0752      	lsls	r2, r2, #29
  202c58:	bf5c      	itt	pl
  202c5a:	6802      	ldrpl	r2, [r0, #0]
  202c5c:	ea5f 7242 	movspl.w	r2, r2, lsl #29
  202c60:	d402      	bmi.n	202c68 <GLCD_Initialize+0x25a0>
  202c62:	6802      	ldr	r2, [r0, #0]
  202c64:	0752      	lsls	r2, r2, #29
  202c66:	d5f2      	bpl.n	202c4e <GLCD_Initialize+0x2586>
  202c68:	f850 2c04 	ldr.w	r2, [r0, #-4]
  202c6c:	2201      	movs	r2, #1
  202c6e:	f840 2c04 	str.w	r2, [r0, #-4]
  202c72:	6802      	ldr	r2, [r0, #0]
  202c74:	0752      	lsls	r2, r2, #29
  202c76:	d409      	bmi.n	202c8c <GLCD_Initialize+0x25c4>
  202c78:	6802      	ldr	r2, [r0, #0]
  202c7a:	0752      	lsls	r2, r2, #29
  202c7c:	bf5c      	itt	pl
  202c7e:	6802      	ldrpl	r2, [r0, #0]
  202c80:	ea5f 7242 	movspl.w	r2, r2, lsl #29
  202c84:	d402      	bmi.n	202c8c <GLCD_Initialize+0x25c4>
  202c86:	6802      	ldr	r2, [r0, #0]
  202c88:	0752      	lsls	r2, r2, #29
  202c8a:	d5f2      	bpl.n	202c72 <GLCD_Initialize+0x25aa>
  202c8c:	f850 2c04 	ldr.w	r2, [r0, #-4]
  202c90:	680a      	ldr	r2, [r1, #0]
  202c92:	f042 0201 	orr.w	r2, r2, #1
  202c96:	600a      	str	r2, [r1, #0]
  202c98:	680a      	ldr	r2, [r1, #0]
  202c9a:	f022 0201 	bic.w	r2, r2, #1
  202c9e:	600a      	str	r2, [r1, #0]
  202ca0:	2270      	movs	r2, #112	; 0x70
  202ca2:	f840 2c04 	str.w	r2, [r0, #-4]
  202ca6:	6802      	ldr	r2, [r0, #0]
  202ca8:	0752      	lsls	r2, r2, #29
  202caa:	d409      	bmi.n	202cc0 <GLCD_Initialize+0x25f8>
  202cac:	6802      	ldr	r2, [r0, #0]
  202cae:	0752      	lsls	r2, r2, #29
  202cb0:	bf5c      	itt	pl
  202cb2:	6802      	ldrpl	r2, [r0, #0]
  202cb4:	ea5f 7242 	movspl.w	r2, r2, lsl #29
  202cb8:	d402      	bmi.n	202cc0 <GLCD_Initialize+0x25f8>
  202cba:	6802      	ldr	r2, [r0, #0]
  202cbc:	0752      	lsls	r2, r2, #29
  202cbe:	d5f2      	bpl.n	202ca6 <GLCD_Initialize+0x25de>
  202cc0:	f850 2c04 	ldr.w	r2, [r0, #-4]
  202cc4:	2200      	movs	r2, #0
  202cc6:	f840 2c04 	str.w	r2, [r0, #-4]
  202cca:	6802      	ldr	r2, [r0, #0]
  202ccc:	0752      	lsls	r2, r2, #29
  202cce:	d409      	bmi.n	202ce4 <GLCD_Initialize+0x261c>
  202cd0:	6802      	ldr	r2, [r0, #0]
  202cd2:	0752      	lsls	r2, r2, #29
  202cd4:	bf5c      	itt	pl
  202cd6:	6802      	ldrpl	r2, [r0, #0]
  202cd8:	ea5f 7242 	movspl.w	r2, r2, lsl #29
  202cdc:	d402      	bmi.n	202ce4 <GLCD_Initialize+0x261c>
  202cde:	6802      	ldr	r2, [r0, #0]
  202ce0:	0752      	lsls	r2, r2, #29
  202ce2:	d5f2      	bpl.n	202cca <GLCD_Initialize+0x2602>
  202ce4:	f850 2c04 	ldr.w	r2, [r0, #-4]
  202ce8:	2224      	movs	r2, #36	; 0x24
  202cea:	f840 2c04 	str.w	r2, [r0, #-4]
  202cee:	6802      	ldr	r2, [r0, #0]
  202cf0:	0752      	lsls	r2, r2, #29
  202cf2:	d409      	bmi.n	202d08 <GLCD_Initialize+0x2640>
  202cf4:	6802      	ldr	r2, [r0, #0]
  202cf6:	0752      	lsls	r2, r2, #29
  202cf8:	bf5c      	itt	pl
  202cfa:	6802      	ldrpl	r2, [r0, #0]
  202cfc:	ea5f 7242 	movspl.w	r2, r2, lsl #29
  202d00:	d402      	bmi.n	202d08 <GLCD_Initialize+0x2640>
  202d02:	6802      	ldr	r2, [r0, #0]
  202d04:	0752      	lsls	r2, r2, #29
  202d06:	d5f2      	bpl.n	202cee <GLCD_Initialize+0x2626>
  202d08:	f850 2c04 	ldr.w	r2, [r0, #-4]
  202d0c:	680a      	ldr	r2, [r1, #0]
  202d0e:	f042 0201 	orr.w	r2, r2, #1
  202d12:	600a      	str	r2, [r1, #0]
  202d14:	680a      	ldr	r2, [r1, #0]
  202d16:	f022 0201 	bic.w	r2, r2, #1
  202d1a:	600a      	str	r2, [r1, #0]
  202d1c:	2272      	movs	r2, #114	; 0x72
  202d1e:	f840 2c04 	str.w	r2, [r0, #-4]
  202d22:	6802      	ldr	r2, [r0, #0]
  202d24:	0752      	lsls	r2, r2, #29
  202d26:	d409      	bmi.n	202d3c <GLCD_Initialize+0x2674>
  202d28:	6802      	ldr	r2, [r0, #0]
  202d2a:	0752      	lsls	r2, r2, #29
  202d2c:	bf5c      	itt	pl
  202d2e:	6802      	ldrpl	r2, [r0, #0]
  202d30:	ea5f 7242 	movspl.w	r2, r2, lsl #29
  202d34:	d402      	bmi.n	202d3c <GLCD_Initialize+0x2674>
  202d36:	6802      	ldr	r2, [r0, #0]
  202d38:	0752      	lsls	r2, r2, #29
  202d3a:	d5f2      	bpl.n	202d22 <GLCD_Initialize+0x265a>
  202d3c:	f850 2c04 	ldr.w	r2, [r0, #-4]
  202d40:	2200      	movs	r2, #0
  202d42:	f840 2c04 	str.w	r2, [r0, #-4]
  202d46:	6802      	ldr	r2, [r0, #0]
  202d48:	0752      	lsls	r2, r2, #29
  202d4a:	d409      	bmi.n	202d60 <GLCD_Initialize+0x2698>
  202d4c:	6802      	ldr	r2, [r0, #0]
  202d4e:	0752      	lsls	r2, r2, #29
  202d50:	bf5c      	itt	pl
  202d52:	6802      	ldrpl	r2, [r0, #0]
  202d54:	ea5f 7242 	movspl.w	r2, r2, lsl #29
  202d58:	d402      	bmi.n	202d60 <GLCD_Initialize+0x2698>
  202d5a:	6802      	ldr	r2, [r0, #0]
  202d5c:	0752      	lsls	r2, r2, #29
  202d5e:	d5f2      	bpl.n	202d46 <GLCD_Initialize+0x267e>
  202d60:	f850 2c04 	ldr.w	r2, [r0, #-4]
  202d64:	222f      	movs	r2, #47	; 0x2f
  202d66:	f840 2c04 	str.w	r2, [r0, #-4]
  202d6a:	6802      	ldr	r2, [r0, #0]
  202d6c:	0752      	lsls	r2, r2, #29
  202d6e:	d409      	bmi.n	202d84 <GLCD_Initialize+0x26bc>
  202d70:	6802      	ldr	r2, [r0, #0]
  202d72:	0752      	lsls	r2, r2, #29
  202d74:	bf5c      	itt	pl
  202d76:	6802      	ldrpl	r2, [r0, #0]
  202d78:	ea5f 7242 	movspl.w	r2, r2, lsl #29
  202d7c:	d402      	bmi.n	202d84 <GLCD_Initialize+0x26bc>
  202d7e:	6802      	ldr	r2, [r0, #0]
  202d80:	0752      	lsls	r2, r2, #29
  202d82:	d5f2      	bpl.n	202d6a <GLCD_Initialize+0x26a2>
  202d84:	f850 2c04 	ldr.w	r2, [r0, #-4]
  202d88:	680a      	ldr	r2, [r1, #0]
  202d8a:	f042 0201 	orr.w	r2, r2, #1
  202d8e:	600a      	str	r2, [r1, #0]
  202d90:	680a      	ldr	r2, [r1, #0]
  202d92:	f022 0201 	bic.w	r2, r2, #1
  202d96:	600a      	str	r2, [r1, #0]
  202d98:	2270      	movs	r2, #112	; 0x70
  202d9a:	f840 2c04 	str.w	r2, [r0, #-4]
  202d9e:	6802      	ldr	r2, [r0, #0]
  202da0:	0752      	lsls	r2, r2, #29
  202da2:	d409      	bmi.n	202db8 <GLCD_Initialize+0x26f0>
  202da4:	6802      	ldr	r2, [r0, #0]
  202da6:	0752      	lsls	r2, r2, #29
  202da8:	bf5c      	itt	pl
  202daa:	6802      	ldrpl	r2, [r0, #0]
  202dac:	ea5f 7242 	movspl.w	r2, r2, lsl #29
  202db0:	d402      	bmi.n	202db8 <GLCD_Initialize+0x26f0>
  202db2:	6802      	ldr	r2, [r0, #0]
  202db4:	0752      	lsls	r2, r2, #29
  202db6:	d5f2      	bpl.n	202d9e <GLCD_Initialize+0x26d6>
  202db8:	f850 2c04 	ldr.w	r2, [r0, #-4]
  202dbc:	2200      	movs	r2, #0
  202dbe:	f840 2c04 	str.w	r2, [r0, #-4]
  202dc2:	6802      	ldr	r2, [r0, #0]
  202dc4:	0752      	lsls	r2, r2, #29
  202dc6:	d409      	bmi.n	202ddc <GLCD_Initialize+0x2714>
  202dc8:	6802      	ldr	r2, [r0, #0]
  202dca:	0752      	lsls	r2, r2, #29
  202dcc:	bf5c      	itt	pl
  202dce:	6802      	ldrpl	r2, [r0, #0]
  202dd0:	ea5f 7242 	movspl.w	r2, r2, lsl #29
  202dd4:	d402      	bmi.n	202ddc <GLCD_Initialize+0x2714>
  202dd6:	6802      	ldr	r2, [r0, #0]
  202dd8:	0752      	lsls	r2, r2, #29
  202dda:	d5f2      	bpl.n	202dc2 <GLCD_Initialize+0x26fa>
  202ddc:	f850 2c04 	ldr.w	r2, [r0, #-4]
  202de0:	2225      	movs	r2, #37	; 0x25
  202de2:	f840 2c04 	str.w	r2, [r0, #-4]
  202de6:	6802      	ldr	r2, [r0, #0]
  202de8:	0752      	lsls	r2, r2, #29
  202dea:	d409      	bmi.n	202e00 <GLCD_Initialize+0x2738>
  202dec:	6802      	ldr	r2, [r0, #0]
  202dee:	0752      	lsls	r2, r2, #29
  202df0:	bf5c      	itt	pl
  202df2:	6802      	ldrpl	r2, [r0, #0]
  202df4:	ea5f 7242 	movspl.w	r2, r2, lsl #29
  202df8:	d402      	bmi.n	202e00 <GLCD_Initialize+0x2738>
  202dfa:	6802      	ldr	r2, [r0, #0]
  202dfc:	0752      	lsls	r2, r2, #29
  202dfe:	d5f2      	bpl.n	202de6 <GLCD_Initialize+0x271e>
  202e00:	f850 2c04 	ldr.w	r2, [r0, #-4]
  202e04:	680a      	ldr	r2, [r1, #0]
  202e06:	f042 0201 	orr.w	r2, r2, #1
  202e0a:	600a      	str	r2, [r1, #0]
  202e0c:	680a      	ldr	r2, [r1, #0]
  202e0e:	f022 0201 	bic.w	r2, r2, #1
  202e12:	600a      	str	r2, [r1, #0]
  202e14:	2272      	movs	r2, #114	; 0x72
  202e16:	f840 2c04 	str.w	r2, [r0, #-4]
  202e1a:	6802      	ldr	r2, [r0, #0]
  202e1c:	0752      	lsls	r2, r2, #29
  202e1e:	d409      	bmi.n	202e34 <GLCD_Initialize+0x276c>
  202e20:	6802      	ldr	r2, [r0, #0]
  202e22:	0752      	lsls	r2, r2, #29
  202e24:	bf5c      	itt	pl
  202e26:	6802      	ldrpl	r2, [r0, #0]
  202e28:	ea5f 7242 	movspl.w	r2, r2, lsl #29
  202e2c:	d402      	bmi.n	202e34 <GLCD_Initialize+0x276c>
  202e2e:	6802      	ldr	r2, [r0, #0]
  202e30:	0752      	lsls	r2, r2, #29
  202e32:	d5f2      	bpl.n	202e1a <GLCD_Initialize+0x2752>
  202e34:	f850 2c04 	ldr.w	r2, [r0, #-4]
  202e38:	2200      	movs	r2, #0
  202e3a:	f840 2c04 	str.w	r2, [r0, #-4]
  202e3e:	6802      	ldr	r2, [r0, #0]
  202e40:	0752      	lsls	r2, r2, #29
  202e42:	d409      	bmi.n	202e58 <GLCD_Initialize+0x2790>
  202e44:	6802      	ldr	r2, [r0, #0]
  202e46:	0752      	lsls	r2, r2, #29
  202e48:	bf5c      	itt	pl
  202e4a:	6802      	ldrpl	r2, [r0, #0]
  202e4c:	ea5f 7242 	movspl.w	r2, r2, lsl #29
  202e50:	d402      	bmi.n	202e58 <GLCD_Initialize+0x2790>
  202e52:	6802      	ldr	r2, [r0, #0]
  202e54:	0752      	lsls	r2, r2, #29
  202e56:	d5f2      	bpl.n	202e3e <GLCD_Initialize+0x2776>
  202e58:	f850 2c04 	ldr.w	r2, [r0, #-4]
  202e5c:	2257      	movs	r2, #87	; 0x57
  202e5e:	f840 2c04 	str.w	r2, [r0, #-4]
  202e62:	6802      	ldr	r2, [r0, #0]
  202e64:	0752      	lsls	r2, r2, #29
  202e66:	d409      	bmi.n	202e7c <GLCD_Initialize+0x27b4>
  202e68:	6802      	ldr	r2, [r0, #0]
  202e6a:	0752      	lsls	r2, r2, #29
  202e6c:	bf5c      	itt	pl
  202e6e:	6802      	ldrpl	r2, [r0, #0]
  202e70:	ea5f 7242 	movspl.w	r2, r2, lsl #29
  202e74:	d402      	bmi.n	202e7c <GLCD_Initialize+0x27b4>
  202e76:	6802      	ldr	r2, [r0, #0]
  202e78:	0752      	lsls	r2, r2, #29
  202e7a:	d5f2      	bpl.n	202e62 <GLCD_Initialize+0x279a>
  202e7c:	f850 2c04 	ldr.w	r2, [r0, #-4]
  202e80:	680a      	ldr	r2, [r1, #0]
  202e82:	f042 0201 	orr.w	r2, r2, #1
  202e86:	600a      	str	r2, [r1, #0]
  202e88:	680a      	ldr	r2, [r1, #0]
  202e8a:	f022 0201 	bic.w	r2, r2, #1
  202e8e:	600a      	str	r2, [r1, #0]
  202e90:	2270      	movs	r2, #112	; 0x70
  202e92:	f840 2c04 	str.w	r2, [r0, #-4]
  202e96:	6802      	ldr	r2, [r0, #0]
  202e98:	0752      	lsls	r2, r2, #29
  202e9a:	d409      	bmi.n	202eb0 <GLCD_Initialize+0x27e8>
  202e9c:	6802      	ldr	r2, [r0, #0]
  202e9e:	0752      	lsls	r2, r2, #29
  202ea0:	bf5c      	itt	pl
  202ea2:	6802      	ldrpl	r2, [r0, #0]
  202ea4:	ea5f 7242 	movspl.w	r2, r2, lsl #29
  202ea8:	d402      	bmi.n	202eb0 <GLCD_Initialize+0x27e8>
  202eaa:	6802      	ldr	r2, [r0, #0]
  202eac:	0752      	lsls	r2, r2, #29
  202eae:	d5f2      	bpl.n	202e96 <GLCD_Initialize+0x27ce>
  202eb0:	f850 2c04 	ldr.w	r2, [r0, #-4]
  202eb4:	2200      	movs	r2, #0
  202eb6:	f840 2c04 	str.w	r2, [r0, #-4]
  202eba:	6802      	ldr	r2, [r0, #0]
  202ebc:	0752      	lsls	r2, r2, #29
  202ebe:	d409      	bmi.n	202ed4 <GLCD_Initialize+0x280c>
  202ec0:	6802      	ldr	r2, [r0, #0]
  202ec2:	0752      	lsls	r2, r2, #29
  202ec4:	bf5c      	itt	pl
  202ec6:	6802      	ldrpl	r2, [r0, #0]
  202ec8:	ea5f 7242 	movspl.w	r2, r2, lsl #29
  202ecc:	d402      	bmi.n	202ed4 <GLCD_Initialize+0x280c>
  202ece:	6802      	ldr	r2, [r0, #0]
  202ed0:	0752      	lsls	r2, r2, #29
  202ed2:	d5f2      	bpl.n	202eba <GLCD_Initialize+0x27f2>
  202ed4:	f850 2c04 	ldr.w	r2, [r0, #-4]
  202ed8:	2223      	movs	r2, #35	; 0x23
  202eda:	f840 2c04 	str.w	r2, [r0, #-4]
  202ede:	6802      	ldr	r2, [r0, #0]
  202ee0:	0752      	lsls	r2, r2, #29
  202ee2:	d409      	bmi.n	202ef8 <GLCD_Initialize+0x2830>
  202ee4:	6802      	ldr	r2, [r0, #0]
  202ee6:	0752      	lsls	r2, r2, #29
  202ee8:	bf5c      	itt	pl
  202eea:	6802      	ldrpl	r2, [r0, #0]
  202eec:	ea5f 7242 	movspl.w	r2, r2, lsl #29
  202ef0:	d402      	bmi.n	202ef8 <GLCD_Initialize+0x2830>
  202ef2:	6802      	ldr	r2, [r0, #0]
  202ef4:	0752      	lsls	r2, r2, #29
  202ef6:	d5f2      	bpl.n	202ede <GLCD_Initialize+0x2816>
  202ef8:	f850 2c04 	ldr.w	r2, [r0, #-4]
  202efc:	680a      	ldr	r2, [r1, #0]
  202efe:	f042 0201 	orr.w	r2, r2, #1
  202f02:	600a      	str	r2, [r1, #0]
  202f04:	680a      	ldr	r2, [r1, #0]
  202f06:	f022 0201 	bic.w	r2, r2, #1
  202f0a:	600a      	str	r2, [r1, #0]
  202f0c:	2272      	movs	r2, #114	; 0x72
  202f0e:	f840 2c04 	str.w	r2, [r0, #-4]
  202f12:	6802      	ldr	r2, [r0, #0]
  202f14:	0752      	lsls	r2, r2, #29
  202f16:	d409      	bmi.n	202f2c <GLCD_Initialize+0x2864>
  202f18:	6802      	ldr	r2, [r0, #0]
  202f1a:	0752      	lsls	r2, r2, #29
  202f1c:	bf5c      	itt	pl
  202f1e:	6802      	ldrpl	r2, [r0, #0]
  202f20:	ea5f 7242 	movspl.w	r2, r2, lsl #29
  202f24:	d402      	bmi.n	202f2c <GLCD_Initialize+0x2864>
  202f26:	6802      	ldr	r2, [r0, #0]
  202f28:	0752      	lsls	r2, r2, #29
  202f2a:	d5f2      	bpl.n	202f12 <GLCD_Initialize+0x284a>
  202f2c:	f850 2c04 	ldr.w	r2, [r0, #-4]
  202f30:	2200      	movs	r2, #0
  202f32:	f840 2c04 	str.w	r2, [r0, #-4]
  202f36:	6802      	ldr	r2, [r0, #0]
  202f38:	0752      	lsls	r2, r2, #29
  202f3a:	d409      	bmi.n	202f50 <GLCD_Initialize+0x2888>
  202f3c:	6802      	ldr	r2, [r0, #0]
  202f3e:	0752      	lsls	r2, r2, #29
  202f40:	bf5c      	itt	pl
  202f42:	6802      	ldrpl	r2, [r0, #0]
  202f44:	ea5f 7242 	movspl.w	r2, r2, lsl #29
  202f48:	d402      	bmi.n	202f50 <GLCD_Initialize+0x2888>
  202f4a:	6802      	ldr	r2, [r0, #0]
  202f4c:	0752      	lsls	r2, r2, #29
  202f4e:	d5f2      	bpl.n	202f36 <GLCD_Initialize+0x286e>
  202f50:	f850 2c04 	ldr.w	r2, [r0, #-4]
  202f54:	2288      	movs	r2, #136	; 0x88
  202f56:	f840 2c04 	str.w	r2, [r0, #-4]
  202f5a:	6802      	ldr	r2, [r0, #0]
  202f5c:	0752      	lsls	r2, r2, #29
  202f5e:	d409      	bmi.n	202f74 <GLCD_Initialize+0x28ac>
  202f60:	6802      	ldr	r2, [r0, #0]
  202f62:	0752      	lsls	r2, r2, #29
  202f64:	bf5c      	itt	pl
  202f66:	6802      	ldrpl	r2, [r0, #0]
  202f68:	ea5f 7242 	movspl.w	r2, r2, lsl #29
  202f6c:	d402      	bmi.n	202f74 <GLCD_Initialize+0x28ac>
  202f6e:	6802      	ldr	r2, [r0, #0]
  202f70:	0752      	lsls	r2, r2, #29
  202f72:	d5f2      	bpl.n	202f5a <GLCD_Initialize+0x2892>
  202f74:	f850 2c04 	ldr.w	r2, [r0, #-4]
  202f78:	680a      	ldr	r2, [r1, #0]
  202f7a:	f042 0201 	orr.w	r2, r2, #1
  202f7e:	600a      	str	r2, [r1, #0]
  202f80:	680a      	ldr	r2, [r1, #0]
  202f82:	f022 0201 	bic.w	r2, r2, #1
  202f86:	600a      	str	r2, [r1, #0]
  202f88:	2270      	movs	r2, #112	; 0x70
  202f8a:	f840 2c04 	str.w	r2, [r0, #-4]
  202f8e:	6802      	ldr	r2, [r0, #0]
  202f90:	0752      	lsls	r2, r2, #29
  202f92:	d409      	bmi.n	202fa8 <GLCD_Initialize+0x28e0>
  202f94:	6802      	ldr	r2, [r0, #0]
  202f96:	0752      	lsls	r2, r2, #29
  202f98:	bf5c      	itt	pl
  202f9a:	6802      	ldrpl	r2, [r0, #0]
  202f9c:	ea5f 7242 	movspl.w	r2, r2, lsl #29
  202fa0:	d402      	bmi.n	202fa8 <GLCD_Initialize+0x28e0>
  202fa2:	6802      	ldr	r2, [r0, #0]
  202fa4:	0752      	lsls	r2, r2, #29
  202fa6:	d5f2      	bpl.n	202f8e <GLCD_Initialize+0x28c6>
  202fa8:	f850 2c04 	ldr.w	r2, [r0, #-4]
  202fac:	2200      	movs	r2, #0
  202fae:	f840 2c04 	str.w	r2, [r0, #-4]
  202fb2:	6802      	ldr	r2, [r0, #0]
  202fb4:	0752      	lsls	r2, r2, #29
  202fb6:	d409      	bmi.n	202fcc <GLCD_Initialize+0x2904>
  202fb8:	6802      	ldr	r2, [r0, #0]
  202fba:	0752      	lsls	r2, r2, #29
  202fbc:	bf5c      	itt	pl
  202fbe:	6802      	ldrpl	r2, [r0, #0]
  202fc0:	ea5f 7242 	movspl.w	r2, r2, lsl #29
  202fc4:	d402      	bmi.n	202fcc <GLCD_Initialize+0x2904>
  202fc6:	6802      	ldr	r2, [r0, #0]
  202fc8:	0752      	lsls	r2, r2, #29
  202fca:	d5f2      	bpl.n	202fb2 <GLCD_Initialize+0x28ea>
  202fcc:	f850 2c04 	ldr.w	r2, [r0, #-4]
  202fd0:	2218      	movs	r2, #24
  202fd2:	f840 2c04 	str.w	r2, [r0, #-4]
  202fd6:	6802      	ldr	r2, [r0, #0]
  202fd8:	0752      	lsls	r2, r2, #29
  202fda:	d409      	bmi.n	202ff0 <GLCD_Initialize+0x2928>
  202fdc:	6802      	ldr	r2, [r0, #0]
  202fde:	0752      	lsls	r2, r2, #29
  202fe0:	bf5c      	itt	pl
  202fe2:	6802      	ldrpl	r2, [r0, #0]
  202fe4:	ea5f 7242 	movspl.w	r2, r2, lsl #29
  202fe8:	d402      	bmi.n	202ff0 <GLCD_Initialize+0x2928>
  202fea:	6802      	ldr	r2, [r0, #0]
  202fec:	0752      	lsls	r2, r2, #29
  202fee:	d5f2      	bpl.n	202fd6 <GLCD_Initialize+0x290e>
  202ff0:	f850 2c04 	ldr.w	r2, [r0, #-4]
  202ff4:	680a      	ldr	r2, [r1, #0]
  202ff6:	f042 0201 	orr.w	r2, r2, #1
  202ffa:	600a      	str	r2, [r1, #0]
  202ffc:	680a      	ldr	r2, [r1, #0]
  202ffe:	f022 0201 	bic.w	r2, r2, #1
  203002:	600a      	str	r2, [r1, #0]
  203004:	2272      	movs	r2, #114	; 0x72
  203006:	f840 2c04 	str.w	r2, [r0, #-4]
  20300a:	6802      	ldr	r2, [r0, #0]
  20300c:	0752      	lsls	r2, r2, #29
  20300e:	d409      	bmi.n	203024 <GLCD_Initialize+0x295c>
  203010:	6802      	ldr	r2, [r0, #0]
  203012:	0752      	lsls	r2, r2, #29
  203014:	bf5c      	itt	pl
  203016:	6802      	ldrpl	r2, [r0, #0]
  203018:	ea5f 7242 	movspl.w	r2, r2, lsl #29
  20301c:	d402      	bmi.n	203024 <GLCD_Initialize+0x295c>
  20301e:	6802      	ldr	r2, [r0, #0]
  203020:	0752      	lsls	r2, r2, #29
  203022:	d5f2      	bpl.n	20300a <GLCD_Initialize+0x2942>
  203024:	f850 2c04 	ldr.w	r2, [r0, #-4]
  203028:	2200      	movs	r2, #0
  20302a:	f840 2c04 	str.w	r2, [r0, #-4]
  20302e:	6802      	ldr	r2, [r0, #0]
  203030:	0752      	lsls	r2, r2, #29
  203032:	d409      	bmi.n	203048 <GLCD_Initialize+0x2980>
  203034:	6802      	ldr	r2, [r0, #0]
  203036:	0752      	lsls	r2, r2, #29
  203038:	bf5c      	itt	pl
  20303a:	6802      	ldrpl	r2, [r0, #0]
  20303c:	ea5f 7242 	movspl.w	r2, r2, lsl #29
  203040:	d402      	bmi.n	203048 <GLCD_Initialize+0x2980>
  203042:	6802      	ldr	r2, [r0, #0]
  203044:	0752      	lsls	r2, r2, #29
  203046:	d5f2      	bpl.n	20302e <GLCD_Initialize+0x2966>
  203048:	f850 2c04 	ldr.w	r2, [r0, #-4]
  20304c:	2236      	movs	r2, #54	; 0x36
  20304e:	f840 2c04 	str.w	r2, [r0, #-4]
  203052:	6802      	ldr	r2, [r0, #0]
  203054:	0752      	lsls	r2, r2, #29
  203056:	d409      	bmi.n	20306c <GLCD_Initialize+0x29a4>
  203058:	6802      	ldr	r2, [r0, #0]
  20305a:	0752      	lsls	r2, r2, #29
  20305c:	bf5c      	itt	pl
  20305e:	6802      	ldrpl	r2, [r0, #0]
  203060:	ea5f 7242 	movspl.w	r2, r2, lsl #29
  203064:	d402      	bmi.n	20306c <GLCD_Initialize+0x29a4>
  203066:	6802      	ldr	r2, [r0, #0]
  203068:	0752      	lsls	r2, r2, #29
  20306a:	d5f2      	bpl.n	203052 <GLCD_Initialize+0x298a>
  20306c:	f850 2c04 	ldr.w	r2, [r0, #-4]
  203070:	680a      	ldr	r2, [r1, #0]
  203072:	f042 0201 	orr.w	r2, r2, #1
  203076:	600a      	str	r2, [r1, #0]
  203078:	680a      	ldr	r2, [r1, #0]
  20307a:	f022 0201 	bic.w	r2, r2, #1
  20307e:	600a      	str	r2, [r1, #0]
  203080:	2270      	movs	r2, #112	; 0x70
  203082:	f840 2c04 	str.w	r2, [r0, #-4]
  203086:	6802      	ldr	r2, [r0, #0]
  203088:	0752      	lsls	r2, r2, #29
  20308a:	d409      	bmi.n	2030a0 <GLCD_Initialize+0x29d8>
  20308c:	6802      	ldr	r2, [r0, #0]
  20308e:	0752      	lsls	r2, r2, #29
  203090:	bf5c      	itt	pl
  203092:	6802      	ldrpl	r2, [r0, #0]
  203094:	ea5f 7242 	movspl.w	r2, r2, lsl #29
  203098:	d402      	bmi.n	2030a0 <GLCD_Initialize+0x29d8>
  20309a:	6802      	ldr	r2, [r0, #0]
  20309c:	0752      	lsls	r2, r2, #29
  20309e:	d5f2      	bpl.n	203086 <GLCD_Initialize+0x29be>
  2030a0:	f850 2c04 	ldr.w	r2, [r0, #-4]
  2030a4:	2200      	movs	r2, #0
  2030a6:	f840 2c04 	str.w	r2, [r0, #-4]
  2030aa:	6802      	ldr	r2, [r0, #0]
  2030ac:	0752      	lsls	r2, r2, #29
  2030ae:	d409      	bmi.n	2030c4 <GLCD_Initialize+0x29fc>
  2030b0:	6802      	ldr	r2, [r0, #0]
  2030b2:	0752      	lsls	r2, r2, #29
  2030b4:	bf5c      	itt	pl
  2030b6:	6802      	ldrpl	r2, [r0, #0]
  2030b8:	ea5f 7242 	movspl.w	r2, r2, lsl #29
  2030bc:	d402      	bmi.n	2030c4 <GLCD_Initialize+0x29fc>
  2030be:	6802      	ldr	r2, [r0, #0]
  2030c0:	0752      	lsls	r2, r2, #29
  2030c2:	d5f2      	bpl.n	2030aa <GLCD_Initialize+0x29e2>
  2030c4:	f850 2c04 	ldr.w	r2, [r0, #-4]
  2030c8:	2219      	movs	r2, #25
  2030ca:	f840 2c04 	str.w	r2, [r0, #-4]
  2030ce:	6802      	ldr	r2, [r0, #0]
  2030d0:	0752      	lsls	r2, r2, #29
  2030d2:	d409      	bmi.n	2030e8 <GLCD_Initialize+0x2a20>
  2030d4:	6802      	ldr	r2, [r0, #0]
  2030d6:	0752      	lsls	r2, r2, #29
  2030d8:	bf5c      	itt	pl
  2030da:	6802      	ldrpl	r2, [r0, #0]
  2030dc:	ea5f 7242 	movspl.w	r2, r2, lsl #29
  2030e0:	d402      	bmi.n	2030e8 <GLCD_Initialize+0x2a20>
  2030e2:	6802      	ldr	r2, [r0, #0]
  2030e4:	0752      	lsls	r2, r2, #29
  2030e6:	d5f2      	bpl.n	2030ce <GLCD_Initialize+0x2a06>
  2030e8:	f850 2c04 	ldr.w	r2, [r0, #-4]
  2030ec:	680a      	ldr	r2, [r1, #0]
  2030ee:	f042 0201 	orr.w	r2, r2, #1
  2030f2:	600a      	str	r2, [r1, #0]
  2030f4:	680a      	ldr	r2, [r1, #0]
  2030f6:	f022 0201 	bic.w	r2, r2, #1
  2030fa:	600a      	str	r2, [r1, #0]
  2030fc:	2272      	movs	r2, #114	; 0x72
  2030fe:	f840 2c04 	str.w	r2, [r0, #-4]
  203102:	6802      	ldr	r2, [r0, #0]
  203104:	0752      	lsls	r2, r2, #29
  203106:	d409      	bmi.n	20311c <GLCD_Initialize+0x2a54>
  203108:	6802      	ldr	r2, [r0, #0]
  20310a:	0752      	lsls	r2, r2, #29
  20310c:	bf5c      	itt	pl
  20310e:	6802      	ldrpl	r2, [r0, #0]
  203110:	ea5f 7242 	movspl.w	r2, r2, lsl #29
  203114:	d402      	bmi.n	20311c <GLCD_Initialize+0x2a54>
  203116:	6802      	ldr	r2, [r0, #0]
  203118:	0752      	lsls	r2, r2, #29
  20311a:	d5f2      	bpl.n	203102 <GLCD_Initialize+0x2a3a>
  20311c:	f850 2c04 	ldr.w	r2, [r0, #-4]
  203120:	2200      	movs	r2, #0
  203122:	f840 2c04 	str.w	r2, [r0, #-4]
  203126:	6802      	ldr	r2, [r0, #0]
  203128:	0752      	lsls	r2, r2, #29
  20312a:	d409      	bmi.n	203140 <GLCD_Initialize+0x2a78>
  20312c:	6802      	ldr	r2, [r0, #0]
  20312e:	0752      	lsls	r2, r2, #29
  203130:	bf5c      	itt	pl
  203132:	6802      	ldrpl	r2, [r0, #0]
  203134:	ea5f 7242 	movspl.w	r2, r2, lsl #29
  203138:	d402      	bmi.n	203140 <GLCD_Initialize+0x2a78>
  20313a:	6802      	ldr	r2, [r0, #0]
  20313c:	0752      	lsls	r2, r2, #29
  20313e:	d5f2      	bpl.n	203126 <GLCD_Initialize+0x2a5e>
  203140:	f850 2c04 	ldr.w	r2, [r0, #-4]
  203144:	2201      	movs	r2, #1
  203146:	f840 2c04 	str.w	r2, [r0, #-4]
  20314a:	6802      	ldr	r2, [r0, #0]
  20314c:	0752      	lsls	r2, r2, #29
  20314e:	d409      	bmi.n	203164 <GLCD_Initialize+0x2a9c>
  203150:	6802      	ldr	r2, [r0, #0]
  203152:	0752      	lsls	r2, r2, #29
  203154:	bf5c      	itt	pl
  203156:	6802      	ldrpl	r2, [r0, #0]
  203158:	ea5f 7242 	movspl.w	r2, r2, lsl #29
  20315c:	d402      	bmi.n	203164 <GLCD_Initialize+0x2a9c>
  20315e:	6802      	ldr	r2, [r0, #0]
  203160:	0752      	lsls	r2, r2, #29
  203162:	d5f2      	bpl.n	20314a <GLCD_Initialize+0x2a82>
  203164:	f850 2c04 	ldr.w	r2, [r0, #-4]
  203168:	680a      	ldr	r2, [r1, #0]
  20316a:	f042 0201 	orr.w	r2, r2, #1
  20316e:	600a      	str	r2, [r1, #0]
  203170:	680a      	ldr	r2, [r1, #0]
  203172:	f022 0201 	bic.w	r2, r2, #1
  203176:	600a      	str	r2, [r1, #0]
  203178:	2270      	movs	r2, #112	; 0x70
  20317a:	f840 2c04 	str.w	r2, [r0, #-4]
  20317e:	6802      	ldr	r2, [r0, #0]
  203180:	0752      	lsls	r2, r2, #29
  203182:	d409      	bmi.n	203198 <GLCD_Initialize+0x2ad0>
  203184:	6802      	ldr	r2, [r0, #0]
  203186:	0752      	lsls	r2, r2, #29
  203188:	bf5c      	itt	pl
  20318a:	6802      	ldrpl	r2, [r0, #0]
  20318c:	ea5f 7242 	movspl.w	r2, r2, lsl #29
  203190:	d402      	bmi.n	203198 <GLCD_Initialize+0x2ad0>
  203192:	6802      	ldr	r2, [r0, #0]
  203194:	0752      	lsls	r2, r2, #29
  203196:	d5f2      	bpl.n	20317e <GLCD_Initialize+0x2ab6>
  203198:	f850 2c04 	ldr.w	r2, [r0, #-4]
  20319c:	2200      	movs	r2, #0
  20319e:	f840 2c04 	str.w	r2, [r0, #-4]
  2031a2:	6802      	ldr	r2, [r0, #0]
  2031a4:	0752      	lsls	r2, r2, #29
  2031a6:	d409      	bmi.n	2031bc <GLCD_Initialize+0x2af4>
  2031a8:	6802      	ldr	r2, [r0, #0]
  2031aa:	0752      	lsls	r2, r2, #29
  2031ac:	bf5c      	itt	pl
  2031ae:	6802      	ldrpl	r2, [r0, #0]
  2031b0:	ea5f 7242 	movspl.w	r2, r2, lsl #29
  2031b4:	d402      	bmi.n	2031bc <GLCD_Initialize+0x2af4>
  2031b6:	6802      	ldr	r2, [r0, #0]
  2031b8:	0752      	lsls	r2, r2, #29
  2031ba:	d5f2      	bpl.n	2031a2 <GLCD_Initialize+0x2ada>
  2031bc:	f850 2c04 	ldr.w	r2, [r0, #-4]
  2031c0:	2201      	movs	r2, #1
  2031c2:	f840 2c04 	str.w	r2, [r0, #-4]
  2031c6:	6802      	ldr	r2, [r0, #0]
  2031c8:	0752      	lsls	r2, r2, #29
  2031ca:	d409      	bmi.n	2031e0 <GLCD_Initialize+0x2b18>
  2031cc:	6802      	ldr	r2, [r0, #0]
  2031ce:	0752      	lsls	r2, r2, #29
  2031d0:	bf5c      	itt	pl
  2031d2:	6802      	ldrpl	r2, [r0, #0]
  2031d4:	ea5f 7242 	movspl.w	r2, r2, lsl #29
  2031d8:	d402      	bmi.n	2031e0 <GLCD_Initialize+0x2b18>
  2031da:	6802      	ldr	r2, [r0, #0]
  2031dc:	0752      	lsls	r2, r2, #29
  2031de:	d5f2      	bpl.n	2031c6 <GLCD_Initialize+0x2afe>
  2031e0:	f850 2c04 	ldr.w	r2, [r0, #-4]
  2031e4:	680a      	ldr	r2, [r1, #0]
  2031e6:	f042 0201 	orr.w	r2, r2, #1
  2031ea:	600a      	str	r2, [r1, #0]
  2031ec:	680a      	ldr	r2, [r1, #0]
  2031ee:	f022 0201 	bic.w	r2, r2, #1
  2031f2:	600a      	str	r2, [r1, #0]
  2031f4:	2272      	movs	r2, #114	; 0x72
  2031f6:	f840 2c04 	str.w	r2, [r0, #-4]
  2031fa:	6802      	ldr	r2, [r0, #0]
  2031fc:	0752      	lsls	r2, r2, #29
  2031fe:	d409      	bmi.n	203214 <GLCD_Initialize+0x2b4c>
  203200:	6802      	ldr	r2, [r0, #0]
  203202:	0752      	lsls	r2, r2, #29
  203204:	bf5c      	itt	pl
  203206:	6802      	ldrpl	r2, [r0, #0]
  203208:	ea5f 7242 	movspl.w	r2, r2, lsl #29
  20320c:	d402      	bmi.n	203214 <GLCD_Initialize+0x2b4c>
  20320e:	6802      	ldr	r2, [r0, #0]
  203210:	0752      	lsls	r2, r2, #29
  203212:	d5f2      	bpl.n	2031fa <GLCD_Initialize+0x2b32>
  203214:	f850 2c04 	ldr.w	r2, [r0, #-4]
  203218:	2200      	movs	r2, #0
  20321a:	f840 2c04 	str.w	r2, [r0, #-4]
  20321e:	6802      	ldr	r2, [r0, #0]
  203220:	0752      	lsls	r2, r2, #29
  203222:	d409      	bmi.n	203238 <GLCD_Initialize+0x2b70>
  203224:	6802      	ldr	r2, [r0, #0]
  203226:	0752      	lsls	r2, r2, #29
  203228:	bf5c      	itt	pl
  20322a:	6802      	ldrpl	r2, [r0, #0]
  20322c:	ea5f 7242 	movspl.w	r2, r2, lsl #29
  203230:	d402      	bmi.n	203238 <GLCD_Initialize+0x2b70>
  203232:	6802      	ldr	r2, [r0, #0]
  203234:	0752      	lsls	r2, r2, #29
  203236:	d5f2      	bpl.n	20321e <GLCD_Initialize+0x2b56>
  203238:	f850 2c04 	ldr.w	r2, [r0, #-4]
  20323c:	2200      	movs	r2, #0
  20323e:	f840 2c04 	str.w	r2, [r0, #-4]
  203242:	6802      	ldr	r2, [r0, #0]
  203244:	0752      	lsls	r2, r2, #29
  203246:	d409      	bmi.n	20325c <GLCD_Initialize+0x2b94>
  203248:	6802      	ldr	r2, [r0, #0]
  20324a:	0752      	lsls	r2, r2, #29
  20324c:	bf5c      	itt	pl
  20324e:	6802      	ldrpl	r2, [r0, #0]
  203250:	ea5f 7242 	movspl.w	r2, r2, lsl #29
  203254:	d402      	bmi.n	20325c <GLCD_Initialize+0x2b94>
  203256:	6802      	ldr	r2, [r0, #0]
  203258:	0752      	lsls	r2, r2, #29
  20325a:	d5f2      	bpl.n	203242 <GLCD_Initialize+0x2b7a>
  20325c:	f850 2c04 	ldr.w	r2, [r0, #-4]
  203260:	680a      	ldr	r2, [r1, #0]
  203262:	f042 0201 	orr.w	r2, r2, #1
  203266:	600a      	str	r2, [r1, #0]
  203268:	680a      	ldr	r2, [r1, #0]
  20326a:	f022 0201 	bic.w	r2, r2, #1
  20326e:	600a      	str	r2, [r1, #0]
  203270:	2270      	movs	r2, #112	; 0x70
  203272:	f840 2c04 	str.w	r2, [r0, #-4]
  203276:	6802      	ldr	r2, [r0, #0]
  203278:	0752      	lsls	r2, r2, #29
  20327a:	d409      	bmi.n	203290 <GLCD_Initialize+0x2bc8>
  20327c:	6802      	ldr	r2, [r0, #0]
  20327e:	0752      	lsls	r2, r2, #29
  203280:	bf5c      	itt	pl
  203282:	6802      	ldrpl	r2, [r0, #0]
  203284:	ea5f 7242 	movspl.w	r2, r2, lsl #29
  203288:	d402      	bmi.n	203290 <GLCD_Initialize+0x2bc8>
  20328a:	6802      	ldr	r2, [r0, #0]
  20328c:	0752      	lsls	r2, r2, #29
  20328e:	d5f2      	bpl.n	203276 <GLCD_Initialize+0x2bae>
  203290:	f850 2c04 	ldr.w	r2, [r0, #-4]
  203294:	2200      	movs	r2, #0
  203296:	f840 2c04 	str.w	r2, [r0, #-4]
  20329a:	6802      	ldr	r2, [r0, #0]
  20329c:	0752      	lsls	r2, r2, #29
  20329e:	d409      	bmi.n	2032b4 <GLCD_Initialize+0x2bec>
  2032a0:	6802      	ldr	r2, [r0, #0]
  2032a2:	0752      	lsls	r2, r2, #29
  2032a4:	bf5c      	itt	pl
  2032a6:	6802      	ldrpl	r2, [r0, #0]
  2032a8:	ea5f 7242 	movspl.w	r2, r2, lsl #29
  2032ac:	d402      	bmi.n	2032b4 <GLCD_Initialize+0x2bec>
  2032ae:	6802      	ldr	r2, [r0, #0]
  2032b0:	0752      	lsls	r2, r2, #29
  2032b2:	d5f2      	bpl.n	20329a <GLCD_Initialize+0x2bd2>
  2032b4:	f850 2c04 	ldr.w	r2, [r0, #-4]
  2032b8:	221f      	movs	r2, #31
  2032ba:	f840 2c04 	str.w	r2, [r0, #-4]
  2032be:	6802      	ldr	r2, [r0, #0]
  2032c0:	0752      	lsls	r2, r2, #29
  2032c2:	d409      	bmi.n	2032d8 <GLCD_Initialize+0x2c10>
  2032c4:	6802      	ldr	r2, [r0, #0]
  2032c6:	0752      	lsls	r2, r2, #29
  2032c8:	bf5c      	itt	pl
  2032ca:	6802      	ldrpl	r2, [r0, #0]
  2032cc:	ea5f 7242 	movspl.w	r2, r2, lsl #29
  2032d0:	d402      	bmi.n	2032d8 <GLCD_Initialize+0x2c10>
  2032d2:	6802      	ldr	r2, [r0, #0]
  2032d4:	0752      	lsls	r2, r2, #29
  2032d6:	d5f2      	bpl.n	2032be <GLCD_Initialize+0x2bf6>
  2032d8:	f850 2c04 	ldr.w	r2, [r0, #-4]
  2032dc:	680a      	ldr	r2, [r1, #0]
  2032de:	f042 0201 	orr.w	r2, r2, #1
  2032e2:	600a      	str	r2, [r1, #0]
  2032e4:	680a      	ldr	r2, [r1, #0]
  2032e6:	f022 0201 	bic.w	r2, r2, #1
  2032ea:	600a      	str	r2, [r1, #0]
  2032ec:	2272      	movs	r2, #114	; 0x72
  2032ee:	f840 2c04 	str.w	r2, [r0, #-4]
  2032f2:	6802      	ldr	r2, [r0, #0]
  2032f4:	0752      	lsls	r2, r2, #29
  2032f6:	d409      	bmi.n	20330c <GLCD_Initialize+0x2c44>
  2032f8:	6802      	ldr	r2, [r0, #0]
  2032fa:	0752      	lsls	r2, r2, #29
  2032fc:	bf5c      	itt	pl
  2032fe:	6802      	ldrpl	r2, [r0, #0]
  203300:	ea5f 7242 	movspl.w	r2, r2, lsl #29
  203304:	d402      	bmi.n	20330c <GLCD_Initialize+0x2c44>
  203306:	6802      	ldr	r2, [r0, #0]
  203308:	0752      	lsls	r2, r2, #29
  20330a:	d5f2      	bpl.n	2032f2 <GLCD_Initialize+0x2c2a>
  20330c:	f850 2c04 	ldr.w	r2, [r0, #-4]
  203310:	2200      	movs	r2, #0
  203312:	f840 2c04 	str.w	r2, [r0, #-4]
  203316:	6802      	ldr	r2, [r0, #0]
  203318:	0752      	lsls	r2, r2, #29
  20331a:	d409      	bmi.n	203330 <GLCD_Initialize+0x2c68>
  20331c:	6802      	ldr	r2, [r0, #0]
  20331e:	0752      	lsls	r2, r2, #29
  203320:	bf5c      	itt	pl
  203322:	6802      	ldrpl	r2, [r0, #0]
  203324:	ea5f 7242 	movspl.w	r2, r2, lsl #29
  203328:	d402      	bmi.n	203330 <GLCD_Initialize+0x2c68>
  20332a:	6802      	ldr	r2, [r0, #0]
  20332c:	0752      	lsls	r2, r2, #29
  20332e:	d5f2      	bpl.n	203316 <GLCD_Initialize+0x2c4e>
  203330:	f850 2c04 	ldr.w	r2, [r0, #-4]
  203334:	2288      	movs	r2, #136	; 0x88
  203336:	f840 2c04 	str.w	r2, [r0, #-4]
  20333a:	6802      	ldr	r2, [r0, #0]
  20333c:	0752      	lsls	r2, r2, #29
  20333e:	d409      	bmi.n	203354 <GLCD_Initialize+0x2c8c>
  203340:	6802      	ldr	r2, [r0, #0]
  203342:	0752      	lsls	r2, r2, #29
  203344:	bf5c      	itt	pl
  203346:	6802      	ldrpl	r2, [r0, #0]
  203348:	ea5f 7242 	movspl.w	r2, r2, lsl #29
  20334c:	d402      	bmi.n	203354 <GLCD_Initialize+0x2c8c>
  20334e:	6802      	ldr	r2, [r0, #0]
  203350:	0752      	lsls	r2, r2, #29
  203352:	d5f2      	bpl.n	20333a <GLCD_Initialize+0x2c72>
  203354:	f850 2c04 	ldr.w	r2, [r0, #-4]
  203358:	680a      	ldr	r2, [r1, #0]
  20335a:	f042 0201 	orr.w	r2, r2, #1
  20335e:	600a      	str	r2, [r1, #0]
  203360:	f64e 5230 	movw	r2, #60720	; 0xed30
  203364:	f6cf 72ec 	movt	r2, #65516	; 0xffec
  203368:	bf00      	nop
  20336a:	bf00      	nop
  20336c:	bf00      	nop
  20336e:	bf00      	nop
  203370:	bf00      	nop
  203372:	bf00      	nop
  203374:	bf00      	nop
  203376:	bf00      	nop
  203378:	bf00      	nop
  20337a:	bf00      	nop
  20337c:	bf00      	nop
  20337e:	bf00      	nop
  203380:	bf00      	nop
  203382:	bf00      	nop
  203384:	bf00      	nop
  203386:	bf00      	nop
  203388:	bf00      	nop
  20338a:	bf00      	nop
  20338c:	bf00      	nop
  20338e:	bf00      	nop
  203390:	bf00      	nop
  203392:	bf00      	nop
  203394:	bf00      	nop
  203396:	bf00      	nop
  203398:	bf00      	nop
  20339a:	bf00      	nop
  20339c:	bf00      	nop
  20339e:	bf00      	nop
  2033a0:	bf00      	nop
  2033a2:	bf00      	nop
  2033a4:	bf00      	nop
  2033a6:	bf00      	nop
  2033a8:	bf00      	nop
  2033aa:	bf00      	nop
  2033ac:	bf00      	nop
  2033ae:	bf00      	nop
  2033b0:	bf00      	nop
  2033b2:	bf00      	nop
  2033b4:	bf00      	nop
  2033b6:	bf00      	nop
  2033b8:	bf00      	nop
  2033ba:	bf00      	nop
  2033bc:	bf00      	nop
  2033be:	bf00      	nop
  2033c0:	bf00      	nop
  2033c2:	bf00      	nop
  2033c4:	bf00      	nop
  2033c6:	bf00      	nop
  2033c8:	bf00      	nop
  2033ca:	bf00      	nop
  2033cc:	bf00      	nop
  2033ce:	bf00      	nop
  2033d0:	bf00      	nop
  2033d2:	bf00      	nop
  2033d4:	bf00      	nop
  2033d6:	bf00      	nop
  2033d8:	bf00      	nop
  2033da:	bf00      	nop
  2033dc:	bf00      	nop
  2033de:	bf00      	nop
  2033e0:	bf00      	nop
  2033e2:	bf00      	nop
  2033e4:	bf00      	nop
  2033e6:	bf00      	nop
  2033e8:	bf00      	nop
  2033ea:	bf00      	nop
  2033ec:	bf00      	nop
  2033ee:	bf00      	nop
  2033f0:	bf00      	nop
  2033f2:	bf00      	nop
  2033f4:	bf00      	nop
  2033f6:	bf00      	nop
  2033f8:	bf00      	nop
  2033fa:	bf00      	nop
  2033fc:	bf00      	nop
  2033fe:	bf00      	nop
  203400:	bf00      	nop
  203402:	bf00      	nop
  203404:	bf00      	nop
  203406:	bf00      	nop
  203408:	bf00      	nop
  20340a:	bf00      	nop
  20340c:	bf00      	nop
  20340e:	bf00      	nop
  203410:	bf00      	nop
  203412:	bf00      	nop
  203414:	bf00      	nop
  203416:	bf00      	nop
  203418:	bf00      	nop
  20341a:	bf00      	nop
  20341c:	bf00      	nop
  20341e:	bf00      	nop
  203420:	bf00      	nop
  203422:	bf00      	nop
  203424:	bf00      	nop
  203426:	bf00      	nop
  203428:	bf00      	nop
  20342a:	bf00      	nop
  20342c:	bf00      	nop
  20342e:	3264      	adds	r2, #100	; 0x64
  203430:	bf00      	nop
  203432:	d199      	bne.n	203368 <GLCD_Initialize+0x2ca0>
  203434:	680a      	ldr	r2, [r1, #0]
  203436:	f022 0201 	bic.w	r2, r2, #1
  20343a:	600a      	str	r2, [r1, #0]
  20343c:	2270      	movs	r2, #112	; 0x70
  20343e:	f840 2c04 	str.w	r2, [r0, #-4]
  203442:	6802      	ldr	r2, [r0, #0]
  203444:	0752      	lsls	r2, r2, #29
  203446:	d409      	bmi.n	20345c <GLCD_Initialize+0x2d94>
  203448:	6802      	ldr	r2, [r0, #0]
  20344a:	0752      	lsls	r2, r2, #29
  20344c:	bf5c      	itt	pl
  20344e:	6802      	ldrpl	r2, [r0, #0]
  203450:	ea5f 7242 	movspl.w	r2, r2, lsl #29
  203454:	d402      	bmi.n	20345c <GLCD_Initialize+0x2d94>
  203456:	6802      	ldr	r2, [r0, #0]
  203458:	0752      	lsls	r2, r2, #29
  20345a:	d5f2      	bpl.n	203442 <GLCD_Initialize+0x2d7a>
  20345c:	f850 2c04 	ldr.w	r2, [r0, #-4]
  203460:	2200      	movs	r2, #0
  203462:	f840 2c04 	str.w	r2, [r0, #-4]
  203466:	6802      	ldr	r2, [r0, #0]
  203468:	0752      	lsls	r2, r2, #29
  20346a:	d409      	bmi.n	203480 <GLCD_Initialize+0x2db8>
  20346c:	6802      	ldr	r2, [r0, #0]
  20346e:	0752      	lsls	r2, r2, #29
  203470:	bf5c      	itt	pl
  203472:	6802      	ldrpl	r2, [r0, #0]
  203474:	ea5f 7242 	movspl.w	r2, r2, lsl #29
  203478:	d402      	bmi.n	203480 <GLCD_Initialize+0x2db8>
  20347a:	6802      	ldr	r2, [r0, #0]
  20347c:	0752      	lsls	r2, r2, #29
  20347e:	d5f2      	bpl.n	203466 <GLCD_Initialize+0x2d9e>
  203480:	f850 2c04 	ldr.w	r2, [r0, #-4]
  203484:	221f      	movs	r2, #31
  203486:	f840 2c04 	str.w	r2, [r0, #-4]
  20348a:	6802      	ldr	r2, [r0, #0]
  20348c:	0752      	lsls	r2, r2, #29
  20348e:	d409      	bmi.n	2034a4 <GLCD_Initialize+0x2ddc>
  203490:	6802      	ldr	r2, [r0, #0]
  203492:	0752      	lsls	r2, r2, #29
  203494:	bf5c      	itt	pl
  203496:	6802      	ldrpl	r2, [r0, #0]
  203498:	ea5f 7242 	movspl.w	r2, r2, lsl #29
  20349c:	d402      	bmi.n	2034a4 <GLCD_Initialize+0x2ddc>
  20349e:	6802      	ldr	r2, [r0, #0]
  2034a0:	0752      	lsls	r2, r2, #29
  2034a2:	d5f2      	bpl.n	20348a <GLCD_Initialize+0x2dc2>
  2034a4:	f850 2c04 	ldr.w	r2, [r0, #-4]
  2034a8:	680a      	ldr	r2, [r1, #0]
  2034aa:	f042 0201 	orr.w	r2, r2, #1
  2034ae:	600a      	str	r2, [r1, #0]
  2034b0:	680a      	ldr	r2, [r1, #0]
  2034b2:	f022 0201 	bic.w	r2, r2, #1
  2034b6:	600a      	str	r2, [r1, #0]
  2034b8:	2272      	movs	r2, #114	; 0x72
  2034ba:	f840 2c04 	str.w	r2, [r0, #-4]
  2034be:	6802      	ldr	r2, [r0, #0]
  2034c0:	0752      	lsls	r2, r2, #29
  2034c2:	d409      	bmi.n	2034d8 <GLCD_Initialize+0x2e10>
  2034c4:	6802      	ldr	r2, [r0, #0]
  2034c6:	0752      	lsls	r2, r2, #29
  2034c8:	bf5c      	itt	pl
  2034ca:	6802      	ldrpl	r2, [r0, #0]
  2034cc:	ea5f 7242 	movspl.w	r2, r2, lsl #29
  2034d0:	d402      	bmi.n	2034d8 <GLCD_Initialize+0x2e10>
  2034d2:	6802      	ldr	r2, [r0, #0]
  2034d4:	0752      	lsls	r2, r2, #29
  2034d6:	d5f2      	bpl.n	2034be <GLCD_Initialize+0x2df6>
  2034d8:	f850 2c04 	ldr.w	r2, [r0, #-4]
  2034dc:	2200      	movs	r2, #0
  2034de:	f840 2c04 	str.w	r2, [r0, #-4]
  2034e2:	6802      	ldr	r2, [r0, #0]
  2034e4:	0752      	lsls	r2, r2, #29
  2034e6:	d409      	bmi.n	2034fc <GLCD_Initialize+0x2e34>
  2034e8:	6802      	ldr	r2, [r0, #0]
  2034ea:	0752      	lsls	r2, r2, #29
  2034ec:	bf5c      	itt	pl
  2034ee:	6802      	ldrpl	r2, [r0, #0]
  2034f0:	ea5f 7242 	movspl.w	r2, r2, lsl #29
  2034f4:	d402      	bmi.n	2034fc <GLCD_Initialize+0x2e34>
  2034f6:	6802      	ldr	r2, [r0, #0]
  2034f8:	0752      	lsls	r2, r2, #29
  2034fa:	d5f2      	bpl.n	2034e2 <GLCD_Initialize+0x2e1a>
  2034fc:	f850 2c04 	ldr.w	r2, [r0, #-4]
  203500:	2282      	movs	r2, #130	; 0x82
  203502:	f840 2c04 	str.w	r2, [r0, #-4]
  203506:	6802      	ldr	r2, [r0, #0]
  203508:	0752      	lsls	r2, r2, #29
  20350a:	d409      	bmi.n	203520 <GLCD_Initialize+0x2e58>
  20350c:	6802      	ldr	r2, [r0, #0]
  20350e:	0752      	lsls	r2, r2, #29
  203510:	bf5c      	itt	pl
  203512:	6802      	ldrpl	r2, [r0, #0]
  203514:	ea5f 7242 	movspl.w	r2, r2, lsl #29
  203518:	d402      	bmi.n	203520 <GLCD_Initialize+0x2e58>
  20351a:	6802      	ldr	r2, [r0, #0]
  20351c:	0752      	lsls	r2, r2, #29
  20351e:	d5f2      	bpl.n	203506 <GLCD_Initialize+0x2e3e>
  203520:	f850 2c04 	ldr.w	r2, [r0, #-4]
  203524:	680a      	ldr	r2, [r1, #0]
  203526:	f042 0301 	orr.w	r3, r2, #1
  20352a:	f642 7270 	movw	r2, #12144	; 0x2f70
  20352e:	f6cf 72fc 	movt	r2, #65532	; 0xfffc
  203532:	600b      	str	r3, [r1, #0]
  203534:	4613      	mov	r3, r2
  203536:	bf00      	nop
  203538:	bf00      	nop
  20353a:	bf00      	nop
  20353c:	bf00      	nop
  20353e:	bf00      	nop
  203540:	bf00      	nop
  203542:	bf00      	nop
  203544:	bf00      	nop
  203546:	bf00      	nop
  203548:	bf00      	nop
  20354a:	bf00      	nop
  20354c:	bf00      	nop
  20354e:	bf00      	nop
  203550:	bf00      	nop
  203552:	bf00      	nop
  203554:	bf00      	nop
  203556:	bf00      	nop
  203558:	bf00      	nop
  20355a:	bf00      	nop
  20355c:	bf00      	nop
  20355e:	bf00      	nop
  203560:	bf00      	nop
  203562:	bf00      	nop
  203564:	bf00      	nop
  203566:	bf00      	nop
  203568:	bf00      	nop
  20356a:	bf00      	nop
  20356c:	bf00      	nop
  20356e:	bf00      	nop
  203570:	bf00      	nop
  203572:	bf00      	nop
  203574:	bf00      	nop
  203576:	bf00      	nop
  203578:	bf00      	nop
  20357a:	bf00      	nop
  20357c:	bf00      	nop
  20357e:	bf00      	nop
  203580:	bf00      	nop
  203582:	bf00      	nop
  203584:	bf00      	nop
  203586:	bf00      	nop
  203588:	bf00      	nop
  20358a:	bf00      	nop
  20358c:	bf00      	nop
  20358e:	bf00      	nop
  203590:	bf00      	nop
  203592:	bf00      	nop
  203594:	bf00      	nop
  203596:	bf00      	nop
  203598:	bf00      	nop
  20359a:	bf00      	nop
  20359c:	bf00      	nop
  20359e:	bf00      	nop
  2035a0:	bf00      	nop
  2035a2:	bf00      	nop
  2035a4:	bf00      	nop
  2035a6:	bf00      	nop
  2035a8:	bf00      	nop
  2035aa:	bf00      	nop
  2035ac:	bf00      	nop
  2035ae:	bf00      	nop
  2035b0:	bf00      	nop
  2035b2:	bf00      	nop
  2035b4:	bf00      	nop
  2035b6:	bf00      	nop
  2035b8:	bf00      	nop
  2035ba:	bf00      	nop
  2035bc:	bf00      	nop
  2035be:	bf00      	nop
  2035c0:	bf00      	nop
  2035c2:	bf00      	nop
  2035c4:	bf00      	nop
  2035c6:	bf00      	nop
  2035c8:	bf00      	nop
  2035ca:	bf00      	nop
  2035cc:	bf00      	nop
  2035ce:	bf00      	nop
  2035d0:	bf00      	nop
  2035d2:	bf00      	nop
  2035d4:	bf00      	nop
  2035d6:	bf00      	nop
  2035d8:	bf00      	nop
  2035da:	bf00      	nop
  2035dc:	bf00      	nop
  2035de:	bf00      	nop
  2035e0:	bf00      	nop
  2035e2:	bf00      	nop
  2035e4:	bf00      	nop
  2035e6:	bf00      	nop
  2035e8:	bf00      	nop
  2035ea:	bf00      	nop
  2035ec:	bf00      	nop
  2035ee:	bf00      	nop
  2035f0:	bf00      	nop
  2035f2:	bf00      	nop
  2035f4:	bf00      	nop
  2035f6:	bf00      	nop
  2035f8:	bf00      	nop
  2035fa:	bf00      	nop
  2035fc:	bf00      	nop
  2035fe:	3364      	adds	r3, #100	; 0x64
  203600:	bf00      	nop
  203602:	d199      	bne.n	203538 <GLCD_Initialize+0x2e70>
  203604:	680b      	ldr	r3, [r1, #0]
  203606:	f023 0301 	bic.w	r3, r3, #1
  20360a:	600b      	str	r3, [r1, #0]
  20360c:	2370      	movs	r3, #112	; 0x70
  20360e:	f840 3c04 	str.w	r3, [r0, #-4]
  203612:	6803      	ldr	r3, [r0, #0]
  203614:	075b      	lsls	r3, r3, #29
  203616:	d409      	bmi.n	20362c <GLCD_Initialize+0x2f64>
  203618:	6803      	ldr	r3, [r0, #0]
  20361a:	075b      	lsls	r3, r3, #29
  20361c:	bf5c      	itt	pl
  20361e:	6803      	ldrpl	r3, [r0, #0]
  203620:	ea5f 7343 	movspl.w	r3, r3, lsl #29
  203624:	d402      	bmi.n	20362c <GLCD_Initialize+0x2f64>
  203626:	6803      	ldr	r3, [r0, #0]
  203628:	075b      	lsls	r3, r3, #29
  20362a:	d5f2      	bpl.n	203612 <GLCD_Initialize+0x2f4a>
  20362c:	f850 3c04 	ldr.w	r3, [r0, #-4]
  203630:	2300      	movs	r3, #0
  203632:	f840 3c04 	str.w	r3, [r0, #-4]
  203636:	6803      	ldr	r3, [r0, #0]
  203638:	075b      	lsls	r3, r3, #29
  20363a:	d409      	bmi.n	203650 <GLCD_Initialize+0x2f88>
  20363c:	6803      	ldr	r3, [r0, #0]
  20363e:	075b      	lsls	r3, r3, #29
  203640:	bf5c      	itt	pl
  203642:	6803      	ldrpl	r3, [r0, #0]
  203644:	ea5f 7343 	movspl.w	r3, r3, lsl #29
  203648:	d402      	bmi.n	203650 <GLCD_Initialize+0x2f88>
  20364a:	6803      	ldr	r3, [r0, #0]
  20364c:	075b      	lsls	r3, r3, #29
  20364e:	d5f2      	bpl.n	203636 <GLCD_Initialize+0x2f6e>
  203650:	f850 3c04 	ldr.w	r3, [r0, #-4]
  203654:	231f      	movs	r3, #31
  203656:	f840 3c04 	str.w	r3, [r0, #-4]
  20365a:	6803      	ldr	r3, [r0, #0]
  20365c:	075b      	lsls	r3, r3, #29
  20365e:	d409      	bmi.n	203674 <GLCD_Initialize+0x2fac>
  203660:	6803      	ldr	r3, [r0, #0]
  203662:	075b      	lsls	r3, r3, #29
  203664:	bf5c      	itt	pl
  203666:	6803      	ldrpl	r3, [r0, #0]
  203668:	ea5f 7343 	movspl.w	r3, r3, lsl #29
  20366c:	d402      	bmi.n	203674 <GLCD_Initialize+0x2fac>
  20366e:	6803      	ldr	r3, [r0, #0]
  203670:	075b      	lsls	r3, r3, #29
  203672:	d5f2      	bpl.n	20365a <GLCD_Initialize+0x2f92>
  203674:	f850 3c04 	ldr.w	r3, [r0, #-4]
  203678:	680b      	ldr	r3, [r1, #0]
  20367a:	f043 0301 	orr.w	r3, r3, #1
  20367e:	600b      	str	r3, [r1, #0]
  203680:	680b      	ldr	r3, [r1, #0]
  203682:	f023 0301 	bic.w	r3, r3, #1
  203686:	600b      	str	r3, [r1, #0]
  203688:	2372      	movs	r3, #114	; 0x72
  20368a:	f840 3c04 	str.w	r3, [r0, #-4]
  20368e:	6803      	ldr	r3, [r0, #0]
  203690:	075b      	lsls	r3, r3, #29
  203692:	d409      	bmi.n	2036a8 <GLCD_Initialize+0x2fe0>
  203694:	6803      	ldr	r3, [r0, #0]
  203696:	075b      	lsls	r3, r3, #29
  203698:	bf5c      	itt	pl
  20369a:	6803      	ldrpl	r3, [r0, #0]
  20369c:	ea5f 7343 	movspl.w	r3, r3, lsl #29
  2036a0:	d402      	bmi.n	2036a8 <GLCD_Initialize+0x2fe0>
  2036a2:	6803      	ldr	r3, [r0, #0]
  2036a4:	075b      	lsls	r3, r3, #29
  2036a6:	d5f2      	bpl.n	20368e <GLCD_Initialize+0x2fc6>
  2036a8:	f850 3c04 	ldr.w	r3, [r0, #-4]
  2036ac:	2300      	movs	r3, #0
  2036ae:	f840 3c04 	str.w	r3, [r0, #-4]
  2036b2:	6803      	ldr	r3, [r0, #0]
  2036b4:	075b      	lsls	r3, r3, #29
  2036b6:	d409      	bmi.n	2036cc <GLCD_Initialize+0x3004>
  2036b8:	6803      	ldr	r3, [r0, #0]
  2036ba:	075b      	lsls	r3, r3, #29
  2036bc:	bf5c      	itt	pl
  2036be:	6803      	ldrpl	r3, [r0, #0]
  2036c0:	ea5f 7343 	movspl.w	r3, r3, lsl #29
  2036c4:	d402      	bmi.n	2036cc <GLCD_Initialize+0x3004>
  2036c6:	6803      	ldr	r3, [r0, #0]
  2036c8:	075b      	lsls	r3, r3, #29
  2036ca:	d5f2      	bpl.n	2036b2 <GLCD_Initialize+0x2fea>
  2036cc:	f850 3c04 	ldr.w	r3, [r0, #-4]
  2036d0:	2392      	movs	r3, #146	; 0x92
  2036d2:	f840 3c04 	str.w	r3, [r0, #-4]
  2036d6:	6803      	ldr	r3, [r0, #0]
  2036d8:	075b      	lsls	r3, r3, #29
  2036da:	d409      	bmi.n	2036f0 <GLCD_Initialize+0x3028>
  2036dc:	6803      	ldr	r3, [r0, #0]
  2036de:	075b      	lsls	r3, r3, #29
  2036e0:	bf5c      	itt	pl
  2036e2:	6803      	ldrpl	r3, [r0, #0]
  2036e4:	ea5f 7343 	movspl.w	r3, r3, lsl #29
  2036e8:	d402      	bmi.n	2036f0 <GLCD_Initialize+0x3028>
  2036ea:	6803      	ldr	r3, [r0, #0]
  2036ec:	075b      	lsls	r3, r3, #29
  2036ee:	d5f2      	bpl.n	2036d6 <GLCD_Initialize+0x300e>
  2036f0:	f850 3c04 	ldr.w	r3, [r0, #-4]
  2036f4:	680b      	ldr	r3, [r1, #0]
  2036f6:	f043 0301 	orr.w	r3, r3, #1
  2036fa:	600b      	str	r3, [r1, #0]
  2036fc:	4613      	mov	r3, r2
  2036fe:	bf00      	nop
  203700:	bf00      	nop
  203702:	bf00      	nop
  203704:	bf00      	nop
  203706:	bf00      	nop
  203708:	bf00      	nop
  20370a:	bf00      	nop
  20370c:	bf00      	nop
  20370e:	bf00      	nop
  203710:	bf00      	nop
  203712:	bf00      	nop
  203714:	bf00      	nop
  203716:	bf00      	nop
  203718:	bf00      	nop
  20371a:	bf00      	nop
  20371c:	bf00      	nop
  20371e:	bf00      	nop
  203720:	bf00      	nop
  203722:	bf00      	nop
  203724:	bf00      	nop
  203726:	bf00      	nop
  203728:	bf00      	nop
  20372a:	bf00      	nop
  20372c:	bf00      	nop
  20372e:	bf00      	nop
  203730:	bf00      	nop
  203732:	bf00      	nop
  203734:	bf00      	nop
  203736:	bf00      	nop
  203738:	bf00      	nop
  20373a:	bf00      	nop
  20373c:	bf00      	nop
  20373e:	bf00      	nop
  203740:	bf00      	nop
  203742:	bf00      	nop
  203744:	bf00      	nop
  203746:	bf00      	nop
  203748:	bf00      	nop
  20374a:	bf00      	nop
  20374c:	bf00      	nop
  20374e:	bf00      	nop
  203750:	bf00      	nop
  203752:	bf00      	nop
  203754:	bf00      	nop
  203756:	bf00      	nop
  203758:	bf00      	nop
  20375a:	bf00      	nop
  20375c:	bf00      	nop
  20375e:	bf00      	nop
  203760:	bf00      	nop
  203762:	bf00      	nop
  203764:	bf00      	nop
  203766:	bf00      	nop
  203768:	bf00      	nop
  20376a:	bf00      	nop
  20376c:	bf00      	nop
  20376e:	bf00      	nop
  203770:	bf00      	nop
  203772:	bf00      	nop
  203774:	bf00      	nop
  203776:	bf00      	nop
  203778:	bf00      	nop
  20377a:	bf00      	nop
  20377c:	bf00      	nop
  20377e:	bf00      	nop
  203780:	bf00      	nop
  203782:	bf00      	nop
  203784:	bf00      	nop
  203786:	bf00      	nop
  203788:	bf00      	nop
  20378a:	bf00      	nop
  20378c:	bf00      	nop
  20378e:	bf00      	nop
  203790:	bf00      	nop
  203792:	bf00      	nop
  203794:	bf00      	nop
  203796:	bf00      	nop
  203798:	bf00      	nop
  20379a:	bf00      	nop
  20379c:	bf00      	nop
  20379e:	bf00      	nop
  2037a0:	bf00      	nop
  2037a2:	bf00      	nop
  2037a4:	bf00      	nop
  2037a6:	bf00      	nop
  2037a8:	bf00      	nop
  2037aa:	bf00      	nop
  2037ac:	bf00      	nop
  2037ae:	bf00      	nop
  2037b0:	bf00      	nop
  2037b2:	bf00      	nop
  2037b4:	bf00      	nop
  2037b6:	bf00      	nop
  2037b8:	bf00      	nop
  2037ba:	bf00      	nop
  2037bc:	bf00      	nop
  2037be:	bf00      	nop
  2037c0:	bf00      	nop
  2037c2:	bf00      	nop
  2037c4:	bf00      	nop
  2037c6:	3364      	adds	r3, #100	; 0x64
  2037c8:	bf00      	nop
  2037ca:	d199      	bne.n	203700 <GLCD_Initialize+0x3038>
  2037cc:	680b      	ldr	r3, [r1, #0]
  2037ce:	f023 0301 	bic.w	r3, r3, #1
  2037d2:	600b      	str	r3, [r1, #0]
  2037d4:	2370      	movs	r3, #112	; 0x70
  2037d6:	f840 3c04 	str.w	r3, [r0, #-4]
  2037da:	6803      	ldr	r3, [r0, #0]
  2037dc:	075b      	lsls	r3, r3, #29
  2037de:	d409      	bmi.n	2037f4 <GLCD_Initialize+0x312c>
  2037e0:	6803      	ldr	r3, [r0, #0]
  2037e2:	075b      	lsls	r3, r3, #29
  2037e4:	bf5c      	itt	pl
  2037e6:	6803      	ldrpl	r3, [r0, #0]
  2037e8:	ea5f 7343 	movspl.w	r3, r3, lsl #29
  2037ec:	d402      	bmi.n	2037f4 <GLCD_Initialize+0x312c>
  2037ee:	6803      	ldr	r3, [r0, #0]
  2037f0:	075b      	lsls	r3, r3, #29
  2037f2:	d5f2      	bpl.n	2037da <GLCD_Initialize+0x3112>
  2037f4:	f850 3c04 	ldr.w	r3, [r0, #-4]
  2037f8:	2300      	movs	r3, #0
  2037fa:	f840 3c04 	str.w	r3, [r0, #-4]
  2037fe:	6803      	ldr	r3, [r0, #0]
  203800:	075b      	lsls	r3, r3, #29
  203802:	d409      	bmi.n	203818 <GLCD_Initialize+0x3150>
  203804:	6803      	ldr	r3, [r0, #0]
  203806:	075b      	lsls	r3, r3, #29
  203808:	bf5c      	itt	pl
  20380a:	6803      	ldrpl	r3, [r0, #0]
  20380c:	ea5f 7343 	movspl.w	r3, r3, lsl #29
  203810:	d402      	bmi.n	203818 <GLCD_Initialize+0x3150>
  203812:	6803      	ldr	r3, [r0, #0]
  203814:	075b      	lsls	r3, r3, #29
  203816:	d5f2      	bpl.n	2037fe <GLCD_Initialize+0x3136>
  203818:	f850 3c04 	ldr.w	r3, [r0, #-4]
  20381c:	231f      	movs	r3, #31
  20381e:	f840 3c04 	str.w	r3, [r0, #-4]
  203822:	6803      	ldr	r3, [r0, #0]
  203824:	075b      	lsls	r3, r3, #29
  203826:	d409      	bmi.n	20383c <GLCD_Initialize+0x3174>
  203828:	6803      	ldr	r3, [r0, #0]
  20382a:	075b      	lsls	r3, r3, #29
  20382c:	bf5c      	itt	pl
  20382e:	6803      	ldrpl	r3, [r0, #0]
  203830:	ea5f 7343 	movspl.w	r3, r3, lsl #29
  203834:	d402      	bmi.n	20383c <GLCD_Initialize+0x3174>
  203836:	6803      	ldr	r3, [r0, #0]
  203838:	075b      	lsls	r3, r3, #29
  20383a:	d5f2      	bpl.n	203822 <GLCD_Initialize+0x315a>
  20383c:	f850 3c04 	ldr.w	r3, [r0, #-4]
  203840:	680b      	ldr	r3, [r1, #0]
  203842:	f043 0301 	orr.w	r3, r3, #1
  203846:	600b      	str	r3, [r1, #0]
  203848:	680b      	ldr	r3, [r1, #0]
  20384a:	f023 0301 	bic.w	r3, r3, #1
  20384e:	600b      	str	r3, [r1, #0]
  203850:	2372      	movs	r3, #114	; 0x72
  203852:	f840 3c04 	str.w	r3, [r0, #-4]
  203856:	6803      	ldr	r3, [r0, #0]
  203858:	075b      	lsls	r3, r3, #29
  20385a:	d409      	bmi.n	203870 <GLCD_Initialize+0x31a8>
  20385c:	6803      	ldr	r3, [r0, #0]
  20385e:	075b      	lsls	r3, r3, #29
  203860:	bf5c      	itt	pl
  203862:	6803      	ldrpl	r3, [r0, #0]
  203864:	ea5f 7343 	movspl.w	r3, r3, lsl #29
  203868:	d402      	bmi.n	203870 <GLCD_Initialize+0x31a8>
  20386a:	6803      	ldr	r3, [r0, #0]
  20386c:	075b      	lsls	r3, r3, #29
  20386e:	d5f2      	bpl.n	203856 <GLCD_Initialize+0x318e>
  203870:	f850 3c04 	ldr.w	r3, [r0, #-4]
  203874:	2300      	movs	r3, #0
  203876:	f840 3c04 	str.w	r3, [r0, #-4]
  20387a:	6803      	ldr	r3, [r0, #0]
  20387c:	075b      	lsls	r3, r3, #29
  20387e:	d409      	bmi.n	203894 <GLCD_Initialize+0x31cc>
  203880:	6803      	ldr	r3, [r0, #0]
  203882:	075b      	lsls	r3, r3, #29
  203884:	bf5c      	itt	pl
  203886:	6803      	ldrpl	r3, [r0, #0]
  203888:	ea5f 7343 	movspl.w	r3, r3, lsl #29
  20388c:	d402      	bmi.n	203894 <GLCD_Initialize+0x31cc>
  20388e:	6803      	ldr	r3, [r0, #0]
  203890:	075b      	lsls	r3, r3, #29
  203892:	d5f2      	bpl.n	20387a <GLCD_Initialize+0x31b2>
  203894:	f850 3c04 	ldr.w	r3, [r0, #-4]
  203898:	23d2      	movs	r3, #210	; 0xd2
  20389a:	f840 3c04 	str.w	r3, [r0, #-4]
  20389e:	6803      	ldr	r3, [r0, #0]
  2038a0:	075b      	lsls	r3, r3, #29
  2038a2:	d409      	bmi.n	2038b8 <GLCD_Initialize+0x31f0>
  2038a4:	6803      	ldr	r3, [r0, #0]
  2038a6:	075b      	lsls	r3, r3, #29
  2038a8:	bf5c      	itt	pl
  2038aa:	6803      	ldrpl	r3, [r0, #0]
  2038ac:	ea5f 7343 	movspl.w	r3, r3, lsl #29
  2038b0:	d402      	bmi.n	2038b8 <GLCD_Initialize+0x31f0>
  2038b2:	6803      	ldr	r3, [r0, #0]
  2038b4:	075b      	lsls	r3, r3, #29
  2038b6:	d5f2      	bpl.n	20389e <GLCD_Initialize+0x31d6>
  2038b8:	f850 3c04 	ldr.w	r3, [r0, #-4]
  2038bc:	680b      	ldr	r3, [r1, #0]
  2038be:	f043 0301 	orr.w	r3, r3, #1
  2038c2:	600b      	str	r3, [r1, #0]
  2038c4:	bf00      	nop
  2038c6:	bf00      	nop
  2038c8:	bf00      	nop
  2038ca:	bf00      	nop
  2038cc:	bf00      	nop
  2038ce:	bf00      	nop
  2038d0:	bf00      	nop
  2038d2:	bf00      	nop
  2038d4:	bf00      	nop
  2038d6:	bf00      	nop
  2038d8:	bf00      	nop
  2038da:	bf00      	nop
  2038dc:	bf00      	nop
  2038de:	bf00      	nop
  2038e0:	bf00      	nop
  2038e2:	bf00      	nop
  2038e4:	bf00      	nop
  2038e6:	bf00      	nop
  2038e8:	bf00      	nop
  2038ea:	bf00      	nop
  2038ec:	bf00      	nop
  2038ee:	bf00      	nop
  2038f0:	bf00      	nop
  2038f2:	bf00      	nop
  2038f4:	bf00      	nop
  2038f6:	bf00      	nop
  2038f8:	bf00      	nop
  2038fa:	bf00      	nop
  2038fc:	bf00      	nop
  2038fe:	bf00      	nop
  203900:	bf00      	nop
  203902:	bf00      	nop
  203904:	bf00      	nop
  203906:	bf00      	nop
  203908:	bf00      	nop
  20390a:	bf00      	nop
  20390c:	bf00      	nop
  20390e:	bf00      	nop
  203910:	bf00      	nop
  203912:	bf00      	nop
  203914:	bf00      	nop
  203916:	bf00      	nop
  203918:	bf00      	nop
  20391a:	bf00      	nop
  20391c:	bf00      	nop
  20391e:	bf00      	nop
  203920:	bf00      	nop
  203922:	bf00      	nop
  203924:	bf00      	nop
  203926:	bf00      	nop
  203928:	bf00      	nop
  20392a:	bf00      	nop
  20392c:	bf00      	nop
  20392e:	bf00      	nop
  203930:	bf00      	nop
  203932:	bf00      	nop
  203934:	bf00      	nop
  203936:	bf00      	nop
  203938:	bf00      	nop
  20393a:	bf00      	nop
  20393c:	bf00      	nop
  20393e:	bf00      	nop
  203940:	bf00      	nop
  203942:	bf00      	nop
  203944:	bf00      	nop
  203946:	bf00      	nop
  203948:	bf00      	nop
  20394a:	bf00      	nop
  20394c:	bf00      	nop
  20394e:	bf00      	nop
  203950:	bf00      	nop
  203952:	bf00      	nop
  203954:	bf00      	nop
  203956:	bf00      	nop
  203958:	bf00      	nop
  20395a:	bf00      	nop
  20395c:	bf00      	nop
  20395e:	bf00      	nop
  203960:	bf00      	nop
  203962:	bf00      	nop
  203964:	bf00      	nop
  203966:	bf00      	nop
  203968:	bf00      	nop
  20396a:	bf00      	nop
  20396c:	bf00      	nop
  20396e:	bf00      	nop
  203970:	bf00      	nop
  203972:	bf00      	nop
  203974:	bf00      	nop
  203976:	bf00      	nop
  203978:	bf00      	nop
  20397a:	bf00      	nop
  20397c:	bf00      	nop
  20397e:	bf00      	nop
  203980:	bf00      	nop
  203982:	bf00      	nop
  203984:	bf00      	nop
  203986:	bf00      	nop
  203988:	bf00      	nop
  20398a:	3264      	adds	r2, #100	; 0x64
  20398c:	bf00      	nop
  20398e:	d199      	bne.n	2038c4 <GLCD_Initialize+0x31fc>
  203990:	680a      	ldr	r2, [r1, #0]
  203992:	f022 0201 	bic.w	r2, r2, #1
  203996:	600a      	str	r2, [r1, #0]
  203998:	2270      	movs	r2, #112	; 0x70
  20399a:	f840 2c04 	str.w	r2, [r0, #-4]
  20399e:	6802      	ldr	r2, [r0, #0]
  2039a0:	0752      	lsls	r2, r2, #29
  2039a2:	d409      	bmi.n	2039b8 <GLCD_Initialize+0x32f0>
  2039a4:	6802      	ldr	r2, [r0, #0]
  2039a6:	0752      	lsls	r2, r2, #29
  2039a8:	bf5c      	itt	pl
  2039aa:	6802      	ldrpl	r2, [r0, #0]
  2039ac:	ea5f 7242 	movspl.w	r2, r2, lsl #29
  2039b0:	d402      	bmi.n	2039b8 <GLCD_Initialize+0x32f0>
  2039b2:	6802      	ldr	r2, [r0, #0]
  2039b4:	0752      	lsls	r2, r2, #29
  2039b6:	d5f2      	bpl.n	20399e <GLCD_Initialize+0x32d6>
  2039b8:	f850 2c04 	ldr.w	r2, [r0, #-4]
  2039bc:	2200      	movs	r2, #0
  2039be:	f840 2c04 	str.w	r2, [r0, #-4]
  2039c2:	6802      	ldr	r2, [r0, #0]
  2039c4:	0752      	lsls	r2, r2, #29
  2039c6:	d409      	bmi.n	2039dc <GLCD_Initialize+0x3314>
  2039c8:	6802      	ldr	r2, [r0, #0]
  2039ca:	0752      	lsls	r2, r2, #29
  2039cc:	bf5c      	itt	pl
  2039ce:	6802      	ldrpl	r2, [r0, #0]
  2039d0:	ea5f 7242 	movspl.w	r2, r2, lsl #29
  2039d4:	d402      	bmi.n	2039dc <GLCD_Initialize+0x3314>
  2039d6:	6802      	ldr	r2, [r0, #0]
  2039d8:	0752      	lsls	r2, r2, #29
  2039da:	d5f2      	bpl.n	2039c2 <GLCD_Initialize+0x32fa>
  2039dc:	f850 2c04 	ldr.w	r2, [r0, #-4]
  2039e0:	2217      	movs	r2, #23
  2039e2:	f840 2c04 	str.w	r2, [r0, #-4]
  2039e6:	6802      	ldr	r2, [r0, #0]
  2039e8:	0752      	lsls	r2, r2, #29
  2039ea:	d409      	bmi.n	203a00 <GLCD_Initialize+0x3338>
  2039ec:	6802      	ldr	r2, [r0, #0]
  2039ee:	0752      	lsls	r2, r2, #29
  2039f0:	bf5c      	itt	pl
  2039f2:	6802      	ldrpl	r2, [r0, #0]
  2039f4:	ea5f 7242 	movspl.w	r2, r2, lsl #29
  2039f8:	d402      	bmi.n	203a00 <GLCD_Initialize+0x3338>
  2039fa:	6802      	ldr	r2, [r0, #0]
  2039fc:	0752      	lsls	r2, r2, #29
  2039fe:	d5f2      	bpl.n	2039e6 <GLCD_Initialize+0x331e>
  203a00:	f850 2c04 	ldr.w	r2, [r0, #-4]
  203a04:	680a      	ldr	r2, [r1, #0]
  203a06:	f042 0201 	orr.w	r2, r2, #1
  203a0a:	600a      	str	r2, [r1, #0]
  203a0c:	680a      	ldr	r2, [r1, #0]
  203a0e:	f022 0201 	bic.w	r2, r2, #1
  203a12:	600a      	str	r2, [r1, #0]
  203a14:	2272      	movs	r2, #114	; 0x72
  203a16:	f840 2c04 	str.w	r2, [r0, #-4]
  203a1a:	6802      	ldr	r2, [r0, #0]
  203a1c:	0752      	lsls	r2, r2, #29
  203a1e:	d409      	bmi.n	203a34 <GLCD_Initialize+0x336c>
  203a20:	6802      	ldr	r2, [r0, #0]
  203a22:	0752      	lsls	r2, r2, #29
  203a24:	bf5c      	itt	pl
  203a26:	6802      	ldrpl	r2, [r0, #0]
  203a28:	ea5f 7242 	movspl.w	r2, r2, lsl #29
  203a2c:	d402      	bmi.n	203a34 <GLCD_Initialize+0x336c>
  203a2e:	6802      	ldr	r2, [r0, #0]
  203a30:	0752      	lsls	r2, r2, #29
  203a32:	d5f2      	bpl.n	203a1a <GLCD_Initialize+0x3352>
  203a34:	f850 2c04 	ldr.w	r2, [r0, #-4]
  203a38:	2200      	movs	r2, #0
  203a3a:	f840 2c04 	str.w	r2, [r0, #-4]
  203a3e:	6802      	ldr	r2, [r0, #0]
  203a40:	0752      	lsls	r2, r2, #29
  203a42:	d409      	bmi.n	203a58 <GLCD_Initialize+0x3390>
  203a44:	6802      	ldr	r2, [r0, #0]
  203a46:	0752      	lsls	r2, r2, #29
  203a48:	bf5c      	itt	pl
  203a4a:	6802      	ldrpl	r2, [r0, #0]
  203a4c:	ea5f 7242 	movspl.w	r2, r2, lsl #29
  203a50:	d402      	bmi.n	203a58 <GLCD_Initialize+0x3390>
  203a52:	6802      	ldr	r2, [r0, #0]
  203a54:	0752      	lsls	r2, r2, #29
  203a56:	d5f2      	bpl.n	203a3e <GLCD_Initialize+0x3376>
  203a58:	f850 2c04 	ldr.w	r2, [r0, #-4]
  203a5c:	2255      	movs	r2, #85	; 0x55
  203a5e:	f840 2c04 	str.w	r2, [r0, #-4]
  203a62:	6802      	ldr	r2, [r0, #0]
  203a64:	0752      	lsls	r2, r2, #29
  203a66:	d409      	bmi.n	203a7c <GLCD_Initialize+0x33b4>
  203a68:	6802      	ldr	r2, [r0, #0]
  203a6a:	0752      	lsls	r2, r2, #29
  203a6c:	bf5c      	itt	pl
  203a6e:	6802      	ldrpl	r2, [r0, #0]
  203a70:	ea5f 7242 	movspl.w	r2, r2, lsl #29
  203a74:	d402      	bmi.n	203a7c <GLCD_Initialize+0x33b4>
  203a76:	6802      	ldr	r2, [r0, #0]
  203a78:	0752      	lsls	r2, r2, #29
  203a7a:	d5f2      	bpl.n	203a62 <GLCD_Initialize+0x339a>
  203a7c:	f850 2c04 	ldr.w	r2, [r0, #-4]
  203a80:	680a      	ldr	r2, [r1, #0]
  203a82:	f042 0201 	orr.w	r2, r2, #1
  203a86:	600a      	str	r2, [r1, #0]
  203a88:	680a      	ldr	r2, [r1, #0]
  203a8a:	f022 0201 	bic.w	r2, r2, #1
  203a8e:	600a      	str	r2, [r1, #0]
  203a90:	2270      	movs	r2, #112	; 0x70
  203a92:	f840 2c04 	str.w	r2, [r0, #-4]
  203a96:	6802      	ldr	r2, [r0, #0]
  203a98:	0752      	lsls	r2, r2, #29
  203a9a:	d409      	bmi.n	203ab0 <GLCD_Initialize+0x33e8>
  203a9c:	6802      	ldr	r2, [r0, #0]
  203a9e:	0752      	lsls	r2, r2, #29
  203aa0:	bf5c      	itt	pl
  203aa2:	6802      	ldrpl	r2, [r0, #0]
  203aa4:	ea5f 7242 	movspl.w	r2, r2, lsl #29
  203aa8:	d402      	bmi.n	203ab0 <GLCD_Initialize+0x33e8>
  203aaa:	6802      	ldr	r2, [r0, #0]
  203aac:	0752      	lsls	r2, r2, #29
  203aae:	d5f2      	bpl.n	203a96 <GLCD_Initialize+0x33ce>
  203ab0:	f850 2c04 	ldr.w	r2, [r0, #-4]
  203ab4:	2200      	movs	r2, #0
  203ab6:	f840 2c04 	str.w	r2, [r0, #-4]
  203aba:	6802      	ldr	r2, [r0, #0]
  203abc:	0752      	lsls	r2, r2, #29
  203abe:	d409      	bmi.n	203ad4 <GLCD_Initialize+0x340c>
  203ac0:	6802      	ldr	r2, [r0, #0]
  203ac2:	0752      	lsls	r2, r2, #29
  203ac4:	bf5c      	itt	pl
  203ac6:	6802      	ldrpl	r2, [r0, #0]
  203ac8:	ea5f 7242 	movspl.w	r2, r2, lsl #29
  203acc:	d402      	bmi.n	203ad4 <GLCD_Initialize+0x340c>
  203ace:	6802      	ldr	r2, [r0, #0]
  203ad0:	0752      	lsls	r2, r2, #29
  203ad2:	d5f2      	bpl.n	203aba <GLCD_Initialize+0x33f2>
  203ad4:	f850 2c04 	ldr.w	r2, [r0, #-4]
  203ad8:	2200      	movs	r2, #0
  203ada:	f840 2c04 	str.w	r2, [r0, #-4]
  203ade:	6802      	ldr	r2, [r0, #0]
  203ae0:	0752      	lsls	r2, r2, #29
  203ae2:	d409      	bmi.n	203af8 <GLCD_Initialize+0x3430>
  203ae4:	6802      	ldr	r2, [r0, #0]
  203ae6:	0752      	lsls	r2, r2, #29
  203ae8:	bf5c      	itt	pl
  203aea:	6802      	ldrpl	r2, [r0, #0]
  203aec:	ea5f 7242 	movspl.w	r2, r2, lsl #29
  203af0:	d402      	bmi.n	203af8 <GLCD_Initialize+0x3430>
  203af2:	6802      	ldr	r2, [r0, #0]
  203af4:	0752      	lsls	r2, r2, #29
  203af6:	d5f2      	bpl.n	203ade <GLCD_Initialize+0x3416>
  203af8:	f850 2c04 	ldr.w	r2, [r0, #-4]
  203afc:	680a      	ldr	r2, [r1, #0]
  203afe:	f042 0201 	orr.w	r2, r2, #1
  203b02:	600a      	str	r2, [r1, #0]
  203b04:	680a      	ldr	r2, [r1, #0]
  203b06:	f022 0201 	bic.w	r2, r2, #1
  203b0a:	600a      	str	r2, [r1, #0]
  203b0c:	2272      	movs	r2, #114	; 0x72
  203b0e:	f840 2c04 	str.w	r2, [r0, #-4]
  203b12:	6802      	ldr	r2, [r0, #0]
  203b14:	0752      	lsls	r2, r2, #29
  203b16:	d409      	bmi.n	203b2c <GLCD_Initialize+0x3464>
  203b18:	6802      	ldr	r2, [r0, #0]
  203b1a:	0752      	lsls	r2, r2, #29
  203b1c:	bf5c      	itt	pl
  203b1e:	6802      	ldrpl	r2, [r0, #0]
  203b20:	ea5f 7242 	movspl.w	r2, r2, lsl #29
  203b24:	d402      	bmi.n	203b2c <GLCD_Initialize+0x3464>
  203b26:	6802      	ldr	r2, [r0, #0]
  203b28:	0752      	lsls	r2, r2, #29
  203b2a:	d5f2      	bpl.n	203b12 <GLCD_Initialize+0x344a>
  203b2c:	f850 2c04 	ldr.w	r2, [r0, #-4]
  203b30:	2200      	movs	r2, #0
  203b32:	f840 2c04 	str.w	r2, [r0, #-4]
  203b36:	6802      	ldr	r2, [r0, #0]
  203b38:	0752      	lsls	r2, r2, #29
  203b3a:	d409      	bmi.n	203b50 <GLCD_Initialize+0x3488>
  203b3c:	6802      	ldr	r2, [r0, #0]
  203b3e:	0752      	lsls	r2, r2, #29
  203b40:	bf5c      	itt	pl
  203b42:	6802      	ldrpl	r2, [r0, #0]
  203b44:	ea5f 7242 	movspl.w	r2, r2, lsl #29
  203b48:	d402      	bmi.n	203b50 <GLCD_Initialize+0x3488>
  203b4a:	6802      	ldr	r2, [r0, #0]
  203b4c:	0752      	lsls	r2, r2, #29
  203b4e:	d5f2      	bpl.n	203b36 <GLCD_Initialize+0x346e>
  203b50:	f850 2c04 	ldr.w	r2, [r0, #-4]
  203b54:	2200      	movs	r2, #0
  203b56:	f840 2c04 	str.w	r2, [r0, #-4]
  203b5a:	6802      	ldr	r2, [r0, #0]
  203b5c:	0752      	lsls	r2, r2, #29
  203b5e:	d409      	bmi.n	203b74 <GLCD_Initialize+0x34ac>
  203b60:	6802      	ldr	r2, [r0, #0]
  203b62:	0752      	lsls	r2, r2, #29
  203b64:	bf5c      	itt	pl
  203b66:	6802      	ldrpl	r2, [r0, #0]
  203b68:	ea5f 7242 	movspl.w	r2, r2, lsl #29
  203b6c:	d402      	bmi.n	203b74 <GLCD_Initialize+0x34ac>
  203b6e:	6802      	ldr	r2, [r0, #0]
  203b70:	0752      	lsls	r2, r2, #29
  203b72:	d5f2      	bpl.n	203b5a <GLCD_Initialize+0x3492>
  203b74:	f850 2c04 	ldr.w	r2, [r0, #-4]
  203b78:	680a      	ldr	r2, [r1, #0]
  203b7a:	f042 0201 	orr.w	r2, r2, #1
  203b7e:	600a      	str	r2, [r1, #0]
  203b80:	680a      	ldr	r2, [r1, #0]
  203b82:	f022 0201 	bic.w	r2, r2, #1
  203b86:	600a      	str	r2, [r1, #0]
  203b88:	2270      	movs	r2, #112	; 0x70
  203b8a:	f840 2c04 	str.w	r2, [r0, #-4]
  203b8e:	6802      	ldr	r2, [r0, #0]
  203b90:	0752      	lsls	r2, r2, #29
  203b92:	d409      	bmi.n	203ba8 <GLCD_Initialize+0x34e0>
  203b94:	6802      	ldr	r2, [r0, #0]
  203b96:	0752      	lsls	r2, r2, #29
  203b98:	bf5c      	itt	pl
  203b9a:	6802      	ldrpl	r2, [r0, #0]
  203b9c:	ea5f 7242 	movspl.w	r2, r2, lsl #29
  203ba0:	d402      	bmi.n	203ba8 <GLCD_Initialize+0x34e0>
  203ba2:	6802      	ldr	r2, [r0, #0]
  203ba4:	0752      	lsls	r2, r2, #29
  203ba6:	d5f2      	bpl.n	203b8e <GLCD_Initialize+0x34c6>
  203ba8:	f850 2c04 	ldr.w	r2, [r0, #-4]
  203bac:	2200      	movs	r2, #0
  203bae:	f840 2c04 	str.w	r2, [r0, #-4]
  203bb2:	6802      	ldr	r2, [r0, #0]
  203bb4:	0752      	lsls	r2, r2, #29
  203bb6:	d409      	bmi.n	203bcc <GLCD_Initialize+0x3504>
  203bb8:	6802      	ldr	r2, [r0, #0]
  203bba:	0752      	lsls	r2, r2, #29
  203bbc:	bf5c      	itt	pl
  203bbe:	6802      	ldrpl	r2, [r0, #0]
  203bc0:	ea5f 7242 	movspl.w	r2, r2, lsl #29
  203bc4:	d402      	bmi.n	203bcc <GLCD_Initialize+0x3504>
  203bc6:	6802      	ldr	r2, [r0, #0]
  203bc8:	0752      	lsls	r2, r2, #29
  203bca:	d5f2      	bpl.n	203bb2 <GLCD_Initialize+0x34ea>
  203bcc:	f850 2c04 	ldr.w	r2, [r0, #-4]
  203bd0:	222f      	movs	r2, #47	; 0x2f
  203bd2:	f840 2c04 	str.w	r2, [r0, #-4]
  203bd6:	6802      	ldr	r2, [r0, #0]
  203bd8:	0752      	lsls	r2, r2, #29
  203bda:	d409      	bmi.n	203bf0 <GLCD_Initialize+0x3528>
  203bdc:	6802      	ldr	r2, [r0, #0]
  203bde:	0752      	lsls	r2, r2, #29
  203be0:	bf5c      	itt	pl
  203be2:	6802      	ldrpl	r2, [r0, #0]
  203be4:	ea5f 7242 	movspl.w	r2, r2, lsl #29
  203be8:	d402      	bmi.n	203bf0 <GLCD_Initialize+0x3528>
  203bea:	6802      	ldr	r2, [r0, #0]
  203bec:	0752      	lsls	r2, r2, #29
  203bee:	d5f2      	bpl.n	203bd6 <GLCD_Initialize+0x350e>
  203bf0:	f850 2c04 	ldr.w	r2, [r0, #-4]
  203bf4:	680a      	ldr	r2, [r1, #0]
  203bf6:	f042 0201 	orr.w	r2, r2, #1
  203bfa:	600a      	str	r2, [r1, #0]
  203bfc:	680a      	ldr	r2, [r1, #0]
  203bfe:	f022 0201 	bic.w	r2, r2, #1
  203c02:	600a      	str	r2, [r1, #0]
  203c04:	2272      	movs	r2, #114	; 0x72
  203c06:	f840 2c04 	str.w	r2, [r0, #-4]
  203c0a:	6802      	ldr	r2, [r0, #0]
  203c0c:	0752      	lsls	r2, r2, #29
  203c0e:	d409      	bmi.n	203c24 <GLCD_Initialize+0x355c>
  203c10:	6802      	ldr	r2, [r0, #0]
  203c12:	0752      	lsls	r2, r2, #29
  203c14:	bf5c      	itt	pl
  203c16:	6802      	ldrpl	r2, [r0, #0]
  203c18:	ea5f 7242 	movspl.w	r2, r2, lsl #29
  203c1c:	d402      	bmi.n	203c24 <GLCD_Initialize+0x355c>
  203c1e:	6802      	ldr	r2, [r0, #0]
  203c20:	0752      	lsls	r2, r2, #29
  203c22:	d5f2      	bpl.n	203c0a <GLCD_Initialize+0x3542>
  203c24:	f850 2c04 	ldr.w	r2, [r0, #-4]
  203c28:	2200      	movs	r2, #0
  203c2a:	f840 2c04 	str.w	r2, [r0, #-4]
  203c2e:	6802      	ldr	r2, [r0, #0]
  203c30:	0752      	lsls	r2, r2, #29
  203c32:	d409      	bmi.n	203c48 <GLCD_Initialize+0x3580>
  203c34:	6802      	ldr	r2, [r0, #0]
  203c36:	0752      	lsls	r2, r2, #29
  203c38:	bf5c      	itt	pl
  203c3a:	6802      	ldrpl	r2, [r0, #0]
  203c3c:	ea5f 7242 	movspl.w	r2, r2, lsl #29
  203c40:	d402      	bmi.n	203c48 <GLCD_Initialize+0x3580>
  203c42:	6802      	ldr	r2, [r0, #0]
  203c44:	0752      	lsls	r2, r2, #29
  203c46:	d5f2      	bpl.n	203c2e <GLCD_Initialize+0x3566>
  203c48:	f850 2c04 	ldr.w	r2, [r0, #-4]
  203c4c:	2211      	movs	r2, #17
  203c4e:	f840 2c04 	str.w	r2, [r0, #-4]
  203c52:	6802      	ldr	r2, [r0, #0]
  203c54:	0752      	lsls	r2, r2, #29
  203c56:	d409      	bmi.n	203c6c <GLCD_Initialize+0x35a4>
  203c58:	6802      	ldr	r2, [r0, #0]
  203c5a:	0752      	lsls	r2, r2, #29
  203c5c:	bf5c      	itt	pl
  203c5e:	6802      	ldrpl	r2, [r0, #0]
  203c60:	ea5f 7242 	movspl.w	r2, r2, lsl #29
  203c64:	d402      	bmi.n	203c6c <GLCD_Initialize+0x35a4>
  203c66:	6802      	ldr	r2, [r0, #0]
  203c68:	0752      	lsls	r2, r2, #29
  203c6a:	d5f2      	bpl.n	203c52 <GLCD_Initialize+0x358a>
  203c6c:	f850 2c04 	ldr.w	r2, [r0, #-4]
  203c70:	680a      	ldr	r2, [r1, #0]
  203c72:	f042 0201 	orr.w	r2, r2, #1
  203c76:	600a      	str	r2, [r1, #0]
  203c78:	680a      	ldr	r2, [r1, #0]
  203c7a:	f022 0201 	bic.w	r2, r2, #1
  203c7e:	600a      	str	r2, [r1, #0]
  203c80:	2270      	movs	r2, #112	; 0x70
  203c82:	f840 2c04 	str.w	r2, [r0, #-4]
  203c86:	6802      	ldr	r2, [r0, #0]
  203c88:	0752      	lsls	r2, r2, #29
  203c8a:	d409      	bmi.n	203ca0 <GLCD_Initialize+0x35d8>
  203c8c:	6802      	ldr	r2, [r0, #0]
  203c8e:	0752      	lsls	r2, r2, #29
  203c90:	bf5c      	itt	pl
  203c92:	6802      	ldrpl	r2, [r0, #0]
  203c94:	ea5f 7242 	movspl.w	r2, r2, lsl #29
  203c98:	d402      	bmi.n	203ca0 <GLCD_Initialize+0x35d8>
  203c9a:	6802      	ldr	r2, [r0, #0]
  203c9c:	0752      	lsls	r2, r2, #29
  203c9e:	d5f2      	bpl.n	203c86 <GLCD_Initialize+0x35be>
  203ca0:	f850 2c04 	ldr.w	r2, [r0, #-4]
  203ca4:	2200      	movs	r2, #0
  203ca6:	f840 2c04 	str.w	r2, [r0, #-4]
  203caa:	6802      	ldr	r2, [r0, #0]
  203cac:	0752      	lsls	r2, r2, #29
  203cae:	d409      	bmi.n	203cc4 <GLCD_Initialize+0x35fc>
  203cb0:	6802      	ldr	r2, [r0, #0]
  203cb2:	0752      	lsls	r2, r2, #29
  203cb4:	bf5c      	itt	pl
  203cb6:	6802      	ldrpl	r2, [r0, #0]
  203cb8:	ea5f 7242 	movspl.w	r2, r2, lsl #29
  203cbc:	d402      	bmi.n	203cc4 <GLCD_Initialize+0x35fc>
  203cbe:	6802      	ldr	r2, [r0, #0]
  203cc0:	0752      	lsls	r2, r2, #29
  203cc2:	d5f2      	bpl.n	203caa <GLCD_Initialize+0x35e2>
  203cc4:	f850 2c04 	ldr.w	r2, [r0, #-4]
  203cc8:	2231      	movs	r2, #49	; 0x31
  203cca:	f840 2c04 	str.w	r2, [r0, #-4]
  203cce:	6802      	ldr	r2, [r0, #0]
  203cd0:	0752      	lsls	r2, r2, #29
  203cd2:	d409      	bmi.n	203ce8 <GLCD_Initialize+0x3620>
  203cd4:	6802      	ldr	r2, [r0, #0]
  203cd6:	0752      	lsls	r2, r2, #29
  203cd8:	bf5c      	itt	pl
  203cda:	6802      	ldrpl	r2, [r0, #0]
  203cdc:	ea5f 7242 	movspl.w	r2, r2, lsl #29
  203ce0:	d402      	bmi.n	203ce8 <GLCD_Initialize+0x3620>
  203ce2:	6802      	ldr	r2, [r0, #0]
  203ce4:	0752      	lsls	r2, r2, #29
  203ce6:	d5f2      	bpl.n	203cce <GLCD_Initialize+0x3606>
  203ce8:	f850 2c04 	ldr.w	r2, [r0, #-4]
  203cec:	680a      	ldr	r2, [r1, #0]
  203cee:	f042 0201 	orr.w	r2, r2, #1
  203cf2:	600a      	str	r2, [r1, #0]
  203cf4:	680a      	ldr	r2, [r1, #0]
  203cf6:	f022 0201 	bic.w	r2, r2, #1
  203cfa:	600a      	str	r2, [r1, #0]
  203cfc:	2272      	movs	r2, #114	; 0x72
  203cfe:	f840 2c04 	str.w	r2, [r0, #-4]
  203d02:	6802      	ldr	r2, [r0, #0]
  203d04:	0752      	lsls	r2, r2, #29
  203d06:	d409      	bmi.n	203d1c <GLCD_Initialize+0x3654>
  203d08:	6802      	ldr	r2, [r0, #0]
  203d0a:	0752      	lsls	r2, r2, #29
  203d0c:	bf5c      	itt	pl
  203d0e:	6802      	ldrpl	r2, [r0, #0]
  203d10:	ea5f 7242 	movspl.w	r2, r2, lsl #29
  203d14:	d402      	bmi.n	203d1c <GLCD_Initialize+0x3654>
  203d16:	6802      	ldr	r2, [r0, #0]
  203d18:	0752      	lsls	r2, r2, #29
  203d1a:	d5f2      	bpl.n	203d02 <GLCD_Initialize+0x363a>
  203d1c:	f850 2c04 	ldr.w	r2, [r0, #-4]
  203d20:	2200      	movs	r2, #0
  203d22:	f840 2c04 	str.w	r2, [r0, #-4]
  203d26:	6802      	ldr	r2, [r0, #0]
  203d28:	0752      	lsls	r2, r2, #29
  203d2a:	d409      	bmi.n	203d40 <GLCD_Initialize+0x3678>
  203d2c:	6802      	ldr	r2, [r0, #0]
  203d2e:	0752      	lsls	r2, r2, #29
  203d30:	bf5c      	itt	pl
  203d32:	6802      	ldrpl	r2, [r0, #0]
  203d34:	ea5f 7242 	movspl.w	r2, r2, lsl #29
  203d38:	d402      	bmi.n	203d40 <GLCD_Initialize+0x3678>
  203d3a:	6802      	ldr	r2, [r0, #0]
  203d3c:	0752      	lsls	r2, r2, #29
  203d3e:	d5f2      	bpl.n	203d26 <GLCD_Initialize+0x365e>
  203d40:	f850 2c04 	ldr.w	r2, [r0, #-4]
  203d44:	2200      	movs	r2, #0
  203d46:	f840 2c04 	str.w	r2, [r0, #-4]
  203d4a:	6802      	ldr	r2, [r0, #0]
  203d4c:	0752      	lsls	r2, r2, #29
  203d4e:	d409      	bmi.n	203d64 <GLCD_Initialize+0x369c>
  203d50:	6802      	ldr	r2, [r0, #0]
  203d52:	0752      	lsls	r2, r2, #29
  203d54:	bf5c      	itt	pl
  203d56:	6802      	ldrpl	r2, [r0, #0]
  203d58:	ea5f 7242 	movspl.w	r2, r2, lsl #29
  203d5c:	d402      	bmi.n	203d64 <GLCD_Initialize+0x369c>
  203d5e:	6802      	ldr	r2, [r0, #0]
  203d60:	0752      	lsls	r2, r2, #29
  203d62:	d5f2      	bpl.n	203d4a <GLCD_Initialize+0x3682>
  203d64:	f850 2c04 	ldr.w	r2, [r0, #-4]
  203d68:	680a      	ldr	r2, [r1, #0]
  203d6a:	f042 0201 	orr.w	r2, r2, #1
  203d6e:	600a      	str	r2, [r1, #0]
  203d70:	680a      	ldr	r2, [r1, #0]
  203d72:	f022 0201 	bic.w	r2, r2, #1
  203d76:	600a      	str	r2, [r1, #0]
  203d78:	2270      	movs	r2, #112	; 0x70
  203d7a:	f840 2c04 	str.w	r2, [r0, #-4]
  203d7e:	6802      	ldr	r2, [r0, #0]
  203d80:	0752      	lsls	r2, r2, #29
  203d82:	d409      	bmi.n	203d98 <GLCD_Initialize+0x36d0>
  203d84:	6802      	ldr	r2, [r0, #0]
  203d86:	0752      	lsls	r2, r2, #29
  203d88:	bf5c      	itt	pl
  203d8a:	6802      	ldrpl	r2, [r0, #0]
  203d8c:	ea5f 7242 	movspl.w	r2, r2, lsl #29
  203d90:	d402      	bmi.n	203d98 <GLCD_Initialize+0x36d0>
